   1              		.syntax unified
   2              		.cpu cortex-m4
   3              		.eabi_attribute 27, 1
   4              		.fpu fpv4-sp-d16
   5              		.eabi_attribute 20, 1
   6              		.eabi_attribute 21, 1
   7              		.eabi_attribute 23, 3
   8              		.eabi_attribute 24, 1
   9              		.eabi_attribute 25, 1
  10              		.eabi_attribute 26, 1
  11              		.eabi_attribute 30, 4
  12              		.eabi_attribute 34, 1
  13              		.eabi_attribute 18, 4
  14              		.thumb
  15              		.file	"autopilot.c"
  16              		.text
  17              	.Ltext0:
  18              		.cfi_sections	.debug_frame
  19              		.section	.text.send_airspeed,"ax",%progbits
  20              		.align	1
  21              		.thumb
  22              		.thumb_func
  24              	send_airspeed:
  25              	.LFB469:
  26              		.file 1 "firmwares/fixedwing/autopilot.c"
   1:firmwares/fixedwing/autopilot.c **** /*
   2:firmwares/fixedwing/autopilot.c ****  * Copyright (C) 2012 Gautier Hattenberger
   3:firmwares/fixedwing/autopilot.c ****  *
   4:firmwares/fixedwing/autopilot.c ****  * This file is part of paparazzi.
   5:firmwares/fixedwing/autopilot.c ****  *
   6:firmwares/fixedwing/autopilot.c ****  * paparazzi is free software; you can redistribute it and/or modify
   7:firmwares/fixedwing/autopilot.c ****  * it under the terms of the GNU General Public License as published by
   8:firmwares/fixedwing/autopilot.c ****  * the Free Software Foundation; either version 2, or (at your option)
   9:firmwares/fixedwing/autopilot.c ****  * any later version.
  10:firmwares/fixedwing/autopilot.c ****  *
  11:firmwares/fixedwing/autopilot.c ****  * paparazzi is distributed in the hope that it will be useful,
  12:firmwares/fixedwing/autopilot.c ****  * but WITHOUT ANY WARRANTY; without even the implied warranty of
  13:firmwares/fixedwing/autopilot.c ****  * MERCHANTABILITY or FITNESS FOR A PARTICULAR PURPOSE.  See the
  14:firmwares/fixedwing/autopilot.c ****  * GNU General Public License for more details.
  15:firmwares/fixedwing/autopilot.c ****  *
  16:firmwares/fixedwing/autopilot.c ****  * You should have received a copy of the GNU General Public License
  17:firmwares/fixedwing/autopilot.c ****  * along with paparazzi; see the file COPYING.  If not, write to
  18:firmwares/fixedwing/autopilot.c ****  * the Free Software Foundation, 59 Temple Place - Suite 330,
  19:firmwares/fixedwing/autopilot.c ****  * Boston, MA 02111-1307, USA.
  20:firmwares/fixedwing/autopilot.c ****  */
  21:firmwares/fixedwing/autopilot.c **** 
  22:firmwares/fixedwing/autopilot.c **** /**
  23:firmwares/fixedwing/autopilot.c ****  * @file firmwares/fixedwing/autopilot.c
  24:firmwares/fixedwing/autopilot.c ****  *
  25:firmwares/fixedwing/autopilot.c ****  * Fixedwing autopilot inititalization.
  26:firmwares/fixedwing/autopilot.c ****  *
  27:firmwares/fixedwing/autopilot.c ****  */
  28:firmwares/fixedwing/autopilot.c **** 
  29:firmwares/fixedwing/autopilot.c **** #include "firmwares/fixedwing/autopilot.h"
  30:firmwares/fixedwing/autopilot.c **** 
  31:firmwares/fixedwing/autopilot.c **** #include "state.h"
  32:firmwares/fixedwing/autopilot.c **** #include "firmwares/fixedwing/nav.h"
  33:firmwares/fixedwing/autopilot.c **** 
  34:firmwares/fixedwing/autopilot.c **** #ifdef POWER_SWITCH_GPIO
  35:firmwares/fixedwing/autopilot.c **** #include "mcu_periph/gpio.h"
  36:firmwares/fixedwing/autopilot.c **** #endif
  37:firmwares/fixedwing/autopilot.c **** 
  38:firmwares/fixedwing/autopilot.c **** #include "pprz_version.h"
  39:firmwares/fixedwing/autopilot.c **** 
  40:firmwares/fixedwing/autopilot.c **** uint8_t pprz_mode;
  41:firmwares/fixedwing/autopilot.c **** bool_t kill_throttle;
  42:firmwares/fixedwing/autopilot.c **** uint8_t  mcu1_status;
  43:firmwares/fixedwing/autopilot.c **** 
  44:firmwares/fixedwing/autopilot.c **** bool_t launch;
  45:firmwares/fixedwing/autopilot.c **** 
  46:firmwares/fixedwing/autopilot.c **** /** flight time in seconds. */
  47:firmwares/fixedwing/autopilot.c **** uint16_t autopilot_flight_time;
  48:firmwares/fixedwing/autopilot.c **** 
  49:firmwares/fixedwing/autopilot.c **** uint8_t lateral_mode;
  50:firmwares/fixedwing/autopilot.c **** 
  51:firmwares/fixedwing/autopilot.c **** uint16_t vsupply;
  52:firmwares/fixedwing/autopilot.c **** int32_t current;
  53:firmwares/fixedwing/autopilot.c **** float energy;
  54:firmwares/fixedwing/autopilot.c **** 
  55:firmwares/fixedwing/autopilot.c **** bool_t gps_lost;
  56:firmwares/fixedwing/autopilot.c **** 
  57:firmwares/fixedwing/autopilot.c **** bool_t power_switch;
  58:firmwares/fixedwing/autopilot.c **** 
  59:firmwares/fixedwing/autopilot.c **** #if PERIODIC_TELEMETRY
  60:firmwares/fixedwing/autopilot.c **** #include "subsystems/datalink/telemetry.h"
  61:firmwares/fixedwing/autopilot.c **** #include "generated/settings.h"
  62:firmwares/fixedwing/autopilot.c **** 
  63:firmwares/fixedwing/autopilot.c **** void send_autopilot_version(struct transport_tx *trans, struct link_device *dev)
  64:firmwares/fixedwing/autopilot.c **** {
  65:firmwares/fixedwing/autopilot.c ****   static uint32_t ap_version = PPRZ_VERSION_INT;
  66:firmwares/fixedwing/autopilot.c ****   static char *ver_desc = PPRZ_VERSION_DESC;
  67:firmwares/fixedwing/autopilot.c ****   pprz_msg_send_AUTOPILOT_VERSION(trans, dev, AC_ID, &ap_version, strlen(ver_desc), ver_desc);
  68:firmwares/fixedwing/autopilot.c **** }
  69:firmwares/fixedwing/autopilot.c **** 
  70:firmwares/fixedwing/autopilot.c **** static void send_alive(struct transport_tx *trans, struct link_device *dev)
  71:firmwares/fixedwing/autopilot.c **** {
  72:firmwares/fixedwing/autopilot.c ****   pprz_msg_send_ALIVE(trans, dev, AC_ID, 16, MD5SUM);
  73:firmwares/fixedwing/autopilot.c **** }
  74:firmwares/fixedwing/autopilot.c **** 
  75:firmwares/fixedwing/autopilot.c **** #if defined RADIO_CALIB && defined RADIO_CONTROL_SETTINGS
  76:firmwares/fixedwing/autopilot.c **** #include "rc_settings.h"
  77:firmwares/fixedwing/autopilot.c **** static void send_rc_settings(struct transport_tx *trans, struct link_device *dev)
  78:firmwares/fixedwing/autopilot.c **** {
  79:firmwares/fixedwing/autopilot.c ****   if (!RcSettingsOff()) {
  80:firmwares/fixedwing/autopilot.c ****     pprz_msg_send_SETTINGS(trans, dev, AC_ID, &slider_1_val, &slider_2_val);
  81:firmwares/fixedwing/autopilot.c ****   }
  82:firmwares/fixedwing/autopilot.c **** }
  83:firmwares/fixedwing/autopilot.c **** #else
  84:firmwares/fixedwing/autopilot.c **** uint8_t rc_settings_mode = 0;
  85:firmwares/fixedwing/autopilot.c **** #endif
  86:firmwares/fixedwing/autopilot.c **** 
  87:firmwares/fixedwing/autopilot.c **** static void send_mode(struct transport_tx *trans, struct link_device *dev)
  88:firmwares/fixedwing/autopilot.c **** {
  89:firmwares/fixedwing/autopilot.c ****   pprz_msg_send_PPRZ_MODE(trans, dev, AC_ID,
  90:firmwares/fixedwing/autopilot.c ****                           &pprz_mode, &v_ctl_mode, &lateral_mode, &horizontal_mode, &rc_settings_mo
  91:firmwares/fixedwing/autopilot.c **** }
  92:firmwares/fixedwing/autopilot.c **** 
  93:firmwares/fixedwing/autopilot.c **** static void send_attitude(struct transport_tx *trans, struct link_device *dev)
  94:firmwares/fixedwing/autopilot.c **** {
  95:firmwares/fixedwing/autopilot.c ****   struct FloatEulers *att = stateGetNedToBodyEulers_f();
  96:firmwares/fixedwing/autopilot.c ****   pprz_msg_send_ATTITUDE(trans, dev, AC_ID,
  97:firmwares/fixedwing/autopilot.c ****                          &(att->phi), &(att->psi), &(att->theta));
  98:firmwares/fixedwing/autopilot.c **** };
  99:firmwares/fixedwing/autopilot.c **** 
 100:firmwares/fixedwing/autopilot.c **** static void send_estimator(struct transport_tx *trans, struct link_device *dev)
 101:firmwares/fixedwing/autopilot.c **** {
 102:firmwares/fixedwing/autopilot.c ****   pprz_msg_send_ESTIMATOR(trans, dev, AC_ID,
 103:firmwares/fixedwing/autopilot.c ****                           &(stateGetPositionUtm_f()->alt), &(stateGetSpeedEnu_f()->z));
 104:firmwares/fixedwing/autopilot.c **** }
 105:firmwares/fixedwing/autopilot.c **** 
 106:firmwares/fixedwing/autopilot.c **** static void send_bat(struct transport_tx *trans, struct link_device *dev)
 107:firmwares/fixedwing/autopilot.c **** {
 108:firmwares/fixedwing/autopilot.c ****   int16_t amps = (int16_t)(current / 10);
 109:firmwares/fixedwing/autopilot.c ****   int16_t e = energy;
 110:firmwares/fixedwing/autopilot.c ****   pprz_msg_send_BAT(trans, dev, AC_ID,
 111:firmwares/fixedwing/autopilot.c ****                     &v_ctl_throttle_slewed, &vsupply, &amps,
 112:firmwares/fixedwing/autopilot.c ****                     &autopilot_flight_time, (uint8_t *)(&kill_throttle),
 113:firmwares/fixedwing/autopilot.c ****                     &block_time, &stage_time, &e);
 114:firmwares/fixedwing/autopilot.c **** }
 115:firmwares/fixedwing/autopilot.c **** 
 116:firmwares/fixedwing/autopilot.c **** static void send_energy(struct transport_tx *trans, struct link_device *dev)
 117:firmwares/fixedwing/autopilot.c **** {
 118:firmwares/fixedwing/autopilot.c ****   uint16_t e = energy;
 119:firmwares/fixedwing/autopilot.c ****   float vsup = ((float)vsupply) / 10.0f;
 120:firmwares/fixedwing/autopilot.c ****   float curs = ((float)current) / 1000.0f;
 121:firmwares/fixedwing/autopilot.c ****   float power = vsup * curs;
 122:firmwares/fixedwing/autopilot.c ****   pprz_msg_send_ENERGY(trans, dev, AC_ID, &vsup, &curs, &e, &power);
 123:firmwares/fixedwing/autopilot.c **** }
 124:firmwares/fixedwing/autopilot.c **** 
 125:firmwares/fixedwing/autopilot.c **** static void send_dl_value(struct transport_tx *trans, struct link_device *dev)
 126:firmwares/fixedwing/autopilot.c **** {
 127:firmwares/fixedwing/autopilot.c ****   PeriodicSendDlValue(trans, dev);
 128:firmwares/fixedwing/autopilot.c **** }
 129:firmwares/fixedwing/autopilot.c **** 
 130:firmwares/fixedwing/autopilot.c **** // FIXME not the best place
 131:firmwares/fixedwing/autopilot.c **** #include "firmwares/fixedwing/stabilization/stabilization_attitude.h"
 132:firmwares/fixedwing/autopilot.c **** #include CTRL_TYPE_H
 133:firmwares/fixedwing/autopilot.c **** static void send_desired(struct transport_tx *trans, struct link_device *dev)
 134:firmwares/fixedwing/autopilot.c **** {
 135:firmwares/fixedwing/autopilot.c **** #ifndef USE_AIRSPEED
 136:firmwares/fixedwing/autopilot.c ****   float v_ctl_auto_airspeed_setpoint = NOMINAL_AIRSPEED;
 137:firmwares/fixedwing/autopilot.c **** #endif
 138:firmwares/fixedwing/autopilot.c ****   pprz_msg_send_DESIRED(trans, dev, AC_ID,
 139:firmwares/fixedwing/autopilot.c ****                         &h_ctl_roll_setpoint, &h_ctl_pitch_loop_setpoint, &h_ctl_course_setpoint,
 140:firmwares/fixedwing/autopilot.c ****                         &desired_x, &desired_y, &v_ctl_altitude_setpoint, &v_ctl_climb_setpoint,
 141:firmwares/fixedwing/autopilot.c ****                         &v_ctl_auto_airspeed_setpoint);
 142:firmwares/fixedwing/autopilot.c **** }
 143:firmwares/fixedwing/autopilot.c **** 
 144:firmwares/fixedwing/autopilot.c **** static void send_airspeed(struct transport_tx *trans __attribute__((unused)),
 145:firmwares/fixedwing/autopilot.c ****                           struct link_device *dev __attribute__((unused)))
 146:firmwares/fixedwing/autopilot.c **** {
  27              		.loc 1 146 0
  28              		.cfi_startproc
  29              		@ args = 0, pretend = 0, frame = 8
  30              		@ frame_needed = 0, uses_anonymous_args = 0
  31              	.LVL0:
  32 0000 2DE9FF41 		push	{r0, r1, r2, r3, r4, r5, r6, r7, r8, lr}
  33              		.cfi_def_cfa_offset 40
  34              		.cfi_offset 4, -24
  35              		.cfi_offset 5, -20
  36              		.cfi_offset 6, -16
  37              		.cfi_offset 7, -12
  38              		.cfi_offset 8, -8
  39              		.cfi_offset 14, -4
 147:firmwares/fixedwing/autopilot.c **** #if USE_AIRSPEED
 148:firmwares/fixedwing/autopilot.c ****   pprz_msg_send_AIRSPEED(trans, dev, AC_ID,
 149:firmwares/fixedwing/autopilot.c ****                          stateGetAirspeed_f(), &v_ctl_auto_airspeed_setpoint,
 150:firmwares/fixedwing/autopilot.c ****                          &v_ctl_auto_airspeed_controlled, &v_ctl_auto_groundspeed_setpoint);
 151:firmwares/fixedwing/autopilot.c **** #else
 152:firmwares/fixedwing/autopilot.c ****   float zero = 0;
  40              		.loc 1 152 0
  41 0004 0023     		movs	r3, #0
  42 0006 0393     		str	r3, [sp, #12]	@ float
  43              	.LBB6:
  44              	.LBB7:
  45              		.file 2 "./state.h"
   1:./state.h     **** /*
   2:./state.h     ****  * Copyright (C) 2011-2012 Felix Ruess <felix.ruess@gmail.com>
   3:./state.h     ****  *
   4:./state.h     ****  * This file is part of paparazzi.
   5:./state.h     ****  *
   6:./state.h     ****  * paparazzi is free software; you can redistribute it and/or modify
   7:./state.h     ****  * it under the terms of the GNU General Public License as published by
   8:./state.h     ****  * the Free Software Foundation; either version 2, or (at your option)
   9:./state.h     ****  * any later version.
  10:./state.h     ****  *
  11:./state.h     ****  * paparazzi is distributed in the hope that it will be useful,
  12:./state.h     ****  * but WITHOUT ANY WARRANTY; without even the implied warranty of
  13:./state.h     ****  * MERCHANTABILITY or FITNESS FOR A PARTICULAR PURPOSE.  See the
  14:./state.h     ****  * GNU General Public License for more details.
  15:./state.h     ****  *
  16:./state.h     ****  * You should have received a copy of the GNU General Public License
  17:./state.h     ****  * along with paparazzi; see the file COPYING.  If not, see
  18:./state.h     ****  * <http://www.gnu.org/licenses/>.
  19:./state.h     ****  */
  20:./state.h     **** 
  21:./state.h     **** /**
  22:./state.h     ****  * @file state.h
  23:./state.h     ****  *
  24:./state.h     ****  * API to get/set the generic vehicle states.
  25:./state.h     ****  *
  26:./state.h     ****  * Also see the @ref state_interface "State Interface" page.
  27:./state.h     ****  *
  28:./state.h     ****  * @author Felix Ruess <felix.ruess@gmail.com>
  29:./state.h     ****  */
  30:./state.h     **** 
  31:./state.h     **** #ifndef STATE_H
  32:./state.h     **** #define STATE_H
  33:./state.h     **** 
  34:./state.h     **** #include "math/pprz_algebra_int.h"
  35:./state.h     **** #include "math/pprz_algebra_float.h"
  36:./state.h     **** #include "math/pprz_geodetic_int.h"
  37:./state.h     **** #include "math/pprz_geodetic_float.h"
  38:./state.h     **** #include "math/pprz_orientation_conversion.h"
  39:./state.h     **** 
  40:./state.h     **** #include "std.h"
  41:./state.h     **** #include <string.h>
  42:./state.h     **** 
  43:./state.h     **** /**
  44:./state.h     ****  * This general state interface holds all the most important vehicle states like
  45:./state.h     ****  * position, velocity, attitude, etc. It handles coordinate system and
  46:./state.h     ****  * fixed-/floating-point conversion on the fly when needed.
  47:./state.h     ****  *
  48:./state.h     ****  * You can set e.g. the position in any coordinate system you wish:
  49:./state.h     ****  * stateSetPositionNed_i() to set the position in fixed-point NED coordinates.
  50:./state.h     ****  * If you need to read the position somewhere else in a different representation,
  51:./state.h     ****  * call: stateGetPositionLla_f() and only then the LLA float position representation
  52:./state.h     ****  * is calculated on the fly and returned. It's also only calculated once,
  53:./state.h     ****  * until a new position is set which invalidates all the other representations again.
  54:./state.h     ****  */
  55:./state.h     **** 
  56:./state.h     **** /**
  57:./state.h     ****  * @defgroup state_interface State interface
  58:./state.h     ****  * @{
  59:./state.h     ****  */
  60:./state.h     **** 
  61:./state.h     **** /**
  62:./state.h     ****  * @defgroup state_position Position representations
  63:./state.h     ****  * @{
  64:./state.h     ****  */
  65:./state.h     **** #define POS_ECEF_I 0
  66:./state.h     **** #define POS_NED_I  1
  67:./state.h     **** #define POS_ENU_I  2
  68:./state.h     **** #define POS_LLA_I  3
  69:./state.h     **** #define POS_UTM_I  4
  70:./state.h     **** #define POS_ECEF_F 5
  71:./state.h     **** #define POS_NED_F  6
  72:./state.h     **** #define POS_ENU_F  7
  73:./state.h     **** #define POS_LLA_F  8
  74:./state.h     **** #define POS_UTM_F  9
  75:./state.h     **** #define POS_LOCAL_COORD ((1<<POS_NED_I)|(1<<POS_NED_F)|(1<<POS_ENU_I)|(1<<POS_ENU_F))
  76:./state.h     **** #define POS_GLOBAL_COORD ((1<<POS_ECEF_I)|(1<<POS_ECEF_F)|(1<<POS_LLA_I)|(1<<POS_LLA_F)|(1<<POS_UTM
  77:./state.h     **** /**@}*/
  78:./state.h     **** 
  79:./state.h     **** /**
  80:./state.h     ****  * @defgroup state_velocity Speed representations
  81:./state.h     ****  * @{
  82:./state.h     ****  */
  83:./state.h     **** #define SPEED_ECEF_I  0
  84:./state.h     **** #define SPEED_NED_I   1
  85:./state.h     **** #define SPEED_ENU_I   2
  86:./state.h     **** #define SPEED_HNORM_I 3
  87:./state.h     **** #define SPEED_HDIR_I  4
  88:./state.h     **** #define SPEED_ECEF_F  5
  89:./state.h     **** #define SPEED_NED_F   6
  90:./state.h     **** #define SPEED_ENU_F   7
  91:./state.h     **** #define SPEED_HNORM_F 8
  92:./state.h     **** #define SPEED_HDIR_F  9
  93:./state.h     **** #define SPEED_LOCAL_COORD ((1<<SPEED_NED_I)|(1<<SPEED_ENU_I)|(1<<SPEED_NED_F)|(1<<SPEED_ENU_F))
  94:./state.h     **** /**@}*/
  95:./state.h     **** 
  96:./state.h     **** /**
  97:./state.h     ****  * @defgroup state_acceleration Acceleration representations
  98:./state.h     ****  * @{
  99:./state.h     ****  */
 100:./state.h     **** #define ACCEL_ECEF_I 0
 101:./state.h     **** #define ACCEL_NED_I  1
 102:./state.h     **** #define ACCEL_ECEF_F 2
 103:./state.h     **** #define ACCEL_NED_F  3
 104:./state.h     **** /**@}*/
 105:./state.h     **** 
 106:./state.h     **** /**
 107:./state.h     ****  * @defgroup state_rate Angular rate representations
 108:./state.h     ****  * @{
 109:./state.h     ****  */
 110:./state.h     **** #define RATE_I 0
 111:./state.h     **** #define RATE_F 1
 112:./state.h     **** /**@}*/
 113:./state.h     **** 
 114:./state.h     **** /**
 115:./state.h     ****  * @defgroup state_wind_airspeed Wind- and airspeed representations
 116:./state.h     ****  * @{
 117:./state.h     ****  */
 118:./state.h     **** #define WINDSPEED_I 0
 119:./state.h     **** #define AIRSPEED_I  1
 120:./state.h     **** #define WINDSPEED_F 2
 121:./state.h     **** #define AIRSPEED_F  3
 122:./state.h     **** #define AOA_F       4
 123:./state.h     **** #define SIDESLIP_F  5
 124:./state.h     **** /**@}*/
 125:./state.h     **** 
 126:./state.h     **** 
 127:./state.h     **** /**
 128:./state.h     ****  * Structure holding vehicle state data.
 129:./state.h     ****  */
 130:./state.h     **** struct State {
 131:./state.h     **** 
 132:./state.h     ****   /** @addtogroup state_position
 133:./state.h     ****    *  @{ */
 134:./state.h     **** 
 135:./state.h     ****   /**
 136:./state.h     ****    * Holds the status bits for all position representations.
 137:./state.h     ****    * When the corresponding bit is set the representation
 138:./state.h     ****    * is already computed.
 139:./state.h     ****    */
 140:./state.h     ****   uint16_t pos_status;
 141:./state.h     **** 
 142:./state.h     ****   /**
 143:./state.h     ****    * Position in EarthCenteredEarthFixed coordinates.
 144:./state.h     ****    * Units: centimeters
 145:./state.h     ****    */
 146:./state.h     ****   struct EcefCoor_i ecef_pos_i;
 147:./state.h     **** 
 148:./state.h     ****   /**
 149:./state.h     ****    * Position in Latitude, Longitude and Altitude.
 150:./state.h     ****    * Units lat,lon: degrees*1e7
 151:./state.h     ****    * Units alt: milimeters above reference ellipsoid
 152:./state.h     ****    */
 153:./state.h     ****   struct LlaCoor_i lla_pos_i;
 154:./state.h     **** 
 155:./state.h     ****   /**
 156:./state.h     ****    * Definition of the local (flat earth) coordinate system.
 157:./state.h     ****    * Defines the origin of the local NorthEastDown coordinate system
 158:./state.h     ****    * in ECEF (EarthCenteredEarthFixed) and LLA (LatitudeLongitudeAlt)
 159:./state.h     ****    * coordinates and the roation matrix from ECEF to local frame.
 160:./state.h     ****    * (int version)
 161:./state.h     ****    */
 162:./state.h     ****   struct LtpDef_i ned_origin_i;
 163:./state.h     **** 
 164:./state.h     ****   /**
 165:./state.h     ****    * true if local int coordinate frame is initialsed
 166:./state.h     ****    */
 167:./state.h     ****   bool_t ned_initialized_i;
 168:./state.h     **** 
 169:./state.h     ****   /**
 170:./state.h     ****    * Position in North East Down coordinates.
 171:./state.h     ****    * with respect to ned_origin_i (flat earth)
 172:./state.h     ****    * Units: m in BFP with INT32_POS_FRAC
 173:./state.h     ****    */
 174:./state.h     ****   struct NedCoor_i ned_pos_i;
 175:./state.h     **** 
 176:./state.h     ****   /**
 177:./state.h     ****    * Position in East North Up coordinates.
 178:./state.h     ****    * with respect to ned_origin_i (flat earth)
 179:./state.h     ****    * Units: m in BFP with INT32_POS_FRAC
 180:./state.h     ****    */
 181:./state.h     ****   struct EnuCoor_i enu_pos_i;
 182:./state.h     **** 
 183:./state.h     ****   /**
 184:./state.h     ****    * Position in UTM coordinates.
 185:./state.h     ****    * Units x,y: meters.
 186:./state.h     ****    * Units z: meters above MSL
 187:./state.h     ****    */
 188:./state.h     ****   struct UtmCoor_f utm_pos_f;
 189:./state.h     **** 
 190:./state.h     ****   /**
 191:./state.h     ****    * Altitude above ground level.
 192:./state.h     ****    * Unit: meters
 193:./state.h     ****    */
 194:./state.h     ****   float alt_agl_f;
 195:./state.h     **** 
 196:./state.h     ****   /**
 197:./state.h     ****    * Position in Latitude, Longitude and Altitude.
 198:./state.h     ****    * Units lat,lon: radians
 199:./state.h     ****    * Units alt: meters above reference ellipsoid
 200:./state.h     ****    */
 201:./state.h     ****   struct LlaCoor_f lla_pos_f;
 202:./state.h     **** 
 203:./state.h     ****   /**
 204:./state.h     ****    * Position in EarthCenteredEarthFixed coordinates.
 205:./state.h     ****    * Units: meters
 206:./state.h     ****    */
 207:./state.h     ****   struct EcefCoor_f ecef_pos_f;
 208:./state.h     **** 
 209:./state.h     ****   /**
 210:./state.h     ****    * Definition of the local (flat earth) coordinate system.
 211:./state.h     ****    * Defines the origin of the local NorthEastDown coordinate system
 212:./state.h     ****    * in ECEF (EarthCenteredEarthFixed) and LLA (LatitudeLongitudeAlt)
 213:./state.h     ****    * coordinates and the roation matrix from ECEF to local frame.
 214:./state.h     ****    * (float version)
 215:./state.h     ****    */
 216:./state.h     ****   struct LtpDef_f ned_origin_f;
 217:./state.h     **** 
 218:./state.h     ****   /// True if local float coordinate frame is initialsed
 219:./state.h     ****   bool_t ned_initialized_f;
 220:./state.h     **** 
 221:./state.h     ****   /**
 222:./state.h     ****    * Definition of the origin of Utm coordinate system.
 223:./state.h     ****    * Defines the origin of the local NorthEastDown coordinate system
 224:./state.h     ****    * in UTM coordinates, used as a reference when ned_origin is not
 225:./state.h     ****    * initialized.
 226:./state.h     ****    * (float version)
 227:./state.h     ****    */
 228:./state.h     ****   struct UtmCoor_f utm_origin_f;
 229:./state.h     **** 
 230:./state.h     ****   /// True if utm origin (float) coordinate frame is initialsed
 231:./state.h     ****   bool_t utm_initialized_f;
 232:./state.h     **** 
 233:./state.h     ****   /**
 234:./state.h     ****    * Position in North East Down coordinates.
 235:./state.h     ****    * with respect to ned_origin_i (flat earth)
 236:./state.h     ****    * Units: meters
 237:./state.h     ****    */
 238:./state.h     ****   struct NedCoor_f ned_pos_f;
 239:./state.h     **** 
 240:./state.h     ****   /**
 241:./state.h     ****    * Position in East North Up coordinates.
 242:./state.h     ****    * with respect to ned_origin_i (flat earth)
 243:./state.h     ****    * Units: meters
 244:./state.h     ****    */
 245:./state.h     ****   struct EnuCoor_f enu_pos_f;
 246:./state.h     ****   /** @}*/
 247:./state.h     **** 
 248:./state.h     **** 
 249:./state.h     ****   /** @addtogroup state_velocity
 250:./state.h     ****    *  @{ */
 251:./state.h     ****   /**
 252:./state.h     ****    * Holds the status bits for all ground speed representations.
 253:./state.h     ****    * When the corresponding bit is one the representation
 254:./state.h     ****    * is already computed.
 255:./state.h     ****    */
 256:./state.h     ****   uint16_t speed_status;
 257:./state.h     **** 
 258:./state.h     ****   /**
 259:./state.h     ****    * Velocity in EarthCenteredEarthFixed coordinates.
 260:./state.h     ****    * Units: m/s in BFP with #INT32_SPEED_FRAC
 261:./state.h     ****    */
 262:./state.h     ****   struct EcefCoor_i ecef_speed_i;
 263:./state.h     **** 
 264:./state.h     ****   /**
 265:./state.h     ****    * Velocity in North East Down coordinates.
 266:./state.h     ****    * Units: m/s in BFP with #INT32_SPEED_FRAC
 267:./state.h     ****    */
 268:./state.h     ****   struct NedCoor_i ned_speed_i;
 269:./state.h     **** 
 270:./state.h     ****   /**
 271:./state.h     ****    * Velocity in East North Up coordinates.
 272:./state.h     ****    * Units: m/s in BFP with #INT32_SPEED_FRAC
 273:./state.h     ****    */
 274:./state.h     ****   struct EnuCoor_i enu_speed_i;
 275:./state.h     **** 
 276:./state.h     ****   /**
 277:./state.h     ****    * Norm of horizontal ground speed.
 278:./state.h     ****    * Unit: m/s in BFP with #INT32_SPEED_FRAC
 279:./state.h     ****    */
 280:./state.h     ****   uint32_t h_speed_norm_i;
 281:./state.h     **** 
 282:./state.h     ****   /**
 283:./state.h     ****    * Direction of horizontal ground speed.
 284:./state.h     ****    * Unit: rad in BFP with #INT32_ANGLE_FRAC
 285:./state.h     ****    * (clockwise, zero=north)
 286:./state.h     ****    */
 287:./state.h     ****   int32_t h_speed_dir_i;
 288:./state.h     **** 
 289:./state.h     ****   /**
 290:./state.h     ****    * Velocity in EarthCenteredEarthFixed coordinates.
 291:./state.h     ****    * Units: m/s
 292:./state.h     ****    */
 293:./state.h     ****   struct EcefCoor_f ecef_speed_f;
 294:./state.h     **** 
 295:./state.h     ****   /**
 296:./state.h     ****    * @brief speed in North East Down coordinates
 297:./state.h     ****    * @details Units: m/s */
 298:./state.h     ****   struct NedCoor_f ned_speed_f;
 299:./state.h     **** 
 300:./state.h     ****   /**
 301:./state.h     ****    * Velocity in East North Up coordinates.
 302:./state.h     ****    * Units: m/s
 303:./state.h     ****    */
 304:./state.h     ****   struct EnuCoor_f enu_speed_f;
 305:./state.h     **** 
 306:./state.h     ****   /**
 307:./state.h     ****    * Norm of horizontal ground speed.
 308:./state.h     ****    * Unit: m/s
 309:./state.h     ****    */
 310:./state.h     ****   float h_speed_norm_f;
 311:./state.h     **** 
 312:./state.h     ****   /**
 313:./state.h     ****    * Direction of horizontal ground speed.
 314:./state.h     ****    * Unit: rad (clockwise, zero=north)
 315:./state.h     ****    */
 316:./state.h     ****   float h_speed_dir_f;
 317:./state.h     ****   /** @}*/
 318:./state.h     **** 
 319:./state.h     **** 
 320:./state.h     ****   /** @addtogroup state_acceleration
 321:./state.h     ****    *  @{ */
 322:./state.h     ****   /**
 323:./state.h     ****    * Holds the status bits for all acceleration representations.
 324:./state.h     ****    * When the corresponding bit is one the representation
 325:./state.h     ****    * is already computed.
 326:./state.h     ****    */
 327:./state.h     ****   uint8_t accel_status;
 328:./state.h     **** 
 329:./state.h     ****   /**
 330:./state.h     ****    * Acceleration in North East Down coordinates.
 331:./state.h     ****    * Units: m/s^2 in BFP with #INT32_ACCEL_FRAC
 332:./state.h     ****    */
 333:./state.h     ****   struct NedCoor_i ned_accel_i;
 334:./state.h     **** 
 335:./state.h     ****   /**
 336:./state.h     ****    * Acceleration in EarthCenteredEarthFixed coordinates.
 337:./state.h     ****    * Units: m/s^2 in BFP with INT32_ACCEL_FRAC
 338:./state.h     ****    */
 339:./state.h     ****   struct EcefCoor_i ecef_accel_i;
 340:./state.h     **** 
 341:./state.h     ****   /**
 342:./state.h     ****    * Acceleration in North East Down coordinates.
 343:./state.h     ****    * Units: m/s^2
 344:./state.h     ****    */
 345:./state.h     ****   struct NedCoor_f ned_accel_f;
 346:./state.h     **** 
 347:./state.h     ****   /**
 348:./state.h     ****    * Acceleration in EarthCenteredEarthFixed coordinates.
 349:./state.h     ****    * Units: m/s^2
 350:./state.h     ****    */
 351:./state.h     ****   struct EcefCoor_f ecef_accel_f;
 352:./state.h     ****   /** @}*/
 353:./state.h     **** 
 354:./state.h     **** 
 355:./state.h     ****   /** @defgroup state_attitude Attitude representations
 356:./state.h     ****    */
 357:./state.h     ****   struct OrientationReps ned_to_body_orientation;
 358:./state.h     **** 
 359:./state.h     **** 
 360:./state.h     ****   /** @addtogroup state_rate
 361:./state.h     ****    *  @{ */
 362:./state.h     ****   /**
 363:./state.h     ****    * Holds the status bits for all angular rate representations.
 364:./state.h     ****    * When the corresponding bit is one the representation
 365:./state.h     ****    * is already computed.
 366:./state.h     ****    */
 367:./state.h     ****   uint8_t rate_status;
 368:./state.h     **** 
 369:./state.h     ****   /**
 370:./state.h     ****    * Angular rates in body frame.
 371:./state.h     ****    * Units: rad/s in BFP with #INT32_RATE_FRAC
 372:./state.h     ****    */
 373:./state.h     ****   struct Int32Rates  body_rates_i;
 374:./state.h     **** 
 375:./state.h     ****   /**
 376:./state.h     ****    * Angular rates in body frame.
 377:./state.h     ****    * Units: rad/s
 378:./state.h     ****    */
 379:./state.h     ****   struct FloatRates  body_rates_f;
 380:./state.h     ****   /** @}*/
 381:./state.h     **** 
 382:./state.h     **** 
 383:./state.h     ****   /** @addtogroup state_wind_airspeed
 384:./state.h     ****    *  @{ */
 385:./state.h     ****   /**
 386:./state.h     ****    * Holds the status bits for all wind- and airspeed representations.
 387:./state.h     ****    * When the corresponding bit is one the representation
 388:./state.h     ****    * is already computed.
 389:./state.h     ****    */
 390:./state.h     ****   uint8_t wind_air_status;
 391:./state.h     **** 
 392:./state.h     ****   /**
 393:./state.h     ****    * Horizontal windspeed in north/east.
 394:./state.h     ****    * Units: m/s in BFP with #INT32_SPEED_FRAC
 395:./state.h     ****    */
 396:./state.h     ****   struct Int32Vect2 h_windspeed_i;
 397:./state.h     **** 
 398:./state.h     ****   /**
 399:./state.h     ****    * Norm of horizontal ground speed.
 400:./state.h     ****    * @details Unit: m/s in BFP with #INT32_SPEED_FRAC
 401:./state.h     ****    */
 402:./state.h     ****   int32_t airspeed_i;
 403:./state.h     **** 
 404:./state.h     ****   /**
 405:./state.h     ****    * Horizontal windspeed.
 406:./state.h     ****    * Units: m/s with x=north, y=east
 407:./state.h     ****    */
 408:./state.h     ****   struct FloatVect2 h_windspeed_f;
 409:./state.h     **** 
 410:./state.h     ****   /**
 411:./state.h     ****    * Norm of relative air speed.
 412:./state.h     ****    * Unit: m/s
 413:./state.h     ****    */
 414:./state.h     ****   float airspeed_f;
 415:./state.h     **** 
 416:./state.h     ****   /**
 417:./state.h     ****    * Angle of attack
 418:./state.h     ****    * Unit: rad
 419:./state.h     ****    */
 420:./state.h     ****   float angle_of_attack_f;
 421:./state.h     **** 
 422:./state.h     ****   /**
 423:./state.h     ****    * Sideslip angle
 424:./state.h     ****    * Unit: rad
 425:./state.h     ****    */
 426:./state.h     ****   float sideslip_f;
 427:./state.h     **** 
 428:./state.h     ****   /** @}*/
 429:./state.h     **** 
 430:./state.h     **** };
 431:./state.h     **** 
 432:./state.h     **** extern struct State state;
 433:./state.h     **** 
 434:./state.h     **** extern void stateInit(void);
 435:./state.h     **** 
 436:./state.h     **** /** @addtogroup state_position
 437:./state.h     ****  *  @{ */
 438:./state.h     **** 
 439:./state.h     **** /// Set the local (flat earth) coordinate frame origin (int).
 440:./state.h     **** static inline void stateSetLocalOrigin_i(struct LtpDef_i *ltp_def)
 441:./state.h     **** {
 442:./state.h     ****   memcpy(&state.ned_origin_i, ltp_def, sizeof(struct LtpDef_i));
 443:./state.h     ****   /* convert to float */
 444:./state.h     ****   ECEF_FLOAT_OF_BFP(state.ned_origin_f.ecef, state.ned_origin_i.ecef);
 445:./state.h     ****   LLA_FLOAT_OF_BFP(state.ned_origin_f.lla, state.ned_origin_i.lla);
 446:./state.h     ****   HIGH_RES_RMAT_FLOAT_OF_BFP(state.ned_origin_f.ltp_of_ecef, state.ned_origin_i.ltp_of_ecef);
 447:./state.h     ****   state.ned_origin_f.hmsl = M_OF_MM(state.ned_origin_i.hmsl);
 448:./state.h     **** 
 449:./state.h     ****   /* clear bits for all local frame representations */
 450:./state.h     ****   state.pos_status &= ~(POS_LOCAL_COORD);
 451:./state.h     ****   state.speed_status &= ~(SPEED_LOCAL_COORD);
 452:./state.h     ****   ClearBit(state.accel_status, ACCEL_NED_I);
 453:./state.h     ****   ClearBit(state.accel_status, ACCEL_NED_F);
 454:./state.h     **** 
 455:./state.h     ****   state.ned_initialized_i = TRUE;
 456:./state.h     ****   state.ned_initialized_f = TRUE;
 457:./state.h     **** }
 458:./state.h     **** 
 459:./state.h     **** /// Set the local (flat earth) coordinate frame origin from UTM (float).
 460:./state.h     **** static inline void stateSetLocalUtmOrigin_f(struct UtmCoor_f *utm_def)
 461:./state.h     **** {
 462:./state.h     ****   memcpy(&state.utm_origin_f, utm_def, sizeof(struct UtmCoor_f));
 463:./state.h     ****   state.utm_initialized_f = TRUE;
 464:./state.h     **** 
 465:./state.h     ****   /* clear bits for all local frame representations */
 466:./state.h     ****   state.pos_status &= ~(POS_LOCAL_COORD);
 467:./state.h     ****   state.speed_status &= ~(SPEED_LOCAL_COORD);
 468:./state.h     ****   ClearBit(state.accel_status, ACCEL_NED_I);
 469:./state.h     ****   ClearBit(state.accel_status, ACCEL_NED_F);
 470:./state.h     **** }
 471:./state.h     **** /*******************************************************************************
 472:./state.h     ****  *                                                                             *
 473:./state.h     ****  * Set and Get functions for the POSITION representations                      *
 474:./state.h     ****  *                                                                             *
 475:./state.h     ****  ******************************************************************************/
 476:./state.h     **** 
 477:./state.h     **** /************* declaration of transformation functions ************/
 478:./state.h     **** extern void stateCalcPositionEcef_i(void);
 479:./state.h     **** extern void stateCalcPositionNed_i(void);
 480:./state.h     **** extern void stateCalcPositionEnu_i(void);
 481:./state.h     **** extern void stateCalcPositionLla_i(void);
 482:./state.h     **** extern void stateCalcPositionUtm_f(void);
 483:./state.h     **** extern void stateCalcPositionEcef_f(void);
 484:./state.h     **** extern void stateCalcPositionNed_f(void);
 485:./state.h     **** extern void stateCalcPositionEnu_f(void);
 486:./state.h     **** extern void stateCalcPositionLla_f(void);
 487:./state.h     **** 
 488:./state.h     **** /*********************** validity test functions ******************/
 489:./state.h     **** 
 490:./state.h     **** /// Test if local coordinates are valid.
 491:./state.h     **** static inline bool_t stateIsLocalCoordinateValid(void)
 492:./state.h     **** {
 493:./state.h     ****   return ((state.ned_initialized_i || state.ned_initialized_f || state.utm_initialized_f)
 494:./state.h     ****           && (state.pos_status & (POS_LOCAL_COORD)));
 495:./state.h     **** }
 496:./state.h     **** 
 497:./state.h     **** /// Test if global coordinates are valid.
 498:./state.h     **** static inline bool_t stateIsGlobalCoordinateValid(void)
 499:./state.h     **** {
 500:./state.h     ****   return ((state.pos_status & (POS_GLOBAL_COORD)) || stateIsLocalCoordinateValid());
 501:./state.h     **** }
 502:./state.h     **** 
 503:./state.h     **** /************************ Set functions ****************************/
 504:./state.h     **** 
 505:./state.h     **** /// Set position from ECEF coordinates (int).
 506:./state.h     **** static inline void stateSetPositionEcef_i(struct EcefCoor_i *ecef_pos)
 507:./state.h     **** {
 508:./state.h     ****   VECT3_COPY(state.ecef_pos_i, *ecef_pos);
 509:./state.h     ****   /* clear bits for all position representations and only set the new one */
 510:./state.h     ****   state.pos_status = (1 << POS_ECEF_I);
 511:./state.h     **** }
 512:./state.h     **** 
 513:./state.h     **** /// Set position from local NED coordinates (int).
 514:./state.h     **** static inline void stateSetPositionNed_i(struct NedCoor_i *ned_pos)
 515:./state.h     **** {
 516:./state.h     ****   VECT3_COPY(state.ned_pos_i, *ned_pos);
 517:./state.h     ****   /* clear bits for all position representations and only set the new one */
 518:./state.h     ****   state.pos_status = (1 << POS_NED_I);
 519:./state.h     **** }
 520:./state.h     **** 
 521:./state.h     **** /// Set position from local ENU coordinates (int).
 522:./state.h     **** static inline void stateSetPositionEnu_i(struct EnuCoor_i *enu_pos)
 523:./state.h     **** {
 524:./state.h     ****   VECT3_COPY(state.enu_pos_i, *enu_pos);
 525:./state.h     ****   /* clear bits for all position representations and only set the new one */
 526:./state.h     ****   state.pos_status = (1 << POS_ENU_I);
 527:./state.h     **** }
 528:./state.h     **** 
 529:./state.h     **** /// Set position from LLA coordinates (int).
 530:./state.h     **** static inline void stateSetPositionLla_i(struct LlaCoor_i *lla_pos)
 531:./state.h     **** {
 532:./state.h     ****   LLA_COPY(state.lla_pos_i, *lla_pos);
 533:./state.h     ****   /* clear bits for all position representations and only set the new one */
 534:./state.h     ****   state.pos_status = (1 << POS_LLA_I);
 535:./state.h     **** }
 536:./state.h     **** 
 537:./state.h     **** /// Set multiple position coordinates (int).
 538:./state.h     **** static inline void stateSetPosition_i(
 539:./state.h     ****   struct EcefCoor_i *ecef_pos,
 540:./state.h     ****   struct NedCoor_i *ned_pos,
 541:./state.h     ****   struct EnuCoor_i *enu_pos,
 542:./state.h     ****   struct LlaCoor_i *lla_pos)
 543:./state.h     **** {
 544:./state.h     ****   /* clear all status bit */
 545:./state.h     ****   state.pos_status = 0;
 546:./state.h     ****   if (ecef_pos != NULL) {
 547:./state.h     ****     VECT3_COPY(state.ecef_pos_i, *ecef_pos);
 548:./state.h     ****     state.pos_status |= (1 << POS_ECEF_I);
 549:./state.h     ****   }
 550:./state.h     ****   if (ned_pos != NULL) {
 551:./state.h     ****     VECT3_COPY(state.ned_pos_i, *ned_pos);
 552:./state.h     ****     state.pos_status |= (1 << POS_NED_I);
 553:./state.h     ****   }
 554:./state.h     ****   if (enu_pos != NULL) {
 555:./state.h     ****     VECT3_COPY(state.enu_pos_i, *enu_pos);
 556:./state.h     ****     state.pos_status |= (1 << POS_ENU_I);
 557:./state.h     ****   }
 558:./state.h     ****   if (lla_pos != NULL) {
 559:./state.h     ****     LLA_COPY(state.lla_pos_i, *lla_pos);
 560:./state.h     ****     state.pos_status |= (1 << POS_LLA_I);
 561:./state.h     ****   }
 562:./state.h     **** }
 563:./state.h     **** 
 564:./state.h     **** /// Set position from UTM coordinates (float).
 565:./state.h     **** static inline void stateSetPositionUtm_f(struct UtmCoor_f *utm_pos)
 566:./state.h     **** {
 567:./state.h     ****   memcpy(&state.utm_pos_f, utm_pos, sizeof(struct UtmCoor_f));
 568:./state.h     ****   /* clear bits for all position representations and only set the new one */
 569:./state.h     ****   state.pos_status = (1 << POS_UTM_F);
 570:./state.h     **** }
 571:./state.h     **** 
 572:./state.h     **** /// Set position from ECEF coordinates (float).
 573:./state.h     **** static inline void stateSetPositionEcef_f(struct EcefCoor_f *ecef_pos)
 574:./state.h     **** {
 575:./state.h     ****   VECT3_COPY(state.ecef_pos_f, *ecef_pos);
 576:./state.h     ****   /* clear bits for all position representations and only set the new one */
 577:./state.h     ****   state.pos_status = (1 << POS_ECEF_F);
 578:./state.h     **** }
 579:./state.h     **** 
 580:./state.h     **** /// Set position from local NED coordinates (float).
 581:./state.h     **** static inline void stateSetPositionNed_f(struct NedCoor_f *ned_pos)
 582:./state.h     **** {
 583:./state.h     ****   VECT3_COPY(state.ned_pos_f, *ned_pos);
 584:./state.h     ****   /* clear bits for all position representations and only set the new one */
 585:./state.h     ****   state.pos_status = (1 << POS_NED_F);
 586:./state.h     **** }
 587:./state.h     **** 
 588:./state.h     **** /// Set position from local ENU coordinates (float).
 589:./state.h     **** static inline void stateSetPositionEnu_f(struct EnuCoor_f *enu_pos)
 590:./state.h     **** {
 591:./state.h     ****   VECT3_COPY(state.enu_pos_f, *enu_pos);
 592:./state.h     ****   /* clear bits for all position representations and only set the new one */
 593:./state.h     ****   state.pos_status = (1 << POS_ENU_F);
 594:./state.h     **** }
 595:./state.h     **** 
 596:./state.h     **** /// Set position from LLA coordinates (float).
 597:./state.h     **** static inline void stateSetPositionLla_f(struct LlaCoor_f *lla_pos)
 598:./state.h     **** {
 599:./state.h     ****   LLA_COPY(state.lla_pos_f, *lla_pos);
 600:./state.h     ****   /* clear bits for all position representations and only set the new one */
 601:./state.h     ****   state.pos_status = (1 << POS_LLA_F);
 602:./state.h     **** }
 603:./state.h     **** 
 604:./state.h     **** /// Set multiple position coordinates (float).
 605:./state.h     **** static inline void stateSetPosition_f(
 606:./state.h     ****   struct EcefCoor_f *ecef_pos,
 607:./state.h     ****   struct NedCoor_f *ned_pos,
 608:./state.h     ****   struct EnuCoor_f *enu_pos,
 609:./state.h     ****   struct LlaCoor_f *lla_pos,
 610:./state.h     ****   struct UtmCoor_f *utm_pos)
 611:./state.h     **** {
 612:./state.h     ****   /* clear all status bit */
 613:./state.h     ****   state.pos_status = 0;
 614:./state.h     ****   if (ecef_pos != NULL) {
 615:./state.h     ****     VECT3_COPY(state.ecef_pos_f, *ecef_pos);
 616:./state.h     ****     state.pos_status |= (1 << POS_ECEF_F);
 617:./state.h     ****   }
 618:./state.h     ****   if (ned_pos != NULL) {
 619:./state.h     ****     VECT3_COPY(state.ned_pos_f, *ned_pos);
 620:./state.h     ****     state.pos_status |= (1 << POS_NED_F);
 621:./state.h     ****   }
 622:./state.h     ****   if (enu_pos != NULL) {
 623:./state.h     ****     VECT3_COPY(state.enu_pos_f, *enu_pos);
 624:./state.h     ****     state.pos_status |= (1 << POS_ENU_F);
 625:./state.h     ****   }
 626:./state.h     ****   if (lla_pos != NULL) {
 627:./state.h     ****     LLA_COPY(state.lla_pos_f, *lla_pos);
 628:./state.h     ****     state.pos_status |= (1 << POS_LLA_F);
 629:./state.h     ****   }
 630:./state.h     ****   if (utm_pos != NULL) {
 631:./state.h     ****     memcpy(&state.utm_pos_f, utm_pos, sizeof(struct UtmCoor_f));
 632:./state.h     ****     state.pos_status |= (1 << POS_UTM_F);
 633:./state.h     ****   }
 634:./state.h     **** }
 635:./state.h     **** 
 636:./state.h     **** /************************ Get functions ****************************/
 637:./state.h     **** 
 638:./state.h     **** /// Get position in ECEF coordinates (int).
 639:./state.h     **** static inline struct EcefCoor_i *stateGetPositionEcef_i(void)
 640:./state.h     **** {
 641:./state.h     ****   if (!bit_is_set(state.pos_status, POS_ECEF_I)) {
 642:./state.h     ****     stateCalcPositionEcef_i();
 643:./state.h     ****   }
 644:./state.h     ****   return &state.ecef_pos_i;
 645:./state.h     **** }
 646:./state.h     **** 
 647:./state.h     **** /// Get position in local NED coordinates (int).
 648:./state.h     **** static inline struct NedCoor_i *stateGetPositionNed_i(void)
 649:./state.h     **** {
 650:./state.h     ****   if (!bit_is_set(state.pos_status, POS_NED_I)) {
 651:./state.h     ****     stateCalcPositionNed_i();
 652:./state.h     ****   }
 653:./state.h     ****   return &state.ned_pos_i;
 654:./state.h     **** }
 655:./state.h     **** 
 656:./state.h     **** /// Get position in local ENU coordinates (int).
 657:./state.h     **** static inline struct EnuCoor_i *stateGetPositionEnu_i(void)
 658:./state.h     **** {
 659:./state.h     ****   if (!bit_is_set(state.pos_status, POS_ENU_I)) {
 660:./state.h     ****     stateCalcPositionEnu_i();
 661:./state.h     ****   }
 662:./state.h     ****   return &state.enu_pos_i;
 663:./state.h     **** }
 664:./state.h     **** 
 665:./state.h     **** /// Get position in LLA coordinates (int).
 666:./state.h     **** static inline struct LlaCoor_i *stateGetPositionLla_i(void)
 667:./state.h     **** {
 668:./state.h     ****   if (!bit_is_set(state.pos_status, POS_LLA_I)) {
 669:./state.h     ****     stateCalcPositionLla_i();
 670:./state.h     ****   }
 671:./state.h     ****   return &state.lla_pos_i;
 672:./state.h     **** }
 673:./state.h     **** 
 674:./state.h     **** /// Get position in UTM coordinates (float).
 675:./state.h     **** static inline struct UtmCoor_f *stateGetPositionUtm_f(void)
 676:./state.h     **** {
 677:./state.h     ****   if (!bit_is_set(state.pos_status, POS_UTM_F)) {
 678:./state.h     ****     stateCalcPositionUtm_f();
 679:./state.h     ****   }
 680:./state.h     ****   return &state.utm_pos_f;
 681:./state.h     **** }
 682:./state.h     **** 
 683:./state.h     **** /// Get position in ECEF coordinates (float).
 684:./state.h     **** static inline struct EcefCoor_f *stateGetPositionEcef_f(void)
 685:./state.h     **** {
 686:./state.h     ****   if (!bit_is_set(state.pos_status, POS_ECEF_F)) {
 687:./state.h     ****     stateCalcPositionEcef_f();
 688:./state.h     ****   }
 689:./state.h     ****   return &state.ecef_pos_f;
 690:./state.h     **** }
 691:./state.h     **** 
 692:./state.h     **** /// Get position in local NED coordinates (float).
 693:./state.h     **** static inline struct NedCoor_f *stateGetPositionNed_f(void)
 694:./state.h     **** {
 695:./state.h     ****   if (!bit_is_set(state.pos_status, POS_NED_F)) {
 696:./state.h     ****     stateCalcPositionNed_f();
 697:./state.h     ****   }
 698:./state.h     ****   return &state.ned_pos_f;
 699:./state.h     **** }
 700:./state.h     **** 
 701:./state.h     **** /// Get position in local ENU coordinates (float).
 702:./state.h     **** static inline struct EnuCoor_f *stateGetPositionEnu_f(void)
 703:./state.h     **** {
 704:./state.h     ****   if (!bit_is_set(state.pos_status, POS_ENU_F)) {
 705:./state.h     ****     stateCalcPositionEnu_f();
 706:./state.h     ****   }
 707:./state.h     ****   return &state.enu_pos_f;
 708:./state.h     **** }
 709:./state.h     **** 
 710:./state.h     **** /// Get position in LLA coordinates (float).
 711:./state.h     **** static inline struct LlaCoor_f *stateGetPositionLla_f(void)
 712:./state.h     **** {
 713:./state.h     ****   if (!bit_is_set(state.pos_status, POS_LLA_F)) {
 714:./state.h     ****     stateCalcPositionLla_f();
 715:./state.h     ****   }
 716:./state.h     ****   return &state.lla_pos_f;
 717:./state.h     **** }
 718:./state.h     **** 
 719:./state.h     **** /** @}*/
 720:./state.h     **** 
 721:./state.h     **** 
 722:./state.h     **** 
 723:./state.h     **** /******************************************************************************
 724:./state.h     ****  *                                                                            *
 725:./state.h     ****  * Set and Get functions for the SPEED representations                        *
 726:./state.h     ****  *                                                                            *
 727:./state.h     ****  *****************************************************************************/
 728:./state.h     **** /** @addtogroup state_velocity
 729:./state.h     ****  *  @{ */
 730:./state.h     **** 
 731:./state.h     **** /************* declaration of transformation functions ************/
 732:./state.h     **** extern void stateCalcSpeedNed_i(void);
 733:./state.h     **** extern void stateCalcSpeedEnu_i(void);
 734:./state.h     **** extern void stateCalcSpeedEcef_i(void);
 735:./state.h     **** extern void stateCalcHorizontalSpeedNorm_i(void);
 736:./state.h     **** extern void stateCalcHorizontalSpeedDir_i(void);
 737:./state.h     **** extern void stateCalcSpeedNed_f(void);
 738:./state.h     **** extern void stateCalcSpeedEnu_f(void);
 739:./state.h     **** extern void stateCalcSpeedEcef_f(void);
 740:./state.h     **** extern void stateCalcHorizontalSpeedNorm_f(void);
 741:./state.h     **** extern void stateCalcHorizontalSpeedDir_f(void);
 742:./state.h     **** 
 743:./state.h     **** /************************ Set functions ****************************/
 744:./state.h     **** 
 745:./state.h     **** /// Set ground speed in local NED coordinates (int).
 746:./state.h     **** static inline void stateSetSpeedNed_i(struct NedCoor_i *ned_speed)
 747:./state.h     **** {
 748:./state.h     ****   VECT3_COPY(state.ned_speed_i, *ned_speed);
 749:./state.h     ****   /* clear bits for all speed representations and only set the new one */
 750:./state.h     ****   state.speed_status = (1 << SPEED_NED_I);
 751:./state.h     **** }
 752:./state.h     **** 
 753:./state.h     **** /// Set ground speed in local ENU coordinates (int).
 754:./state.h     **** static inline void stateSetSpeedEnu_i(struct EnuCoor_i *enu_speed)
 755:./state.h     **** {
 756:./state.h     ****   VECT3_COPY(state.enu_speed_i, *enu_speed);
 757:./state.h     ****   /* clear bits for all speed representations and only set the new one */
 758:./state.h     ****   state.speed_status = (1 << SPEED_ENU_I);
 759:./state.h     **** }
 760:./state.h     **** 
 761:./state.h     **** /// Set ground speed in ECEF coordinates (int).
 762:./state.h     **** static inline void stateSetSpeedEcef_i(struct EcefCoor_i *ecef_speed)
 763:./state.h     **** {
 764:./state.h     ****   VECT3_COPY(state.ecef_speed_i, *ecef_speed);
 765:./state.h     ****   /* clear bits for all speed representations and only set the new one */
 766:./state.h     ****   state.speed_status = (1 << SPEED_ECEF_I);
 767:./state.h     **** }
 768:./state.h     **** 
 769:./state.h     **** /// Set multiple speed coordinates (int).
 770:./state.h     **** static inline void stateSetSpeed_i(
 771:./state.h     ****   struct EcefCoor_i *ecef_speed,
 772:./state.h     ****   struct NedCoor_i *ned_speed,
 773:./state.h     ****   struct EnuCoor_i *enu_speed)
 774:./state.h     **** {
 775:./state.h     ****   /* clear all status bit */
 776:./state.h     ****   state.speed_status = 0;
 777:./state.h     ****   if (ecef_speed != NULL) {
 778:./state.h     ****     VECT3_COPY(state.ecef_speed_i, *ecef_speed);
 779:./state.h     ****     state.speed_status |= (1 << SPEED_ECEF_I);
 780:./state.h     ****   }
 781:./state.h     ****   if (ned_speed != NULL) {
 782:./state.h     ****     VECT3_COPY(state.ned_speed_i, *ned_speed);
 783:./state.h     ****     state.speed_status |= (1 << SPEED_NED_I);
 784:./state.h     ****   }
 785:./state.h     ****   if (enu_speed != NULL) {
 786:./state.h     ****     VECT3_COPY(state.enu_speed_i, *enu_speed);
 787:./state.h     ****     state.speed_status |= (1 << SPEED_ENU_I);
 788:./state.h     ****   }
 789:./state.h     **** }
 790:./state.h     **** 
 791:./state.h     **** /// Set ground speed in local NED coordinates (float).
 792:./state.h     **** static inline void stateSetSpeedNed_f(struct NedCoor_f *ned_speed)
 793:./state.h     **** {
 794:./state.h     ****   VECT3_COPY(state.ned_speed_f, *ned_speed);
 795:./state.h     ****   /* clear bits for all speed representations and only set the new one */
 796:./state.h     ****   state.speed_status = (1 << SPEED_NED_F);
 797:./state.h     **** }
 798:./state.h     **** 
 799:./state.h     **** /// Set ground speed in local ENU coordinates (float).
 800:./state.h     **** static inline void stateSetSpeedEnu_f(struct EnuCoor_f *enu_speed)
 801:./state.h     **** {
 802:./state.h     ****   VECT3_COPY(state.enu_speed_f, *enu_speed);
 803:./state.h     ****   /* clear bits for all speed representations and only set the new one */
 804:./state.h     ****   state.speed_status = (1 << SPEED_ENU_F);
 805:./state.h     **** }
 806:./state.h     **** 
 807:./state.h     **** /// Set ground speed in ECEF coordinates (float).
 808:./state.h     **** static inline void stateSetSpeedEcef_f(struct EcefCoor_f *ecef_speed)
 809:./state.h     **** {
 810:./state.h     ****   VECT3_COPY(state.ecef_speed_f, *ecef_speed);
 811:./state.h     ****   /* clear bits for all speed representations and only set the new one */
 812:./state.h     ****   state.speed_status = (1 << SPEED_ECEF_F);
 813:./state.h     **** }
 814:./state.h     **** 
 815:./state.h     **** /// Set multiple speed coordinates (float).
 816:./state.h     **** static inline void stateSetSpeed_f(
 817:./state.h     ****   struct EcefCoor_f *ecef_speed,
 818:./state.h     ****   struct NedCoor_f *ned_speed,
 819:./state.h     ****   struct EnuCoor_f *enu_speed)
 820:./state.h     **** {
 821:./state.h     ****   /* clear all status bit */
 822:./state.h     ****   state.speed_status = 0;
 823:./state.h     ****   if (ecef_speed != NULL) {
 824:./state.h     ****     VECT3_COPY(state.ecef_speed_f, *ecef_speed);
 825:./state.h     ****     state.speed_status |= (1 << SPEED_ECEF_F);
 826:./state.h     ****   }
 827:./state.h     ****   if (ned_speed != NULL) {
 828:./state.h     ****     VECT3_COPY(state.ned_speed_f, *ned_speed);
 829:./state.h     ****     state.speed_status |= (1 << SPEED_NED_F);
 830:./state.h     ****   }
 831:./state.h     ****   if (enu_speed != NULL) {
 832:./state.h     ****     VECT3_COPY(state.enu_speed_f, *enu_speed);
 833:./state.h     ****     state.speed_status |= (1 << SPEED_ENU_F);
 834:./state.h     ****   }
 835:./state.h     **** }
 836:./state.h     **** 
 837:./state.h     **** /************************ Get functions ****************************/
 838:./state.h     **** 
 839:./state.h     **** /// Get ground speed in local NED coordinates (int).
 840:./state.h     **** static inline struct NedCoor_i *stateGetSpeedNed_i(void)
 841:./state.h     **** {
 842:./state.h     ****   if (!bit_is_set(state.speed_status, SPEED_NED_I)) {
 843:./state.h     ****     stateCalcSpeedNed_i();
 844:./state.h     ****   }
 845:./state.h     ****   return &state.ned_speed_i;
 846:./state.h     **** }
 847:./state.h     **** 
 848:./state.h     **** /// Get ground speed in local ENU coordinates (int).
 849:./state.h     **** static inline struct EnuCoor_i *stateGetSpeedEnu_i(void)
 850:./state.h     **** {
 851:./state.h     ****   if (!bit_is_set(state.speed_status, SPEED_ENU_I)) {
 852:./state.h     ****     stateCalcSpeedEnu_i();
 853:./state.h     ****   }
 854:./state.h     ****   return &state.enu_speed_i;
 855:./state.h     **** }
 856:./state.h     **** 
 857:./state.h     **** /// Get ground speed in ECEF coordinates (int).
 858:./state.h     **** static inline struct EcefCoor_i *stateGetSpeedEcef_i(void)
 859:./state.h     **** {
 860:./state.h     ****   if (!bit_is_set(state.speed_status, SPEED_ECEF_I)) {
 861:./state.h     ****     stateCalcSpeedEcef_i();
 862:./state.h     ****   }
 863:./state.h     ****   return &state.ecef_speed_i;
 864:./state.h     **** }
 865:./state.h     **** 
 866:./state.h     **** /// Get norm of horizontal ground speed (int).
 867:./state.h     **** static inline uint32_t *stateGetHorizontalSpeedNorm_i(void)
 868:./state.h     **** {
 869:./state.h     ****   if (!bit_is_set(state.speed_status, SPEED_HNORM_I)) {
 870:./state.h     ****     stateCalcHorizontalSpeedNorm_i();
 871:./state.h     ****   }
 872:./state.h     ****   return &state.h_speed_norm_i;
 873:./state.h     **** }
 874:./state.h     **** 
 875:./state.h     **** /// Get dir of horizontal ground speed (int).
 876:./state.h     **** static inline int32_t *stateGetHorizontalSpeedDir_i(void)
 877:./state.h     **** {
 878:./state.h     ****   if (!bit_is_set(state.speed_status, SPEED_HDIR_I)) {
 879:./state.h     ****     stateCalcHorizontalSpeedDir_i();
 880:./state.h     ****   }
 881:./state.h     ****   return &state.h_speed_dir_i;
 882:./state.h     **** }
 883:./state.h     **** 
 884:./state.h     **** /// Get ground speed in local NED coordinates (float).
 885:./state.h     **** static inline struct NedCoor_f *stateGetSpeedNed_f(void)
 886:./state.h     **** {
 887:./state.h     ****   if (!bit_is_set(state.speed_status, SPEED_NED_F)) {
 888:./state.h     ****     stateCalcSpeedNed_f();
 889:./state.h     ****   }
 890:./state.h     ****   return &state.ned_speed_f;
 891:./state.h     **** }
 892:./state.h     **** 
 893:./state.h     **** /// Get ground speed in local ENU coordinates (float).
 894:./state.h     **** static inline struct EnuCoor_f *stateGetSpeedEnu_f(void)
 895:./state.h     **** {
 896:./state.h     ****   if (!bit_is_set(state.speed_status, SPEED_ENU_F)) {
 897:./state.h     ****     stateCalcSpeedEnu_f();
 898:./state.h     ****   }
 899:./state.h     ****   return &state.enu_speed_f;
 900:./state.h     **** }
 901:./state.h     **** 
 902:./state.h     **** /// Get ground speed in ECEF coordinates (float).
 903:./state.h     **** static inline struct EcefCoor_f *stateGetSpeedEcef_f(void)
 904:./state.h     **** {
 905:./state.h     ****   if (!bit_is_set(state.speed_status, SPEED_ECEF_F)) {
 906:./state.h     ****     stateCalcSpeedEcef_f();
 907:./state.h     ****   }
 908:./state.h     ****   return &state.ecef_speed_f;
 909:./state.h     **** }
 910:./state.h     **** 
 911:./state.h     **** /// Get norm of horizontal ground speed (float).
 912:./state.h     **** static inline float *stateGetHorizontalSpeedNorm_f(void)
 913:./state.h     **** {
 914:./state.h     ****   if (!bit_is_set(state.speed_status, SPEED_HNORM_F)) {
 915:./state.h     ****     stateCalcHorizontalSpeedNorm_f();
 916:./state.h     ****   }
 917:./state.h     ****   return &state.h_speed_norm_f;
 918:./state.h     **** }
 919:./state.h     **** 
 920:./state.h     **** /// Get dir of horizontal ground speed (float).
 921:./state.h     **** static inline float *stateGetHorizontalSpeedDir_f(void)
 922:./state.h     **** {
 923:./state.h     ****   if (!bit_is_set(state.speed_status, SPEED_HDIR_F)) {
 924:./state.h     ****     stateCalcHorizontalSpeedDir_f();
 925:./state.h     ****   }
 926:./state.h     ****   return &state.h_speed_dir_f;
 927:./state.h     **** }
 928:./state.h     **** /** @}*/
 929:./state.h     **** 
 930:./state.h     **** 
 931:./state.h     **** 
 932:./state.h     **** /******************************************************************************
 933:./state.h     ****  *                                                                            *
 934:./state.h     ****  * Set and Get functions for the ACCELERATION representations                 *
 935:./state.h     ****  *                                                                            *
 936:./state.h     ****  *****************************************************************************/
 937:./state.h     **** /** @addtogroup state_acceleration
 938:./state.h     ****  *  @{ */
 939:./state.h     **** 
 940:./state.h     **** /************* declaration of transformation functions ************/
 941:./state.h     **** extern void stateCalcAccelNed_i(void);
 942:./state.h     **** extern void stateCalcAccelEcef_i(void);
 943:./state.h     **** extern void stateCalcAccelNed_f(void);
 944:./state.h     **** extern void stateCalcAccelEcef_f(void);
 945:./state.h     **** 
 946:./state.h     **** /*********************** validity test functions ******************/
 947:./state.h     **** 
 948:./state.h     **** /// Test if accelerations are valid.
 949:./state.h     **** static inline bool_t stateIsAccelValid(void)
 950:./state.h     **** {
 951:./state.h     ****   return (state.accel_status);
 952:./state.h     **** }
 953:./state.h     **** 
 954:./state.h     **** /************************ Set functions ****************************/
 955:./state.h     **** 
 956:./state.h     **** /// Set acceleration in NED coordinates (int).
 957:./state.h     **** static inline void stateSetAccelNed_i(struct NedCoor_i *ned_accel)
 958:./state.h     **** {
 959:./state.h     ****   VECT3_COPY(state.ned_accel_i, *ned_accel);
 960:./state.h     ****   /* clear bits for all accel representations and only set the new one */
 961:./state.h     ****   state.accel_status = (1 << ACCEL_NED_I);
 962:./state.h     **** }
 963:./state.h     **** 
 964:./state.h     **** /// Set acceleration in ECEF coordinates (int).
 965:./state.h     **** static inline void stateSetAccelEcef_i(struct EcefCoor_i *ecef_accel)
 966:./state.h     **** {
 967:./state.h     ****   VECT3_COPY(state.ecef_accel_i, *ecef_accel);
 968:./state.h     ****   /* clear bits for all accel representations and only set the new one */
 969:./state.h     ****   state.accel_status = (1 << ACCEL_ECEF_I);
 970:./state.h     **** }
 971:./state.h     **** 
 972:./state.h     **** /// Set acceleration in NED coordinates (float).
 973:./state.h     **** static inline void stateSetAccelNed_f(struct NedCoor_f *ned_accel)
 974:./state.h     **** {
 975:./state.h     ****   VECT3_COPY(state.ned_accel_f, *ned_accel);
 976:./state.h     ****   /* clear bits for all accel representations and only set the new one */
 977:./state.h     ****   state.accel_status = (1 << ACCEL_NED_F);
 978:./state.h     **** }
 979:./state.h     **** 
 980:./state.h     **** /// Set acceleration in ECEF coordinates (float).
 981:./state.h     **** static inline void stateSetAccelEcef_f(struct EcefCoor_f *ecef_accel)
 982:./state.h     **** {
 983:./state.h     ****   VECT3_COPY(state.ecef_accel_f, *ecef_accel);
 984:./state.h     ****   /* clear bits for all accel representations and only set the new one */
 985:./state.h     ****   state.accel_status = (1 << ACCEL_ECEF_F);
 986:./state.h     **** }
 987:./state.h     **** 
 988:./state.h     **** /************************ Get functions ****************************/
 989:./state.h     **** 
 990:./state.h     **** /// Get acceleration in NED coordinates (int).
 991:./state.h     **** static inline struct NedCoor_i *stateGetAccelNed_i(void)
 992:./state.h     **** {
 993:./state.h     ****   if (!bit_is_set(state.accel_status, ACCEL_NED_I)) {
 994:./state.h     ****     stateCalcAccelNed_i();
 995:./state.h     ****   }
 996:./state.h     ****   return &state.ned_accel_i;
 997:./state.h     **** }
 998:./state.h     **** 
 999:./state.h     **** /// Get acceleration in ECEF coordinates (int).
1000:./state.h     **** static inline struct EcefCoor_i *stateGetAccelEcef_i(void)
1001:./state.h     **** {
1002:./state.h     ****   if (!bit_is_set(state.accel_status, ACCEL_ECEF_I)) {
1003:./state.h     ****     stateCalcAccelEcef_i();
1004:./state.h     ****   }
1005:./state.h     ****   return &state.ecef_accel_i;
1006:./state.h     **** }
1007:./state.h     **** 
1008:./state.h     **** /// Get acceleration in NED coordinates (float).
1009:./state.h     **** static inline struct NedCoor_f *stateGetAccelNed_f(void)
1010:./state.h     **** {
1011:./state.h     ****   if (!bit_is_set(state.accel_status, ACCEL_NED_F)) {
1012:./state.h     ****     stateCalcAccelNed_f();
1013:./state.h     ****   }
1014:./state.h     ****   return &state.ned_accel_f;
1015:./state.h     **** }
1016:./state.h     **** 
1017:./state.h     **** /// Get acceleration in ECEF coordinates (float).
1018:./state.h     **** static inline struct EcefCoor_f *stateGetAccelEcef_f(void)
1019:./state.h     **** {
1020:./state.h     ****   if (!bit_is_set(state.accel_status, ACCEL_ECEF_F)) {
1021:./state.h     ****     stateCalcAccelEcef_f();
1022:./state.h     ****   }
1023:./state.h     ****   return &state.ecef_accel_f;
1024:./state.h     **** }
1025:./state.h     **** /** @}*/
1026:./state.h     **** 
1027:./state.h     **** /******************************************************************************
1028:./state.h     **** *                                                                             *
1029:./state.h     **** * Set and Get functions for the ATTITUDE representations                      *
1030:./state.h     **** * (Calls the functions in math/pprz_orientation_conversion)                   *
1031:./state.h     **** *                                                                             *
1032:./state.h     **** *****************************************************************************/
1033:./state.h     **** /** @addtogroup state_attitude
1034:./state.h     **** * @{ */
1035:./state.h     **** /*********************** validity test functions ******************/
1036:./state.h     **** 
1037:./state.h     **** /// Test if attitudes are valid.
1038:./state.h     **** static inline bool_t stateIsAttitudeValid(void)
1039:./state.h     **** {
1040:./state.h     ****   return (orienationCheckValid(&state.ned_to_body_orientation));
1041:./state.h     **** }
1042:./state.h     **** 
1043:./state.h     **** /************************ Set functions ****************************/
1044:./state.h     **** 
1045:./state.h     **** /// Set vehicle body attitude from quaternion (int).
1046:./state.h     **** static inline void stateSetNedToBodyQuat_i(struct Int32Quat *ned_to_body_quat)
1047:./state.h     **** {
1048:./state.h     ****   orientationSetQuat_i(&state.ned_to_body_orientation, ned_to_body_quat);
1049:./state.h     **** }
1050:./state.h     **** 
1051:./state.h     **** /// Set vehicle body attitude from rotation matrix (int).
1052:./state.h     **** static inline void stateSetNedToBodyRMat_i(struct Int32RMat *ned_to_body_rmat)
1053:./state.h     **** {
1054:./state.h     ****   orientationSetRMat_i(&state.ned_to_body_orientation, ned_to_body_rmat);
1055:./state.h     **** }
1056:./state.h     **** 
1057:./state.h     **** /// Set vehicle body attitude from euler angles (int).
1058:./state.h     **** static inline void stateSetNedToBodyEulers_i(struct Int32Eulers *ned_to_body_eulers)
1059:./state.h     **** {
1060:./state.h     ****   orientationSetEulers_i(&state.ned_to_body_orientation, ned_to_body_eulers);
1061:./state.h     **** }
1062:./state.h     **** 
1063:./state.h     **** /// Set vehicle body attitude from quaternion (float).
1064:./state.h     **** static inline void stateSetNedToBodyQuat_f(struct FloatQuat *ned_to_body_quat)
1065:./state.h     **** {
1066:./state.h     ****   orientationSetQuat_f(&state.ned_to_body_orientation, ned_to_body_quat);
1067:./state.h     **** }
1068:./state.h     **** 
1069:./state.h     **** /// Set vehicle body attitude from rotation matrix (float).
1070:./state.h     **** static inline void stateSetNedToBodyRMat_f(struct FloatRMat *ned_to_body_rmat)
1071:./state.h     **** {
1072:./state.h     ****   orientationSetRMat_f(&state.ned_to_body_orientation, ned_to_body_rmat);
1073:./state.h     **** }
1074:./state.h     **** 
1075:./state.h     **** /// Set vehicle body attitude from euler angles (float).
1076:./state.h     **** static inline void stateSetNedToBodyEulers_f(struct FloatEulers *ned_to_body_eulers)
1077:./state.h     **** {
1078:./state.h     ****   orientationSetEulers_f(&state.ned_to_body_orientation, ned_to_body_eulers);
1079:./state.h     **** }
1080:./state.h     **** 
1081:./state.h     **** /************************ Get functions ****************************/
1082:./state.h     **** 
1083:./state.h     **** /// Get vehicle body attitude quaternion (int).
1084:./state.h     **** static inline struct Int32Quat *stateGetNedToBodyQuat_i(void)
1085:./state.h     **** {
1086:./state.h     ****   return orientationGetQuat_i(&state.ned_to_body_orientation);
1087:./state.h     **** }
1088:./state.h     **** 
1089:./state.h     **** /// Get vehicle body attitude rotation matrix (int).
1090:./state.h     **** static inline struct Int32RMat *stateGetNedToBodyRMat_i(void)
1091:./state.h     **** {
1092:./state.h     ****   return orientationGetRMat_i(&state.ned_to_body_orientation);
1093:./state.h     **** }
1094:./state.h     **** 
1095:./state.h     **** /// Get vehicle body attitude euler angles (int).
1096:./state.h     **** static inline struct Int32Eulers *stateGetNedToBodyEulers_i(void)
1097:./state.h     **** {
1098:./state.h     ****   return orientationGetEulers_i(&state.ned_to_body_orientation);
1099:./state.h     **** }
1100:./state.h     **** 
1101:./state.h     **** /// Get vehicle body attitude quaternion (float).
1102:./state.h     **** static inline struct FloatQuat *stateGetNedToBodyQuat_f(void)
1103:./state.h     **** {
1104:./state.h     ****   return orientationGetQuat_f(&state.ned_to_body_orientation);
1105:./state.h     **** }
1106:./state.h     **** 
1107:./state.h     **** /// Get vehicle body attitude rotation matrix (float).
1108:./state.h     **** static inline struct FloatRMat *stateGetNedToBodyRMat_f(void)
1109:./state.h     **** {
1110:./state.h     ****   return orientationGetRMat_f(&state.ned_to_body_orientation);
1111:./state.h     **** }
1112:./state.h     **** 
1113:./state.h     **** /// Get vehicle body attitude euler angles (float).
1114:./state.h     **** static inline struct FloatEulers *stateGetNedToBodyEulers_f(void)
1115:./state.h     **** {
1116:./state.h     ****   return orientationGetEulers_f(&state.ned_to_body_orientation);
1117:./state.h     **** }
1118:./state.h     **** /** @}*/
1119:./state.h     **** 
1120:./state.h     **** 
1121:./state.h     **** /******************************************************************************
1122:./state.h     ****  *                                                                            *
1123:./state.h     ****  * Set and Get functions for the ANGULAR RATE representations                 *
1124:./state.h     ****  *                                                                            *
1125:./state.h     ****  *****************************************************************************/
1126:./state.h     **** /** @addtogroup state_rate
1127:./state.h     ****  *  @{ */
1128:./state.h     **** 
1129:./state.h     **** /************* declaration of transformation functions ************/
1130:./state.h     **** extern void stateCalcBodyRates_i(void);
1131:./state.h     **** extern void stateCalcBodyRates_f(void);
1132:./state.h     **** 
1133:./state.h     **** /*********************** validity test functions ******************/
1134:./state.h     **** 
1135:./state.h     **** /// Test if rates are valid.
1136:./state.h     **** static inline bool_t stateIsRateValid(void)
1137:./state.h     **** {
1138:./state.h     ****   return (state.rate_status);
1139:./state.h     **** }
1140:./state.h     **** 
1141:./state.h     **** /************************ Set functions ****************************/
1142:./state.h     **** 
1143:./state.h     **** /// Set vehicle body angular rate (int).
1144:./state.h     **** static inline void stateSetBodyRates_i(struct Int32Rates *body_rate)
1145:./state.h     **** {
1146:./state.h     ****   RATES_COPY(state.body_rates_i, *body_rate);
1147:./state.h     ****   /* clear bits for all attitude representations and only set the new one */
1148:./state.h     ****   state.rate_status = (1 << RATE_I);
1149:./state.h     **** }
1150:./state.h     **** 
1151:./state.h     **** /// Set vehicle body angular rate (float).
1152:./state.h     **** static inline void stateSetBodyRates_f(struct FloatRates *body_rate)
1153:./state.h     **** {
1154:./state.h     ****   RATES_COPY(state.body_rates_f, *body_rate);
1155:./state.h     ****   /* clear bits for all attitude representations and only set the new one */
1156:./state.h     ****   state.rate_status = (1 << RATE_F);
1157:./state.h     **** }
1158:./state.h     **** 
1159:./state.h     **** /************************ Get functions ****************************/
1160:./state.h     **** 
1161:./state.h     **** /// Get vehicle body angular rate (int).
1162:./state.h     **** static inline struct Int32Rates *stateGetBodyRates_i(void)
1163:./state.h     **** {
1164:./state.h     ****   if (!bit_is_set(state.rate_status, RATE_I)) {
1165:./state.h     ****     stateCalcBodyRates_i();
1166:./state.h     ****   }
1167:./state.h     ****   return &state.body_rates_i;
1168:./state.h     **** }
1169:./state.h     **** 
1170:./state.h     **** /// Get vehicle body angular rate (float).
1171:./state.h     **** static inline struct FloatRates *stateGetBodyRates_f(void)
1172:./state.h     **** {
1173:./state.h     ****   if (!bit_is_set(state.rate_status, RATE_F)) {
1174:./state.h     ****     stateCalcBodyRates_f();
1175:./state.h     ****   }
1176:./state.h     ****   return &state.body_rates_f;
1177:./state.h     **** }
1178:./state.h     **** 
1179:./state.h     **** /** @}*/
1180:./state.h     **** 
1181:./state.h     **** 
1182:./state.h     **** 
1183:./state.h     **** /******************************************************************************
1184:./state.h     ****  *                                                                            *
1185:./state.h     ****  * Set and Get functions for the WIND- AND AIRSPEED representations           *
1186:./state.h     ****  *                                                                            *
1187:./state.h     ****  *****************************************************************************/
1188:./state.h     **** /** @addtogroup state_wind_airspeed
1189:./state.h     ****  *  @{ */
1190:./state.h     **** 
1191:./state.h     **** /************* declaration of transformation functions ************/
1192:./state.h     **** extern void stateCalcHorizontalWindspeed_i(void);
1193:./state.h     **** extern void stateCalcAirspeed_i(void);
1194:./state.h     **** extern void stateCalcHorizontalWindspeed_f(void);
1195:./state.h     **** extern void stateCalcAirspeed_f(void);
1196:./state.h     **** 
1197:./state.h     **** 
1198:./state.h     **** /************************ validity test function *******************/
1199:./state.h     **** 
1200:./state.h     **** /// test if wind speed is available.
1201:./state.h     **** static inline bool_t stateIsWindspeedValid(void)
1202:./state.h     **** {
1203:./state.h     ****   return (state.wind_air_status &= ~((1 << WINDSPEED_I) | (1 << WINDSPEED_F)));
1204:./state.h     **** }
1205:./state.h     **** 
1206:./state.h     **** /// test if air speed is available.
1207:./state.h     **** static inline bool_t stateIsAirspeedValid(void)
1208:./state.h     **** {
1209:./state.h     ****   return (state.wind_air_status &= ~((1 << AIRSPEED_I) | (1 << AIRSPEED_F)));
1210:./state.h     **** }
1211:./state.h     **** 
1212:./state.h     **** /// test if angle of attack is available.
1213:./state.h     **** static inline bool_t stateIsAngleOfAttackValid(void)
1214:./state.h     **** {
1215:./state.h     ****   return (state.wind_air_status &= ~(1 << AOA_F));
1216:./state.h     **** }
1217:./state.h     **** 
1218:./state.h     **** /// test if sideslip is available.
1219:./state.h     **** static inline bool_t stateIsSideslipValid(void)
1220:./state.h     **** {
1221:./state.h     ****   return (state.wind_air_status &= ~(1 << SIDESLIP_F));
1222:./state.h     **** }
1223:./state.h     **** 
1224:./state.h     **** /************************ Set functions ****************************/
1225:./state.h     **** 
1226:./state.h     **** /// Set horizontal windspeed (int).
1227:./state.h     **** static inline void stateSetHorizontalWindspeed_i(struct Int32Vect2 *h_windspeed)
1228:./state.h     **** {
1229:./state.h     ****   VECT2_COPY(state.h_windspeed_i, *h_windspeed);
1230:./state.h     ****   /* clear bits for all windspeed representations and only set the new one */
1231:./state.h     ****   ClearBit(state.wind_air_status, WINDSPEED_F);
1232:./state.h     ****   SetBit(state.wind_air_status, WINDSPEED_I);
1233:./state.h     **** }
1234:./state.h     **** 
1235:./state.h     **** /// Set airspeed (int).
1236:./state.h     **** static inline void stateSetAirspeed_i(int32_t *airspeed)
1237:./state.h     **** {
1238:./state.h     ****   state.airspeed_i = *airspeed;
1239:./state.h     ****   /* clear bits for all airspeed representations and only set the new one */
1240:./state.h     ****   ClearBit(state.wind_air_status, AIRSPEED_F);
1241:./state.h     ****   SetBit(state.wind_air_status, AIRSPEED_I);
1242:./state.h     **** }
1243:./state.h     **** 
1244:./state.h     **** /// Set horizontal windspeed (float).
1245:./state.h     **** static inline void stateSetHorizontalWindspeed_f(struct FloatVect2 *h_windspeed)
1246:./state.h     **** {
1247:./state.h     ****   VECT2_COPY(state.h_windspeed_f, *h_windspeed);
1248:./state.h     ****   /* clear bits for all windspeed representations and only set the new one */
1249:./state.h     ****   ClearBit(state.wind_air_status, WINDSPEED_I);
1250:./state.h     ****   SetBit(state.wind_air_status, WINDSPEED_F);
1251:./state.h     **** }
1252:./state.h     **** 
1253:./state.h     **** /// Set airspeed (float).
1254:./state.h     **** static inline void stateSetAirspeed_f(float *airspeed)
1255:./state.h     **** {
1256:./state.h     ****   state.airspeed_f = *airspeed;
1257:./state.h     ****   /* clear bits for all airspeed representations and only set the new one */
1258:./state.h     ****   ClearBit(state.wind_air_status, AIRSPEED_I);
1259:./state.h     ****   SetBit(state.wind_air_status, AIRSPEED_F);
1260:./state.h     **** }
1261:./state.h     **** 
1262:./state.h     **** /// Set angle of attack in radians (float).
1263:./state.h     **** static inline void stateSetAngleOfAttack_f(float *aoa)
1264:./state.h     **** {
1265:./state.h     ****   state.angle_of_attack_f = *aoa;
1266:./state.h     ****   /* clear bits for all AOA representations and only set the new one */
1267:./state.h     ****   /// @todo no integer yet
1268:./state.h     ****   SetBit(state.wind_air_status, AOA_F);
1269:./state.h     **** }
1270:./state.h     **** 
1271:./state.h     **** /// Set sideslip angle in radians (float).
1272:./state.h     **** static inline void stateSetSideslip_f(float *sideslip)
1273:./state.h     **** {
1274:./state.h     ****   state.sideslip_f = *sideslip;
1275:./state.h     ****   /* clear bits for all sideslip representations and only set the new one */
1276:./state.h     ****   /// @todo no integer yet
1277:./state.h     ****   SetBit(state.wind_air_status, SIDESLIP_F);
1278:./state.h     **** }
1279:./state.h     **** 
1280:./state.h     **** /************************ Get functions ****************************/
1281:./state.h     **** 
1282:./state.h     **** /// Get horizontal windspeed (int).
1283:./state.h     **** static inline struct Int32Vect2 *stateGetHorizontalWindspeed_i(void)
1284:./state.h     **** {
1285:./state.h     ****   if (!bit_is_set(state.wind_air_status, WINDSPEED_I)) {
1286:./state.h     ****     stateCalcHorizontalWindspeed_i();
1287:./state.h     ****   }
1288:./state.h     ****   return &state.h_windspeed_i;
1289:./state.h     **** }
1290:./state.h     **** 
1291:./state.h     **** /// Get airspeed (int).
1292:./state.h     **** static inline int32_t *stateGetAirspeed_i(void)
1293:./state.h     **** {
1294:./state.h     ****   if (!bit_is_set(state.wind_air_status, AIRSPEED_I)) {
1295:./state.h     ****     stateCalcAirspeed_i();
1296:./state.h     ****   }
1297:./state.h     ****   return &state.airspeed_i;
1298:./state.h     **** }
1299:./state.h     **** 
1300:./state.h     **** /// Get horizontal windspeed (float).
1301:./state.h     **** static inline struct FloatVect2 *stateGetHorizontalWindspeed_f(void)
1302:./state.h     **** {
1303:./state.h     ****   if (!bit_is_set(state.wind_air_status, WINDSPEED_F)) {
1304:./state.h     ****     stateCalcHorizontalWindspeed_f();
1305:./state.h     ****   }
1306:./state.h     ****   return &state.h_windspeed_f;
1307:./state.h     **** }
1308:./state.h     **** 
1309:./state.h     **** /// Get airspeed (float).
1310:./state.h     **** static inline float *stateGetAirspeed_f(void)
1311:./state.h     **** {
1312:./state.h     ****   if (!bit_is_set(state.wind_air_status, AIRSPEED_F)) {
  46              		.loc 2 1312 0
  47 0008 364B     		ldr	r3, .L7
  48 000a 93F84432 		ldrb	r3, [r3, #580]	@ zero_extendqisi2
  49 000e 1B07     		lsls	r3, r3, #28
  50              	.LBE7:
  51              	.LBE6:
 146:firmwares/fixedwing/autopilot.c **** #if USE_AIRSPEED
  52              		.loc 1 146 0
  53 0010 0446     		mov	r4, r0
  54 0012 0D46     		mov	r5, r1
  55              	.LBB9:
  56              	.LBB8:
  57              		.loc 2 1312 0
  58 0014 01D4     		bmi	.L2
1313:./state.h     ****     stateCalcAirspeed_f();
  59              		.loc 2 1313 0
  60 0016 FFF7FEFF 		bl	stateCalcAirspeed_f
  61              	.LVL1:
  62              	.L2:
  63              	.LBE8:
  64              	.LBE9:
  65              	.LBB10:
  66              	.LBB11:
  67              		.file 3 "/home/dino/paparazzi/var/include/messages.h"
   1:/home/dino/paparazzi/var/include/messages.h **** /* Automatically generated by gen_messages from /home/dino/paparazzi/conf/messages.xml */
   2:/home/dino/paparazzi/var/include/messages.h **** /* Please DO NOT EDIT */
   3:/home/dino/paparazzi/var/include/messages.h **** /* Macros to send and receive messages of class telemetry */
   4:/home/dino/paparazzi/var/include/messages.h **** #ifndef _VAR_MESSAGES_telemetry_H_
   5:/home/dino/paparazzi/var/include/messages.h **** #define _VAR_MESSAGES_telemetry_H_
   6:/home/dino/paparazzi/var/include/messages.h **** #include "subsystems/datalink/transport.h"
   7:/home/dino/paparazzi/var/include/messages.h **** #include "mcu_periph/link_device.h"
   8:/home/dino/paparazzi/var/include/messages.h **** #if DOWNLINK
   9:/home/dino/paparazzi/var/include/messages.h **** #define DL_AUTOPILOT_VERSION 1
  10:/home/dino/paparazzi/var/include/messages.h **** #define DL_ALIVE 2
  11:/home/dino/paparazzi/var/include/messages.h **** #define DL_PONG 3
  12:/home/dino/paparazzi/var/include/messages.h **** #define DL_TAKEOFF 4
  13:/home/dino/paparazzi/var/include/messages.h **** #define DL_ARDRONE_NAVDATA 5
  14:/home/dino/paparazzi/var/include/messages.h **** #define DL_ATTITUDE 6
  15:/home/dino/paparazzi/var/include/messages.h **** #define DL_IR_SENSORS 7
  16:/home/dino/paparazzi/var/include/messages.h **** #define DL_GPS 8
  17:/home/dino/paparazzi/var/include/messages.h **** #define DL_NAVIGATION_REF 9
  18:/home/dino/paparazzi/var/include/messages.h **** #define DL_NAVIGATION 10
  19:/home/dino/paparazzi/var/include/messages.h **** #define DL_PPRZ_MODE 11
  20:/home/dino/paparazzi/var/include/messages.h **** #define DL_BAT 12
  21:/home/dino/paparazzi/var/include/messages.h **** #define DL_DEBUG_MCU_LINK 13
  22:/home/dino/paparazzi/var/include/messages.h **** #define DL_CALIBRATION 14
  23:/home/dino/paparazzi/var/include/messages.h **** #define DL_SETTINGS 15
  24:/home/dino/paparazzi/var/include/messages.h **** #define DL_DESIRED 16
  25:/home/dino/paparazzi/var/include/messages.h **** #define DL_GPS_SOL 17
  26:/home/dino/paparazzi/var/include/messages.h **** #define DL_ADC_GENERIC 18
  27:/home/dino/paparazzi/var/include/messages.h **** #define DL_TEST_FORMAT 19
  28:/home/dino/paparazzi/var/include/messages.h **** #define DL_CAM 20
  29:/home/dino/paparazzi/var/include/messages.h **** #define DL_CIRCLE 21
  30:/home/dino/paparazzi/var/include/messages.h **** #define DL_SEGMENT 22
  31:/home/dino/paparazzi/var/include/messages.h **** #define DL_SVINFO 25
  32:/home/dino/paparazzi/var/include/messages.h **** #define DL_DEBUG 26
  33:/home/dino/paparazzi/var/include/messages.h **** #define DL_SURVEY 27
  34:/home/dino/paparazzi/var/include/messages.h **** #define DL_WC_RSSI 28
  35:/home/dino/paparazzi/var/include/messages.h **** #define DL_RANGEFINDER 29
  36:/home/dino/paparazzi/var/include/messages.h **** #define DL_DATALINK_REPORT 30
  37:/home/dino/paparazzi/var/include/messages.h **** #define DL_DL_VALUE 31
  38:/home/dino/paparazzi/var/include/messages.h **** #define DL_MARK 32
  39:/home/dino/paparazzi/var/include/messages.h **** #define DL_SYS_MON 33
  40:/home/dino/paparazzi/var/include/messages.h **** #define DL_MOTOR 34
  41:/home/dino/paparazzi/var/include/messages.h **** #define DL_WP_MOVED 35
  42:/home/dino/paparazzi/var/include/messages.h **** #define DL_MKK 36
  43:/home/dino/paparazzi/var/include/messages.h **** #define DL_ENERGY 37
  44:/home/dino/paparazzi/var/include/messages.h **** #define DL_BARO_BMP85_CALIB 38
  45:/home/dino/paparazzi/var/include/messages.h **** #define DL_BARO_BMP85 39
  46:/home/dino/paparazzi/var/include/messages.h **** #define DL_SPEED_LOOP 40
  47:/home/dino/paparazzi/var/include/messages.h **** #define DL_ALT_KALMAN 41
  48:/home/dino/paparazzi/var/include/messages.h **** #define DL_ESTIMATOR 42
  49:/home/dino/paparazzi/var/include/messages.h **** #define DL_TUNE_ROLL 43
  50:/home/dino/paparazzi/var/include/messages.h **** #define DL_BARO_MS5534A 44
  51:/home/dino/paparazzi/var/include/messages.h **** #define DL_PRESSURE 45
  52:/home/dino/paparazzi/var/include/messages.h **** #define DL_BARO_WORDS 46
  53:/home/dino/paparazzi/var/include/messages.h **** #define DL_WP_MOVED_LLA 47
  54:/home/dino/paparazzi/var/include/messages.h **** #define DL_CHRONO 48
  55:/home/dino/paparazzi/var/include/messages.h **** #define DL_WP_MOVED_ENU 49
  56:/home/dino/paparazzi/var/include/messages.h **** #define DL_WINDTURBINE_STATUS_ 50
  57:/home/dino/paparazzi/var/include/messages.h **** #define DL_RC_3CH_ 51
  58:/home/dino/paparazzi/var/include/messages.h **** #define DL_MPPT 52
  59:/home/dino/paparazzi/var/include/messages.h **** #define DL_DEBUG_IR_I2C 53
  60:/home/dino/paparazzi/var/include/messages.h **** #define DL_AIRSPEED 54
  61:/home/dino/paparazzi/var/include/messages.h **** #define DL_XSENS 55
  62:/home/dino/paparazzi/var/include/messages.h **** #define DL_BARO_ETS 56
  63:/home/dino/paparazzi/var/include/messages.h **** #define DL_AIRSPEED_ETS 57
  64:/home/dino/paparazzi/var/include/messages.h **** #define DL_PBN 58
  65:/home/dino/paparazzi/var/include/messages.h **** #define DL_GPS_LLA 59
  66:/home/dino/paparazzi/var/include/messages.h **** #define DL_H_CTL_A 60
  67:/home/dino/paparazzi/var/include/messages.h **** #define DL_TURB_PRESSURE_RAW 61
  68:/home/dino/paparazzi/var/include/messages.h **** #define DL_TURB_PRESSURE_VOLTAGE 62
  69:/home/dino/paparazzi/var/include/messages.h **** #define DL_CAM_POINT 63
  70:/home/dino/paparazzi/var/include/messages.h **** #define DL_DC_INFO 64
  71:/home/dino/paparazzi/var/include/messages.h **** #define DL_AMSYS_BARO 65
  72:/home/dino/paparazzi/var/include/messages.h **** #define DL_AMSYS_AIRSPEED 66
  73:/home/dino/paparazzi/var/include/messages.h **** #define DL_FLIGHT_BENCHMARK 67
  74:/home/dino/paparazzi/var/include/messages.h **** #define DL_MPL3115_BARO 68
  75:/home/dino/paparazzi/var/include/messages.h **** #define DL_AOA_ADC 69
  76:/home/dino/paparazzi/var/include/messages.h **** #define DL_XTEND_RSSI 70
  77:/home/dino/paparazzi/var/include/messages.h **** #define DL_SUPERBITRF 72
  78:/home/dino/paparazzi/var/include/messages.h **** #define DL_GX3_INFO 73
  79:/home/dino/paparazzi/var/include/messages.h **** #define DL_EXPLAIN 74
  80:/home/dino/paparazzi/var/include/messages.h **** #define DL_VIDEO_TELEMETRY 75
  81:/home/dino/paparazzi/var/include/messages.h **** #define DL_VF_UPDATE 76
  82:/home/dino/paparazzi/var/include/messages.h **** #define DL_VF_PREDICT 77
  83:/home/dino/paparazzi/var/include/messages.h **** #define DL_INV_FILTER 78
  84:/home/dino/paparazzi/var/include/messages.h **** #define DL_MISSION_STATUS 79
  85:/home/dino/paparazzi/var/include/messages.h **** #define DL_CROSS_TRACK_ERROR 80
  86:/home/dino/paparazzi/var/include/messages.h **** #define DL_GENERIC_COM 81
  87:/home/dino/paparazzi/var/include/messages.h **** #define DL_FORMATION_SLOT_TM 82
  88:/home/dino/paparazzi/var/include/messages.h **** #define DL_FORMATION_STATUS_TM 83
  89:/home/dino/paparazzi/var/include/messages.h **** #define DL_BMP_STATUS 84
  90:/home/dino/paparazzi/var/include/messages.h **** #define DL_MLX_STATUS 85
  91:/home/dino/paparazzi/var/include/messages.h **** #define DL_TMP_STATUS 86
  92:/home/dino/paparazzi/var/include/messages.h **** #define DL_WIND_INFO_RET 87
  93:/home/dino/paparazzi/var/include/messages.h **** #define DL_SCP_STATUS 88
  94:/home/dino/paparazzi/var/include/messages.h **** #define DL_SHT_STATUS 89
  95:/home/dino/paparazzi/var/include/messages.h **** #define DL_ENOSE_STATUS 90
  96:/home/dino/paparazzi/var/include/messages.h **** #define DL_DPICCO_STATUS 91
  97:/home/dino/paparazzi/var/include/messages.h **** #define DL_ANTENNA_DEBUG 92
  98:/home/dino/paparazzi/var/include/messages.h **** #define DL_ANTENNA_STATUS 93
  99:/home/dino/paparazzi/var/include/messages.h **** #define DL_MOTOR_BENCH_STATUS 94
 100:/home/dino/paparazzi/var/include/messages.h **** #define DL_MOTOR_BENCH_STATIC 95
 101:/home/dino/paparazzi/var/include/messages.h **** #define DL_HIH_STATUS 96
 102:/home/dino/paparazzi/var/include/messages.h **** #define DL_TEMT_STATUS 97
 103:/home/dino/paparazzi/var/include/messages.h **** #define DL_GP2Y_STATUS 98
 104:/home/dino/paparazzi/var/include/messages.h **** #define DL_SHT_I2C_SERIAL 99
 105:/home/dino/paparazzi/var/include/messages.h **** #define DL_PPM 100
 106:/home/dino/paparazzi/var/include/messages.h **** #define DL_RC 101
 107:/home/dino/paparazzi/var/include/messages.h **** #define DL_COMMANDS 102
 108:/home/dino/paparazzi/var/include/messages.h **** #define DL_FBW_STATUS 103
 109:/home/dino/paparazzi/var/include/messages.h **** #define DL_ADC 104
 110:/home/dino/paparazzi/var/include/messages.h **** #define DL_ACTUATORS 105
 111:/home/dino/paparazzi/var/include/messages.h **** #define DL_DC_SHOT 110
 112:/home/dino/paparazzi/var/include/messages.h **** #define DL_TEST_BOARD_RESULTS 111
 113:/home/dino/paparazzi/var/include/messages.h **** #define DL_MLX_SERIAL 113
 114:/home/dino/paparazzi/var/include/messages.h **** #define DL_PAYLOAD 114
 115:/home/dino/paparazzi/var/include/messages.h **** #define DL_HTM_STATUS 115
 116:/home/dino/paparazzi/var/include/messages.h **** #define DL_BARO_MS5611 116
 117:/home/dino/paparazzi/var/include/messages.h **** #define DL_MS5611_COEFF 117
 118:/home/dino/paparazzi/var/include/messages.h **** #define DL_ATMOSPHERE_CHARGE 118
 119:/home/dino/paparazzi/var/include/messages.h **** #define DL_SOLAR_RADIATION 119
 120:/home/dino/paparazzi/var/include/messages.h **** #define DL_TCAS_TA 120
 121:/home/dino/paparazzi/var/include/messages.h **** #define DL_TCAS_RA 121
 122:/home/dino/paparazzi/var/include/messages.h **** #define DL_TCAS_RESOLVED 122
 123:/home/dino/paparazzi/var/include/messages.h **** #define DL_TCAS_DEBUG 123
 124:/home/dino/paparazzi/var/include/messages.h **** #define DL_POTENTIAL 124
 125:/home/dino/paparazzi/var/include/messages.h **** #define DL_VERTICAL_ENERGY 125
 126:/home/dino/paparazzi/var/include/messages.h **** #define DL_TEMP_TCOUPLE 126
 127:/home/dino/paparazzi/var/include/messages.h **** #define DL_SHT_I2C_STATUS 127
 128:/home/dino/paparazzi/var/include/messages.h **** #define DL_CAMERA_SNAPSHOT 128
 129:/home/dino/paparazzi/var/include/messages.h **** #define DL_TIMESTAMP 129
 130:/home/dino/paparazzi/var/include/messages.h **** #define DL_STAB_ATTITUDE_FLOAT 130
 131:/home/dino/paparazzi/var/include/messages.h **** #define DL_IMU_GYRO_SCALED 131
 132:/home/dino/paparazzi/var/include/messages.h **** #define DL_IMU_ACCEL_SCALED 132
 133:/home/dino/paparazzi/var/include/messages.h **** #define DL_IMU_MAG_SCALED 133
 134:/home/dino/paparazzi/var/include/messages.h **** #define DL_FILTER 134
 135:/home/dino/paparazzi/var/include/messages.h **** #define DL_FILTER2 135
 136:/home/dino/paparazzi/var/include/messages.h **** #define DL_RATE_LOOP 136
 137:/home/dino/paparazzi/var/include/messages.h **** #define DL_FILTER_ALIGNER 137
 138:/home/dino/paparazzi/var/include/messages.h **** #define DL_AIRSPEED_MS45XX 138
 139:/home/dino/paparazzi/var/include/messages.h **** #define DL_FILTER_COR 139
 140:/home/dino/paparazzi/var/include/messages.h **** #define DL_STAB_ATTITUDE_INT 140
 141:/home/dino/paparazzi/var/include/messages.h **** #define DL_STAB_ATTITUDE_REF_INT 141
 142:/home/dino/paparazzi/var/include/messages.h **** #define DL_STAB_ATTITUDE_REF_FLOAT 142
 143:/home/dino/paparazzi/var/include/messages.h **** #define DL_ROTORCRAFT_CMD 143
 144:/home/dino/paparazzi/var/include/messages.h **** #define DL_GUIDANCE_H_INT 144
 145:/home/dino/paparazzi/var/include/messages.h **** #define DL_VERT_LOOP 145
 146:/home/dino/paparazzi/var/include/messages.h **** #define DL_HOVER_LOOP 146
 147:/home/dino/paparazzi/var/include/messages.h **** #define DL_ROTORCRAFT_FP 147
 148:/home/dino/paparazzi/var/include/messages.h **** #define DL_TEMP_ADC 148
 149:/home/dino/paparazzi/var/include/messages.h **** #define DL_GUIDANCE_H_REF_INT 149
 150:/home/dino/paparazzi/var/include/messages.h **** #define DL_ROTORCRAFT_TUNE_HOVER 150
 151:/home/dino/paparazzi/var/include/messages.h **** #define DL_INS_Z 151
 152:/home/dino/paparazzi/var/include/messages.h **** #define DL_PCAP01_STATUS 152
 153:/home/dino/paparazzi/var/include/messages.h **** #define DL_GEIGER_COUNTER 153
 154:/home/dino/paparazzi/var/include/messages.h **** #define DL_INS_REF 154
 155:/home/dino/paparazzi/var/include/messages.h **** #define DL_GPS_INT 155
 156:/home/dino/paparazzi/var/include/messages.h **** #define DL_AHRS_EULER_INT 156
 157:/home/dino/paparazzi/var/include/messages.h **** #define DL_AHRS_QUAT_INT 157
 158:/home/dino/paparazzi/var/include/messages.h **** #define DL_AHRS_RMAT_INT 158
 159:/home/dino/paparazzi/var/include/messages.h **** #define DL_ROTORCRAFT_NAV_STATUS 159
 160:/home/dino/paparazzi/var/include/messages.h **** #define DL_ROTORCRAFT_RADIO_CONTROL 160
 161:/home/dino/paparazzi/var/include/messages.h **** #define DL_VFF_EXTENDED 161
 162:/home/dino/paparazzi/var/include/messages.h **** #define DL_VFF 162
 163:/home/dino/paparazzi/var/include/messages.h **** #define DL_GEO_MAG 163
 164:/home/dino/paparazzi/var/include/messages.h **** #define DL_HFF 164
 165:/home/dino/paparazzi/var/include/messages.h **** #define DL_HFF_DBG 165
 166:/home/dino/paparazzi/var/include/messages.h **** #define DL_HFF_GPS 166
 167:/home/dino/paparazzi/var/include/messages.h **** #define DL_INS_SONAR 167
 168:/home/dino/paparazzi/var/include/messages.h **** #define DL_ROTORCRAFT_CAM 168
 169:/home/dino/paparazzi/var/include/messages.h **** #define DL_AHRS_REF_QUAT 169
 170:/home/dino/paparazzi/var/include/messages.h **** #define DL_EKF7_XHAT 170
 171:/home/dino/paparazzi/var/include/messages.h **** #define DL_EKF7_Y 171
 172:/home/dino/paparazzi/var/include/messages.h **** #define DL_EKF7_P_DIAG 172
 173:/home/dino/paparazzi/var/include/messages.h **** #define DL_AHRS_EULER 173
 174:/home/dino/paparazzi/var/include/messages.h **** #define DL_AHRS_MEASUREMENT_EULER 174
 175:/home/dino/paparazzi/var/include/messages.h **** #define DL_WT 175
 176:/home/dino/paparazzi/var/include/messages.h **** #define DL_CSC_CAN_DEBUG 176
 177:/home/dino/paparazzi/var/include/messages.h **** #define DL_CSC_CAN_MSG 177
 178:/home/dino/paparazzi/var/include/messages.h **** #define DL_AHRS_GYRO_BIAS_INT 178
 179:/home/dino/paparazzi/var/include/messages.h **** #define DL_FLOW_AP_OTF 179
 180:/home/dino/paparazzi/var/include/messages.h **** #define DL_FMS_TIME 180
 181:/home/dino/paparazzi/var/include/messages.h **** #define DL_LOADCELL 181
 182:/home/dino/paparazzi/var/include/messages.h **** #define DL_FLA_DEBUG 182
 183:/home/dino/paparazzi/var/include/messages.h **** #define DL_BLMC_FAULT_STATUS 183
 184:/home/dino/paparazzi/var/include/messages.h **** #define DL_BLMC_SPEEDS 184
 185:/home/dino/paparazzi/var/include/messages.h **** #define DL_AHRS_DEBUG_QUAT 185
 186:/home/dino/paparazzi/var/include/messages.h **** #define DL_BLMC_BUSVOLTS 186
 187:/home/dino/paparazzi/var/include/messages.h **** #define DL_SYSTEM_STATUS 187
 188:/home/dino/paparazzi/var/include/messages.h **** #define DL_DYNAMIXEL 188
 189:/home/dino/paparazzi/var/include/messages.h **** #define DL_RMAT_DEBUG 189
 190:/home/dino/paparazzi/var/include/messages.h **** #define DL_SIMPLE_COMMANDS 190
 191:/home/dino/paparazzi/var/include/messages.h **** #define DL_VANE_SENSOR 191
 192:/home/dino/paparazzi/var/include/messages.h **** #define DL_CONTROLLER_GAINS 192
 193:/home/dino/paparazzi/var/include/messages.h **** #define DL_AHRS_LKF 193
 194:/home/dino/paparazzi/var/include/messages.h **** #define DL_AHRS_LKF_DEBUG 194
 195:/home/dino/paparazzi/var/include/messages.h **** #define DL_AHRS_LKF_ACC_DBG 195
 196:/home/dino/paparazzi/var/include/messages.h **** #define DL_AHRS_LKF_MAG_DBG 196
 197:/home/dino/paparazzi/var/include/messages.h **** #define DL_NPS_SENSORS_SCALED 197
 198:/home/dino/paparazzi/var/include/messages.h **** #define DL_INS 198
 199:/home/dino/paparazzi/var/include/messages.h **** #define DL_GPS_ERROR 199
 200:/home/dino/paparazzi/var/include/messages.h **** #define DL_IMU_GYRO 200
 201:/home/dino/paparazzi/var/include/messages.h **** #define DL_IMU_MAG 201
 202:/home/dino/paparazzi/var/include/messages.h **** #define DL_IMU_ACCEL 202
 203:/home/dino/paparazzi/var/include/messages.h **** #define DL_IMU_GYRO_RAW 203
 204:/home/dino/paparazzi/var/include/messages.h **** #define DL_IMU_ACCEL_RAW 204
 205:/home/dino/paparazzi/var/include/messages.h **** #define DL_IMU_MAG_RAW 205
 206:/home/dino/paparazzi/var/include/messages.h **** #define DL_IMU_MAG_SETTINGS 206
 207:/home/dino/paparazzi/var/include/messages.h **** #define DL_IMU_MAG_CURRENT_CALIBRATION 207
 208:/home/dino/paparazzi/var/include/messages.h **** #define DL_UART_ERRORS 208
 209:/home/dino/paparazzi/var/include/messages.h **** #define DL_IMU_GYRO_LP 209
 210:/home/dino/paparazzi/var/include/messages.h **** #define DL_IMU_PRESSURE 210
 211:/home/dino/paparazzi/var/include/messages.h **** #define DL_IMU_HS_GYRO 211
 212:/home/dino/paparazzi/var/include/messages.h **** #define DL_TEST_PASSTHROUGH_STATUS 212
 213:/home/dino/paparazzi/var/include/messages.h **** #define DL_TUNE_VERT 213
 214:/home/dino/paparazzi/var/include/messages.h **** #define DL_MF_DAQ_STATE 214
 215:/home/dino/paparazzi/var/include/messages.h **** #define DL_INFO_MSG 215
 216:/home/dino/paparazzi/var/include/messages.h **** #define DL_STAB_ATTITUDE_INDI 216
 217:/home/dino/paparazzi/var/include/messages.h **** #define DL_BEBOP_ACTUATORS 218
 218:/home/dino/paparazzi/var/include/messages.h **** #define DL_WEATHER 219
 219:/home/dino/paparazzi/var/include/messages.h **** #define DL_IMU_TURNTABLE 220
 220:/home/dino/paparazzi/var/include/messages.h **** #define DL_BARO_RAW 221
 221:/home/dino/paparazzi/var/include/messages.h **** #define DL_AIR_DATA 222
 222:/home/dino/paparazzi/var/include/messages.h **** #define DL_AMSL 223
 223:/home/dino/paparazzi/var/include/messages.h **** #define DL_VIDEO_SYNC 225
 224:/home/dino/paparazzi/var/include/messages.h **** #define DL_PERIODIC_TELEMETRY_ERR 226
 225:/home/dino/paparazzi/var/include/messages.h **** #define DL_TIME 227
 226:/home/dino/paparazzi/var/include/messages.h **** #define DL_OPTIC_FLOW_EST 228
 227:/home/dino/paparazzi/var/include/messages.h **** #define DL_AHRS_ARDRONE2 230
 228:/home/dino/paparazzi/var/include/messages.h **** #define DL_ROTORCRAFT_STATUS 231
 229:/home/dino/paparazzi/var/include/messages.h **** #define DL_STATE_FILTER_STATUS 232
 230:/home/dino/paparazzi/var/include/messages.h **** #define DL_PX4FLOW 233
 231:/home/dino/paparazzi/var/include/messages.h **** #define DL_OPTICFLOW 234
 232:/home/dino/paparazzi/var/include/messages.h **** #define DL_VISUALTARGET 235
 233:/home/dino/paparazzi/var/include/messages.h **** #define DL_SONAR 236
 234:/home/dino/paparazzi/var/include/messages.h **** #define DL_PAYLOAD_FLOAT 237
 235:/home/dino/paparazzi/var/include/messages.h **** #define DL_NPS_POS_LLH 238
 236:/home/dino/paparazzi/var/include/messages.h **** #define DL_NPS_RPMS 239
 237:/home/dino/paparazzi/var/include/messages.h **** #define DL_NPS_SPEED_POS 240
 238:/home/dino/paparazzi/var/include/messages.h **** #define DL_NPS_RATE_ATTITUDE 241
 239:/home/dino/paparazzi/var/include/messages.h **** #define DL_NPS_GYRO_BIAS 242
 240:/home/dino/paparazzi/var/include/messages.h **** #define DL_NPS_RANGE_METER 243
 241:/home/dino/paparazzi/var/include/messages.h **** #define DL_NPS_WIND 244
 242:/home/dino/paparazzi/var/include/messages.h **** #define DL_PPRZ_DEBUG 247
 243:/home/dino/paparazzi/var/include/messages.h **** #define DL_NPS_ACCEL_LTP 248
 244:/home/dino/paparazzi/var/include/messages.h **** #define DL_LOOSE_INS_GPS 249
 245:/home/dino/paparazzi/var/include/messages.h **** #define DL_AFL_COEFFS 250
 246:/home/dino/paparazzi/var/include/messages.h **** #define DL_I2C_ERRORS 253
 247:/home/dino/paparazzi/var/include/messages.h **** #define DL_RDYB_TRAJECTORY 254
 248:/home/dino/paparazzi/var/include/messages.h **** #define DL_HENRY_GNSS 255
 249:/home/dino/paparazzi/var/include/messages.h **** #define DL_MSG_telemetry_NB 240
 250:/home/dino/paparazzi/var/include/messages.h **** 
 251:/home/dino/paparazzi/var/include/messages.h **** #define DOWNLINK_SEND_AUTOPILOT_VERSION(_trans, _dev, version, nb_desc, desc) pprz_msg_send_AUTOPIL
 252:/home/dino/paparazzi/var/include/messages.h **** static inline void pprz_msg_send_AUTOPILOT_VERSION(struct transport_tx *trans, struct link_device *
 253:/home/dino/paparazzi/var/include/messages.h **** 	if (trans->check_available_space(trans->impl, dev, trans->size_of(trans->impl, 0+4+1+nb_desc*1 +2 
 254:/home/dino/paparazzi/var/include/messages.h **** 	  trans->count_bytes(trans->impl, dev, trans->size_of(trans->impl, 0+4+1+nb_desc*1 +2 /* msg heade
 255:/home/dino/paparazzi/var/include/messages.h **** 	  trans->start_message(trans->impl, dev, 0+4+1+nb_desc*1 +2 /* msg header overhead */);
 256:/home/dino/paparazzi/var/include/messages.h **** 	  trans->put_bytes(trans->impl, dev, DL_TYPE_UINT8, DL_FORMAT_SCALAR, 1, &ac_id);
 257:/home/dino/paparazzi/var/include/messages.h **** 	  trans->put_named_byte(trans->impl, dev, DL_TYPE_UINT8, DL_FORMAT_SCALAR, DL_AUTOPILOT_VERSION, "
 258:/home/dino/paparazzi/var/include/messages.h **** 	  trans->put_bytes(trans->impl, dev, DL_TYPE_UINT32, DL_FORMAT_SCALAR, 4, (void *) _version);
 259:/home/dino/paparazzi/var/include/messages.h **** 	  trans->put_bytes(trans->impl, dev, DL_TYPE_ARRAY_LENGTH, DL_FORMAT_SCALAR, 1, (void *) &nb_desc)
 260:/home/dino/paparazzi/var/include/messages.h **** 	  trans->put_bytes(trans->impl, dev, DL_TYPE_CHAR, DL_FORMAT_ARRAY, 1 * nb_desc, (void *) _desc);
 261:/home/dino/paparazzi/var/include/messages.h **** 	  trans->end_message(trans->impl, dev);
 262:/home/dino/paparazzi/var/include/messages.h **** 	} else
 263:/home/dino/paparazzi/var/include/messages.h **** 	  trans->overrun(trans->impl, dev);
 264:/home/dino/paparazzi/var/include/messages.h **** }
 265:/home/dino/paparazzi/var/include/messages.h **** 
 266:/home/dino/paparazzi/var/include/messages.h **** #define DOWNLINK_SEND_ALIVE(_trans, _dev, nb_md5sum, md5sum) pprz_msg_send_ALIVE(&((_trans).trans_t
 267:/home/dino/paparazzi/var/include/messages.h **** static inline void pprz_msg_send_ALIVE(struct transport_tx *trans, struct link_device *dev, uint8_t
 268:/home/dino/paparazzi/var/include/messages.h **** 	if (trans->check_available_space(trans->impl, dev, trans->size_of(trans->impl, 0+1+nb_md5sum*1 +2 
 269:/home/dino/paparazzi/var/include/messages.h **** 	  trans->count_bytes(trans->impl, dev, trans->size_of(trans->impl, 0+1+nb_md5sum*1 +2 /* msg heade
 270:/home/dino/paparazzi/var/include/messages.h **** 	  trans->start_message(trans->impl, dev, 0+1+nb_md5sum*1 +2 /* msg header overhead */);
 271:/home/dino/paparazzi/var/include/messages.h **** 	  trans->put_bytes(trans->impl, dev, DL_TYPE_UINT8, DL_FORMAT_SCALAR, 1, &ac_id);
 272:/home/dino/paparazzi/var/include/messages.h **** 	  trans->put_named_byte(trans->impl, dev, DL_TYPE_UINT8, DL_FORMAT_SCALAR, DL_ALIVE, "ALIVE");
 273:/home/dino/paparazzi/var/include/messages.h **** 	  trans->put_bytes(trans->impl, dev, DL_TYPE_ARRAY_LENGTH, DL_FORMAT_SCALAR, 1, (void *) &nb_md5su
 274:/home/dino/paparazzi/var/include/messages.h **** 	  trans->put_bytes(trans->impl, dev, DL_TYPE_UINT8, DL_FORMAT_ARRAY, 1 * nb_md5sum, (void *) _md5s
 275:/home/dino/paparazzi/var/include/messages.h **** 	  trans->end_message(trans->impl, dev);
 276:/home/dino/paparazzi/var/include/messages.h **** 	} else
 277:/home/dino/paparazzi/var/include/messages.h **** 	  trans->overrun(trans->impl, dev);
 278:/home/dino/paparazzi/var/include/messages.h **** }
 279:/home/dino/paparazzi/var/include/messages.h **** 
 280:/home/dino/paparazzi/var/include/messages.h **** #define DOWNLINK_SEND_PONG(_trans, _dev) pprz_msg_send_PONG(&((_trans).trans_tx), &((_dev).device),
 281:/home/dino/paparazzi/var/include/messages.h **** static inline void pprz_msg_send_PONG(struct transport_tx *trans, struct link_device *dev, uint8_t 
 282:/home/dino/paparazzi/var/include/messages.h **** 	if (trans->check_available_space(trans->impl, dev, trans->size_of(trans->impl, 0 +2 /* msg header 
 283:/home/dino/paparazzi/var/include/messages.h **** 	  trans->count_bytes(trans->impl, dev, trans->size_of(trans->impl, 0 +2 /* msg header overhead */)
 284:/home/dino/paparazzi/var/include/messages.h **** 	  trans->start_message(trans->impl, dev, 0 +2 /* msg header overhead */);
 285:/home/dino/paparazzi/var/include/messages.h **** 	  trans->put_bytes(trans->impl, dev, DL_TYPE_UINT8, DL_FORMAT_SCALAR, 1, &ac_id);
 286:/home/dino/paparazzi/var/include/messages.h **** 	  trans->put_named_byte(trans->impl, dev, DL_TYPE_UINT8, DL_FORMAT_SCALAR, DL_PONG, "PONG");
 287:/home/dino/paparazzi/var/include/messages.h **** 	  trans->end_message(trans->impl, dev);
 288:/home/dino/paparazzi/var/include/messages.h **** 	} else
 289:/home/dino/paparazzi/var/include/messages.h **** 	  trans->overrun(trans->impl, dev);
 290:/home/dino/paparazzi/var/include/messages.h **** }
 291:/home/dino/paparazzi/var/include/messages.h **** 
 292:/home/dino/paparazzi/var/include/messages.h **** #define DOWNLINK_SEND_TAKEOFF(_trans, _dev, cpu_time) pprz_msg_send_TAKEOFF(&((_trans).trans_tx), &
 293:/home/dino/paparazzi/var/include/messages.h **** static inline void pprz_msg_send_TAKEOFF(struct transport_tx *trans, struct link_device *dev, uint8
 294:/home/dino/paparazzi/var/include/messages.h **** 	if (trans->check_available_space(trans->impl, dev, trans->size_of(trans->impl, 0+2 +2 /* msg heade
 295:/home/dino/paparazzi/var/include/messages.h **** 	  trans->count_bytes(trans->impl, dev, trans->size_of(trans->impl, 0+2 +2 /* msg header overhead *
 296:/home/dino/paparazzi/var/include/messages.h **** 	  trans->start_message(trans->impl, dev, 0+2 +2 /* msg header overhead */);
 297:/home/dino/paparazzi/var/include/messages.h **** 	  trans->put_bytes(trans->impl, dev, DL_TYPE_UINT8, DL_FORMAT_SCALAR, 1, &ac_id);
 298:/home/dino/paparazzi/var/include/messages.h **** 	  trans->put_named_byte(trans->impl, dev, DL_TYPE_UINT8, DL_FORMAT_SCALAR, DL_TAKEOFF, "TAKEOFF");
 299:/home/dino/paparazzi/var/include/messages.h **** 	  trans->put_bytes(trans->impl, dev, DL_TYPE_UINT16, DL_FORMAT_SCALAR, 2, (void *) _cpu_time);
 300:/home/dino/paparazzi/var/include/messages.h **** 	  trans->end_message(trans->impl, dev);
 301:/home/dino/paparazzi/var/include/messages.h **** 	} else
 302:/home/dino/paparazzi/var/include/messages.h **** 	  trans->overrun(trans->impl, dev);
 303:/home/dino/paparazzi/var/include/messages.h **** }
 304:/home/dino/paparazzi/var/include/messages.h **** 
 305:/home/dino/paparazzi/var/include/messages.h **** #define DOWNLINK_SEND_ARDRONE_NAVDATA(_trans, _dev, taille, nu_trame, ax, ay, az, vx, vy, vz, tempe
 306:/home/dino/paparazzi/var/include/messages.h **** static inline void pprz_msg_send_ARDRONE_NAVDATA(struct transport_tx *trans, struct link_device *de
 307:/home/dino/paparazzi/var/include/messages.h **** 	if (trans->check_available_space(trans->impl, dev, trans->size_of(trans->impl, 0+2+2+2+2+2+2+2+2+2
 308:/home/dino/paparazzi/var/include/messages.h **** 	  trans->count_bytes(trans->impl, dev, trans->size_of(trans->impl, 0+2+2+2+2+2+2+2+2+2+2+2+2+2+2+2
 309:/home/dino/paparazzi/var/include/messages.h **** 	  trans->start_message(trans->impl, dev, 0+2+2+2+2+2+2+2+2+2+2+2+2+2+2+2+2+2+2+2+4+2+2+4+2+2+2+2+2
 310:/home/dino/paparazzi/var/include/messages.h **** 	  trans->put_bytes(trans->impl, dev, DL_TYPE_UINT8, DL_FORMAT_SCALAR, 1, &ac_id);
 311:/home/dino/paparazzi/var/include/messages.h **** 	  trans->put_named_byte(trans->impl, dev, DL_TYPE_UINT8, DL_FORMAT_SCALAR, DL_ARDRONE_NAVDATA, "AR
 312:/home/dino/paparazzi/var/include/messages.h **** 	  trans->put_bytes(trans->impl, dev, DL_TYPE_UINT16, DL_FORMAT_SCALAR, 2, (void *) _taille);
 313:/home/dino/paparazzi/var/include/messages.h **** 	  trans->put_bytes(trans->impl, dev, DL_TYPE_UINT16, DL_FORMAT_SCALAR, 2, (void *) _nu_trame);
 314:/home/dino/paparazzi/var/include/messages.h **** 	  trans->put_bytes(trans->impl, dev, DL_TYPE_UINT16, DL_FORMAT_SCALAR, 2, (void *) _ax);
 315:/home/dino/paparazzi/var/include/messages.h **** 	  trans->put_bytes(trans->impl, dev, DL_TYPE_UINT16, DL_FORMAT_SCALAR, 2, (void *) _ay);
 316:/home/dino/paparazzi/var/include/messages.h **** 	  trans->put_bytes(trans->impl, dev, DL_TYPE_UINT16, DL_FORMAT_SCALAR, 2, (void *) _az);
 317:/home/dino/paparazzi/var/include/messages.h **** 	  trans->put_bytes(trans->impl, dev, DL_TYPE_INT16, DL_FORMAT_SCALAR, 2, (void *) _vx);
 318:/home/dino/paparazzi/var/include/messages.h **** 	  trans->put_bytes(trans->impl, dev, DL_TYPE_INT16, DL_FORMAT_SCALAR, 2, (void *) _vy);
 319:/home/dino/paparazzi/var/include/messages.h **** 	  trans->put_bytes(trans->impl, dev, DL_TYPE_INT16, DL_FORMAT_SCALAR, 2, (void *) _vz);
 320:/home/dino/paparazzi/var/include/messages.h **** 	  trans->put_bytes(trans->impl, dev, DL_TYPE_UINT16, DL_FORMAT_SCALAR, 2, (void *) _temperature_ac
 321:/home/dino/paparazzi/var/include/messages.h **** 	  trans->put_bytes(trans->impl, dev, DL_TYPE_UINT16, DL_FORMAT_SCALAR, 2, (void *) _temperature_gy
 322:/home/dino/paparazzi/var/include/messages.h **** 	  trans->put_bytes(trans->impl, dev, DL_TYPE_UINT16, DL_FORMAT_SCALAR, 2, (void *) _ultrasound);
 323:/home/dino/paparazzi/var/include/messages.h **** 	  trans->put_bytes(trans->impl, dev, DL_TYPE_UINT16, DL_FORMAT_SCALAR, 2, (void *) _us_debut_echo)
 324:/home/dino/paparazzi/var/include/messages.h **** 	  trans->put_bytes(trans->impl, dev, DL_TYPE_UINT16, DL_FORMAT_SCALAR, 2, (void *) _us_fin_echo);
 325:/home/dino/paparazzi/var/include/messages.h **** 	  trans->put_bytes(trans->impl, dev, DL_TYPE_UINT16, DL_FORMAT_SCALAR, 2, (void *) _us_association
 326:/home/dino/paparazzi/var/include/messages.h **** 	  trans->put_bytes(trans->impl, dev, DL_TYPE_UINT16, DL_FORMAT_SCALAR, 2, (void *) _us_distance_ec
 327:/home/dino/paparazzi/var/include/messages.h **** 	  trans->put_bytes(trans->impl, dev, DL_TYPE_UINT16, DL_FORMAT_SCALAR, 2, (void *) _us_curve_time)
 328:/home/dino/paparazzi/var/include/messages.h **** 	  trans->put_bytes(trans->impl, dev, DL_TYPE_UINT16, DL_FORMAT_SCALAR, 2, (void *) _us_curve_value
 329:/home/dino/paparazzi/var/include/messages.h **** 	  trans->put_bytes(trans->impl, dev, DL_TYPE_UINT16, DL_FORMAT_SCALAR, 2, (void *) _us_curve_ref);
 330:/home/dino/paparazzi/var/include/messages.h **** 	  trans->put_bytes(trans->impl, dev, DL_TYPE_UINT16, DL_FORMAT_SCALAR, 2, (void *) _nb_echo);
 331:/home/dino/paparazzi/var/include/messages.h **** 	  trans->put_bytes(trans->impl, dev, DL_TYPE_UINT32, DL_FORMAT_SCALAR, 4, (void *) _sum_echo);
 332:/home/dino/paparazzi/var/include/messages.h **** 	  trans->put_bytes(trans->impl, dev, DL_TYPE_INT16, DL_FORMAT_SCALAR, 2, (void *) _gradient);
 333:/home/dino/paparazzi/var/include/messages.h **** 	  trans->put_bytes(trans->impl, dev, DL_TYPE_UINT16, DL_FORMAT_SCALAR, 2, (void *) _flag_echo_ini)
 334:/home/dino/paparazzi/var/include/messages.h **** 	  trans->put_bytes(trans->impl, dev, DL_TYPE_INT32, DL_FORMAT_SCALAR, 4, (void *) _pressure);
 335:/home/dino/paparazzi/var/include/messages.h **** 	  trans->put_bytes(trans->impl, dev, DL_TYPE_UINT16, DL_FORMAT_SCALAR, 2, (void *) _temperature_pr
 336:/home/dino/paparazzi/var/include/messages.h **** 	  trans->put_bytes(trans->impl, dev, DL_TYPE_INT16, DL_FORMAT_SCALAR, 2, (void *) _mx);
 337:/home/dino/paparazzi/var/include/messages.h **** 	  trans->put_bytes(trans->impl, dev, DL_TYPE_INT16, DL_FORMAT_SCALAR, 2, (void *) _my);
 338:/home/dino/paparazzi/var/include/messages.h **** 	  trans->put_bytes(trans->impl, dev, DL_TYPE_INT16, DL_FORMAT_SCALAR, 2, (void *) _mz);
 339:/home/dino/paparazzi/var/include/messages.h **** 	  trans->put_bytes(trans->impl, dev, DL_TYPE_UINT16, DL_FORMAT_SCALAR, 2, (void *) _chksum);
 340:/home/dino/paparazzi/var/include/messages.h **** 	  trans->put_bytes(trans->impl, dev, DL_TYPE_UINT32, DL_FORMAT_SCALAR, 4, (void *) _checksum_error
 341:/home/dino/paparazzi/var/include/messages.h **** 	  trans->end_message(trans->impl, dev);
 342:/home/dino/paparazzi/var/include/messages.h **** 	} else
 343:/home/dino/paparazzi/var/include/messages.h **** 	  trans->overrun(trans->impl, dev);
 344:/home/dino/paparazzi/var/include/messages.h **** }
 345:/home/dino/paparazzi/var/include/messages.h **** 
 346:/home/dino/paparazzi/var/include/messages.h **** #define DOWNLINK_SEND_ATTITUDE(_trans, _dev, phi, psi, theta) pprz_msg_send_ATTITUDE(&((_trans).tra
 347:/home/dino/paparazzi/var/include/messages.h **** static inline void pprz_msg_send_ATTITUDE(struct transport_tx *trans, struct link_device *dev, uint
 348:/home/dino/paparazzi/var/include/messages.h **** 	if (trans->check_available_space(trans->impl, dev, trans->size_of(trans->impl, 0+4+4+4 +2 /* msg h
 349:/home/dino/paparazzi/var/include/messages.h **** 	  trans->count_bytes(trans->impl, dev, trans->size_of(trans->impl, 0+4+4+4 +2 /* msg header overhe
 350:/home/dino/paparazzi/var/include/messages.h **** 	  trans->start_message(trans->impl, dev, 0+4+4+4 +2 /* msg header overhead */);
 351:/home/dino/paparazzi/var/include/messages.h **** 	  trans->put_bytes(trans->impl, dev, DL_TYPE_UINT8, DL_FORMAT_SCALAR, 1, &ac_id);
 352:/home/dino/paparazzi/var/include/messages.h **** 	  trans->put_named_byte(trans->impl, dev, DL_TYPE_UINT8, DL_FORMAT_SCALAR, DL_ATTITUDE, "ATTITUDE"
 353:/home/dino/paparazzi/var/include/messages.h **** 	  trans->put_bytes(trans->impl, dev, DL_TYPE_FLOAT, DL_FORMAT_SCALAR, 4, (void *) _phi);
 354:/home/dino/paparazzi/var/include/messages.h **** 	  trans->put_bytes(trans->impl, dev, DL_TYPE_FLOAT, DL_FORMAT_SCALAR, 4, (void *) _psi);
 355:/home/dino/paparazzi/var/include/messages.h **** 	  trans->put_bytes(trans->impl, dev, DL_TYPE_FLOAT, DL_FORMAT_SCALAR, 4, (void *) _theta);
 356:/home/dino/paparazzi/var/include/messages.h **** 	  trans->end_message(trans->impl, dev);
 357:/home/dino/paparazzi/var/include/messages.h **** 	} else
 358:/home/dino/paparazzi/var/include/messages.h **** 	  trans->overrun(trans->impl, dev);
 359:/home/dino/paparazzi/var/include/messages.h **** }
 360:/home/dino/paparazzi/var/include/messages.h **** 
 361:/home/dino/paparazzi/var/include/messages.h **** #define DOWNLINK_SEND_IR_SENSORS(_trans, _dev, ir1, ir2, longitudinal, lateral, vertical) pprz_msg_
 362:/home/dino/paparazzi/var/include/messages.h **** static inline void pprz_msg_send_IR_SENSORS(struct transport_tx *trans, struct link_device *dev, ui
 363:/home/dino/paparazzi/var/include/messages.h **** 	if (trans->check_available_space(trans->impl, dev, trans->size_of(trans->impl, 0+2+2+2+2+2 +2 /* m
 364:/home/dino/paparazzi/var/include/messages.h **** 	  trans->count_bytes(trans->impl, dev, trans->size_of(trans->impl, 0+2+2+2+2+2 +2 /* msg header ov
 365:/home/dino/paparazzi/var/include/messages.h **** 	  trans->start_message(trans->impl, dev, 0+2+2+2+2+2 +2 /* msg header overhead */);
 366:/home/dino/paparazzi/var/include/messages.h **** 	  trans->put_bytes(trans->impl, dev, DL_TYPE_UINT8, DL_FORMAT_SCALAR, 1, &ac_id);
 367:/home/dino/paparazzi/var/include/messages.h **** 	  trans->put_named_byte(trans->impl, dev, DL_TYPE_UINT8, DL_FORMAT_SCALAR, DL_IR_SENSORS, "IR_SENS
 368:/home/dino/paparazzi/var/include/messages.h **** 	  trans->put_bytes(trans->impl, dev, DL_TYPE_INT16, DL_FORMAT_SCALAR, 2, (void *) _ir1);
 369:/home/dino/paparazzi/var/include/messages.h **** 	  trans->put_bytes(trans->impl, dev, DL_TYPE_INT16, DL_FORMAT_SCALAR, 2, (void *) _ir2);
 370:/home/dino/paparazzi/var/include/messages.h **** 	  trans->put_bytes(trans->impl, dev, DL_TYPE_INT16, DL_FORMAT_SCALAR, 2, (void *) _longitudinal);
 371:/home/dino/paparazzi/var/include/messages.h **** 	  trans->put_bytes(trans->impl, dev, DL_TYPE_INT16, DL_FORMAT_SCALAR, 2, (void *) _lateral);
 372:/home/dino/paparazzi/var/include/messages.h **** 	  trans->put_bytes(trans->impl, dev, DL_TYPE_INT16, DL_FORMAT_SCALAR, 2, (void *) _vertical);
 373:/home/dino/paparazzi/var/include/messages.h **** 	  trans->end_message(trans->impl, dev);
 374:/home/dino/paparazzi/var/include/messages.h **** 	} else
 375:/home/dino/paparazzi/var/include/messages.h **** 	  trans->overrun(trans->impl, dev);
 376:/home/dino/paparazzi/var/include/messages.h **** }
 377:/home/dino/paparazzi/var/include/messages.h **** 
 378:/home/dino/paparazzi/var/include/messages.h **** #define DOWNLINK_SEND_GPS(_trans, _dev, mode, utm_east, utm_north, course, alt, speed, climb, week,
 379:/home/dino/paparazzi/var/include/messages.h **** static inline void pprz_msg_send_GPS(struct transport_tx *trans, struct link_device *dev, uint8_t a
 380:/home/dino/paparazzi/var/include/messages.h **** 	if (trans->check_available_space(trans->impl, dev, trans->size_of(trans->impl, 0+1+4+4+2+4+2+2+2+4
 381:/home/dino/paparazzi/var/include/messages.h **** 	  trans->count_bytes(trans->impl, dev, trans->size_of(trans->impl, 0+1+4+4+2+4+2+2+2+4+1+1 +2 /* m
 382:/home/dino/paparazzi/var/include/messages.h **** 	  trans->start_message(trans->impl, dev, 0+1+4+4+2+4+2+2+2+4+1+1 +2 /* msg header overhead */);
 383:/home/dino/paparazzi/var/include/messages.h **** 	  trans->put_bytes(trans->impl, dev, DL_TYPE_UINT8, DL_FORMAT_SCALAR, 1, &ac_id);
 384:/home/dino/paparazzi/var/include/messages.h **** 	  trans->put_named_byte(trans->impl, dev, DL_TYPE_UINT8, DL_FORMAT_SCALAR, DL_GPS, "GPS");
 385:/home/dino/paparazzi/var/include/messages.h **** 	  trans->put_bytes(trans->impl, dev, DL_TYPE_UINT8, DL_FORMAT_SCALAR, 1, (void *) _mode);
 386:/home/dino/paparazzi/var/include/messages.h **** 	  trans->put_bytes(trans->impl, dev, DL_TYPE_INT32, DL_FORMAT_SCALAR, 4, (void *) _utm_east);
 387:/home/dino/paparazzi/var/include/messages.h **** 	  trans->put_bytes(trans->impl, dev, DL_TYPE_INT32, DL_FORMAT_SCALAR, 4, (void *) _utm_north);
 388:/home/dino/paparazzi/var/include/messages.h **** 	  trans->put_bytes(trans->impl, dev, DL_TYPE_INT16, DL_FORMAT_SCALAR, 2, (void *) _course);
 389:/home/dino/paparazzi/var/include/messages.h **** 	  trans->put_bytes(trans->impl, dev, DL_TYPE_INT32, DL_FORMAT_SCALAR, 4, (void *) _alt);
 390:/home/dino/paparazzi/var/include/messages.h **** 	  trans->put_bytes(trans->impl, dev, DL_TYPE_UINT16, DL_FORMAT_SCALAR, 2, (void *) _speed);
 391:/home/dino/paparazzi/var/include/messages.h **** 	  trans->put_bytes(trans->impl, dev, DL_TYPE_INT16, DL_FORMAT_SCALAR, 2, (void *) _climb);
 392:/home/dino/paparazzi/var/include/messages.h **** 	  trans->put_bytes(trans->impl, dev, DL_TYPE_UINT16, DL_FORMAT_SCALAR, 2, (void *) _week);
 393:/home/dino/paparazzi/var/include/messages.h **** 	  trans->put_bytes(trans->impl, dev, DL_TYPE_UINT32, DL_FORMAT_SCALAR, 4, (void *) _itow);
 394:/home/dino/paparazzi/var/include/messages.h **** 	  trans->put_bytes(trans->impl, dev, DL_TYPE_UINT8, DL_FORMAT_SCALAR, 1, (void *) _utm_zone);
 395:/home/dino/paparazzi/var/include/messages.h **** 	  trans->put_bytes(trans->impl, dev, DL_TYPE_UINT8, DL_FORMAT_SCALAR, 1, (void *) _gps_nb_err);
 396:/home/dino/paparazzi/var/include/messages.h **** 	  trans->end_message(trans->impl, dev);
 397:/home/dino/paparazzi/var/include/messages.h **** 	} else
 398:/home/dino/paparazzi/var/include/messages.h **** 	  trans->overrun(trans->impl, dev);
 399:/home/dino/paparazzi/var/include/messages.h **** }
 400:/home/dino/paparazzi/var/include/messages.h **** 
 401:/home/dino/paparazzi/var/include/messages.h **** #define DOWNLINK_SEND_NAVIGATION_REF(_trans, _dev, utm_east, utm_north, utm_zone, ground_alt) pprz_
 402:/home/dino/paparazzi/var/include/messages.h **** static inline void pprz_msg_send_NAVIGATION_REF(struct transport_tx *trans, struct link_device *dev
 403:/home/dino/paparazzi/var/include/messages.h **** 	if (trans->check_available_space(trans->impl, dev, trans->size_of(trans->impl, 0+4+4+1+4 +2 /* msg
 404:/home/dino/paparazzi/var/include/messages.h **** 	  trans->count_bytes(trans->impl, dev, trans->size_of(trans->impl, 0+4+4+1+4 +2 /* msg header over
 405:/home/dino/paparazzi/var/include/messages.h **** 	  trans->start_message(trans->impl, dev, 0+4+4+1+4 +2 /* msg header overhead */);
 406:/home/dino/paparazzi/var/include/messages.h **** 	  trans->put_bytes(trans->impl, dev, DL_TYPE_UINT8, DL_FORMAT_SCALAR, 1, &ac_id);
 407:/home/dino/paparazzi/var/include/messages.h **** 	  trans->put_named_byte(trans->impl, dev, DL_TYPE_UINT8, DL_FORMAT_SCALAR, DL_NAVIGATION_REF, "NAV
 408:/home/dino/paparazzi/var/include/messages.h **** 	  trans->put_bytes(trans->impl, dev, DL_TYPE_INT32, DL_FORMAT_SCALAR, 4, (void *) _utm_east);
 409:/home/dino/paparazzi/var/include/messages.h **** 	  trans->put_bytes(trans->impl, dev, DL_TYPE_INT32, DL_FORMAT_SCALAR, 4, (void *) _utm_north);
 410:/home/dino/paparazzi/var/include/messages.h **** 	  trans->put_bytes(trans->impl, dev, DL_TYPE_UINT8, DL_FORMAT_SCALAR, 1, (void *) _utm_zone);
 411:/home/dino/paparazzi/var/include/messages.h **** 	  trans->put_bytes(trans->impl, dev, DL_TYPE_FLOAT, DL_FORMAT_SCALAR, 4, (void *) _ground_alt);
 412:/home/dino/paparazzi/var/include/messages.h **** 	  trans->end_message(trans->impl, dev);
 413:/home/dino/paparazzi/var/include/messages.h **** 	} else
 414:/home/dino/paparazzi/var/include/messages.h **** 	  trans->overrun(trans->impl, dev);
 415:/home/dino/paparazzi/var/include/messages.h **** }
 416:/home/dino/paparazzi/var/include/messages.h **** 
 417:/home/dino/paparazzi/var/include/messages.h **** #define DOWNLINK_SEND_NAVIGATION(_trans, _dev, cur_block, cur_stage, pos_x, pos_y, dist_wp, dist_ho
 418:/home/dino/paparazzi/var/include/messages.h **** static inline void pprz_msg_send_NAVIGATION(struct transport_tx *trans, struct link_device *dev, ui
 419:/home/dino/paparazzi/var/include/messages.h **** 	if (trans->check_available_space(trans->impl, dev, trans->size_of(trans->impl, 0+1+1+4+4+4+4+1+1 +
 420:/home/dino/paparazzi/var/include/messages.h **** 	  trans->count_bytes(trans->impl, dev, trans->size_of(trans->impl, 0+1+1+4+4+4+4+1+1 +2 /* msg hea
 421:/home/dino/paparazzi/var/include/messages.h **** 	  trans->start_message(trans->impl, dev, 0+1+1+4+4+4+4+1+1 +2 /* msg header overhead */);
 422:/home/dino/paparazzi/var/include/messages.h **** 	  trans->put_bytes(trans->impl, dev, DL_TYPE_UINT8, DL_FORMAT_SCALAR, 1, &ac_id);
 423:/home/dino/paparazzi/var/include/messages.h **** 	  trans->put_named_byte(trans->impl, dev, DL_TYPE_UINT8, DL_FORMAT_SCALAR, DL_NAVIGATION, "NAVIGAT
 424:/home/dino/paparazzi/var/include/messages.h **** 	  trans->put_bytes(trans->impl, dev, DL_TYPE_UINT8, DL_FORMAT_SCALAR, 1, (void *) _cur_block);
 425:/home/dino/paparazzi/var/include/messages.h **** 	  trans->put_bytes(trans->impl, dev, DL_TYPE_UINT8, DL_FORMAT_SCALAR, 1, (void *) _cur_stage);
 426:/home/dino/paparazzi/var/include/messages.h **** 	  trans->put_bytes(trans->impl, dev, DL_TYPE_FLOAT, DL_FORMAT_SCALAR, 4, (void *) _pos_x);
 427:/home/dino/paparazzi/var/include/messages.h **** 	  trans->put_bytes(trans->impl, dev, DL_TYPE_FLOAT, DL_FORMAT_SCALAR, 4, (void *) _pos_y);
 428:/home/dino/paparazzi/var/include/messages.h **** 	  trans->put_bytes(trans->impl, dev, DL_TYPE_FLOAT, DL_FORMAT_SCALAR, 4, (void *) _dist_wp);
 429:/home/dino/paparazzi/var/include/messages.h **** 	  trans->put_bytes(trans->impl, dev, DL_TYPE_FLOAT, DL_FORMAT_SCALAR, 4, (void *) _dist_home);
 430:/home/dino/paparazzi/var/include/messages.h **** 	  trans->put_bytes(trans->impl, dev, DL_TYPE_UINT8, DL_FORMAT_SCALAR, 1, (void *) _circle_count);
 431:/home/dino/paparazzi/var/include/messages.h **** 	  trans->put_bytes(trans->impl, dev, DL_TYPE_UINT8, DL_FORMAT_SCALAR, 1, (void *) _oval_count);
 432:/home/dino/paparazzi/var/include/messages.h **** 	  trans->end_message(trans->impl, dev);
 433:/home/dino/paparazzi/var/include/messages.h **** 	} else
 434:/home/dino/paparazzi/var/include/messages.h **** 	  trans->overrun(trans->impl, dev);
 435:/home/dino/paparazzi/var/include/messages.h **** }
 436:/home/dino/paparazzi/var/include/messages.h **** 
 437:/home/dino/paparazzi/var/include/messages.h **** #define DOWNLINK_SEND_PPRZ_MODE(_trans, _dev, ap_mode, ap_gaz, ap_lateral, ap_horizontal, if_calib_
 438:/home/dino/paparazzi/var/include/messages.h **** static inline void pprz_msg_send_PPRZ_MODE(struct transport_tx *trans, struct link_device *dev, uin
 439:/home/dino/paparazzi/var/include/messages.h **** 	if (trans->check_available_space(trans->impl, dev, trans->size_of(trans->impl, 0+1+1+1+1+1+1 +2 /*
 440:/home/dino/paparazzi/var/include/messages.h **** 	  trans->count_bytes(trans->impl, dev, trans->size_of(trans->impl, 0+1+1+1+1+1+1 +2 /* msg header 
 441:/home/dino/paparazzi/var/include/messages.h **** 	  trans->start_message(trans->impl, dev, 0+1+1+1+1+1+1 +2 /* msg header overhead */);
 442:/home/dino/paparazzi/var/include/messages.h **** 	  trans->put_bytes(trans->impl, dev, DL_TYPE_UINT8, DL_FORMAT_SCALAR, 1, &ac_id);
 443:/home/dino/paparazzi/var/include/messages.h **** 	  trans->put_named_byte(trans->impl, dev, DL_TYPE_UINT8, DL_FORMAT_SCALAR, DL_PPRZ_MODE, "PPRZ_MOD
 444:/home/dino/paparazzi/var/include/messages.h **** 	  trans->put_bytes(trans->impl, dev, DL_TYPE_UINT8, DL_FORMAT_SCALAR, 1, (void *) _ap_mode);
 445:/home/dino/paparazzi/var/include/messages.h **** 	  trans->put_bytes(trans->impl, dev, DL_TYPE_UINT8, DL_FORMAT_SCALAR, 1, (void *) _ap_gaz);
 446:/home/dino/paparazzi/var/include/messages.h **** 	  trans->put_bytes(trans->impl, dev, DL_TYPE_UINT8, DL_FORMAT_SCALAR, 1, (void *) _ap_lateral);
 447:/home/dino/paparazzi/var/include/messages.h **** 	  trans->put_bytes(trans->impl, dev, DL_TYPE_UINT8, DL_FORMAT_SCALAR, 1, (void *) _ap_horizontal);
 448:/home/dino/paparazzi/var/include/messages.h **** 	  trans->put_bytes(trans->impl, dev, DL_TYPE_UINT8, DL_FORMAT_SCALAR, 1, (void *) _if_calib_mode);
 449:/home/dino/paparazzi/var/include/messages.h **** 	  trans->put_bytes(trans->impl, dev, DL_TYPE_UINT8, DL_FORMAT_SCALAR, 1, (void *) _mcu1_status);
 450:/home/dino/paparazzi/var/include/messages.h **** 	  trans->end_message(trans->impl, dev);
 451:/home/dino/paparazzi/var/include/messages.h **** 	} else
 452:/home/dino/paparazzi/var/include/messages.h **** 	  trans->overrun(trans->impl, dev);
 453:/home/dino/paparazzi/var/include/messages.h **** }
 454:/home/dino/paparazzi/var/include/messages.h **** 
 455:/home/dino/paparazzi/var/include/messages.h **** #define DOWNLINK_SEND_BAT(_trans, _dev, throttle, voltage, amps, flight_time, kill_auto_throttle, b
 456:/home/dino/paparazzi/var/include/messages.h **** static inline void pprz_msg_send_BAT(struct transport_tx *trans, struct link_device *dev, uint8_t a
 457:/home/dino/paparazzi/var/include/messages.h **** 	if (trans->check_available_space(trans->impl, dev, trans->size_of(trans->impl, 0+2+2+2+2+1+2+2+2 +
 458:/home/dino/paparazzi/var/include/messages.h **** 	  trans->count_bytes(trans->impl, dev, trans->size_of(trans->impl, 0+2+2+2+2+1+2+2+2 +2 /* msg hea
 459:/home/dino/paparazzi/var/include/messages.h **** 	  trans->start_message(trans->impl, dev, 0+2+2+2+2+1+2+2+2 +2 /* msg header overhead */);
 460:/home/dino/paparazzi/var/include/messages.h **** 	  trans->put_bytes(trans->impl, dev, DL_TYPE_UINT8, DL_FORMAT_SCALAR, 1, &ac_id);
 461:/home/dino/paparazzi/var/include/messages.h **** 	  trans->put_named_byte(trans->impl, dev, DL_TYPE_UINT8, DL_FORMAT_SCALAR, DL_BAT, "BAT");
 462:/home/dino/paparazzi/var/include/messages.h **** 	  trans->put_bytes(trans->impl, dev, DL_TYPE_INT16, DL_FORMAT_SCALAR, 2, (void *) _throttle);
 463:/home/dino/paparazzi/var/include/messages.h **** 	  trans->put_bytes(trans->impl, dev, DL_TYPE_UINT16, DL_FORMAT_SCALAR, 2, (void *) _voltage);
 464:/home/dino/paparazzi/var/include/messages.h **** 	  trans->put_bytes(trans->impl, dev, DL_TYPE_INT16, DL_FORMAT_SCALAR, 2, (void *) _amps);
 465:/home/dino/paparazzi/var/include/messages.h **** 	  trans->put_bytes(trans->impl, dev, DL_TYPE_UINT16, DL_FORMAT_SCALAR, 2, (void *) _flight_time);
 466:/home/dino/paparazzi/var/include/messages.h **** 	  trans->put_bytes(trans->impl, dev, DL_TYPE_UINT8, DL_FORMAT_SCALAR, 1, (void *) _kill_auto_throt
 467:/home/dino/paparazzi/var/include/messages.h **** 	  trans->put_bytes(trans->impl, dev, DL_TYPE_UINT16, DL_FORMAT_SCALAR, 2, (void *) _block_time);
 468:/home/dino/paparazzi/var/include/messages.h **** 	  trans->put_bytes(trans->impl, dev, DL_TYPE_UINT16, DL_FORMAT_SCALAR, 2, (void *) _stage_time);
 469:/home/dino/paparazzi/var/include/messages.h **** 	  trans->put_bytes(trans->impl, dev, DL_TYPE_INT16, DL_FORMAT_SCALAR, 2, (void *) _energy);
 470:/home/dino/paparazzi/var/include/messages.h **** 	  trans->end_message(trans->impl, dev);
 471:/home/dino/paparazzi/var/include/messages.h **** 	} else
 472:/home/dino/paparazzi/var/include/messages.h **** 	  trans->overrun(trans->impl, dev);
 473:/home/dino/paparazzi/var/include/messages.h **** }
 474:/home/dino/paparazzi/var/include/messages.h **** 
 475:/home/dino/paparazzi/var/include/messages.h **** #define DOWNLINK_SEND_DEBUG_MCU_LINK(_trans, _dev, i2c_nb_err, i2c_mcu1_nb_err, ppm_rate) pprz_msg_
 476:/home/dino/paparazzi/var/include/messages.h **** static inline void pprz_msg_send_DEBUG_MCU_LINK(struct transport_tx *trans, struct link_device *dev
 477:/home/dino/paparazzi/var/include/messages.h **** 	if (trans->check_available_space(trans->impl, dev, trans->size_of(trans->impl, 0+1+1+1 +2 /* msg h
 478:/home/dino/paparazzi/var/include/messages.h **** 	  trans->count_bytes(trans->impl, dev, trans->size_of(trans->impl, 0+1+1+1 +2 /* msg header overhe
 479:/home/dino/paparazzi/var/include/messages.h **** 	  trans->start_message(trans->impl, dev, 0+1+1+1 +2 /* msg header overhead */);
 480:/home/dino/paparazzi/var/include/messages.h **** 	  trans->put_bytes(trans->impl, dev, DL_TYPE_UINT8, DL_FORMAT_SCALAR, 1, &ac_id);
 481:/home/dino/paparazzi/var/include/messages.h **** 	  trans->put_named_byte(trans->impl, dev, DL_TYPE_UINT8, DL_FORMAT_SCALAR, DL_DEBUG_MCU_LINK, "DEB
 482:/home/dino/paparazzi/var/include/messages.h **** 	  trans->put_bytes(trans->impl, dev, DL_TYPE_UINT8, DL_FORMAT_SCALAR, 1, (void *) _i2c_nb_err);
 483:/home/dino/paparazzi/var/include/messages.h **** 	  trans->put_bytes(trans->impl, dev, DL_TYPE_UINT8, DL_FORMAT_SCALAR, 1, (void *) _i2c_mcu1_nb_err
 484:/home/dino/paparazzi/var/include/messages.h **** 	  trans->put_bytes(trans->impl, dev, DL_TYPE_UINT8, DL_FORMAT_SCALAR, 1, (void *) _ppm_rate);
 485:/home/dino/paparazzi/var/include/messages.h **** 	  trans->end_message(trans->impl, dev);
 486:/home/dino/paparazzi/var/include/messages.h **** 	} else
 487:/home/dino/paparazzi/var/include/messages.h **** 	  trans->overrun(trans->impl, dev);
 488:/home/dino/paparazzi/var/include/messages.h **** }
 489:/home/dino/paparazzi/var/include/messages.h **** 
 490:/home/dino/paparazzi/var/include/messages.h **** #define DOWNLINK_SEND_CALIBRATION(_trans, _dev, climb_sum_err, climb_gaz_submode) pprz_msg_send_CAL
 491:/home/dino/paparazzi/var/include/messages.h **** static inline void pprz_msg_send_CALIBRATION(struct transport_tx *trans, struct link_device *dev, u
 492:/home/dino/paparazzi/var/include/messages.h **** 	if (trans->check_available_space(trans->impl, dev, trans->size_of(trans->impl, 0+4+1 +2 /* msg hea
 493:/home/dino/paparazzi/var/include/messages.h **** 	  trans->count_bytes(trans->impl, dev, trans->size_of(trans->impl, 0+4+1 +2 /* msg header overhead
 494:/home/dino/paparazzi/var/include/messages.h **** 	  trans->start_message(trans->impl, dev, 0+4+1 +2 /* msg header overhead */);
 495:/home/dino/paparazzi/var/include/messages.h **** 	  trans->put_bytes(trans->impl, dev, DL_TYPE_UINT8, DL_FORMAT_SCALAR, 1, &ac_id);
 496:/home/dino/paparazzi/var/include/messages.h **** 	  trans->put_named_byte(trans->impl, dev, DL_TYPE_UINT8, DL_FORMAT_SCALAR, DL_CALIBRATION, "CALIBR
 497:/home/dino/paparazzi/var/include/messages.h **** 	  trans->put_bytes(trans->impl, dev, DL_TYPE_FLOAT, DL_FORMAT_SCALAR, 4, (void *) _climb_sum_err);
 498:/home/dino/paparazzi/var/include/messages.h **** 	  trans->put_bytes(trans->impl, dev, DL_TYPE_UINT8, DL_FORMAT_SCALAR, 1, (void *) _climb_gaz_submo
 499:/home/dino/paparazzi/var/include/messages.h **** 	  trans->end_message(trans->impl, dev);
 500:/home/dino/paparazzi/var/include/messages.h **** 	} else
 501:/home/dino/paparazzi/var/include/messages.h **** 	  trans->overrun(trans->impl, dev);
 502:/home/dino/paparazzi/var/include/messages.h **** }
 503:/home/dino/paparazzi/var/include/messages.h **** 
 504:/home/dino/paparazzi/var/include/messages.h **** #define DOWNLINK_SEND_SETTINGS(_trans, _dev, slider_1_val, slider_2_val) pprz_msg_send_SETTINGS(&((
 505:/home/dino/paparazzi/var/include/messages.h **** static inline void pprz_msg_send_SETTINGS(struct transport_tx *trans, struct link_device *dev, uint
 506:/home/dino/paparazzi/var/include/messages.h **** 	if (trans->check_available_space(trans->impl, dev, trans->size_of(trans->impl, 0+4+4 +2 /* msg hea
 507:/home/dino/paparazzi/var/include/messages.h **** 	  trans->count_bytes(trans->impl, dev, trans->size_of(trans->impl, 0+4+4 +2 /* msg header overhead
 508:/home/dino/paparazzi/var/include/messages.h **** 	  trans->start_message(trans->impl, dev, 0+4+4 +2 /* msg header overhead */);
 509:/home/dino/paparazzi/var/include/messages.h **** 	  trans->put_bytes(trans->impl, dev, DL_TYPE_UINT8, DL_FORMAT_SCALAR, 1, &ac_id);
 510:/home/dino/paparazzi/var/include/messages.h **** 	  trans->put_named_byte(trans->impl, dev, DL_TYPE_UINT8, DL_FORMAT_SCALAR, DL_SETTINGS, "SETTINGS"
 511:/home/dino/paparazzi/var/include/messages.h **** 	  trans->put_bytes(trans->impl, dev, DL_TYPE_FLOAT, DL_FORMAT_SCALAR, 4, (void *) _slider_1_val);
 512:/home/dino/paparazzi/var/include/messages.h **** 	  trans->put_bytes(trans->impl, dev, DL_TYPE_FLOAT, DL_FORMAT_SCALAR, 4, (void *) _slider_2_val);
 513:/home/dino/paparazzi/var/include/messages.h **** 	  trans->end_message(trans->impl, dev);
 514:/home/dino/paparazzi/var/include/messages.h **** 	} else
 515:/home/dino/paparazzi/var/include/messages.h **** 	  trans->overrun(trans->impl, dev);
 516:/home/dino/paparazzi/var/include/messages.h **** }
 517:/home/dino/paparazzi/var/include/messages.h **** 
 518:/home/dino/paparazzi/var/include/messages.h **** #define DOWNLINK_SEND_DESIRED(_trans, _dev, roll, pitch, course, x, y, altitude, climb, airspeed) p
 519:/home/dino/paparazzi/var/include/messages.h **** static inline void pprz_msg_send_DESIRED(struct transport_tx *trans, struct link_device *dev, uint8
 520:/home/dino/paparazzi/var/include/messages.h **** 	if (trans->check_available_space(trans->impl, dev, trans->size_of(trans->impl, 0+4+4+4+4+4+4+4+4 +
 521:/home/dino/paparazzi/var/include/messages.h **** 	  trans->count_bytes(trans->impl, dev, trans->size_of(trans->impl, 0+4+4+4+4+4+4+4+4 +2 /* msg hea
 522:/home/dino/paparazzi/var/include/messages.h **** 	  trans->start_message(trans->impl, dev, 0+4+4+4+4+4+4+4+4 +2 /* msg header overhead */);
 523:/home/dino/paparazzi/var/include/messages.h **** 	  trans->put_bytes(trans->impl, dev, DL_TYPE_UINT8, DL_FORMAT_SCALAR, 1, &ac_id);
 524:/home/dino/paparazzi/var/include/messages.h **** 	  trans->put_named_byte(trans->impl, dev, DL_TYPE_UINT8, DL_FORMAT_SCALAR, DL_DESIRED, "DESIRED");
 525:/home/dino/paparazzi/var/include/messages.h **** 	  trans->put_bytes(trans->impl, dev, DL_TYPE_FLOAT, DL_FORMAT_SCALAR, 4, (void *) _roll);
 526:/home/dino/paparazzi/var/include/messages.h **** 	  trans->put_bytes(trans->impl, dev, DL_TYPE_FLOAT, DL_FORMAT_SCALAR, 4, (void *) _pitch);
 527:/home/dino/paparazzi/var/include/messages.h **** 	  trans->put_bytes(trans->impl, dev, DL_TYPE_FLOAT, DL_FORMAT_SCALAR, 4, (void *) _course);
 528:/home/dino/paparazzi/var/include/messages.h **** 	  trans->put_bytes(trans->impl, dev, DL_TYPE_FLOAT, DL_FORMAT_SCALAR, 4, (void *) _x);
 529:/home/dino/paparazzi/var/include/messages.h **** 	  trans->put_bytes(trans->impl, dev, DL_TYPE_FLOAT, DL_FORMAT_SCALAR, 4, (void *) _y);
 530:/home/dino/paparazzi/var/include/messages.h **** 	  trans->put_bytes(trans->impl, dev, DL_TYPE_FLOAT, DL_FORMAT_SCALAR, 4, (void *) _altitude);
 531:/home/dino/paparazzi/var/include/messages.h **** 	  trans->put_bytes(trans->impl, dev, DL_TYPE_FLOAT, DL_FORMAT_SCALAR, 4, (void *) _climb);
 532:/home/dino/paparazzi/var/include/messages.h **** 	  trans->put_bytes(trans->impl, dev, DL_TYPE_FLOAT, DL_FORMAT_SCALAR, 4, (void *) _airspeed);
 533:/home/dino/paparazzi/var/include/messages.h **** 	  trans->end_message(trans->impl, dev);
 534:/home/dino/paparazzi/var/include/messages.h **** 	} else
 535:/home/dino/paparazzi/var/include/messages.h **** 	  trans->overrun(trans->impl, dev);
 536:/home/dino/paparazzi/var/include/messages.h **** }
 537:/home/dino/paparazzi/var/include/messages.h **** 
 538:/home/dino/paparazzi/var/include/messages.h **** #define DOWNLINK_SEND_GPS_SOL(_trans, _dev, Pacc, Sacc, PDOP, numSV) pprz_msg_send_GPS_SOL(&((_tran
 539:/home/dino/paparazzi/var/include/messages.h **** static inline void pprz_msg_send_GPS_SOL(struct transport_tx *trans, struct link_device *dev, uint8
 540:/home/dino/paparazzi/var/include/messages.h **** 	if (trans->check_available_space(trans->impl, dev, trans->size_of(trans->impl, 0+4+4+2+1 +2 /* msg
 541:/home/dino/paparazzi/var/include/messages.h **** 	  trans->count_bytes(trans->impl, dev, trans->size_of(trans->impl, 0+4+4+2+1 +2 /* msg header over
 542:/home/dino/paparazzi/var/include/messages.h **** 	  trans->start_message(trans->impl, dev, 0+4+4+2+1 +2 /* msg header overhead */);
 543:/home/dino/paparazzi/var/include/messages.h **** 	  trans->put_bytes(trans->impl, dev, DL_TYPE_UINT8, DL_FORMAT_SCALAR, 1, &ac_id);
 544:/home/dino/paparazzi/var/include/messages.h **** 	  trans->put_named_byte(trans->impl, dev, DL_TYPE_UINT8, DL_FORMAT_SCALAR, DL_GPS_SOL, "GPS_SOL");
 545:/home/dino/paparazzi/var/include/messages.h **** 	  trans->put_bytes(trans->impl, dev, DL_TYPE_UINT32, DL_FORMAT_SCALAR, 4, (void *) _Pacc);
 546:/home/dino/paparazzi/var/include/messages.h **** 	  trans->put_bytes(trans->impl, dev, DL_TYPE_UINT32, DL_FORMAT_SCALAR, 4, (void *) _Sacc);
 547:/home/dino/paparazzi/var/include/messages.h **** 	  trans->put_bytes(trans->impl, dev, DL_TYPE_UINT16, DL_FORMAT_SCALAR, 2, (void *) _PDOP);
 548:/home/dino/paparazzi/var/include/messages.h **** 	  trans->put_bytes(trans->impl, dev, DL_TYPE_UINT8, DL_FORMAT_SCALAR, 1, (void *) _numSV);
 549:/home/dino/paparazzi/var/include/messages.h **** 	  trans->end_message(trans->impl, dev);
 550:/home/dino/paparazzi/var/include/messages.h **** 	} else
 551:/home/dino/paparazzi/var/include/messages.h **** 	  trans->overrun(trans->impl, dev);
 552:/home/dino/paparazzi/var/include/messages.h **** }
 553:/home/dino/paparazzi/var/include/messages.h **** 
 554:/home/dino/paparazzi/var/include/messages.h **** #define DOWNLINK_SEND_ADC_GENERIC(_trans, _dev, val1, val2) pprz_msg_send_ADC_GENERIC(&((_trans).tr
 555:/home/dino/paparazzi/var/include/messages.h **** static inline void pprz_msg_send_ADC_GENERIC(struct transport_tx *trans, struct link_device *dev, u
 556:/home/dino/paparazzi/var/include/messages.h **** 	if (trans->check_available_space(trans->impl, dev, trans->size_of(trans->impl, 0+2+2 +2 /* msg hea
 557:/home/dino/paparazzi/var/include/messages.h **** 	  trans->count_bytes(trans->impl, dev, trans->size_of(trans->impl, 0+2+2 +2 /* msg header overhead
 558:/home/dino/paparazzi/var/include/messages.h **** 	  trans->start_message(trans->impl, dev, 0+2+2 +2 /* msg header overhead */);
 559:/home/dino/paparazzi/var/include/messages.h **** 	  trans->put_bytes(trans->impl, dev, DL_TYPE_UINT8, DL_FORMAT_SCALAR, 1, &ac_id);
 560:/home/dino/paparazzi/var/include/messages.h **** 	  trans->put_named_byte(trans->impl, dev, DL_TYPE_UINT8, DL_FORMAT_SCALAR, DL_ADC_GENERIC, "ADC_GE
 561:/home/dino/paparazzi/var/include/messages.h **** 	  trans->put_bytes(trans->impl, dev, DL_TYPE_UINT16, DL_FORMAT_SCALAR, 2, (void *) _val1);
 562:/home/dino/paparazzi/var/include/messages.h **** 	  trans->put_bytes(trans->impl, dev, DL_TYPE_UINT16, DL_FORMAT_SCALAR, 2, (void *) _val2);
 563:/home/dino/paparazzi/var/include/messages.h **** 	  trans->end_message(trans->impl, dev);
 564:/home/dino/paparazzi/var/include/messages.h **** 	} else
 565:/home/dino/paparazzi/var/include/messages.h **** 	  trans->overrun(trans->impl, dev);
 566:/home/dino/paparazzi/var/include/messages.h **** }
 567:/home/dino/paparazzi/var/include/messages.h **** 
 568:/home/dino/paparazzi/var/include/messages.h **** #define DOWNLINK_SEND_TEST_FORMAT(_trans, _dev, val1, val2) pprz_msg_send_TEST_FORMAT(&((_trans).tr
 569:/home/dino/paparazzi/var/include/messages.h **** static inline void pprz_msg_send_TEST_FORMAT(struct transport_tx *trans, struct link_device *dev, u
 570:/home/dino/paparazzi/var/include/messages.h **** 	if (trans->check_available_space(trans->impl, dev, trans->size_of(trans->impl, 0+8+4 +2 /* msg hea
 571:/home/dino/paparazzi/var/include/messages.h **** 	  trans->count_bytes(trans->impl, dev, trans->size_of(trans->impl, 0+8+4 +2 /* msg header overhead
 572:/home/dino/paparazzi/var/include/messages.h **** 	  trans->start_message(trans->impl, dev, 0+8+4 +2 /* msg header overhead */);
 573:/home/dino/paparazzi/var/include/messages.h **** 	  trans->put_bytes(trans->impl, dev, DL_TYPE_UINT8, DL_FORMAT_SCALAR, 1, &ac_id);
 574:/home/dino/paparazzi/var/include/messages.h **** 	  trans->put_named_byte(trans->impl, dev, DL_TYPE_UINT8, DL_FORMAT_SCALAR, DL_TEST_FORMAT, "TEST_F
 575:/home/dino/paparazzi/var/include/messages.h **** 	  trans->put_bytes(trans->impl, dev, DL_TYPE_DOUBLE, DL_FORMAT_SCALAR, 8, (void *) _val1);
 576:/home/dino/paparazzi/var/include/messages.h **** 	  trans->put_bytes(trans->impl, dev, DL_TYPE_FLOAT, DL_FORMAT_SCALAR, 4, (void *) _val2);
 577:/home/dino/paparazzi/var/include/messages.h **** 	  trans->end_message(trans->impl, dev);
 578:/home/dino/paparazzi/var/include/messages.h **** 	} else
 579:/home/dino/paparazzi/var/include/messages.h **** 	  trans->overrun(trans->impl, dev);
 580:/home/dino/paparazzi/var/include/messages.h **** }
 581:/home/dino/paparazzi/var/include/messages.h **** 
 582:/home/dino/paparazzi/var/include/messages.h **** #define DOWNLINK_SEND_CAM(_trans, _dev, phi, theta, target_x, target_y) pprz_msg_send_CAM(&((_trans
 583:/home/dino/paparazzi/var/include/messages.h **** static inline void pprz_msg_send_CAM(struct transport_tx *trans, struct link_device *dev, uint8_t a
 584:/home/dino/paparazzi/var/include/messages.h **** 	if (trans->check_available_space(trans->impl, dev, trans->size_of(trans->impl, 0+2+2+2+2 +2 /* msg
 585:/home/dino/paparazzi/var/include/messages.h **** 	  trans->count_bytes(trans->impl, dev, trans->size_of(trans->impl, 0+2+2+2+2 +2 /* msg header over
 586:/home/dino/paparazzi/var/include/messages.h **** 	  trans->start_message(trans->impl, dev, 0+2+2+2+2 +2 /* msg header overhead */);
 587:/home/dino/paparazzi/var/include/messages.h **** 	  trans->put_bytes(trans->impl, dev, DL_TYPE_UINT8, DL_FORMAT_SCALAR, 1, &ac_id);
 588:/home/dino/paparazzi/var/include/messages.h **** 	  trans->put_named_byte(trans->impl, dev, DL_TYPE_UINT8, DL_FORMAT_SCALAR, DL_CAM, "CAM");
 589:/home/dino/paparazzi/var/include/messages.h **** 	  trans->put_bytes(trans->impl, dev, DL_TYPE_INT16, DL_FORMAT_SCALAR, 2, (void *) _phi);
 590:/home/dino/paparazzi/var/include/messages.h **** 	  trans->put_bytes(trans->impl, dev, DL_TYPE_INT16, DL_FORMAT_SCALAR, 2, (void *) _theta);
 591:/home/dino/paparazzi/var/include/messages.h **** 	  trans->put_bytes(trans->impl, dev, DL_TYPE_INT16, DL_FORMAT_SCALAR, 2, (void *) _target_x);
 592:/home/dino/paparazzi/var/include/messages.h **** 	  trans->put_bytes(trans->impl, dev, DL_TYPE_INT16, DL_FORMAT_SCALAR, 2, (void *) _target_y);
 593:/home/dino/paparazzi/var/include/messages.h **** 	  trans->end_message(trans->impl, dev);
 594:/home/dino/paparazzi/var/include/messages.h **** 	} else
 595:/home/dino/paparazzi/var/include/messages.h **** 	  trans->overrun(trans->impl, dev);
 596:/home/dino/paparazzi/var/include/messages.h **** }
 597:/home/dino/paparazzi/var/include/messages.h **** 
 598:/home/dino/paparazzi/var/include/messages.h **** #define DOWNLINK_SEND_CIRCLE(_trans, _dev, center_east, center_north, radius) pprz_msg_send_CIRCLE(
 599:/home/dino/paparazzi/var/include/messages.h **** static inline void pprz_msg_send_CIRCLE(struct transport_tx *trans, struct link_device *dev, uint8_
 600:/home/dino/paparazzi/var/include/messages.h **** 	if (trans->check_available_space(trans->impl, dev, trans->size_of(trans->impl, 0+4+4+4 +2 /* msg h
 601:/home/dino/paparazzi/var/include/messages.h **** 	  trans->count_bytes(trans->impl, dev, trans->size_of(trans->impl, 0+4+4+4 +2 /* msg header overhe
 602:/home/dino/paparazzi/var/include/messages.h **** 	  trans->start_message(trans->impl, dev, 0+4+4+4 +2 /* msg header overhead */);
 603:/home/dino/paparazzi/var/include/messages.h **** 	  trans->put_bytes(trans->impl, dev, DL_TYPE_UINT8, DL_FORMAT_SCALAR, 1, &ac_id);
 604:/home/dino/paparazzi/var/include/messages.h **** 	  trans->put_named_byte(trans->impl, dev, DL_TYPE_UINT8, DL_FORMAT_SCALAR, DL_CIRCLE, "CIRCLE");
 605:/home/dino/paparazzi/var/include/messages.h **** 	  trans->put_bytes(trans->impl, dev, DL_TYPE_FLOAT, DL_FORMAT_SCALAR, 4, (void *) _center_east);
 606:/home/dino/paparazzi/var/include/messages.h **** 	  trans->put_bytes(trans->impl, dev, DL_TYPE_FLOAT, DL_FORMAT_SCALAR, 4, (void *) _center_north);
 607:/home/dino/paparazzi/var/include/messages.h **** 	  trans->put_bytes(trans->impl, dev, DL_TYPE_FLOAT, DL_FORMAT_SCALAR, 4, (void *) _radius);
 608:/home/dino/paparazzi/var/include/messages.h **** 	  trans->end_message(trans->impl, dev);
 609:/home/dino/paparazzi/var/include/messages.h **** 	} else
 610:/home/dino/paparazzi/var/include/messages.h **** 	  trans->overrun(trans->impl, dev);
 611:/home/dino/paparazzi/var/include/messages.h **** }
 612:/home/dino/paparazzi/var/include/messages.h **** 
 613:/home/dino/paparazzi/var/include/messages.h **** #define DOWNLINK_SEND_SEGMENT(_trans, _dev, segment_east_1, segment_north_1, segment_east_2, segmen
 614:/home/dino/paparazzi/var/include/messages.h **** static inline void pprz_msg_send_SEGMENT(struct transport_tx *trans, struct link_device *dev, uint8
 615:/home/dino/paparazzi/var/include/messages.h **** 	if (trans->check_available_space(trans->impl, dev, trans->size_of(trans->impl, 0+4+4+4+4 +2 /* msg
 616:/home/dino/paparazzi/var/include/messages.h **** 	  trans->count_bytes(trans->impl, dev, trans->size_of(trans->impl, 0+4+4+4+4 +2 /* msg header over
 617:/home/dino/paparazzi/var/include/messages.h **** 	  trans->start_message(trans->impl, dev, 0+4+4+4+4 +2 /* msg header overhead */);
 618:/home/dino/paparazzi/var/include/messages.h **** 	  trans->put_bytes(trans->impl, dev, DL_TYPE_UINT8, DL_FORMAT_SCALAR, 1, &ac_id);
 619:/home/dino/paparazzi/var/include/messages.h **** 	  trans->put_named_byte(trans->impl, dev, DL_TYPE_UINT8, DL_FORMAT_SCALAR, DL_SEGMENT, "SEGMENT");
 620:/home/dino/paparazzi/var/include/messages.h **** 	  trans->put_bytes(trans->impl, dev, DL_TYPE_FLOAT, DL_FORMAT_SCALAR, 4, (void *) _segment_east_1)
 621:/home/dino/paparazzi/var/include/messages.h **** 	  trans->put_bytes(trans->impl, dev, DL_TYPE_FLOAT, DL_FORMAT_SCALAR, 4, (void *) _segment_north_1
 622:/home/dino/paparazzi/var/include/messages.h **** 	  trans->put_bytes(trans->impl, dev, DL_TYPE_FLOAT, DL_FORMAT_SCALAR, 4, (void *) _segment_east_2)
 623:/home/dino/paparazzi/var/include/messages.h **** 	  trans->put_bytes(trans->impl, dev, DL_TYPE_FLOAT, DL_FORMAT_SCALAR, 4, (void *) _segment_north_2
 624:/home/dino/paparazzi/var/include/messages.h **** 	  trans->end_message(trans->impl, dev);
 625:/home/dino/paparazzi/var/include/messages.h **** 	} else
 626:/home/dino/paparazzi/var/include/messages.h **** 	  trans->overrun(trans->impl, dev);
 627:/home/dino/paparazzi/var/include/messages.h **** }
 628:/home/dino/paparazzi/var/include/messages.h **** 
 629:/home/dino/paparazzi/var/include/messages.h **** #define DOWNLINK_SEND_SVINFO(_trans, _dev, chn, SVID, Flags, QI, CNO, Elev, Azim) pprz_msg_send_SVI
 630:/home/dino/paparazzi/var/include/messages.h **** static inline void pprz_msg_send_SVINFO(struct transport_tx *trans, struct link_device *dev, uint8_
 631:/home/dino/paparazzi/var/include/messages.h **** 	if (trans->check_available_space(trans->impl, dev, trans->size_of(trans->impl, 0+1+1+1+1+1+1+2 +2 
 632:/home/dino/paparazzi/var/include/messages.h **** 	  trans->count_bytes(trans->impl, dev, trans->size_of(trans->impl, 0+1+1+1+1+1+1+2 +2 /* msg heade
 633:/home/dino/paparazzi/var/include/messages.h **** 	  trans->start_message(trans->impl, dev, 0+1+1+1+1+1+1+2 +2 /* msg header overhead */);
 634:/home/dino/paparazzi/var/include/messages.h **** 	  trans->put_bytes(trans->impl, dev, DL_TYPE_UINT8, DL_FORMAT_SCALAR, 1, &ac_id);
 635:/home/dino/paparazzi/var/include/messages.h **** 	  trans->put_named_byte(trans->impl, dev, DL_TYPE_UINT8, DL_FORMAT_SCALAR, DL_SVINFO, "SVINFO");
 636:/home/dino/paparazzi/var/include/messages.h **** 	  trans->put_bytes(trans->impl, dev, DL_TYPE_UINT8, DL_FORMAT_SCALAR, 1, (void *) _chn);
 637:/home/dino/paparazzi/var/include/messages.h **** 	  trans->put_bytes(trans->impl, dev, DL_TYPE_UINT8, DL_FORMAT_SCALAR, 1, (void *) _SVID);
 638:/home/dino/paparazzi/var/include/messages.h **** 	  trans->put_bytes(trans->impl, dev, DL_TYPE_UINT8, DL_FORMAT_SCALAR, 1, (void *) _Flags);
 639:/home/dino/paparazzi/var/include/messages.h **** 	  trans->put_bytes(trans->impl, dev, DL_TYPE_UINT8, DL_FORMAT_SCALAR, 1, (void *) _QI);
 640:/home/dino/paparazzi/var/include/messages.h **** 	  trans->put_bytes(trans->impl, dev, DL_TYPE_UINT8, DL_FORMAT_SCALAR, 1, (void *) _CNO);
 641:/home/dino/paparazzi/var/include/messages.h **** 	  trans->put_bytes(trans->impl, dev, DL_TYPE_INT8, DL_FORMAT_SCALAR, 1, (void *) _Elev);
 642:/home/dino/paparazzi/var/include/messages.h **** 	  trans->put_bytes(trans->impl, dev, DL_TYPE_INT16, DL_FORMAT_SCALAR, 2, (void *) _Azim);
 643:/home/dino/paparazzi/var/include/messages.h **** 	  trans->end_message(trans->impl, dev);
 644:/home/dino/paparazzi/var/include/messages.h **** 	} else
 645:/home/dino/paparazzi/var/include/messages.h **** 	  trans->overrun(trans->impl, dev);
 646:/home/dino/paparazzi/var/include/messages.h **** }
 647:/home/dino/paparazzi/var/include/messages.h **** 
 648:/home/dino/paparazzi/var/include/messages.h **** #define DOWNLINK_SEND_DEBUG(_trans, _dev, nb_msg, msg) pprz_msg_send_DEBUG(&((_trans).trans_tx), &(
 649:/home/dino/paparazzi/var/include/messages.h **** static inline void pprz_msg_send_DEBUG(struct transport_tx *trans, struct link_device *dev, uint8_t
 650:/home/dino/paparazzi/var/include/messages.h **** 	if (trans->check_available_space(trans->impl, dev, trans->size_of(trans->impl, 0+1+nb_msg*1 +2 /* 
 651:/home/dino/paparazzi/var/include/messages.h **** 	  trans->count_bytes(trans->impl, dev, trans->size_of(trans->impl, 0+1+nb_msg*1 +2 /* msg header o
 652:/home/dino/paparazzi/var/include/messages.h **** 	  trans->start_message(trans->impl, dev, 0+1+nb_msg*1 +2 /* msg header overhead */);
 653:/home/dino/paparazzi/var/include/messages.h **** 	  trans->put_bytes(trans->impl, dev, DL_TYPE_UINT8, DL_FORMAT_SCALAR, 1, &ac_id);
 654:/home/dino/paparazzi/var/include/messages.h **** 	  trans->put_named_byte(trans->impl, dev, DL_TYPE_UINT8, DL_FORMAT_SCALAR, DL_DEBUG, "DEBUG");
 655:/home/dino/paparazzi/var/include/messages.h **** 	  trans->put_bytes(trans->impl, dev, DL_TYPE_ARRAY_LENGTH, DL_FORMAT_SCALAR, 1, (void *) &nb_msg);
 656:/home/dino/paparazzi/var/include/messages.h **** 	  trans->put_bytes(trans->impl, dev, DL_TYPE_UINT8, DL_FORMAT_ARRAY, 1 * nb_msg, (void *) _msg);
 657:/home/dino/paparazzi/var/include/messages.h **** 	  trans->end_message(trans->impl, dev);
 658:/home/dino/paparazzi/var/include/messages.h **** 	} else
 659:/home/dino/paparazzi/var/include/messages.h **** 	  trans->overrun(trans->impl, dev);
 660:/home/dino/paparazzi/var/include/messages.h **** }
 661:/home/dino/paparazzi/var/include/messages.h **** 
 662:/home/dino/paparazzi/var/include/messages.h **** #define DOWNLINK_SEND_SURVEY(_trans, _dev, east, north, west, south) pprz_msg_send_SURVEY(&((_trans
 663:/home/dino/paparazzi/var/include/messages.h **** static inline void pprz_msg_send_SURVEY(struct transport_tx *trans, struct link_device *dev, uint8_
 664:/home/dino/paparazzi/var/include/messages.h **** 	if (trans->check_available_space(trans->impl, dev, trans->size_of(trans->impl, 0+4+4+4+4 +2 /* msg
 665:/home/dino/paparazzi/var/include/messages.h **** 	  trans->count_bytes(trans->impl, dev, trans->size_of(trans->impl, 0+4+4+4+4 +2 /* msg header over
 666:/home/dino/paparazzi/var/include/messages.h **** 	  trans->start_message(trans->impl, dev, 0+4+4+4+4 +2 /* msg header overhead */);
 667:/home/dino/paparazzi/var/include/messages.h **** 	  trans->put_bytes(trans->impl, dev, DL_TYPE_UINT8, DL_FORMAT_SCALAR, 1, &ac_id);
 668:/home/dino/paparazzi/var/include/messages.h **** 	  trans->put_named_byte(trans->impl, dev, DL_TYPE_UINT8, DL_FORMAT_SCALAR, DL_SURVEY, "SURVEY");
 669:/home/dino/paparazzi/var/include/messages.h **** 	  trans->put_bytes(trans->impl, dev, DL_TYPE_FLOAT, DL_FORMAT_SCALAR, 4, (void *) _east);
 670:/home/dino/paparazzi/var/include/messages.h **** 	  trans->put_bytes(trans->impl, dev, DL_TYPE_FLOAT, DL_FORMAT_SCALAR, 4, (void *) _north);
 671:/home/dino/paparazzi/var/include/messages.h **** 	  trans->put_bytes(trans->impl, dev, DL_TYPE_FLOAT, DL_FORMAT_SCALAR, 4, (void *) _west);
 672:/home/dino/paparazzi/var/include/messages.h **** 	  trans->put_bytes(trans->impl, dev, DL_TYPE_FLOAT, DL_FORMAT_SCALAR, 4, (void *) _south);
 673:/home/dino/paparazzi/var/include/messages.h **** 	  trans->end_message(trans->impl, dev);
 674:/home/dino/paparazzi/var/include/messages.h **** 	} else
 675:/home/dino/paparazzi/var/include/messages.h **** 	  trans->overrun(trans->impl, dev);
 676:/home/dino/paparazzi/var/include/messages.h **** }
 677:/home/dino/paparazzi/var/include/messages.h **** 
 678:/home/dino/paparazzi/var/include/messages.h **** #define DOWNLINK_SEND_WC_RSSI(_trans, _dev, raw_level) pprz_msg_send_WC_RSSI(&((_trans).trans_tx), 
 679:/home/dino/paparazzi/var/include/messages.h **** static inline void pprz_msg_send_WC_RSSI(struct transport_tx *trans, struct link_device *dev, uint8
 680:/home/dino/paparazzi/var/include/messages.h **** 	if (trans->check_available_space(trans->impl, dev, trans->size_of(trans->impl, 0+1 +2 /* msg heade
 681:/home/dino/paparazzi/var/include/messages.h **** 	  trans->count_bytes(trans->impl, dev, trans->size_of(trans->impl, 0+1 +2 /* msg header overhead *
 682:/home/dino/paparazzi/var/include/messages.h **** 	  trans->start_message(trans->impl, dev, 0+1 +2 /* msg header overhead */);
 683:/home/dino/paparazzi/var/include/messages.h **** 	  trans->put_bytes(trans->impl, dev, DL_TYPE_UINT8, DL_FORMAT_SCALAR, 1, &ac_id);
 684:/home/dino/paparazzi/var/include/messages.h **** 	  trans->put_named_byte(trans->impl, dev, DL_TYPE_UINT8, DL_FORMAT_SCALAR, DL_WC_RSSI, "WC_RSSI");
 685:/home/dino/paparazzi/var/include/messages.h **** 	  trans->put_bytes(trans->impl, dev, DL_TYPE_UINT8, DL_FORMAT_SCALAR, 1, (void *) _raw_level);
 686:/home/dino/paparazzi/var/include/messages.h **** 	  trans->end_message(trans->impl, dev);
 687:/home/dino/paparazzi/var/include/messages.h **** 	} else
 688:/home/dino/paparazzi/var/include/messages.h **** 	  trans->overrun(trans->impl, dev);
 689:/home/dino/paparazzi/var/include/messages.h **** }
 690:/home/dino/paparazzi/var/include/messages.h **** 
 691:/home/dino/paparazzi/var/include/messages.h **** #define DOWNLINK_SEND_RANGEFINDER(_trans, _dev, range, z_dot, z_dot_sum_err, z_dot_setpoint, z_sum_
 692:/home/dino/paparazzi/var/include/messages.h **** static inline void pprz_msg_send_RANGEFINDER(struct transport_tx *trans, struct link_device *dev, u
 693:/home/dino/paparazzi/var/include/messages.h **** 	if (trans->check_available_space(trans->impl, dev, trans->size_of(trans->impl, 0+2+4+4+4+4+4+1 +2 
 694:/home/dino/paparazzi/var/include/messages.h **** 	  trans->count_bytes(trans->impl, dev, trans->size_of(trans->impl, 0+2+4+4+4+4+4+1 +2 /* msg heade
 695:/home/dino/paparazzi/var/include/messages.h **** 	  trans->start_message(trans->impl, dev, 0+2+4+4+4+4+4+1 +2 /* msg header overhead */);
 696:/home/dino/paparazzi/var/include/messages.h **** 	  trans->put_bytes(trans->impl, dev, DL_TYPE_UINT8, DL_FORMAT_SCALAR, 1, &ac_id);
 697:/home/dino/paparazzi/var/include/messages.h **** 	  trans->put_named_byte(trans->impl, dev, DL_TYPE_UINT8, DL_FORMAT_SCALAR, DL_RANGEFINDER, "RANGEF
 698:/home/dino/paparazzi/var/include/messages.h **** 	  trans->put_bytes(trans->impl, dev, DL_TYPE_UINT16, DL_FORMAT_SCALAR, 2, (void *) _range);
 699:/home/dino/paparazzi/var/include/messages.h **** 	  trans->put_bytes(trans->impl, dev, DL_TYPE_FLOAT, DL_FORMAT_SCALAR, 4, (void *) _z_dot);
 700:/home/dino/paparazzi/var/include/messages.h **** 	  trans->put_bytes(trans->impl, dev, DL_TYPE_FLOAT, DL_FORMAT_SCALAR, 4, (void *) _z_dot_sum_err);
 701:/home/dino/paparazzi/var/include/messages.h **** 	  trans->put_bytes(trans->impl, dev, DL_TYPE_FLOAT, DL_FORMAT_SCALAR, 4, (void *) _z_dot_setpoint)
 702:/home/dino/paparazzi/var/include/messages.h **** 	  trans->put_bytes(trans->impl, dev, DL_TYPE_FLOAT, DL_FORMAT_SCALAR, 4, (void *) _z_sum_err);
 703:/home/dino/paparazzi/var/include/messages.h **** 	  trans->put_bytes(trans->impl, dev, DL_TYPE_FLOAT, DL_FORMAT_SCALAR, 4, (void *) _z_setpoint);
 704:/home/dino/paparazzi/var/include/messages.h **** 	  trans->put_bytes(trans->impl, dev, DL_TYPE_UINT8, DL_FORMAT_SCALAR, 1, (void *) _flying);
 705:/home/dino/paparazzi/var/include/messages.h **** 	  trans->end_message(trans->impl, dev);
 706:/home/dino/paparazzi/var/include/messages.h **** 	} else
 707:/home/dino/paparazzi/var/include/messages.h **** 	  trans->overrun(trans->impl, dev);
 708:/home/dino/paparazzi/var/include/messages.h **** }
 709:/home/dino/paparazzi/var/include/messages.h **** 
 710:/home/dino/paparazzi/var/include/messages.h **** #define DOWNLINK_SEND_DATALINK_REPORT(_trans, _dev, uplink_lost_time, uplink_nb_msgs, downlink_nb_m
 711:/home/dino/paparazzi/var/include/messages.h **** static inline void pprz_msg_send_DATALINK_REPORT(struct transport_tx *trans, struct link_device *de
 712:/home/dino/paparazzi/var/include/messages.h **** 	if (trans->check_available_space(trans->impl, dev, trans->size_of(trans->impl, 0+2+2+2+2+1 +2 /* m
 713:/home/dino/paparazzi/var/include/messages.h **** 	  trans->count_bytes(trans->impl, dev, trans->size_of(trans->impl, 0+2+2+2+2+1 +2 /* msg header ov
 714:/home/dino/paparazzi/var/include/messages.h **** 	  trans->start_message(trans->impl, dev, 0+2+2+2+2+1 +2 /* msg header overhead */);
 715:/home/dino/paparazzi/var/include/messages.h **** 	  trans->put_bytes(trans->impl, dev, DL_TYPE_UINT8, DL_FORMAT_SCALAR, 1, &ac_id);
 716:/home/dino/paparazzi/var/include/messages.h **** 	  trans->put_named_byte(trans->impl, dev, DL_TYPE_UINT8, DL_FORMAT_SCALAR, DL_DATALINK_REPORT, "DA
 717:/home/dino/paparazzi/var/include/messages.h **** 	  trans->put_bytes(trans->impl, dev, DL_TYPE_UINT16, DL_FORMAT_SCALAR, 2, (void *) _uplink_lost_ti
 718:/home/dino/paparazzi/var/include/messages.h **** 	  trans->put_bytes(trans->impl, dev, DL_TYPE_UINT16, DL_FORMAT_SCALAR, 2, (void *) _uplink_nb_msgs
 719:/home/dino/paparazzi/var/include/messages.h **** 	  trans->put_bytes(trans->impl, dev, DL_TYPE_UINT16, DL_FORMAT_SCALAR, 2, (void *) _downlink_nb_ms
 720:/home/dino/paparazzi/var/include/messages.h **** 	  trans->put_bytes(trans->impl, dev, DL_TYPE_UINT16, DL_FORMAT_SCALAR, 2, (void *) _downlink_rate)
 721:/home/dino/paparazzi/var/include/messages.h **** 	  trans->put_bytes(trans->impl, dev, DL_TYPE_UINT8, DL_FORMAT_SCALAR, 1, (void *) _downlink_ovrn);
 722:/home/dino/paparazzi/var/include/messages.h **** 	  trans->end_message(trans->impl, dev);
 723:/home/dino/paparazzi/var/include/messages.h **** 	} else
 724:/home/dino/paparazzi/var/include/messages.h **** 	  trans->overrun(trans->impl, dev);
 725:/home/dino/paparazzi/var/include/messages.h **** }
 726:/home/dino/paparazzi/var/include/messages.h **** 
 727:/home/dino/paparazzi/var/include/messages.h **** #define DOWNLINK_SEND_DL_VALUE(_trans, _dev, index, value) pprz_msg_send_DL_VALUE(&((_trans).trans_
 728:/home/dino/paparazzi/var/include/messages.h **** static inline void pprz_msg_send_DL_VALUE(struct transport_tx *trans, struct link_device *dev, uint
 729:/home/dino/paparazzi/var/include/messages.h **** 	if (trans->check_available_space(trans->impl, dev, trans->size_of(trans->impl, 0+1+4 +2 /* msg hea
 730:/home/dino/paparazzi/var/include/messages.h **** 	  trans->count_bytes(trans->impl, dev, trans->size_of(trans->impl, 0+1+4 +2 /* msg header overhead
 731:/home/dino/paparazzi/var/include/messages.h **** 	  trans->start_message(trans->impl, dev, 0+1+4 +2 /* msg header overhead */);
 732:/home/dino/paparazzi/var/include/messages.h **** 	  trans->put_bytes(trans->impl, dev, DL_TYPE_UINT8, DL_FORMAT_SCALAR, 1, &ac_id);
 733:/home/dino/paparazzi/var/include/messages.h **** 	  trans->put_named_byte(trans->impl, dev, DL_TYPE_UINT8, DL_FORMAT_SCALAR, DL_DL_VALUE, "DL_VALUE"
 734:/home/dino/paparazzi/var/include/messages.h **** 	  trans->put_bytes(trans->impl, dev, DL_TYPE_UINT8, DL_FORMAT_SCALAR, 1, (void *) _index);
 735:/home/dino/paparazzi/var/include/messages.h **** 	  trans->put_bytes(trans->impl, dev, DL_TYPE_FLOAT, DL_FORMAT_SCALAR, 4, (void *) _value);
 736:/home/dino/paparazzi/var/include/messages.h **** 	  trans->end_message(trans->impl, dev);
 737:/home/dino/paparazzi/var/include/messages.h **** 	} else
 738:/home/dino/paparazzi/var/include/messages.h **** 	  trans->overrun(trans->impl, dev);
 739:/home/dino/paparazzi/var/include/messages.h **** }
 740:/home/dino/paparazzi/var/include/messages.h **** 
 741:/home/dino/paparazzi/var/include/messages.h **** #define DOWNLINK_SEND_MARK(_trans, _dev, ac_id, lat, long) pprz_msg_send_MARK(&((_trans).trans_tx),
 742:/home/dino/paparazzi/var/include/messages.h **** static inline void pprz_msg_send_MARK(struct transport_tx *trans, struct link_device *dev, uint8_t 
 743:/home/dino/paparazzi/var/include/messages.h **** 	if (trans->check_available_space(trans->impl, dev, trans->size_of(trans->impl, 0+1+4+4 +2 /* msg h
 744:/home/dino/paparazzi/var/include/messages.h **** 	  trans->count_bytes(trans->impl, dev, trans->size_of(trans->impl, 0+1+4+4 +2 /* msg header overhe
 745:/home/dino/paparazzi/var/include/messages.h **** 	  trans->start_message(trans->impl, dev, 0+1+4+4 +2 /* msg header overhead */);
 746:/home/dino/paparazzi/var/include/messages.h **** 	  trans->put_bytes(trans->impl, dev, DL_TYPE_UINT8, DL_FORMAT_SCALAR, 1, &ac_id);
 747:/home/dino/paparazzi/var/include/messages.h **** 	  trans->put_named_byte(trans->impl, dev, DL_TYPE_UINT8, DL_FORMAT_SCALAR, DL_MARK, "MARK");
 748:/home/dino/paparazzi/var/include/messages.h **** 	  trans->put_bytes(trans->impl, dev, DL_TYPE_UINT8, DL_FORMAT_SCALAR, 1, (void *) _ac_id);
 749:/home/dino/paparazzi/var/include/messages.h **** 	  trans->put_bytes(trans->impl, dev, DL_TYPE_FLOAT, DL_FORMAT_SCALAR, 4, (void *) _lat);
 750:/home/dino/paparazzi/var/include/messages.h **** 	  trans->put_bytes(trans->impl, dev, DL_TYPE_FLOAT, DL_FORMAT_SCALAR, 4, (void *) _long);
 751:/home/dino/paparazzi/var/include/messages.h **** 	  trans->end_message(trans->impl, dev);
 752:/home/dino/paparazzi/var/include/messages.h **** 	} else
 753:/home/dino/paparazzi/var/include/messages.h **** 	  trans->overrun(trans->impl, dev);
 754:/home/dino/paparazzi/var/include/messages.h **** }
 755:/home/dino/paparazzi/var/include/messages.h **** 
 756:/home/dino/paparazzi/var/include/messages.h **** #define DOWNLINK_SEND_SYS_MON(_trans, _dev, periodic_time, periodic_time_min, periodic_time_max, pe
 757:/home/dino/paparazzi/var/include/messages.h **** static inline void pprz_msg_send_SYS_MON(struct transport_tx *trans, struct link_device *dev, uint8
 758:/home/dino/paparazzi/var/include/messages.h **** 	if (trans->check_available_space(trans->impl, dev, trans->size_of(trans->impl, 0+2+2+2+2+2+2+2+1 +
 759:/home/dino/paparazzi/var/include/messages.h **** 	  trans->count_bytes(trans->impl, dev, trans->size_of(trans->impl, 0+2+2+2+2+2+2+2+1 +2 /* msg hea
 760:/home/dino/paparazzi/var/include/messages.h **** 	  trans->start_message(trans->impl, dev, 0+2+2+2+2+2+2+2+1 +2 /* msg header overhead */);
 761:/home/dino/paparazzi/var/include/messages.h **** 	  trans->put_bytes(trans->impl, dev, DL_TYPE_UINT8, DL_FORMAT_SCALAR, 1, &ac_id);
 762:/home/dino/paparazzi/var/include/messages.h **** 	  trans->put_named_byte(trans->impl, dev, DL_TYPE_UINT8, DL_FORMAT_SCALAR, DL_SYS_MON, "SYS_MON");
 763:/home/dino/paparazzi/var/include/messages.h **** 	  trans->put_bytes(trans->impl, dev, DL_TYPE_UINT16, DL_FORMAT_SCALAR, 2, (void *) _periodic_time)
 764:/home/dino/paparazzi/var/include/messages.h **** 	  trans->put_bytes(trans->impl, dev, DL_TYPE_UINT16, DL_FORMAT_SCALAR, 2, (void *) _periodic_time_
 765:/home/dino/paparazzi/var/include/messages.h **** 	  trans->put_bytes(trans->impl, dev, DL_TYPE_UINT16, DL_FORMAT_SCALAR, 2, (void *) _periodic_time_
 766:/home/dino/paparazzi/var/include/messages.h **** 	  trans->put_bytes(trans->impl, dev, DL_TYPE_UINT16, DL_FORMAT_SCALAR, 2, (void *) _periodic_cycle
 767:/home/dino/paparazzi/var/include/messages.h **** 	  trans->put_bytes(trans->impl, dev, DL_TYPE_UINT16, DL_FORMAT_SCALAR, 2, (void *) _periodic_cycle
 768:/home/dino/paparazzi/var/include/messages.h **** 	  trans->put_bytes(trans->impl, dev, DL_TYPE_UINT16, DL_FORMAT_SCALAR, 2, (void *) _periodic_cycle
 769:/home/dino/paparazzi/var/include/messages.h **** 	  trans->put_bytes(trans->impl, dev, DL_TYPE_UINT16, DL_FORMAT_SCALAR, 2, (void *) _event_number);
 770:/home/dino/paparazzi/var/include/messages.h **** 	  trans->put_bytes(trans->impl, dev, DL_TYPE_UINT8, DL_FORMAT_SCALAR, 1, (void *) _cpu_load);
 771:/home/dino/paparazzi/var/include/messages.h **** 	  trans->end_message(trans->impl, dev);
 772:/home/dino/paparazzi/var/include/messages.h **** 	} else
 773:/home/dino/paparazzi/var/include/messages.h **** 	  trans->overrun(trans->impl, dev);
 774:/home/dino/paparazzi/var/include/messages.h **** }
 775:/home/dino/paparazzi/var/include/messages.h **** 
 776:/home/dino/paparazzi/var/include/messages.h **** #define DOWNLINK_SEND_MOTOR(_trans, _dev, rpm, current) pprz_msg_send_MOTOR(&((_trans).trans_tx), &
 777:/home/dino/paparazzi/var/include/messages.h **** static inline void pprz_msg_send_MOTOR(struct transport_tx *trans, struct link_device *dev, uint8_t
 778:/home/dino/paparazzi/var/include/messages.h **** 	if (trans->check_available_space(trans->impl, dev, trans->size_of(trans->impl, 0+2+4 +2 /* msg hea
 779:/home/dino/paparazzi/var/include/messages.h **** 	  trans->count_bytes(trans->impl, dev, trans->size_of(trans->impl, 0+2+4 +2 /* msg header overhead
 780:/home/dino/paparazzi/var/include/messages.h **** 	  trans->start_message(trans->impl, dev, 0+2+4 +2 /* msg header overhead */);
 781:/home/dino/paparazzi/var/include/messages.h **** 	  trans->put_bytes(trans->impl, dev, DL_TYPE_UINT8, DL_FORMAT_SCALAR, 1, &ac_id);
 782:/home/dino/paparazzi/var/include/messages.h **** 	  trans->put_named_byte(trans->impl, dev, DL_TYPE_UINT8, DL_FORMAT_SCALAR, DL_MOTOR, "MOTOR");
 783:/home/dino/paparazzi/var/include/messages.h **** 	  trans->put_bytes(trans->impl, dev, DL_TYPE_UINT16, DL_FORMAT_SCALAR, 2, (void *) _rpm);
 784:/home/dino/paparazzi/var/include/messages.h **** 	  trans->put_bytes(trans->impl, dev, DL_TYPE_INT32, DL_FORMAT_SCALAR, 4, (void *) _current);
 785:/home/dino/paparazzi/var/include/messages.h **** 	  trans->end_message(trans->impl, dev);
 786:/home/dino/paparazzi/var/include/messages.h **** 	} else
 787:/home/dino/paparazzi/var/include/messages.h **** 	  trans->overrun(trans->impl, dev);
 788:/home/dino/paparazzi/var/include/messages.h **** }
 789:/home/dino/paparazzi/var/include/messages.h **** 
 790:/home/dino/paparazzi/var/include/messages.h **** #define DOWNLINK_SEND_WP_MOVED(_trans, _dev, wp_id, utm_east, utm_north, alt, utm_zone) pprz_msg_se
 791:/home/dino/paparazzi/var/include/messages.h **** static inline void pprz_msg_send_WP_MOVED(struct transport_tx *trans, struct link_device *dev, uint
 792:/home/dino/paparazzi/var/include/messages.h **** 	if (trans->check_available_space(trans->impl, dev, trans->size_of(trans->impl, 0+1+4+4+4+1 +2 /* m
 793:/home/dino/paparazzi/var/include/messages.h **** 	  trans->count_bytes(trans->impl, dev, trans->size_of(trans->impl, 0+1+4+4+4+1 +2 /* msg header ov
 794:/home/dino/paparazzi/var/include/messages.h **** 	  trans->start_message(trans->impl, dev, 0+1+4+4+4+1 +2 /* msg header overhead */);
 795:/home/dino/paparazzi/var/include/messages.h **** 	  trans->put_bytes(trans->impl, dev, DL_TYPE_UINT8, DL_FORMAT_SCALAR, 1, &ac_id);
 796:/home/dino/paparazzi/var/include/messages.h **** 	  trans->put_named_byte(trans->impl, dev, DL_TYPE_UINT8, DL_FORMAT_SCALAR, DL_WP_MOVED, "WP_MOVED"
 797:/home/dino/paparazzi/var/include/messages.h **** 	  trans->put_bytes(trans->impl, dev, DL_TYPE_UINT8, DL_FORMAT_SCALAR, 1, (void *) _wp_id);
 798:/home/dino/paparazzi/var/include/messages.h **** 	  trans->put_bytes(trans->impl, dev, DL_TYPE_FLOAT, DL_FORMAT_SCALAR, 4, (void *) _utm_east);
 799:/home/dino/paparazzi/var/include/messages.h **** 	  trans->put_bytes(trans->impl, dev, DL_TYPE_FLOAT, DL_FORMAT_SCALAR, 4, (void *) _utm_north);
 800:/home/dino/paparazzi/var/include/messages.h **** 	  trans->put_bytes(trans->impl, dev, DL_TYPE_FLOAT, DL_FORMAT_SCALAR, 4, (void *) _alt);
 801:/home/dino/paparazzi/var/include/messages.h **** 	  trans->put_bytes(trans->impl, dev, DL_TYPE_UINT8, DL_FORMAT_SCALAR, 1, (void *) _utm_zone);
 802:/home/dino/paparazzi/var/include/messages.h **** 	  trans->end_message(trans->impl, dev);
 803:/home/dino/paparazzi/var/include/messages.h **** 	} else
 804:/home/dino/paparazzi/var/include/messages.h **** 	  trans->overrun(trans->impl, dev);
 805:/home/dino/paparazzi/var/include/messages.h **** }
 806:/home/dino/paparazzi/var/include/messages.h **** 
 807:/home/dino/paparazzi/var/include/messages.h **** #define DOWNLINK_SEND_MKK(_trans, _dev, nr, rpm, current, temp) pprz_msg_send_MKK(&((_trans).trans_
 808:/home/dino/paparazzi/var/include/messages.h **** static inline void pprz_msg_send_MKK(struct transport_tx *trans, struct link_device *dev, uint8_t a
 809:/home/dino/paparazzi/var/include/messages.h **** 	if (trans->check_available_space(trans->impl, dev, trans->size_of(trans->impl, 0+1+1+1+1 +2 /* msg
 810:/home/dino/paparazzi/var/include/messages.h **** 	  trans->count_bytes(trans->impl, dev, trans->size_of(trans->impl, 0+1+1+1+1 +2 /* msg header over
 811:/home/dino/paparazzi/var/include/messages.h **** 	  trans->start_message(trans->impl, dev, 0+1+1+1+1 +2 /* msg header overhead */);
 812:/home/dino/paparazzi/var/include/messages.h **** 	  trans->put_bytes(trans->impl, dev, DL_TYPE_UINT8, DL_FORMAT_SCALAR, 1, &ac_id);
 813:/home/dino/paparazzi/var/include/messages.h **** 	  trans->put_named_byte(trans->impl, dev, DL_TYPE_UINT8, DL_FORMAT_SCALAR, DL_MKK, "MKK");
 814:/home/dino/paparazzi/var/include/messages.h **** 	  trans->put_bytes(trans->impl, dev, DL_TYPE_UINT8, DL_FORMAT_SCALAR, 1, (void *) _nr);
 815:/home/dino/paparazzi/var/include/messages.h **** 	  trans->put_bytes(trans->impl, dev, DL_TYPE_UINT8, DL_FORMAT_SCALAR, 1, (void *) _rpm);
 816:/home/dino/paparazzi/var/include/messages.h **** 	  trans->put_bytes(trans->impl, dev, DL_TYPE_UINT8, DL_FORMAT_SCALAR, 1, (void *) _current);
 817:/home/dino/paparazzi/var/include/messages.h **** 	  trans->put_bytes(trans->impl, dev, DL_TYPE_INT8, DL_FORMAT_SCALAR, 1, (void *) _temp);
 818:/home/dino/paparazzi/var/include/messages.h **** 	  trans->end_message(trans->impl, dev);
 819:/home/dino/paparazzi/var/include/messages.h **** 	} else
 820:/home/dino/paparazzi/var/include/messages.h **** 	  trans->overrun(trans->impl, dev);
 821:/home/dino/paparazzi/var/include/messages.h **** }
 822:/home/dino/paparazzi/var/include/messages.h **** 
 823:/home/dino/paparazzi/var/include/messages.h **** #define DOWNLINK_SEND_ENERGY(_trans, _dev, bat, amp, energy, power) pprz_msg_send_ENERGY(&((_trans)
 824:/home/dino/paparazzi/var/include/messages.h **** static inline void pprz_msg_send_ENERGY(struct transport_tx *trans, struct link_device *dev, uint8_
 825:/home/dino/paparazzi/var/include/messages.h **** 	if (trans->check_available_space(trans->impl, dev, trans->size_of(trans->impl, 0+4+4+2+4 +2 /* msg
 826:/home/dino/paparazzi/var/include/messages.h **** 	  trans->count_bytes(trans->impl, dev, trans->size_of(trans->impl, 0+4+4+2+4 +2 /* msg header over
 827:/home/dino/paparazzi/var/include/messages.h **** 	  trans->start_message(trans->impl, dev, 0+4+4+2+4 +2 /* msg header overhead */);
 828:/home/dino/paparazzi/var/include/messages.h **** 	  trans->put_bytes(trans->impl, dev, DL_TYPE_UINT8, DL_FORMAT_SCALAR, 1, &ac_id);
 829:/home/dino/paparazzi/var/include/messages.h **** 	  trans->put_named_byte(trans->impl, dev, DL_TYPE_UINT8, DL_FORMAT_SCALAR, DL_ENERGY, "ENERGY");
 830:/home/dino/paparazzi/var/include/messages.h **** 	  trans->put_bytes(trans->impl, dev, DL_TYPE_FLOAT, DL_FORMAT_SCALAR, 4, (void *) _bat);
 831:/home/dino/paparazzi/var/include/messages.h **** 	  trans->put_bytes(trans->impl, dev, DL_TYPE_FLOAT, DL_FORMAT_SCALAR, 4, (void *) _amp);
 832:/home/dino/paparazzi/var/include/messages.h **** 	  trans->put_bytes(trans->impl, dev, DL_TYPE_UINT16, DL_FORMAT_SCALAR, 2, (void *) _energy);
 833:/home/dino/paparazzi/var/include/messages.h **** 	  trans->put_bytes(trans->impl, dev, DL_TYPE_FLOAT, DL_FORMAT_SCALAR, 4, (void *) _power);
 834:/home/dino/paparazzi/var/include/messages.h **** 	  trans->end_message(trans->impl, dev);
 835:/home/dino/paparazzi/var/include/messages.h **** 	} else
 836:/home/dino/paparazzi/var/include/messages.h **** 	  trans->overrun(trans->impl, dev);
 837:/home/dino/paparazzi/var/include/messages.h **** }
 838:/home/dino/paparazzi/var/include/messages.h **** 
 839:/home/dino/paparazzi/var/include/messages.h **** #define DOWNLINK_SEND_BARO_BMP85_CALIB(_trans, _dev, a1, a2, a3, a4, a5, a6, b1, b2, mb, mc, md) pp
 840:/home/dino/paparazzi/var/include/messages.h **** static inline void pprz_msg_send_BARO_BMP85_CALIB(struct transport_tx *trans, struct link_device *d
 841:/home/dino/paparazzi/var/include/messages.h **** 	if (trans->check_available_space(trans->impl, dev, trans->size_of(trans->impl, 0+2+2+2+2+2+2+2+2+2
 842:/home/dino/paparazzi/var/include/messages.h **** 	  trans->count_bytes(trans->impl, dev, trans->size_of(trans->impl, 0+2+2+2+2+2+2+2+2+2+2+2 +2 /* m
 843:/home/dino/paparazzi/var/include/messages.h **** 	  trans->start_message(trans->impl, dev, 0+2+2+2+2+2+2+2+2+2+2+2 +2 /* msg header overhead */);
 844:/home/dino/paparazzi/var/include/messages.h **** 	  trans->put_bytes(trans->impl, dev, DL_TYPE_UINT8, DL_FORMAT_SCALAR, 1, &ac_id);
 845:/home/dino/paparazzi/var/include/messages.h **** 	  trans->put_named_byte(trans->impl, dev, DL_TYPE_UINT8, DL_FORMAT_SCALAR, DL_BARO_BMP85_CALIB, "B
 846:/home/dino/paparazzi/var/include/messages.h **** 	  trans->put_bytes(trans->impl, dev, DL_TYPE_INT16, DL_FORMAT_SCALAR, 2, (void *) _a1);
 847:/home/dino/paparazzi/var/include/messages.h **** 	  trans->put_bytes(trans->impl, dev, DL_TYPE_INT16, DL_FORMAT_SCALAR, 2, (void *) _a2);
 848:/home/dino/paparazzi/var/include/messages.h **** 	  trans->put_bytes(trans->impl, dev, DL_TYPE_INT16, DL_FORMAT_SCALAR, 2, (void *) _a3);
 849:/home/dino/paparazzi/var/include/messages.h **** 	  trans->put_bytes(trans->impl, dev, DL_TYPE_UINT16, DL_FORMAT_SCALAR, 2, (void *) _a4);
 850:/home/dino/paparazzi/var/include/messages.h **** 	  trans->put_bytes(trans->impl, dev, DL_TYPE_UINT16, DL_FORMAT_SCALAR, 2, (void *) _a5);
 851:/home/dino/paparazzi/var/include/messages.h **** 	  trans->put_bytes(trans->impl, dev, DL_TYPE_UINT16, DL_FORMAT_SCALAR, 2, (void *) _a6);
 852:/home/dino/paparazzi/var/include/messages.h **** 	  trans->put_bytes(trans->impl, dev, DL_TYPE_INT16, DL_FORMAT_SCALAR, 2, (void *) _b1);
 853:/home/dino/paparazzi/var/include/messages.h **** 	  trans->put_bytes(trans->impl, dev, DL_TYPE_INT16, DL_FORMAT_SCALAR, 2, (void *) _b2);
 854:/home/dino/paparazzi/var/include/messages.h **** 	  trans->put_bytes(trans->impl, dev, DL_TYPE_INT16, DL_FORMAT_SCALAR, 2, (void *) _mb);
 855:/home/dino/paparazzi/var/include/messages.h **** 	  trans->put_bytes(trans->impl, dev, DL_TYPE_INT16, DL_FORMAT_SCALAR, 2, (void *) _mc);
 856:/home/dino/paparazzi/var/include/messages.h **** 	  trans->put_bytes(trans->impl, dev, DL_TYPE_INT16, DL_FORMAT_SCALAR, 2, (void *) _md);
 857:/home/dino/paparazzi/var/include/messages.h **** 	  trans->end_message(trans->impl, dev);
 858:/home/dino/paparazzi/var/include/messages.h **** 	} else
 859:/home/dino/paparazzi/var/include/messages.h **** 	  trans->overrun(trans->impl, dev);
 860:/home/dino/paparazzi/var/include/messages.h **** }
 861:/home/dino/paparazzi/var/include/messages.h **** 
 862:/home/dino/paparazzi/var/include/messages.h **** #define DOWNLINK_SEND_BARO_BMP85(_trans, _dev, UT, UP, P, T, MSL) pprz_msg_send_BARO_BMP85(&((_tran
 863:/home/dino/paparazzi/var/include/messages.h **** static inline void pprz_msg_send_BARO_BMP85(struct transport_tx *trans, struct link_device *dev, ui
 864:/home/dino/paparazzi/var/include/messages.h **** 	if (trans->check_available_space(trans->impl, dev, trans->size_of(trans->impl, 0+4+4+4+4+4 +2 /* m
 865:/home/dino/paparazzi/var/include/messages.h **** 	  trans->count_bytes(trans->impl, dev, trans->size_of(trans->impl, 0+4+4+4+4+4 +2 /* msg header ov
 866:/home/dino/paparazzi/var/include/messages.h **** 	  trans->start_message(trans->impl, dev, 0+4+4+4+4+4 +2 /* msg header overhead */);
 867:/home/dino/paparazzi/var/include/messages.h **** 	  trans->put_bytes(trans->impl, dev, DL_TYPE_UINT8, DL_FORMAT_SCALAR, 1, &ac_id);
 868:/home/dino/paparazzi/var/include/messages.h **** 	  trans->put_named_byte(trans->impl, dev, DL_TYPE_UINT8, DL_FORMAT_SCALAR, DL_BARO_BMP85, "BARO_BM
 869:/home/dino/paparazzi/var/include/messages.h **** 	  trans->put_bytes(trans->impl, dev, DL_TYPE_INT32, DL_FORMAT_SCALAR, 4, (void *) _UT);
 870:/home/dino/paparazzi/var/include/messages.h **** 	  trans->put_bytes(trans->impl, dev, DL_TYPE_INT32, DL_FORMAT_SCALAR, 4, (void *) _UP);
 871:/home/dino/paparazzi/var/include/messages.h **** 	  trans->put_bytes(trans->impl, dev, DL_TYPE_UINT32, DL_FORMAT_SCALAR, 4, (void *) _P);
 872:/home/dino/paparazzi/var/include/messages.h **** 	  trans->put_bytes(trans->impl, dev, DL_TYPE_FLOAT, DL_FORMAT_SCALAR, 4, (void *) _T);
 873:/home/dino/paparazzi/var/include/messages.h **** 	  trans->put_bytes(trans->impl, dev, DL_TYPE_FLOAT, DL_FORMAT_SCALAR, 4, (void *) _MSL);
 874:/home/dino/paparazzi/var/include/messages.h **** 	  trans->end_message(trans->impl, dev);
 875:/home/dino/paparazzi/var/include/messages.h **** 	} else
 876:/home/dino/paparazzi/var/include/messages.h **** 	  trans->overrun(trans->impl, dev);
 877:/home/dino/paparazzi/var/include/messages.h **** }
 878:/home/dino/paparazzi/var/include/messages.h **** 
 879:/home/dino/paparazzi/var/include/messages.h **** #define DOWNLINK_SEND_SPEED_LOOP(_trans, _dev, ve_set_point, ve, vn_set_point, vn, north_sp, east_s
 880:/home/dino/paparazzi/var/include/messages.h **** static inline void pprz_msg_send_SPEED_LOOP(struct transport_tx *trans, struct link_device *dev, ui
 881:/home/dino/paparazzi/var/include/messages.h **** 	if (trans->check_available_space(trans->impl, dev, trans->size_of(trans->impl, 0+4+4+4+4+4+4 +2 /*
 882:/home/dino/paparazzi/var/include/messages.h **** 	  trans->count_bytes(trans->impl, dev, trans->size_of(trans->impl, 0+4+4+4+4+4+4 +2 /* msg header 
 883:/home/dino/paparazzi/var/include/messages.h **** 	  trans->start_message(trans->impl, dev, 0+4+4+4+4+4+4 +2 /* msg header overhead */);
 884:/home/dino/paparazzi/var/include/messages.h **** 	  trans->put_bytes(trans->impl, dev, DL_TYPE_UINT8, DL_FORMAT_SCALAR, 1, &ac_id);
 885:/home/dino/paparazzi/var/include/messages.h **** 	  trans->put_named_byte(trans->impl, dev, DL_TYPE_UINT8, DL_FORMAT_SCALAR, DL_SPEED_LOOP, "SPEED_L
 886:/home/dino/paparazzi/var/include/messages.h **** 	  trans->put_bytes(trans->impl, dev, DL_TYPE_FLOAT, DL_FORMAT_SCALAR, 4, (void *) _ve_set_point);
 887:/home/dino/paparazzi/var/include/messages.h **** 	  trans->put_bytes(trans->impl, dev, DL_TYPE_FLOAT, DL_FORMAT_SCALAR, 4, (void *) _ve);
 888:/home/dino/paparazzi/var/include/messages.h **** 	  trans->put_bytes(trans->impl, dev, DL_TYPE_FLOAT, DL_FORMAT_SCALAR, 4, (void *) _vn_set_point);
 889:/home/dino/paparazzi/var/include/messages.h **** 	  trans->put_bytes(trans->impl, dev, DL_TYPE_FLOAT, DL_FORMAT_SCALAR, 4, (void *) _vn);
 890:/home/dino/paparazzi/var/include/messages.h **** 	  trans->put_bytes(trans->impl, dev, DL_TYPE_FLOAT, DL_FORMAT_SCALAR, 4, (void *) _north_sp);
 891:/home/dino/paparazzi/var/include/messages.h **** 	  trans->put_bytes(trans->impl, dev, DL_TYPE_FLOAT, DL_FORMAT_SCALAR, 4, (void *) _east_sp);
 892:/home/dino/paparazzi/var/include/messages.h **** 	  trans->end_message(trans->impl, dev);
 893:/home/dino/paparazzi/var/include/messages.h **** 	} else
 894:/home/dino/paparazzi/var/include/messages.h **** 	  trans->overrun(trans->impl, dev);
 895:/home/dino/paparazzi/var/include/messages.h **** }
 896:/home/dino/paparazzi/var/include/messages.h **** 
 897:/home/dino/paparazzi/var/include/messages.h **** #define DOWNLINK_SEND_ALT_KALMAN(_trans, _dev, p00, p01, p10, p11) pprz_msg_send_ALT_KALMAN(&((_tra
 898:/home/dino/paparazzi/var/include/messages.h **** static inline void pprz_msg_send_ALT_KALMAN(struct transport_tx *trans, struct link_device *dev, ui
 899:/home/dino/paparazzi/var/include/messages.h **** 	if (trans->check_available_space(trans->impl, dev, trans->size_of(trans->impl, 0+4+4+4+4 +2 /* msg
 900:/home/dino/paparazzi/var/include/messages.h **** 	  trans->count_bytes(trans->impl, dev, trans->size_of(trans->impl, 0+4+4+4+4 +2 /* msg header over
 901:/home/dino/paparazzi/var/include/messages.h **** 	  trans->start_message(trans->impl, dev, 0+4+4+4+4 +2 /* msg header overhead */);
 902:/home/dino/paparazzi/var/include/messages.h **** 	  trans->put_bytes(trans->impl, dev, DL_TYPE_UINT8, DL_FORMAT_SCALAR, 1, &ac_id);
 903:/home/dino/paparazzi/var/include/messages.h **** 	  trans->put_named_byte(trans->impl, dev, DL_TYPE_UINT8, DL_FORMAT_SCALAR, DL_ALT_KALMAN, "ALT_KAL
 904:/home/dino/paparazzi/var/include/messages.h **** 	  trans->put_bytes(trans->impl, dev, DL_TYPE_FLOAT, DL_FORMAT_SCALAR, 4, (void *) _p00);
 905:/home/dino/paparazzi/var/include/messages.h **** 	  trans->put_bytes(trans->impl, dev, DL_TYPE_FLOAT, DL_FORMAT_SCALAR, 4, (void *) _p01);
 906:/home/dino/paparazzi/var/include/messages.h **** 	  trans->put_bytes(trans->impl, dev, DL_TYPE_FLOAT, DL_FORMAT_SCALAR, 4, (void *) _p10);
 907:/home/dino/paparazzi/var/include/messages.h **** 	  trans->put_bytes(trans->impl, dev, DL_TYPE_FLOAT, DL_FORMAT_SCALAR, 4, (void *) _p11);
 908:/home/dino/paparazzi/var/include/messages.h **** 	  trans->end_message(trans->impl, dev);
 909:/home/dino/paparazzi/var/include/messages.h **** 	} else
 910:/home/dino/paparazzi/var/include/messages.h **** 	  trans->overrun(trans->impl, dev);
 911:/home/dino/paparazzi/var/include/messages.h **** }
 912:/home/dino/paparazzi/var/include/messages.h **** 
 913:/home/dino/paparazzi/var/include/messages.h **** #define DOWNLINK_SEND_ESTIMATOR(_trans, _dev, z, z_dot) pprz_msg_send_ESTIMATOR(&((_trans).trans_tx
 914:/home/dino/paparazzi/var/include/messages.h **** static inline void pprz_msg_send_ESTIMATOR(struct transport_tx *trans, struct link_device *dev, uin
 915:/home/dino/paparazzi/var/include/messages.h **** 	if (trans->check_available_space(trans->impl, dev, trans->size_of(trans->impl, 0+4+4 +2 /* msg hea
 916:/home/dino/paparazzi/var/include/messages.h **** 	  trans->count_bytes(trans->impl, dev, trans->size_of(trans->impl, 0+4+4 +2 /* msg header overhead
 917:/home/dino/paparazzi/var/include/messages.h **** 	  trans->start_message(trans->impl, dev, 0+4+4 +2 /* msg header overhead */);
 918:/home/dino/paparazzi/var/include/messages.h **** 	  trans->put_bytes(trans->impl, dev, DL_TYPE_UINT8, DL_FORMAT_SCALAR, 1, &ac_id);
 919:/home/dino/paparazzi/var/include/messages.h **** 	  trans->put_named_byte(trans->impl, dev, DL_TYPE_UINT8, DL_FORMAT_SCALAR, DL_ESTIMATOR, "ESTIMATO
 920:/home/dino/paparazzi/var/include/messages.h **** 	  trans->put_bytes(trans->impl, dev, DL_TYPE_FLOAT, DL_FORMAT_SCALAR, 4, (void *) _z);
 921:/home/dino/paparazzi/var/include/messages.h **** 	  trans->put_bytes(trans->impl, dev, DL_TYPE_FLOAT, DL_FORMAT_SCALAR, 4, (void *) _z_dot);
 922:/home/dino/paparazzi/var/include/messages.h **** 	  trans->end_message(trans->impl, dev);
 923:/home/dino/paparazzi/var/include/messages.h **** 	} else
 924:/home/dino/paparazzi/var/include/messages.h **** 	  trans->overrun(trans->impl, dev);
 925:/home/dino/paparazzi/var/include/messages.h **** }
 926:/home/dino/paparazzi/var/include/messages.h **** 
 927:/home/dino/paparazzi/var/include/messages.h **** #define DOWNLINK_SEND_TUNE_ROLL(_trans, _dev, p, phi, phi_sp) pprz_msg_send_TUNE_ROLL(&((_trans).tr
 928:/home/dino/paparazzi/var/include/messages.h **** static inline void pprz_msg_send_TUNE_ROLL(struct transport_tx *trans, struct link_device *dev, uin
 929:/home/dino/paparazzi/var/include/messages.h **** 	if (trans->check_available_space(trans->impl, dev, trans->size_of(trans->impl, 0+4+4+4 +2 /* msg h
 930:/home/dino/paparazzi/var/include/messages.h **** 	  trans->count_bytes(trans->impl, dev, trans->size_of(trans->impl, 0+4+4+4 +2 /* msg header overhe
 931:/home/dino/paparazzi/var/include/messages.h **** 	  trans->start_message(trans->impl, dev, 0+4+4+4 +2 /* msg header overhead */);
 932:/home/dino/paparazzi/var/include/messages.h **** 	  trans->put_bytes(trans->impl, dev, DL_TYPE_UINT8, DL_FORMAT_SCALAR, 1, &ac_id);
 933:/home/dino/paparazzi/var/include/messages.h **** 	  trans->put_named_byte(trans->impl, dev, DL_TYPE_UINT8, DL_FORMAT_SCALAR, DL_TUNE_ROLL, "TUNE_ROL
 934:/home/dino/paparazzi/var/include/messages.h **** 	  trans->put_bytes(trans->impl, dev, DL_TYPE_FLOAT, DL_FORMAT_SCALAR, 4, (void *) _p);
 935:/home/dino/paparazzi/var/include/messages.h **** 	  trans->put_bytes(trans->impl, dev, DL_TYPE_FLOAT, DL_FORMAT_SCALAR, 4, (void *) _phi);
 936:/home/dino/paparazzi/var/include/messages.h **** 	  trans->put_bytes(trans->impl, dev, DL_TYPE_FLOAT, DL_FORMAT_SCALAR, 4, (void *) _phi_sp);
 937:/home/dino/paparazzi/var/include/messages.h **** 	  trans->end_message(trans->impl, dev);
 938:/home/dino/paparazzi/var/include/messages.h **** 	} else
 939:/home/dino/paparazzi/var/include/messages.h **** 	  trans->overrun(trans->impl, dev);
 940:/home/dino/paparazzi/var/include/messages.h **** }
 941:/home/dino/paparazzi/var/include/messages.h **** 
 942:/home/dino/paparazzi/var/include/messages.h **** #define DOWNLINK_SEND_BARO_MS5534A(_trans, _dev, pressure, temp, alt) pprz_msg_send_BARO_MS5534A(&(
 943:/home/dino/paparazzi/var/include/messages.h **** static inline void pprz_msg_send_BARO_MS5534A(struct transport_tx *trans, struct link_device *dev, 
 944:/home/dino/paparazzi/var/include/messages.h **** 	if (trans->check_available_space(trans->impl, dev, trans->size_of(trans->impl, 0+4+2+4 +2 /* msg h
 945:/home/dino/paparazzi/var/include/messages.h **** 	  trans->count_bytes(trans->impl, dev, trans->size_of(trans->impl, 0+4+2+4 +2 /* msg header overhe
 946:/home/dino/paparazzi/var/include/messages.h **** 	  trans->start_message(trans->impl, dev, 0+4+2+4 +2 /* msg header overhead */);
 947:/home/dino/paparazzi/var/include/messages.h **** 	  trans->put_bytes(trans->impl, dev, DL_TYPE_UINT8, DL_FORMAT_SCALAR, 1, &ac_id);
 948:/home/dino/paparazzi/var/include/messages.h **** 	  trans->put_named_byte(trans->impl, dev, DL_TYPE_UINT8, DL_FORMAT_SCALAR, DL_BARO_MS5534A, "BARO_
 949:/home/dino/paparazzi/var/include/messages.h **** 	  trans->put_bytes(trans->impl, dev, DL_TYPE_UINT32, DL_FORMAT_SCALAR, 4, (void *) _pressure);
 950:/home/dino/paparazzi/var/include/messages.h **** 	  trans->put_bytes(trans->impl, dev, DL_TYPE_UINT16, DL_FORMAT_SCALAR, 2, (void *) _temp);
 951:/home/dino/paparazzi/var/include/messages.h **** 	  trans->put_bytes(trans->impl, dev, DL_TYPE_FLOAT, DL_FORMAT_SCALAR, 4, (void *) _alt);
 952:/home/dino/paparazzi/var/include/messages.h **** 	  trans->end_message(trans->impl, dev);
 953:/home/dino/paparazzi/var/include/messages.h **** 	} else
 954:/home/dino/paparazzi/var/include/messages.h **** 	  trans->overrun(trans->impl, dev);
 955:/home/dino/paparazzi/var/include/messages.h **** }
 956:/home/dino/paparazzi/var/include/messages.h **** 
 957:/home/dino/paparazzi/var/include/messages.h **** #define DOWNLINK_SEND_PRESSURE(_trans, _dev, airspeed_adc, airspeed, altitude_adc, altitude) pprz_m
 958:/home/dino/paparazzi/var/include/messages.h **** static inline void pprz_msg_send_PRESSURE(struct transport_tx *trans, struct link_device *dev, uint
 959:/home/dino/paparazzi/var/include/messages.h **** 	if (trans->check_available_space(trans->impl, dev, trans->size_of(trans->impl, 0+4+4+4+4 +2 /* msg
 960:/home/dino/paparazzi/var/include/messages.h **** 	  trans->count_bytes(trans->impl, dev, trans->size_of(trans->impl, 0+4+4+4+4 +2 /* msg header over
 961:/home/dino/paparazzi/var/include/messages.h **** 	  trans->start_message(trans->impl, dev, 0+4+4+4+4 +2 /* msg header overhead */);
 962:/home/dino/paparazzi/var/include/messages.h **** 	  trans->put_bytes(trans->impl, dev, DL_TYPE_UINT8, DL_FORMAT_SCALAR, 1, &ac_id);
 963:/home/dino/paparazzi/var/include/messages.h **** 	  trans->put_named_byte(trans->impl, dev, DL_TYPE_UINT8, DL_FORMAT_SCALAR, DL_PRESSURE, "PRESSURE"
 964:/home/dino/paparazzi/var/include/messages.h **** 	  trans->put_bytes(trans->impl, dev, DL_TYPE_FLOAT, DL_FORMAT_SCALAR, 4, (void *) _airspeed_adc);
 965:/home/dino/paparazzi/var/include/messages.h **** 	  trans->put_bytes(trans->impl, dev, DL_TYPE_FLOAT, DL_FORMAT_SCALAR, 4, (void *) _airspeed);
 966:/home/dino/paparazzi/var/include/messages.h **** 	  trans->put_bytes(trans->impl, dev, DL_TYPE_FLOAT, DL_FORMAT_SCALAR, 4, (void *) _altitude_adc);
 967:/home/dino/paparazzi/var/include/messages.h **** 	  trans->put_bytes(trans->impl, dev, DL_TYPE_FLOAT, DL_FORMAT_SCALAR, 4, (void *) _altitude);
 968:/home/dino/paparazzi/var/include/messages.h **** 	  trans->end_message(trans->impl, dev);
 969:/home/dino/paparazzi/var/include/messages.h **** 	} else
 970:/home/dino/paparazzi/var/include/messages.h **** 	  trans->overrun(trans->impl, dev);
 971:/home/dino/paparazzi/var/include/messages.h **** }
 972:/home/dino/paparazzi/var/include/messages.h **** 
 973:/home/dino/paparazzi/var/include/messages.h **** #define DOWNLINK_SEND_BARO_WORDS(_trans, _dev, w1, w2, w3, w4) pprz_msg_send_BARO_WORDS(&((_trans).
 974:/home/dino/paparazzi/var/include/messages.h **** static inline void pprz_msg_send_BARO_WORDS(struct transport_tx *trans, struct link_device *dev, ui
 975:/home/dino/paparazzi/var/include/messages.h **** 	if (trans->check_available_space(trans->impl, dev, trans->size_of(trans->impl, 0+2+2+2+2 +2 /* msg
 976:/home/dino/paparazzi/var/include/messages.h **** 	  trans->count_bytes(trans->impl, dev, trans->size_of(trans->impl, 0+2+2+2+2 +2 /* msg header over
 977:/home/dino/paparazzi/var/include/messages.h **** 	  trans->start_message(trans->impl, dev, 0+2+2+2+2 +2 /* msg header overhead */);
 978:/home/dino/paparazzi/var/include/messages.h **** 	  trans->put_bytes(trans->impl, dev, DL_TYPE_UINT8, DL_FORMAT_SCALAR, 1, &ac_id);
 979:/home/dino/paparazzi/var/include/messages.h **** 	  trans->put_named_byte(trans->impl, dev, DL_TYPE_UINT8, DL_FORMAT_SCALAR, DL_BARO_WORDS, "BARO_WO
 980:/home/dino/paparazzi/var/include/messages.h **** 	  trans->put_bytes(trans->impl, dev, DL_TYPE_UINT16, DL_FORMAT_SCALAR, 2, (void *) _w1);
 981:/home/dino/paparazzi/var/include/messages.h **** 	  trans->put_bytes(trans->impl, dev, DL_TYPE_UINT16, DL_FORMAT_SCALAR, 2, (void *) _w2);
 982:/home/dino/paparazzi/var/include/messages.h **** 	  trans->put_bytes(trans->impl, dev, DL_TYPE_UINT16, DL_FORMAT_SCALAR, 2, (void *) _w3);
 983:/home/dino/paparazzi/var/include/messages.h **** 	  trans->put_bytes(trans->impl, dev, DL_TYPE_UINT16, DL_FORMAT_SCALAR, 2, (void *) _w4);
 984:/home/dino/paparazzi/var/include/messages.h **** 	  trans->end_message(trans->impl, dev);
 985:/home/dino/paparazzi/var/include/messages.h **** 	} else
 986:/home/dino/paparazzi/var/include/messages.h **** 	  trans->overrun(trans->impl, dev);
 987:/home/dino/paparazzi/var/include/messages.h **** }
 988:/home/dino/paparazzi/var/include/messages.h **** 
 989:/home/dino/paparazzi/var/include/messages.h **** #define DOWNLINK_SEND_WP_MOVED_LLA(_trans, _dev, wp_id, lat, lon, alt) pprz_msg_send_WP_MOVED_LLA(&
 990:/home/dino/paparazzi/var/include/messages.h **** static inline void pprz_msg_send_WP_MOVED_LLA(struct transport_tx *trans, struct link_device *dev, 
 991:/home/dino/paparazzi/var/include/messages.h **** 	if (trans->check_available_space(trans->impl, dev, trans->size_of(trans->impl, 0+1+4+4+4 +2 /* msg
 992:/home/dino/paparazzi/var/include/messages.h **** 	  trans->count_bytes(trans->impl, dev, trans->size_of(trans->impl, 0+1+4+4+4 +2 /* msg header over
 993:/home/dino/paparazzi/var/include/messages.h **** 	  trans->start_message(trans->impl, dev, 0+1+4+4+4 +2 /* msg header overhead */);
 994:/home/dino/paparazzi/var/include/messages.h **** 	  trans->put_bytes(trans->impl, dev, DL_TYPE_UINT8, DL_FORMAT_SCALAR, 1, &ac_id);
 995:/home/dino/paparazzi/var/include/messages.h **** 	  trans->put_named_byte(trans->impl, dev, DL_TYPE_UINT8, DL_FORMAT_SCALAR, DL_WP_MOVED_LLA, "WP_MO
 996:/home/dino/paparazzi/var/include/messages.h **** 	  trans->put_bytes(trans->impl, dev, DL_TYPE_UINT8, DL_FORMAT_SCALAR, 1, (void *) _wp_id);
 997:/home/dino/paparazzi/var/include/messages.h **** 	  trans->put_bytes(trans->impl, dev, DL_TYPE_INT32, DL_FORMAT_SCALAR, 4, (void *) _lat);
 998:/home/dino/paparazzi/var/include/messages.h **** 	  trans->put_bytes(trans->impl, dev, DL_TYPE_INT32, DL_FORMAT_SCALAR, 4, (void *) _lon);
 999:/home/dino/paparazzi/var/include/messages.h **** 	  trans->put_bytes(trans->impl, dev, DL_TYPE_INT32, DL_FORMAT_SCALAR, 4, (void *) _alt);
1000:/home/dino/paparazzi/var/include/messages.h **** 	  trans->end_message(trans->impl, dev);
1001:/home/dino/paparazzi/var/include/messages.h **** 	} else
1002:/home/dino/paparazzi/var/include/messages.h **** 	  trans->overrun(trans->impl, dev);
1003:/home/dino/paparazzi/var/include/messages.h **** }
1004:/home/dino/paparazzi/var/include/messages.h **** 
1005:/home/dino/paparazzi/var/include/messages.h **** #define DOWNLINK_SEND_CHRONO(_trans, _dev, tag, time) pprz_msg_send_CHRONO(&((_trans).trans_tx), &(
1006:/home/dino/paparazzi/var/include/messages.h **** static inline void pprz_msg_send_CHRONO(struct transport_tx *trans, struct link_device *dev, uint8_
1007:/home/dino/paparazzi/var/include/messages.h **** 	if (trans->check_available_space(trans->impl, dev, trans->size_of(trans->impl, 0+1+4 +2 /* msg hea
1008:/home/dino/paparazzi/var/include/messages.h **** 	  trans->count_bytes(trans->impl, dev, trans->size_of(trans->impl, 0+1+4 +2 /* msg header overhead
1009:/home/dino/paparazzi/var/include/messages.h **** 	  trans->start_message(trans->impl, dev, 0+1+4 +2 /* msg header overhead */);
1010:/home/dino/paparazzi/var/include/messages.h **** 	  trans->put_bytes(trans->impl, dev, DL_TYPE_UINT8, DL_FORMAT_SCALAR, 1, &ac_id);
1011:/home/dino/paparazzi/var/include/messages.h **** 	  trans->put_named_byte(trans->impl, dev, DL_TYPE_UINT8, DL_FORMAT_SCALAR, DL_CHRONO, "CHRONO");
1012:/home/dino/paparazzi/var/include/messages.h **** 	  trans->put_bytes(trans->impl, dev, DL_TYPE_UINT8, DL_FORMAT_SCALAR, 1, (void *) _tag);
1013:/home/dino/paparazzi/var/include/messages.h **** 	  trans->put_bytes(trans->impl, dev, DL_TYPE_UINT32, DL_FORMAT_SCALAR, 4, (void *) _time);
1014:/home/dino/paparazzi/var/include/messages.h **** 	  trans->end_message(trans->impl, dev);
1015:/home/dino/paparazzi/var/include/messages.h **** 	} else
1016:/home/dino/paparazzi/var/include/messages.h **** 	  trans->overrun(trans->impl, dev);
1017:/home/dino/paparazzi/var/include/messages.h **** }
1018:/home/dino/paparazzi/var/include/messages.h **** 
1019:/home/dino/paparazzi/var/include/messages.h **** #define DOWNLINK_SEND_WP_MOVED_ENU(_trans, _dev, wp_id, east, north, up) pprz_msg_send_WP_MOVED_ENU
1020:/home/dino/paparazzi/var/include/messages.h **** static inline void pprz_msg_send_WP_MOVED_ENU(struct transport_tx *trans, struct link_device *dev, 
1021:/home/dino/paparazzi/var/include/messages.h **** 	if (trans->check_available_space(trans->impl, dev, trans->size_of(trans->impl, 0+1+4+4+4 +2 /* msg
1022:/home/dino/paparazzi/var/include/messages.h **** 	  trans->count_bytes(trans->impl, dev, trans->size_of(trans->impl, 0+1+4+4+4 +2 /* msg header over
1023:/home/dino/paparazzi/var/include/messages.h **** 	  trans->start_message(trans->impl, dev, 0+1+4+4+4 +2 /* msg header overhead */);
1024:/home/dino/paparazzi/var/include/messages.h **** 	  trans->put_bytes(trans->impl, dev, DL_TYPE_UINT8, DL_FORMAT_SCALAR, 1, &ac_id);
1025:/home/dino/paparazzi/var/include/messages.h **** 	  trans->put_named_byte(trans->impl, dev, DL_TYPE_UINT8, DL_FORMAT_SCALAR, DL_WP_MOVED_ENU, "WP_MO
1026:/home/dino/paparazzi/var/include/messages.h **** 	  trans->put_bytes(trans->impl, dev, DL_TYPE_UINT8, DL_FORMAT_SCALAR, 1, (void *) _wp_id);
1027:/home/dino/paparazzi/var/include/messages.h **** 	  trans->put_bytes(trans->impl, dev, DL_TYPE_INT32, DL_FORMAT_SCALAR, 4, (void *) _east);
1028:/home/dino/paparazzi/var/include/messages.h **** 	  trans->put_bytes(trans->impl, dev, DL_TYPE_INT32, DL_FORMAT_SCALAR, 4, (void *) _north);
1029:/home/dino/paparazzi/var/include/messages.h **** 	  trans->put_bytes(trans->impl, dev, DL_TYPE_INT32, DL_FORMAT_SCALAR, 4, (void *) _up);
1030:/home/dino/paparazzi/var/include/messages.h **** 	  trans->end_message(trans->impl, dev);
1031:/home/dino/paparazzi/var/include/messages.h **** 	} else
1032:/home/dino/paparazzi/var/include/messages.h **** 	  trans->overrun(trans->impl, dev);
1033:/home/dino/paparazzi/var/include/messages.h **** }
1034:/home/dino/paparazzi/var/include/messages.h **** 
1035:/home/dino/paparazzi/var/include/messages.h **** #define DOWNLINK_SEND_WINDTURBINE_STATUS_(_trans, _dev, ac_id, tb_id, sync_itow, cycle_time) pprz_m
1036:/home/dino/paparazzi/var/include/messages.h **** static inline void pprz_msg_send_WINDTURBINE_STATUS_(struct transport_tx *trans, struct link_device
1037:/home/dino/paparazzi/var/include/messages.h **** 	if (trans->check_available_space(trans->impl, dev, trans->size_of(trans->impl, 0+1+1+4+4 +2 /* msg
1038:/home/dino/paparazzi/var/include/messages.h **** 	  trans->count_bytes(trans->impl, dev, trans->size_of(trans->impl, 0+1+1+4+4 +2 /* msg header over
1039:/home/dino/paparazzi/var/include/messages.h **** 	  trans->start_message(trans->impl, dev, 0+1+1+4+4 +2 /* msg header overhead */);
1040:/home/dino/paparazzi/var/include/messages.h **** 	  trans->put_bytes(trans->impl, dev, DL_TYPE_UINT8, DL_FORMAT_SCALAR, 1, &ac_id);
1041:/home/dino/paparazzi/var/include/messages.h **** 	  trans->put_named_byte(trans->impl, dev, DL_TYPE_UINT8, DL_FORMAT_SCALAR, DL_WINDTURBINE_STATUS_,
1042:/home/dino/paparazzi/var/include/messages.h **** 	  trans->put_bytes(trans->impl, dev, DL_TYPE_UINT8, DL_FORMAT_SCALAR, 1, (void *) _ac_id);
1043:/home/dino/paparazzi/var/include/messages.h **** 	  trans->put_bytes(trans->impl, dev, DL_TYPE_UINT8, DL_FORMAT_SCALAR, 1, (void *) _tb_id);
1044:/home/dino/paparazzi/var/include/messages.h **** 	  trans->put_bytes(trans->impl, dev, DL_TYPE_UINT32, DL_FORMAT_SCALAR, 4, (void *) _sync_itow);
1045:/home/dino/paparazzi/var/include/messages.h **** 	  trans->put_bytes(trans->impl, dev, DL_TYPE_UINT32, DL_FORMAT_SCALAR, 4, (void *) _cycle_time);
1046:/home/dino/paparazzi/var/include/messages.h **** 	  trans->end_message(trans->impl, dev);
1047:/home/dino/paparazzi/var/include/messages.h **** 	} else
1048:/home/dino/paparazzi/var/include/messages.h **** 	  trans->overrun(trans->impl, dev);
1049:/home/dino/paparazzi/var/include/messages.h **** }
1050:/home/dino/paparazzi/var/include/messages.h **** 
1051:/home/dino/paparazzi/var/include/messages.h **** #define DOWNLINK_SEND_RC_3CH_(_trans, _dev, throttle_mode, roll, pitch) pprz_msg_send_RC_3CH_(&((_t
1052:/home/dino/paparazzi/var/include/messages.h **** static inline void pprz_msg_send_RC_3CH_(struct transport_tx *trans, struct link_device *dev, uint8
1053:/home/dino/paparazzi/var/include/messages.h **** 	if (trans->check_available_space(trans->impl, dev, trans->size_of(trans->impl, 0+1+1+1 +2 /* msg h
1054:/home/dino/paparazzi/var/include/messages.h **** 	  trans->count_bytes(trans->impl, dev, trans->size_of(trans->impl, 0+1+1+1 +2 /* msg header overhe
1055:/home/dino/paparazzi/var/include/messages.h **** 	  trans->start_message(trans->impl, dev, 0+1+1+1 +2 /* msg header overhead */);
1056:/home/dino/paparazzi/var/include/messages.h **** 	  trans->put_bytes(trans->impl, dev, DL_TYPE_UINT8, DL_FORMAT_SCALAR, 1, &ac_id);
1057:/home/dino/paparazzi/var/include/messages.h **** 	  trans->put_named_byte(trans->impl, dev, DL_TYPE_UINT8, DL_FORMAT_SCALAR, DL_RC_3CH_, "RC_3CH_");
1058:/home/dino/paparazzi/var/include/messages.h **** 	  trans->put_bytes(trans->impl, dev, DL_TYPE_UINT8, DL_FORMAT_SCALAR, 1, (void *) _throttle_mode);
1059:/home/dino/paparazzi/var/include/messages.h **** 	  trans->put_bytes(trans->impl, dev, DL_TYPE_INT8, DL_FORMAT_SCALAR, 1, (void *) _roll);
1060:/home/dino/paparazzi/var/include/messages.h **** 	  trans->put_bytes(trans->impl, dev, DL_TYPE_INT8, DL_FORMAT_SCALAR, 1, (void *) _pitch);
1061:/home/dino/paparazzi/var/include/messages.h **** 	  trans->end_message(trans->impl, dev);
1062:/home/dino/paparazzi/var/include/messages.h **** 	} else
1063:/home/dino/paparazzi/var/include/messages.h **** 	  trans->overrun(trans->impl, dev);
1064:/home/dino/paparazzi/var/include/messages.h **** }
1065:/home/dino/paparazzi/var/include/messages.h **** 
1066:/home/dino/paparazzi/var/include/messages.h **** #define DOWNLINK_SEND_MPPT(_trans, _dev, nb_values, values) pprz_msg_send_MPPT(&((_trans).trans_tx)
1067:/home/dino/paparazzi/var/include/messages.h **** static inline void pprz_msg_send_MPPT(struct transport_tx *trans, struct link_device *dev, uint8_t 
1068:/home/dino/paparazzi/var/include/messages.h **** 	if (trans->check_available_space(trans->impl, dev, trans->size_of(trans->impl, 0+1+nb_values*2 +2 
1069:/home/dino/paparazzi/var/include/messages.h **** 	  trans->count_bytes(trans->impl, dev, trans->size_of(trans->impl, 0+1+nb_values*2 +2 /* msg heade
1070:/home/dino/paparazzi/var/include/messages.h **** 	  trans->start_message(trans->impl, dev, 0+1+nb_values*2 +2 /* msg header overhead */);
1071:/home/dino/paparazzi/var/include/messages.h **** 	  trans->put_bytes(trans->impl, dev, DL_TYPE_UINT8, DL_FORMAT_SCALAR, 1, &ac_id);
1072:/home/dino/paparazzi/var/include/messages.h **** 	  trans->put_named_byte(trans->impl, dev, DL_TYPE_UINT8, DL_FORMAT_SCALAR, DL_MPPT, "MPPT");
1073:/home/dino/paparazzi/var/include/messages.h **** 	  trans->put_bytes(trans->impl, dev, DL_TYPE_ARRAY_LENGTH, DL_FORMAT_SCALAR, 1, (void *) &nb_value
1074:/home/dino/paparazzi/var/include/messages.h **** 	  trans->put_bytes(trans->impl, dev, DL_TYPE_INT16, DL_FORMAT_ARRAY, 2 * nb_values, (void *) _valu
1075:/home/dino/paparazzi/var/include/messages.h **** 	  trans->end_message(trans->impl, dev);
1076:/home/dino/paparazzi/var/include/messages.h **** 	} else
1077:/home/dino/paparazzi/var/include/messages.h **** 	  trans->overrun(trans->impl, dev);
1078:/home/dino/paparazzi/var/include/messages.h **** }
1079:/home/dino/paparazzi/var/include/messages.h **** 
1080:/home/dino/paparazzi/var/include/messages.h **** #define DOWNLINK_SEND_DEBUG_IR_I2C(_trans, _dev, ir1, ir2, top) pprz_msg_send_DEBUG_IR_I2C(&((_tran
1081:/home/dino/paparazzi/var/include/messages.h **** static inline void pprz_msg_send_DEBUG_IR_I2C(struct transport_tx *trans, struct link_device *dev, 
1082:/home/dino/paparazzi/var/include/messages.h **** 	if (trans->check_available_space(trans->impl, dev, trans->size_of(trans->impl, 0+2+2+2 +2 /* msg h
1083:/home/dino/paparazzi/var/include/messages.h **** 	  trans->count_bytes(trans->impl, dev, trans->size_of(trans->impl, 0+2+2+2 +2 /* msg header overhe
1084:/home/dino/paparazzi/var/include/messages.h **** 	  trans->start_message(trans->impl, dev, 0+2+2+2 +2 /* msg header overhead */);
1085:/home/dino/paparazzi/var/include/messages.h **** 	  trans->put_bytes(trans->impl, dev, DL_TYPE_UINT8, DL_FORMAT_SCALAR, 1, &ac_id);
1086:/home/dino/paparazzi/var/include/messages.h **** 	  trans->put_named_byte(trans->impl, dev, DL_TYPE_UINT8, DL_FORMAT_SCALAR, DL_DEBUG_IR_I2C, "DEBUG
1087:/home/dino/paparazzi/var/include/messages.h **** 	  trans->put_bytes(trans->impl, dev, DL_TYPE_INT16, DL_FORMAT_SCALAR, 2, (void *) _ir1);
1088:/home/dino/paparazzi/var/include/messages.h **** 	  trans->put_bytes(trans->impl, dev, DL_TYPE_INT16, DL_FORMAT_SCALAR, 2, (void *) _ir2);
1089:/home/dino/paparazzi/var/include/messages.h **** 	  trans->put_bytes(trans->impl, dev, DL_TYPE_INT16, DL_FORMAT_SCALAR, 2, (void *) _top);
1090:/home/dino/paparazzi/var/include/messages.h **** 	  trans->end_message(trans->impl, dev);
1091:/home/dino/paparazzi/var/include/messages.h **** 	} else
1092:/home/dino/paparazzi/var/include/messages.h **** 	  trans->overrun(trans->impl, dev);
1093:/home/dino/paparazzi/var/include/messages.h **** }
1094:/home/dino/paparazzi/var/include/messages.h **** 
1095:/home/dino/paparazzi/var/include/messages.h **** #define DOWNLINK_SEND_AIRSPEED(_trans, _dev, airspeed, airspeed_sp, airspeed_cnt, groundspeed_sp) p
1096:/home/dino/paparazzi/var/include/messages.h **** static inline void pprz_msg_send_AIRSPEED(struct transport_tx *trans, struct link_device *dev, uint
1097:/home/dino/paparazzi/var/include/messages.h **** 	if (trans->check_available_space(trans->impl, dev, trans->size_of(trans->impl, 0+4+4+4+4 +2 /* msg
  68              		.loc 3 1097 0
  69 001a 276A     		ldr	r7, [r4, #32]
  70 001c 2368     		ldr	r3, [r4]
  71 001e D4F80480 		ldr	r8, [r4, #4]
  72 0022 0126     		movs	r6, #1
  73 0024 1221     		movs	r1, #18
  74 0026 8DF80B60 		strb	r6, [sp, #11]
  75              	.LVL2:
  76 002a 3846     		mov	r0, r7
  77 002c 9847     		blx	r3
  78              	.LVL3:
  79 002e 2946     		mov	r1, r5
  80 0030 0246     		mov	r2, r0
  81 0032 3846     		mov	r0, r7
  82 0034 C047     		blx	r8
  83              	.LVL4:
  84 0036 0028     		cmp	r0, #0
  85 0038 4DD0     		beq	.L3
1098:/home/dino/paparazzi/var/include/messages.h **** 	  trans->count_bytes(trans->impl, dev, trans->size_of(trans->impl, 0+4+4+4+4 +2 /* msg header over
  86              		.loc 3 1098 0
  87 003a 276A     		ldr	r7, [r4, #32]
  88 003c 2368     		ldr	r3, [r4]
  89 003e D4F81C80 		ldr	r8, [r4, #28]
  90 0042 3846     		mov	r0, r7
  91 0044 1221     		movs	r1, #18
  92 0046 9847     		blx	r3
  93              	.LVL5:
  94 0048 2946     		mov	r1, r5
  95 004a 0246     		mov	r2, r0
  96 004c 3846     		mov	r0, r7
  97 004e C047     		blx	r8
  98              	.LVL6:
1099:/home/dino/paparazzi/var/include/messages.h **** 	  trans->start_message(trans->impl, dev, 0+4+4+4+4 +2 /* msg header overhead */);
  99              		.loc 3 1099 0
 100 0050 2369     		ldr	r3, [r4, #16]
 101 0052 206A     		ldr	r0, [r4, #32]
 102 0054 2946     		mov	r1, r5
 103 0056 1222     		movs	r2, #18
 104 0058 9847     		blx	r3
 105              	.LVL7:
1100:/home/dino/paparazzi/var/include/messages.h **** 	  trans->put_bytes(trans->impl, dev, DL_TYPE_UINT8, DL_FORMAT_SCALAR, 1, &ac_id);
 106              		.loc 3 1100 0
 107 005a 0DF10B03 		add	r3, sp, #11
 108 005e 0096     		str	r6, [sp]
 109 0060 0193     		str	r3, [sp, #4]
 110 0062 A668     		ldr	r6, [r4, #8]
 111              	.LVL8:
 112 0064 206A     		ldr	r0, [r4, #32]
 113 0066 2946     		mov	r1, r5
 114 0068 0222     		movs	r2, #2
 115 006a 0023     		movs	r3, #0
 116              	.LVL9:
 117 006c B047     		blx	r6
 118              	.LVL10:
1101:/home/dino/paparazzi/var/include/messages.h **** 	  trans->put_named_byte(trans->impl, dev, DL_TYPE_UINT8, DL_FORMAT_SCALAR, DL_AIRSPEED, "AIRSPEED"
 119              		.loc 3 1101 0
 120 006e 3623     		movs	r3, #54
 121 0070 0093     		str	r3, [sp]
 122 0072 1D4B     		ldr	r3, .L7+4
 123 0074 0193     		str	r3, [sp, #4]
 124 0076 E668     		ldr	r6, [r4, #12]
 125 0078 206A     		ldr	r0, [r4, #32]
 126 007a 2946     		mov	r1, r5
 127 007c 0222     		movs	r2, #2
 128 007e 0023     		movs	r3, #0
 129 0080 B047     		blx	r6
 130              	.LVL11:
1102:/home/dino/paparazzi/var/include/messages.h **** 	  trans->put_bytes(trans->impl, dev, DL_TYPE_FLOAT, DL_FORMAT_SCALAR, 4, (void *) _airspeed);
 131              		.loc 3 1102 0
 132 0082 4FF00408 		mov	r8, #4
 133 0086 194B     		ldr	r3, .L7+8
 134              	.LVL12:
 135 0088 0193     		str	r3, [sp, #4]
 136 008a A768     		ldr	r7, [r4, #8]
 137 008c 206A     		ldr	r0, [r4, #32]
 138 008e CDF80080 		str	r8, [sp]
 139 0092 2946     		mov	r1, r5
 140 0094 0A22     		movs	r2, #10
 141 0096 0023     		movs	r3, #0
 142              	.LVL13:
 143 0098 B847     		blx	r7
 144              	.LVL14:
1103:/home/dino/paparazzi/var/include/messages.h **** 	  trans->put_bytes(trans->impl, dev, DL_TYPE_FLOAT, DL_FORMAT_SCALAR, 4, (void *) _airspeed_sp);
 145              		.loc 3 1103 0
 146 009a 03AF     		add	r7, sp, #12
 147              	.LVL15:
 148 009c 206A     		ldr	r0, [r4, #32]
 149 009e A668     		ldr	r6, [r4, #8]
 150 00a0 CDF80080 		str	r8, [sp]
 151 00a4 2946     		mov	r1, r5
 152 00a6 0A22     		movs	r2, #10
 153 00a8 0023     		movs	r3, #0
 154 00aa 0197     		str	r7, [sp, #4]
 155 00ac B047     		blx	r6
 156              	.LVL16:
1104:/home/dino/paparazzi/var/include/messages.h **** 	  trans->put_bytes(trans->impl, dev, DL_TYPE_FLOAT, DL_FORMAT_SCALAR, 4, (void *) _airspeed_cnt);
 157              		.loc 3 1104 0
 158 00ae 206A     		ldr	r0, [r4, #32]
 159 00b0 A668     		ldr	r6, [r4, #8]
 160 00b2 CDF80080 		str	r8, [sp]
 161 00b6 2946     		mov	r1, r5
 162 00b8 0A22     		movs	r2, #10
 163 00ba 0023     		movs	r3, #0
 164 00bc 0197     		str	r7, [sp, #4]
 165 00be B047     		blx	r6
 166              	.LVL17:
1105:/home/dino/paparazzi/var/include/messages.h **** 	  trans->put_bytes(trans->impl, dev, DL_TYPE_FLOAT, DL_FORMAT_SCALAR, 4, (void *) _groundspeed_sp)
 167              		.loc 3 1105 0
 168 00c0 0023     		movs	r3, #0
 169 00c2 CDF80080 		str	r8, [sp]
 170 00c6 0197     		str	r7, [sp, #4]
 171 00c8 A668     		ldr	r6, [r4, #8]
 172 00ca 206A     		ldr	r0, [r4, #32]
 173 00cc 2946     		mov	r1, r5
 174 00ce 0A22     		movs	r2, #10
 175 00d0 B047     		blx	r6
 176              	.LVL18:
1106:/home/dino/paparazzi/var/include/messages.h **** 	  trans->end_message(trans->impl, dev);
 177              		.loc 3 1106 0
 178 00d2 6369     		ldr	r3, [r4, #20]
 179 00d4 00E0     		b	.L5
 180              	.LVL19:
 181              	.L3:
1107:/home/dino/paparazzi/var/include/messages.h **** 	} else
1108:/home/dino/paparazzi/var/include/messages.h **** 	  trans->overrun(trans->impl, dev);
 182              		.loc 3 1108 0
 183 00d6 A369     		ldr	r3, [r4, #24]
 184              	.L5:
 185 00d8 206A     		ldr	r0, [r4, #32]
 186 00da 2946     		mov	r1, r5
 187 00dc 9847     		blx	r3
 188              	.LVL20:
 189              	.LBE11:
 190              	.LBE10:
 153:firmwares/fixedwing/autopilot.c ****   pprz_msg_send_AIRSPEED(trans, dev, AC_ID, stateGetAirspeed_f(), &zero, &zero, &zero);
 154:firmwares/fixedwing/autopilot.c **** #endif
 155:firmwares/fixedwing/autopilot.c **** }
 191              		.loc 1 155 0
 192 00de 04B0     		add	sp, sp, #16
 193              		.cfi_def_cfa_offset 24
 194              		@ sp needed
 195 00e0 BDE8F081 		pop	{r4, r5, r6, r7, r8, pc}
 196              	.LVL21:
 197              	.L8:
 198              		.align	2
 199              	.L7:
 200 00e4 00000000 		.word	state
 201 00e8 00000000 		.word	.LC0
 202 00ec 5C020000 		.word	state+604
 203              		.cfi_endproc
 204              	.LFE469:
 206              		.section	.text.send_estimator,"ax",%progbits
 207              		.align	1
 208              		.thumb
 209              		.thumb_func
 211              	send_estimator:
 212              	.LFB464:
 101:firmwares/fixedwing/autopilot.c ****   pprz_msg_send_ESTIMATOR(trans, dev, AC_ID,
 213              		.loc 1 101 0
 214              		.cfi_startproc
 215              		@ args = 0, pretend = 0, frame = 8
 216              		@ frame_needed = 0, uses_anonymous_args = 0
 217              	.LVL22:
 218 0000 2DE9FF41 		push	{r0, r1, r2, r3, r4, r5, r6, r7, r8, lr}
 219              		.cfi_def_cfa_offset 40
 220              		.cfi_offset 4, -24
 221              		.cfi_offset 5, -20
 222              		.cfi_offset 6, -16
 223              		.cfi_offset 7, -12
 224              		.cfi_offset 8, -8
 225              		.cfi_offset 14, -4
 226              	.LBB18:
 227              	.LBB19:
 677:./state.h     ****     stateCalcPositionUtm_f();
 228              		.loc 2 677 0
 229 0004 314B     		ldr	r3, .L15
 230 0006 1A88     		ldrh	r2, [r3]
 231 0008 12F4007F 		tst	r2, #512
 232              	.LBE19:
 233              	.LBE18:
 101:firmwares/fixedwing/autopilot.c ****   pprz_msg_send_ESTIMATOR(trans, dev, AC_ID,
 234              		.loc 1 101 0
 235 000c 0446     		mov	r4, r0
 236 000e 0D46     		mov	r5, r1
 237 0010 1E46     		mov	r6, r3
 238              	.LBB21:
 239              	.LBB20:
 677:./state.h     ****     stateCalcPositionUtm_f();
 240              		.loc 2 677 0
 241 0012 01D1     		bne	.L10
 678:./state.h     ****   }
 242              		.loc 2 678 0
 243 0014 FFF7FEFF 		bl	stateCalcPositionUtm_f
 244              	.LVL23:
 245              	.L10:
 246              	.LBE20:
 247              	.LBE21:
 248              	.LBB22:
 249              	.LBB23:
 896:./state.h     ****     stateCalcSpeedEnu_f();
 250              		.loc 2 896 0
 251 0018 B6F81431 		ldrh	r3, [r6, #276]
 252 001c 1B06     		lsls	r3, r3, #24
 253 001e 01D4     		bmi	.L11
 897:./state.h     ****   }
 254              		.loc 2 897 0
 255 0020 FFF7FEFF 		bl	stateCalcSpeedEnu_f
 256              	.LVL24:
 257              	.L11:
 258              	.LBE23:
 259              	.LBE22:
 260              	.LBB24:
 261              	.LBB25:
 915:/home/dino/paparazzi/var/include/messages.h **** 	  trans->count_bytes(trans->impl, dev, trans->size_of(trans->impl, 0+4+4 +2 /* msg header overhead
 262              		.loc 3 915 0
 263 0024 276A     		ldr	r7, [r4, #32]
 264 0026 2368     		ldr	r3, [r4]
 265 0028 D4F80480 		ldr	r8, [r4, #4]
 266 002c 0126     		movs	r6, #1
 267 002e 0A21     		movs	r1, #10
 268 0030 8DF80F60 		strb	r6, [sp, #15]
 269              	.LVL25:
 270 0034 3846     		mov	r0, r7
 271 0036 9847     		blx	r3
 272              	.LVL26:
 273 0038 2946     		mov	r1, r5
 274 003a 0246     		mov	r2, r0
 275 003c 3846     		mov	r0, r7
 276 003e C047     		blx	r8
 277              	.LVL27:
 278 0040 0028     		cmp	r0, #0
 279 0042 3BD0     		beq	.L12
 916:/home/dino/paparazzi/var/include/messages.h **** 	  trans->start_message(trans->impl, dev, 0+4+4 +2 /* msg header overhead */);
 280              		.loc 3 916 0
 281 0044 276A     		ldr	r7, [r4, #32]
 282 0046 2368     		ldr	r3, [r4]
 283 0048 D4F81C80 		ldr	r8, [r4, #28]
 284 004c 3846     		mov	r0, r7
 285 004e 0A21     		movs	r1, #10
 286 0050 9847     		blx	r3
 287              	.LVL28:
 288 0052 2946     		mov	r1, r5
 289 0054 0246     		mov	r2, r0
 290 0056 3846     		mov	r0, r7
 291 0058 C047     		blx	r8
 292              	.LVL29:
 917:/home/dino/paparazzi/var/include/messages.h **** 	  trans->put_bytes(trans->impl, dev, DL_TYPE_UINT8, DL_FORMAT_SCALAR, 1, &ac_id);
 293              		.loc 3 917 0
 294 005a 2369     		ldr	r3, [r4, #16]
 295 005c 206A     		ldr	r0, [r4, #32]
 920:/home/dino/paparazzi/var/include/messages.h **** 	  trans->put_bytes(trans->impl, dev, DL_TYPE_FLOAT, DL_FORMAT_SCALAR, 4, (void *) _z_dot);
 296              		.loc 3 920 0
 297 005e DFF87480 		ldr	r8, .L15+8
 298              	.LVL30:
 917:/home/dino/paparazzi/var/include/messages.h **** 	  trans->put_bytes(trans->impl, dev, DL_TYPE_UINT8, DL_FORMAT_SCALAR, 1, &ac_id);
 299              		.loc 3 917 0
 300 0062 2946     		mov	r1, r5
 301 0064 0A22     		movs	r2, #10
 302 0066 9847     		blx	r3
 303              	.LVL31:
 918:/home/dino/paparazzi/var/include/messages.h **** 	  trans->put_named_byte(trans->impl, dev, DL_TYPE_UINT8, DL_FORMAT_SCALAR, DL_ESTIMATOR, "ESTIMATO
 304              		.loc 3 918 0
 305 0068 0DF10F03 		add	r3, sp, #15
 306 006c 0096     		str	r6, [sp]
 307 006e 0193     		str	r3, [sp, #4]
 308 0070 A668     		ldr	r6, [r4, #8]
 309              	.LVL32:
 310 0072 206A     		ldr	r0, [r4, #32]
 311 0074 2946     		mov	r1, r5
 312 0076 0222     		movs	r2, #2
 313 0078 0023     		movs	r3, #0
 314              	.LVL33:
 315 007a B047     		blx	r6
 316              	.LVL34:
 919:/home/dino/paparazzi/var/include/messages.h **** 	  trans->put_bytes(trans->impl, dev, DL_TYPE_FLOAT, DL_FORMAT_SCALAR, 4, (void *) _z);
 317              		.loc 3 919 0
 318 007c 2A23     		movs	r3, #42
 319 007e 0093     		str	r3, [sp]
 320 0080 134B     		ldr	r3, .L15+4
 321 0082 0193     		str	r3, [sp, #4]
 322 0084 E668     		ldr	r6, [r4, #12]
 323 0086 206A     		ldr	r0, [r4, #32]
 324 0088 2946     		mov	r1, r5
 325 008a 0222     		movs	r2, #2
 326 008c 0023     		movs	r3, #0
 920:/home/dino/paparazzi/var/include/messages.h **** 	  trans->put_bytes(trans->impl, dev, DL_TYPE_FLOAT, DL_FORMAT_SCALAR, 4, (void *) _z_dot);
 327              		.loc 3 920 0
 328 008e 0427     		movs	r7, #4
 919:/home/dino/paparazzi/var/include/messages.h **** 	  trans->put_bytes(trans->impl, dev, DL_TYPE_FLOAT, DL_FORMAT_SCALAR, 4, (void *) _z);
 329              		.loc 3 919 0
 330 0090 B047     		blx	r6
 331              	.LVL35:
 920:/home/dino/paparazzi/var/include/messages.h **** 	  trans->put_bytes(trans->impl, dev, DL_TYPE_FLOAT, DL_FORMAT_SCALAR, 4, (void *) _z_dot);
 332              		.loc 3 920 0
 333 0092 206A     		ldr	r0, [r4, #32]
 334 0094 A668     		ldr	r6, [r4, #8]
 335 0096 0097     		str	r7, [sp]
 336 0098 2946     		mov	r1, r5
 337 009a 0A22     		movs	r2, #10
 338 009c 0023     		movs	r3, #0
 339 009e CDF80480 		str	r8, [sp, #4]
 340 00a2 B047     		blx	r6
 341              	.LVL36:
 921:/home/dino/paparazzi/var/include/messages.h **** 	  trans->end_message(trans->impl, dev);
 342              		.loc 3 921 0
 343 00a4 08F1E406 		add	r6, r8, #228
 344 00a8 0196     		str	r6, [sp, #4]
 345 00aa 0023     		movs	r3, #0
 346 00ac 0097     		str	r7, [sp]
 347 00ae A668     		ldr	r6, [r4, #8]
 348 00b0 206A     		ldr	r0, [r4, #32]
 349 00b2 2946     		mov	r1, r5
 350 00b4 0A22     		movs	r2, #10
 351 00b6 B047     		blx	r6
 352              	.LVL37:
 922:/home/dino/paparazzi/var/include/messages.h **** 	} else
 353              		.loc 3 922 0
 354 00b8 6369     		ldr	r3, [r4, #20]
 355 00ba 00E0     		b	.L14
 356              	.LVL38:
 357              	.L12:
 924:/home/dino/paparazzi/var/include/messages.h **** }
 358              		.loc 3 924 0
 359 00bc A369     		ldr	r3, [r4, #24]
 360              	.L14:
 361 00be 206A     		ldr	r0, [r4, #32]
 362 00c0 2946     		mov	r1, r5
 363 00c2 9847     		blx	r3
 364              	.LVL39:
 365              	.LBE25:
 366              	.LBE24:
 104:firmwares/fixedwing/autopilot.c **** 
 367              		.loc 1 104 0
 368 00c4 04B0     		add	sp, sp, #16
 369              		.cfi_def_cfa_offset 24
 370              		@ sp needed
 371 00c6 BDE8F081 		pop	{r4, r5, r6, r7, r8, pc}
 372              	.LVL40:
 373              	.L16:
 374 00ca 00BF     		.align	2
 375              	.L15:
 376 00cc 00000000 		.word	state
 377 00d0 09000000 		.word	.LC1
 378 00d4 80000000 		.word	state+128
 379              		.cfi_endproc
 380              	.LFE464:
 382              		.section	.text.send_energy,"ax",%progbits
 383              		.align	1
 384              		.thumb
 385              		.thumb_func
 387              	send_energy:
 388              	.LFB466:
 117:firmwares/fixedwing/autopilot.c ****   uint16_t e = energy;
 389              		.loc 1 117 0
 390              		.cfi_startproc
 391              		@ args = 0, pretend = 0, frame = 16
 392              		@ frame_needed = 0, uses_anonymous_args = 0
 393              	.LVL41:
 118:firmwares/fixedwing/autopilot.c ****   float vsup = ((float)vsupply) / 10.0f;
 394              		.loc 1 118 0
 395 0000 464B     		ldr	r3, .L21
 120:firmwares/fixedwing/autopilot.c ****   float power = vsup * curs;
 396              		.loc 1 120 0
 397 0002 DFED476A 		flds	s13, .L21+4
 118:firmwares/fixedwing/autopilot.c ****   float vsup = ((float)vsupply) / 10.0f;
 398              		.loc 1 118 0
 399 0006 D3ED007A 		flds	s15, [r3]
 117:firmwares/fixedwing/autopilot.c ****   uint16_t e = energy;
 400              		.loc 1 117 0
 401 000a 2DE9F041 		push	{r4, r5, r6, r7, r8, lr}
 402              		.cfi_def_cfa_offset 24
 403              		.cfi_offset 4, -24
 404              		.cfi_offset 5, -20
 405              		.cfi_offset 6, -16
 406              		.cfi_offset 7, -12
 407              		.cfi_offset 8, -8
 408              		.cfi_offset 14, -4
 118:firmwares/fixedwing/autopilot.c ****   float vsup = ((float)vsupply) / 10.0f;
 409              		.loc 1 118 0
 410 000e FCEEE77A 		ftouizs	s15, s15
 117:firmwares/fixedwing/autopilot.c ****   uint16_t e = energy;
 411              		.loc 1 117 0
 412 0012 86B0     		sub	sp, sp, #24
 413              		.cfi_def_cfa_offset 48
 118:firmwares/fixedwing/autopilot.c ****   float vsup = ((float)vsupply) / 10.0f;
 414              		.loc 1 118 0
 415 0014 17EE903A 		fmrs	r3, s15	@ int
 416 0018 ADF80A30 		strh	r3, [sp, #10]	@ movhi
 119:firmwares/fixedwing/autopilot.c ****   float curs = ((float)current) / 1000.0f;
 417              		.loc 1 119 0
 418 001c 414B     		ldr	r3, .L21+8
 419              	.LBB28:
 420              	.LBB29:
 825:/home/dino/paparazzi/var/include/messages.h **** 	  trans->count_bytes(trans->impl, dev, trans->size_of(trans->impl, 0+4+4+2+4 +2 /* msg header over
 421              		.loc 3 825 0
 422 001e 076A     		ldr	r7, [r0, #32]
 423              	.LBE29:
 424              	.LBE28:
 119:firmwares/fixedwing/autopilot.c ****   float curs = ((float)current) / 1000.0f;
 425              		.loc 1 119 0
 426 0020 1B88     		ldrh	r3, [r3]
 427              	.LBB35:
 428              	.LBB30:
 825:/home/dino/paparazzi/var/include/messages.h **** 	  trans->count_bytes(trans->impl, dev, trans->size_of(trans->impl, 0+4+4+2+4 +2 /* msg header over
 429              		.loc 3 825 0
 430 0022 D0F80480 		ldr	r8, [r0, #4]
 431              	.LBE30:
 432              	.LBE35:
 119:firmwares/fixedwing/autopilot.c ****   float curs = ((float)current) / 1000.0f;
 433              		.loc 1 119 0
 434 0026 07EE903A 		fmsr	s15, r3	@ int
 120:firmwares/fixedwing/autopilot.c ****   float power = vsup * curs;
 435              		.loc 1 120 0
 436 002a 3F4B     		ldr	r3, .L21+12
 119:firmwares/fixedwing/autopilot.c ****   float curs = ((float)current) / 1000.0f;
 437              		.loc 1 119 0
 438 002c F8EE677A 		fuitos	s15, s15
 439 0030 B2EE047A 		fconsts	s14, #36
 440 0034 C7EE877A 		fdivs	s15, s15, s14
 441 0038 0126     		movs	r6, #1
 117:firmwares/fixedwing/autopilot.c ****   uint16_t e = energy;
 442              		.loc 1 117 0
 443 003a 0D46     		mov	r5, r1
 444 003c 0446     		mov	r4, r0
 445              	.LBB36:
 446              	.LBB31:
 825:/home/dino/paparazzi/var/include/messages.h **** 	  trans->count_bytes(trans->impl, dev, trans->size_of(trans->impl, 0+4+4+2+4 +2 /* msg header over
 447              		.loc 3 825 0
 448 003e 1021     		movs	r1, #16
 449              	.LVL42:
 450 0040 8DF80960 		strb	r6, [sp, #9]
 451              	.LBE31:
 452              	.LBE36:
 120:firmwares/fixedwing/autopilot.c ****   float power = vsup * curs;
 453              		.loc 1 120 0
 454 0044 93ED007A 		flds	s14, [r3]	@ int
 119:firmwares/fixedwing/autopilot.c ****   float curs = ((float)current) / 1000.0f;
 455              		.loc 1 119 0
 456 0048 CDED037A 		fsts	s15, [sp, #12]
 120:firmwares/fixedwing/autopilot.c ****   float power = vsup * curs;
 457              		.loc 1 120 0
 458 004c B8EEC77A 		fsitos	s14, s14
 459              	.LBB37:
 460              	.LBB32:
 825:/home/dino/paparazzi/var/include/messages.h **** 	  trans->count_bytes(trans->impl, dev, trans->size_of(trans->impl, 0+4+4+2+4 +2 /* msg header over
 461              		.loc 3 825 0
 462 0050 0368     		ldr	r3, [r0]
 463              	.LBE32:
 464              	.LBE37:
 120:firmwares/fixedwing/autopilot.c ****   float power = vsup * curs;
 465              		.loc 1 120 0
 466 0052 87EE267A 		fdivs	s14, s14, s13
 467              	.LBB38:
 468              	.LBB33:
 825:/home/dino/paparazzi/var/include/messages.h **** 	  trans->count_bytes(trans->impl, dev, trans->size_of(trans->impl, 0+4+4+2+4 +2 /* msg header over
 469              		.loc 3 825 0
 470 0056 3846     		mov	r0, r7
 471              	.LVL43:
 472              	.LBE33:
 473              	.LBE38:
 121:firmwares/fixedwing/autopilot.c ****   pprz_msg_send_ENERGY(trans, dev, AC_ID, &vsup, &curs, &e, &power);
 474              		.loc 1 121 0
 475 0058 67EE877A 		fmuls	s15, s15, s14
 120:firmwares/fixedwing/autopilot.c ****   float power = vsup * curs;
 476              		.loc 1 120 0
 477 005c 8DED047A 		fsts	s14, [sp, #16]
 121:firmwares/fixedwing/autopilot.c ****   pprz_msg_send_ENERGY(trans, dev, AC_ID, &vsup, &curs, &e, &power);
 478              		.loc 1 121 0
 479 0060 CDED057A 		fsts	s15, [sp, #20]
 480              	.LVL44:
 481              	.LBB39:
 482              	.LBB34:
 825:/home/dino/paparazzi/var/include/messages.h **** 	  trans->count_bytes(trans->impl, dev, trans->size_of(trans->impl, 0+4+4+2+4 +2 /* msg header over
 483              		.loc 3 825 0
 484 0064 9847     		blx	r3
 485              	.LVL45:
 486 0066 2946     		mov	r1, r5
 487 0068 0246     		mov	r2, r0
 488 006a 3846     		mov	r0, r7
 489 006c C047     		blx	r8
 490              	.LVL46:
 491 006e 0028     		cmp	r0, #0
 492 0070 4CD0     		beq	.L18
 826:/home/dino/paparazzi/var/include/messages.h **** 	  trans->start_message(trans->impl, dev, 0+4+4+2+4 +2 /* msg header overhead */);
 493              		.loc 3 826 0
 494 0072 276A     		ldr	r7, [r4, #32]
 495 0074 2368     		ldr	r3, [r4]
 496 0076 D4F81C80 		ldr	r8, [r4, #28]
 497 007a 3846     		mov	r0, r7
 498 007c 1021     		movs	r1, #16
 499 007e 9847     		blx	r3
 500              	.LVL47:
 501 0080 2946     		mov	r1, r5
 502 0082 0246     		mov	r2, r0
 503 0084 3846     		mov	r0, r7
 504 0086 C047     		blx	r8
 505              	.LVL48:
 827:/home/dino/paparazzi/var/include/messages.h **** 	  trans->put_bytes(trans->impl, dev, DL_TYPE_UINT8, DL_FORMAT_SCALAR, 1, &ac_id);
 506              		.loc 3 827 0
 507 0088 2369     		ldr	r3, [r4, #16]
 508 008a 206A     		ldr	r0, [r4, #32]
 509 008c 2946     		mov	r1, r5
 510 008e 1022     		movs	r2, #16
 511 0090 9847     		blx	r3
 512              	.LVL49:
 828:/home/dino/paparazzi/var/include/messages.h **** 	  trans->put_named_byte(trans->impl, dev, DL_TYPE_UINT8, DL_FORMAT_SCALAR, DL_ENERGY, "ENERGY");
 513              		.loc 3 828 0
 514 0092 0DF10903 		add	r3, sp, #9
 515 0096 0096     		str	r6, [sp]
 516 0098 0193     		str	r3, [sp, #4]
 517 009a A668     		ldr	r6, [r4, #8]
 518              	.LVL50:
 519 009c 206A     		ldr	r0, [r4, #32]
 520 009e 2946     		mov	r1, r5
 521 00a0 0222     		movs	r2, #2
 522 00a2 0023     		movs	r3, #0
 523              	.LVL51:
 524 00a4 B047     		blx	r6
 525              	.LVL52:
 829:/home/dino/paparazzi/var/include/messages.h **** 	  trans->put_bytes(trans->impl, dev, DL_TYPE_FLOAT, DL_FORMAT_SCALAR, 4, (void *) _bat);
 526              		.loc 3 829 0
 527 00a6 2523     		movs	r3, #37
 528 00a8 0093     		str	r3, [sp]
 529 00aa 204B     		ldr	r3, .L21+16
 530 00ac 0193     		str	r3, [sp, #4]
 531 00ae E668     		ldr	r6, [r4, #12]
 532 00b0 206A     		ldr	r0, [r4, #32]
 533 00b2 2946     		mov	r1, r5
 534 00b4 0222     		movs	r2, #2
 535 00b6 0023     		movs	r3, #0
 536 00b8 B047     		blx	r6
 537              	.LVL53:
 830:/home/dino/paparazzi/var/include/messages.h **** 	  trans->put_bytes(trans->impl, dev, DL_TYPE_FLOAT, DL_FORMAT_SCALAR, 4, (void *) _amp);
 538              		.loc 3 830 0
 539 00ba 0426     		movs	r6, #4
 540 00bc 03AB     		add	r3, sp, #12
 541              	.LVL54:
 542 00be 0096     		str	r6, [sp]
 543 00c0 0193     		str	r3, [sp, #4]
 544 00c2 A768     		ldr	r7, [r4, #8]
 545 00c4 206A     		ldr	r0, [r4, #32]
 546 00c6 2946     		mov	r1, r5
 547 00c8 0A22     		movs	r2, #10
 548 00ca 0023     		movs	r3, #0
 549              	.LVL55:
 550 00cc B847     		blx	r7
 551              	.LVL56:
 831:/home/dino/paparazzi/var/include/messages.h **** 	  trans->put_bytes(trans->impl, dev, DL_TYPE_UINT16, DL_FORMAT_SCALAR, 2, (void *) _energy);
 552              		.loc 3 831 0
 553 00ce 04AB     		add	r3, sp, #16
 554              	.LVL57:
 555 00d0 0096     		str	r6, [sp]
 556 00d2 0193     		str	r3, [sp, #4]
 557 00d4 A768     		ldr	r7, [r4, #8]
 558 00d6 206A     		ldr	r0, [r4, #32]
 559 00d8 2946     		mov	r1, r5
 560 00da 0A22     		movs	r2, #10
 561 00dc 0023     		movs	r3, #0
 562              	.LVL58:
 563 00de B847     		blx	r7
 564              	.LVL59:
 832:/home/dino/paparazzi/var/include/messages.h **** 	  trans->put_bytes(trans->impl, dev, DL_TYPE_FLOAT, DL_FORMAT_SCALAR, 4, (void *) _power);
 565              		.loc 3 832 0
 566 00e0 0223     		movs	r3, #2
 567 00e2 0093     		str	r3, [sp]
 568 00e4 0DF10A03 		add	r3, sp, #10
 569              	.LVL60:
 570 00e8 3246     		mov	r2, r6
 571 00ea 0193     		str	r3, [sp, #4]
 572 00ec 206A     		ldr	r0, [r4, #32]
 573 00ee A768     		ldr	r7, [r4, #8]
 574 00f0 2946     		mov	r1, r5
 575 00f2 0023     		movs	r3, #0
 576              	.LVL61:
 577 00f4 B847     		blx	r7
 578              	.LVL62:
 833:/home/dino/paparazzi/var/include/messages.h **** 	  trans->end_message(trans->impl, dev);
 579              		.loc 3 833 0
 580 00f6 05AB     		add	r3, sp, #20
 581              	.LVL63:
 582 00f8 0096     		str	r6, [sp]
 583 00fa 0193     		str	r3, [sp, #4]
 584 00fc A668     		ldr	r6, [r4, #8]
 585 00fe 206A     		ldr	r0, [r4, #32]
 586 0100 0023     		movs	r3, #0
 587              	.LVL64:
 588 0102 2946     		mov	r1, r5
 589 0104 0A22     		movs	r2, #10
 590 0106 B047     		blx	r6
 591              	.LVL65:
 834:/home/dino/paparazzi/var/include/messages.h **** 	} else
 592              		.loc 3 834 0
 593 0108 6369     		ldr	r3, [r4, #20]
 594 010a 00E0     		b	.L20
 595              	.L18:
 836:/home/dino/paparazzi/var/include/messages.h **** }
 596              		.loc 3 836 0
 597 010c A369     		ldr	r3, [r4, #24]
 598              	.L20:
 599 010e 206A     		ldr	r0, [r4, #32]
 600 0110 2946     		mov	r1, r5
 601 0112 9847     		blx	r3
 602              	.LVL66:
 603              	.LBE34:
 604              	.LBE39:
 123:firmwares/fixedwing/autopilot.c **** 
 605              		.loc 1 123 0
 606 0114 06B0     		add	sp, sp, #24
 607              		.cfi_def_cfa_offset 24
 608              		@ sp needed
 609 0116 BDE8F081 		pop	{r4, r5, r6, r7, r8, pc}
 610              	.LVL67:
 611              	.L22:
 612 011a 00BF     		.align	2
 613              	.L21:
 614 011c 00000000 		.word	.LANCHOR0
 615 0120 00007A44 		.word	1148846080
 616 0124 00000000 		.word	.LANCHOR1
 617 0128 00000000 		.word	.LANCHOR2
 618 012c 13000000 		.word	.LC2
 619              		.cfi_endproc
 620              	.LFE466:
 622              		.section	.text.send_dl_value,"ax",%progbits
 623              		.align	1
 624              		.thumb
 625              		.thumb_func
 627              	send_dl_value:
 628              	.LFB467:
 126:firmwares/fixedwing/autopilot.c ****   PeriodicSendDlValue(trans, dev);
 629              		.loc 1 126 0
 630              		.cfi_startproc
 631              		@ args = 0, pretend = 0, frame = 8
 632              		@ frame_needed = 0, uses_anonymous_args = 0
 633              	.LVL68:
 634 0000 2DE9F043 		push	{r4, r5, r6, r7, r8, r9, lr}
 635              		.cfi_def_cfa_offset 28
 636              		.cfi_offset 4, -28
 637              		.cfi_offset 5, -24
 638              		.cfi_offset 6, -20
 639              		.cfi_offset 7, -16
 640              		.cfi_offset 8, -12
 641              		.cfi_offset 9, -8
 642              		.cfi_offset 14, -4
 643              	.LBB43:
 127:firmwares/fixedwing/autopilot.c **** }
 644              		.loc 1 127 0
 645 0004 464E     		ldr	r6, .L47
 646 0006 3378     		ldrb	r3, [r6]	@ zero_extendqisi2
 647 0008 0B2B     		cmp	r3, #11
 648 000a 84BF     		itt	hi
 649 000c 0023     		movhi	r3, #0
 650 000e 3370     		strbhi	r3, [r6]
 651 0010 3378     		ldrb	r3, [r6]	@ zero_extendqisi2
 652              	.LBE43:
 126:firmwares/fixedwing/autopilot.c ****   PeriodicSendDlValue(trans, dev);
 653              		.loc 1 126 0
 654 0012 85B0     		sub	sp, sp, #20
 655              		.cfi_def_cfa_offset 48
 126:firmwares/fixedwing/autopilot.c ****   PeriodicSendDlValue(trans, dev);
 656              		.loc 1 126 0
 657 0014 0446     		mov	r4, r0
 658 0016 0D46     		mov	r5, r1
 659              	.LBB46:
 127:firmwares/fixedwing/autopilot.c **** }
 660              		.loc 1 127 0
 661 0018 0B2B     		cmp	r3, #11
 662 001a 2AD8     		bhi	.L25
 663 001c DFE803F0 		tbb	[pc, r3]
 664              	.L27:
 665 0020 06       		.byte	(.L26-.L27)/2
 666 0021 08       		.byte	(.L28-.L27)/2
 667 0022 11       		.byte	(.L29-.L27)/2
 668 0023 13       		.byte	(.L30-.L27)/2
 669 0024 15       		.byte	(.L31-.L27)/2
 670 0025 17       		.byte	(.L32-.L27)/2
 671 0026 1A       		.byte	(.L33-.L27)/2
 672 0027 1D       		.byte	(.L34-.L27)/2
 673 0028 1F       		.byte	(.L35-.L27)/2
 674 0029 21       		.byte	(.L36-.L27)/2
 675 002a 23       		.byte	(.L37-.L27)/2
 676 002b 27       		.byte	(.L38-.L27)/2
 677              		.p2align 1
 678              	.L26:
 127:firmwares/fixedwing/autopilot.c **** }
 679              		.loc 1 127 0 is_stmt 0 discriminator 5
 680 002c 3D4B     		ldr	r3, .L47+4
 681 002e 00E0     		b	.L42
 682              	.L28:
 127:firmwares/fixedwing/autopilot.c **** }
 683              		.loc 1 127 0 discriminator 6
 684 0030 3D4B     		ldr	r3, .L47+8
 685              	.L42:
 686 0032 1B78     		ldrb	r3, [r3]	@ zero_extendqisi2
 687              	.L43:
 688 0034 07EE903A 		fmsr	s15, r3	@ int
 689 0038 F8EE677A 		fuitos	s15, s15
 690 003c CDED037A 		fsts	s15, [sp, #12]
 691 0040 19E0     		b	.L39
 692              	.L29:
 127:firmwares/fixedwing/autopilot.c **** }
 693              		.loc 1 127 0 discriminator 7
 694 0042 3A4B     		ldr	r3, .L47+12
 695 0044 07E0     		b	.L46
 696              	.L30:
 127:firmwares/fixedwing/autopilot.c **** }
 697              		.loc 1 127 0 discriminator 8
 698 0046 3A4B     		ldr	r3, .L47+16
 699 0048 05E0     		b	.L46
 700              	.L31:
 127:firmwares/fixedwing/autopilot.c **** }
 701              		.loc 1 127 0 discriminator 9
 702 004a 3A4B     		ldr	r3, .L47+20
 703 004c 03E0     		b	.L46
 704              	.L32:
 127:firmwares/fixedwing/autopilot.c **** }
 705              		.loc 1 127 0 discriminator 10
 706 004e 3A4B     		ldr	r3, .L47+24
 707 0050 1B88     		ldrh	r3, [r3]
 708 0052 EFE7     		b	.L43
 709              	.L33:
 127:firmwares/fixedwing/autopilot.c **** }
 710              		.loc 1 127 0 discriminator 11
 711 0054 394B     		ldr	r3, .L47+28
 712              	.L46:
 713 0056 1B68     		ldr	r3, [r3]	@ float
 714 0058 0CE0     		b	.L44
 715              	.L34:
 127:firmwares/fixedwing/autopilot.c **** }
 716              		.loc 1 127 0 discriminator 12
 717 005a 394B     		ldr	r3, .L47+32
 718 005c E9E7     		b	.L42
 719              	.L35:
 127:firmwares/fixedwing/autopilot.c **** }
 720              		.loc 1 127 0 discriminator 13
 721 005e 394B     		ldr	r3, .L47+36
 722 0060 E7E7     		b	.L42
 723              	.L36:
 127:firmwares/fixedwing/autopilot.c **** }
 724              		.loc 1 127 0 discriminator 14
 725 0062 394B     		ldr	r3, .L47+40
 726 0064 E5E7     		b	.L42
 727              	.L37:
 127:firmwares/fixedwing/autopilot.c **** }
 728              		.loc 1 127 0 discriminator 15
 729 0066 394B     		ldr	r3, .L47+44
 730 0068 B3F8F830 		ldrh	r3, [r3, #248]
 731 006c E2E7     		b	.L43
 732              	.L38:
 127:firmwares/fixedwing/autopilot.c **** }
 733              		.loc 1 127 0 discriminator 16
 734 006e 384B     		ldr	r3, .L47+48
 735 0070 DFE7     		b	.L42
 736              	.L25:
 127:firmwares/fixedwing/autopilot.c **** }
 737              		.loc 1 127 0 discriminator 4
 738 0072 0023     		movs	r3, #0
 739              	.L44:
 740 0074 0393     		str	r3, [sp, #12]	@ float
 741              	.L39:
 742              	.LVL69:
 743              	.LBB44:
 744              	.LBB45:
 729:/home/dino/paparazzi/var/include/messages.h **** 	  trans->count_bytes(trans->impl, dev, trans->size_of(trans->impl, 0+1+4 +2 /* msg header overhead
 745              		.loc 3 729 0 is_stmt 1 discriminator 29
 746 0076 276A     		ldr	r7, [r4, #32]
 747 0078 2368     		ldr	r3, [r4]
 748 007a D4F80490 		ldr	r9, [r4, #4]
 749 007e 4FF00108 		mov	r8, #1
 750 0082 0721     		movs	r1, #7
 751              	.LVL70:
 752 0084 8DF80B80 		strb	r8, [sp, #11]
 753              	.LVL71:
 754 0088 3846     		mov	r0, r7
 755              	.LVL72:
 756 008a 9847     		blx	r3
 757              	.LVL73:
 758 008c 2946     		mov	r1, r5
 759 008e 0246     		mov	r2, r0
 760 0090 3846     		mov	r0, r7
 761 0092 C847     		blx	r9
 762              	.LVL74:
 763 0094 0028     		cmp	r0, #0
 764 0096 39D0     		beq	.L40
 730:/home/dino/paparazzi/var/include/messages.h **** 	  trans->start_message(trans->impl, dev, 0+1+4 +2 /* msg header overhead */);
 765              		.loc 3 730 0
 766 0098 276A     		ldr	r7, [r4, #32]
 767 009a 2368     		ldr	r3, [r4]
 768 009c D4F81C90 		ldr	r9, [r4, #28]
 769 00a0 3846     		mov	r0, r7
 770 00a2 0721     		movs	r1, #7
 771 00a4 9847     		blx	r3
 772              	.LVL75:
 773 00a6 2946     		mov	r1, r5
 774 00a8 0246     		mov	r2, r0
 775 00aa 3846     		mov	r0, r7
 776 00ac C847     		blx	r9
 777              	.LVL76:
 731:/home/dino/paparazzi/var/include/messages.h **** 	  trans->put_bytes(trans->impl, dev, DL_TYPE_UINT8, DL_FORMAT_SCALAR, 1, &ac_id);
 778              		.loc 3 731 0
 779 00ae 2369     		ldr	r3, [r4, #16]
 780 00b0 206A     		ldr	r0, [r4, #32]
 781 00b2 2946     		mov	r1, r5
 782 00b4 0722     		movs	r2, #7
 783 00b6 9847     		blx	r3
 784              	.LVL77:
 732:/home/dino/paparazzi/var/include/messages.h **** 	  trans->put_named_byte(trans->impl, dev, DL_TYPE_UINT8, DL_FORMAT_SCALAR, DL_DL_VALUE, "DL_VALUE"
 785              		.loc 3 732 0
 786 00b8 0DF10B03 		add	r3, sp, #11
 787 00bc 0193     		str	r3, [sp, #4]
 788 00be A768     		ldr	r7, [r4, #8]
 789 00c0 206A     		ldr	r0, [r4, #32]
 790 00c2 CDF80080 		str	r8, [sp]
 791 00c6 2946     		mov	r1, r5
 792 00c8 0222     		movs	r2, #2
 793 00ca 0023     		movs	r3, #0
 794 00cc B847     		blx	r7
 795              	.LVL78:
 733:/home/dino/paparazzi/var/include/messages.h **** 	  trans->put_bytes(trans->impl, dev, DL_TYPE_UINT8, DL_FORMAT_SCALAR, 1, (void *) _index);
 796              		.loc 3 733 0
 797 00ce 1F23     		movs	r3, #31
 798 00d0 0093     		str	r3, [sp]
 799 00d2 204B     		ldr	r3, .L47+52
 800 00d4 0193     		str	r3, [sp, #4]
 801 00d6 E768     		ldr	r7, [r4, #12]
 802 00d8 206A     		ldr	r0, [r4, #32]
 803 00da 2946     		mov	r1, r5
 804 00dc 0222     		movs	r2, #2
 805 00de 0023     		movs	r3, #0
 806 00e0 B847     		blx	r7
 807              	.LVL79:
 734:/home/dino/paparazzi/var/include/messages.h **** 	  trans->put_bytes(trans->impl, dev, DL_TYPE_FLOAT, DL_FORMAT_SCALAR, 4, (void *) _value);
 808              		.loc 3 734 0
 809 00e2 A768     		ldr	r7, [r4, #8]
 810 00e4 206A     		ldr	r0, [r4, #32]
 811 00e6 CDF80080 		str	r8, [sp]
 812 00ea 2946     		mov	r1, r5
 813 00ec 0222     		movs	r2, #2
 814 00ee 0023     		movs	r3, #0
 815 00f0 0196     		str	r6, [sp, #4]
 816 00f2 B847     		blx	r7
 817              	.LVL80:
 735:/home/dino/paparazzi/var/include/messages.h **** 	  trans->end_message(trans->impl, dev);
 818              		.loc 3 735 0
 819 00f4 0423     		movs	r3, #4
 820 00f6 0093     		str	r3, [sp]
 821 00f8 03AB     		add	r3, sp, #12
 822              	.LVL81:
 823 00fa 0193     		str	r3, [sp, #4]
 824 00fc A768     		ldr	r7, [r4, #8]
 825 00fe 206A     		ldr	r0, [r4, #32]
 826 0100 0023     		movs	r3, #0
 827              	.LVL82:
 828 0102 2946     		mov	r1, r5
 829 0104 0A22     		movs	r2, #10
 830 0106 B847     		blx	r7
 831              	.LVL83:
 736:/home/dino/paparazzi/var/include/messages.h **** 	} else
 832              		.loc 3 736 0
 833 0108 6369     		ldr	r3, [r4, #20]
 834 010a 00E0     		b	.L45
 835              	.L40:
 738:/home/dino/paparazzi/var/include/messages.h **** }
 836              		.loc 3 738 0
 837 010c A369     		ldr	r3, [r4, #24]
 838              	.L45:
 839 010e 206A     		ldr	r0, [r4, #32]
 840 0110 2946     		mov	r1, r5
 841 0112 9847     		blx	r3
 842              	.LVL84:
 843              	.LBE45:
 844              	.LBE44:
 127:firmwares/fixedwing/autopilot.c **** }
 845              		.loc 1 127 0
 846 0114 3378     		ldrb	r3, [r6]	@ zero_extendqisi2
 847 0116 0133     		adds	r3, r3, #1
 848 0118 3370     		strb	r3, [r6]
 849              	.LBE46:
 128:firmwares/fixedwing/autopilot.c **** 
 850              		.loc 1 128 0
 851 011a 05B0     		add	sp, sp, #20
 852              		.cfi_def_cfa_offset 28
 853              		@ sp needed
 854 011c BDE8F083 		pop	{r4, r5, r6, r7, r8, r9, pc}
 855              	.LVL85:
 856              	.L48:
 857              		.align	2
 858              	.L47:
 859 0120 00000000 		.word	.LANCHOR3
 860 0124 00000000 		.word	telemetry_mode_Ap
 861 0128 00000000 		.word	telemetry_mode_Fbw
 862 012c 00000000 		.word	flight_altitude
 863 0130 00000000 		.word	nav_course
 864 0134 00000000 		.word	nav_shift
 865 0138 00000000 		.word	.LANCHOR4
 866 013c 00000000 		.word	nav_radius
 867 0140 00000000 		.word	.LANCHOR5
 868 0144 00000000 		.word	.LANCHOR6
 869 0148 00000000 		.word	.LANCHOR7
 870 014c 00000000 		.word	gps
 871 0150 00000000 		.word	gps_ubx_gps_ubx_ucenter_periodic_status
 872 0154 1A000000 		.word	.LC3
 873              		.cfi_endproc
 874              	.LFE467:
 876              		.section	.text.send_desired,"ax",%progbits
 877              		.align	1
 878              		.thumb
 879              		.thumb_func
 881              	send_desired:
 882              	.LFB468:
 134:firmwares/fixedwing/autopilot.c **** #ifndef USE_AIRSPEED
 883              		.loc 1 134 0
 884              		.cfi_startproc
 885              		@ args = 0, pretend = 0, frame = 8
 886              		@ frame_needed = 0, uses_anonymous_args = 0
 887              	.LVL86:
 888 0000 2DE9FF41 		push	{r0, r1, r2, r3, r4, r5, r6, r7, r8, lr}
 889              		.cfi_def_cfa_offset 40
 890              		.cfi_offset 4, -24
 891              		.cfi_offset 5, -20
 892              		.cfi_offset 6, -16
 893              		.cfi_offset 7, -12
 894              		.cfi_offset 8, -8
 895              		.cfi_offset 14, -4
 896              	.LBB49:
 897              	.LBB50:
 520:/home/dino/paparazzi/var/include/messages.h **** 	  trans->count_bytes(trans->impl, dev, trans->size_of(trans->impl, 0+4+4+4+4+4+4+4+4 +2 /* msg hea
 898              		.loc 3 520 0
 899 0004 076A     		ldr	r7, [r0, #32]
 900              	.LBE50:
 901              	.LBE49:
 136:firmwares/fixedwing/autopilot.c **** #endif
 902              		.loc 1 136 0
 903 0006 444B     		ldr	r3, .L53
 904 0008 0393     		str	r3, [sp, #12]	@ float
 905              	.LVL87:
 906 000a 0126     		movs	r6, #1
 134:firmwares/fixedwing/autopilot.c **** #ifndef USE_AIRSPEED
 907              		.loc 1 134 0
 908 000c 0D46     		mov	r5, r1
 909              	.LVL88:
 910              	.LBB53:
 911              	.LBB51:
 520:/home/dino/paparazzi/var/include/messages.h **** 	  trans->count_bytes(trans->impl, dev, trans->size_of(trans->impl, 0+4+4+4+4+4+4+4+4 +2 /* msg hea
 912              		.loc 3 520 0
 913 000e D0F80480 		ldr	r8, [r0, #4]
 914 0012 0368     		ldr	r3, [r0]
 915 0014 8DF80B60 		strb	r6, [sp, #11]
 916              	.LVL89:
 917 0018 2221     		movs	r1, #34
 918              	.LVL90:
 919              	.LBE51:
 920              	.LBE53:
 134:firmwares/fixedwing/autopilot.c **** #ifndef USE_AIRSPEED
 921              		.loc 1 134 0
 922 001a 0446     		mov	r4, r0
 923              	.LBB54:
 924              	.LBB52:
 520:/home/dino/paparazzi/var/include/messages.h **** 	  trans->count_bytes(trans->impl, dev, trans->size_of(trans->impl, 0+4+4+4+4+4+4+4+4 +2 /* msg hea
 925              		.loc 3 520 0
 926 001c 3846     		mov	r0, r7
 927              	.LVL91:
 928 001e 9847     		blx	r3
 929              	.LVL92:
 930 0020 2946     		mov	r1, r5
 931 0022 0246     		mov	r2, r0
 932 0024 3846     		mov	r0, r7
 933 0026 C047     		blx	r8
 934              	.LVL93:
 935 0028 0028     		cmp	r0, #0
 936 002a 6ED0     		beq	.L50
 521:/home/dino/paparazzi/var/include/messages.h **** 	  trans->start_message(trans->impl, dev, 0+4+4+4+4+4+4+4+4 +2 /* msg header overhead */);
 937              		.loc 3 521 0
 938 002c 276A     		ldr	r7, [r4, #32]
 939 002e 2368     		ldr	r3, [r4]
 940 0030 D4F81C80 		ldr	r8, [r4, #28]
 941 0034 3846     		mov	r0, r7
 942 0036 2221     		movs	r1, #34
 943 0038 9847     		blx	r3
 944              	.LVL94:
 945 003a 2946     		mov	r1, r5
 946 003c 0246     		mov	r2, r0
 947 003e 3846     		mov	r0, r7
 948 0040 C047     		blx	r8
 949              	.LVL95:
 522:/home/dino/paparazzi/var/include/messages.h **** 	  trans->put_bytes(trans->impl, dev, DL_TYPE_UINT8, DL_FORMAT_SCALAR, 1, &ac_id);
 950              		.loc 3 522 0
 951 0042 2369     		ldr	r3, [r4, #16]
 952 0044 206A     		ldr	r0, [r4, #32]
 953 0046 2946     		mov	r1, r5
 954 0048 2222     		movs	r2, #34
 955 004a 9847     		blx	r3
 956              	.LVL96:
