   1              		.syntax unified
   2              		.cpu cortex-m4
   3              		.eabi_attribute 27, 1
   4              		.fpu fpv4-sp-d16
   5              		.eabi_attribute 20, 1
   6              		.eabi_attribute 21, 1
   7              		.eabi_attribute 23, 3
   8              		.eabi_attribute 24, 1
   9              		.eabi_attribute 25, 1
  10              		.eabi_attribute 26, 1
  11              		.eabi_attribute 30, 4
  12              		.eabi_attribute 34, 1
  13              		.eabi_attribute 18, 4
  14              		.thumb
  15              		.file	"gps.c"
  16              		.text
  17              	.Ltext0:
  18              		.cfi_sections	.debug_frame
  19              		.global	__aeabi_i2d
  20              		.global	__aeabi_dmul
  21              		.global	__aeabi_ddiv
  22              		.global	__aeabi_d2iz
  23              		.section	.text.send_gps_lla,"ax",%progbits
  24              		.align	1
  25              		.thumb
  26              		.thumb_func
  28              	send_gps_lla:
  29              	.LFB330:
  30              		.file 1 "subsystems/gps.c"
   1:subsystems/gps.c **** /*
   2:subsystems/gps.c ****  * Copyright (C) 2008-2011 The Paparazzi Team
   3:subsystems/gps.c ****  *
   4:subsystems/gps.c ****  * This file is part of paparazzi.
   5:subsystems/gps.c ****  *
   6:subsystems/gps.c ****  * paparazzi is free software; you can redistribute it and/or modify
   7:subsystems/gps.c ****  * it under the terms of the GNU General Public License as published by
   8:subsystems/gps.c ****  * the Free Software Foundation; either version 2, or (at your option)
   9:subsystems/gps.c ****  * any later version.
  10:subsystems/gps.c ****  *
  11:subsystems/gps.c ****  * paparazzi is distributed in the hope that it will be useful,
  12:subsystems/gps.c ****  * but WITHOUT ANY WARRANTY; without even the implied warranty of
  13:subsystems/gps.c ****  * MERCHANTABILITY or FITNESS FOR A PARTICULAR PURPOSE.  See the
  14:subsystems/gps.c ****  * GNU General Public License for more details.
  15:subsystems/gps.c ****  *
  16:subsystems/gps.c ****  * You should have received a copy of the GNU General Public License
  17:subsystems/gps.c ****  * along with paparazzi; see the file COPYING.  If not, write to
  18:subsystems/gps.c ****  * the Free Software Foundation, 59 Temple Place - Suite 330,
  19:subsystems/gps.c ****  * Boston, MA 02111-1307, USA.
  20:subsystems/gps.c ****  */
  21:subsystems/gps.c **** 
  22:subsystems/gps.c **** /** @file gps.c
  23:subsystems/gps.c ****  *  @brief Device independent GPS code
  24:subsystems/gps.c ****  *
  25:subsystems/gps.c ****  */
  26:subsystems/gps.c **** 
  27:subsystems/gps.c **** #include "subsystems/gps.h"
  28:subsystems/gps.c **** 
  29:subsystems/gps.c **** #include "led.h"
  30:subsystems/gps.c **** 
  31:subsystems/gps.c **** #ifdef GPS_POWER_GPIO
  32:subsystems/gps.c **** #include "mcu_periph/gpio.h"
  33:subsystems/gps.c **** 
  34:subsystems/gps.c **** #ifndef GPS_POWER_GPIO_ON
  35:subsystems/gps.c **** #define GPS_POWER_GPIO_ON gpio_set
  36:subsystems/gps.c **** #endif
  37:subsystems/gps.c **** #endif
  38:subsystems/gps.c **** 
  39:subsystems/gps.c **** #define MSEC_PER_WEEK (1000*60*60*24*7)
  40:subsystems/gps.c **** 
  41:subsystems/gps.c **** struct GpsState gps;
  42:subsystems/gps.c **** 
  43:subsystems/gps.c **** struct GpsTimeSync gps_time_sync;
  44:subsystems/gps.c **** 
  45:subsystems/gps.c **** #if PERIODIC_TELEMETRY
  46:subsystems/gps.c **** #include "subsystems/datalink/telemetry.h"
  47:subsystems/gps.c **** 
  48:subsystems/gps.c **** static void send_svinfo_id(struct transport_tx *trans, struct link_device *dev,
  49:subsystems/gps.c ****                            uint8_t svid)
  50:subsystems/gps.c **** {
  51:subsystems/gps.c ****   if (svid < GPS_NB_CHANNELS) {
  52:subsystems/gps.c ****     pprz_msg_send_SVINFO(trans, dev, AC_ID, &svid,
  53:subsystems/gps.c ****                          &gps.svinfos[svid].svid, &gps.svinfos[svid].flags,
  54:subsystems/gps.c ****                          &gps.svinfos[svid].qi, &gps.svinfos[svid].cno,
  55:subsystems/gps.c ****                          &gps.svinfos[svid].elev, &gps.svinfos[svid].azim);
  56:subsystems/gps.c ****   }
  57:subsystems/gps.c **** }
  58:subsystems/gps.c **** 
  59:subsystems/gps.c **** /** send SVINFO message (regardless of state) */
  60:subsystems/gps.c **** static void send_svinfo(struct transport_tx *trans, struct link_device *dev)
  61:subsystems/gps.c **** {
  62:subsystems/gps.c ****   static uint8_t i = 0;
  63:subsystems/gps.c ****   if (i == gps.nb_channels) { i = 0; }
  64:subsystems/gps.c ****   send_svinfo_id(trans, dev, i);
  65:subsystems/gps.c ****   i++;
  66:subsystems/gps.c **** }
  67:subsystems/gps.c **** 
  68:subsystems/gps.c **** /** send SVINFO message if updated.
  69:subsystems/gps.c ****  * send SVINFO for all satellites while no GPS fix,
  70:subsystems/gps.c ****  * after 3D fix, send avialable sats only when there is new information
  71:subsystems/gps.c ****  */
  72:subsystems/gps.c **** static inline void send_svinfo_available(struct transport_tx *trans, struct link_device *dev)
  73:subsystems/gps.c **** {
  74:subsystems/gps.c ****   static uint8_t i = 0;
  75:subsystems/gps.c ****   static uint8_t last_cnos[GPS_NB_CHANNELS];
  76:subsystems/gps.c ****   if (i >= gps.nb_channels) { i = 0; }
  77:subsystems/gps.c ****   // send SVINFO for all satellites while no GPS fix,
  78:subsystems/gps.c ****   // after 3D fix, send avialable sats if they were updated
  79:subsystems/gps.c ****   if (gps.fix != GPS_FIX_3D) {
  80:subsystems/gps.c ****     send_svinfo_id(trans, dev, i);
  81:subsystems/gps.c ****   } else if (gps.svinfos[i].cno != last_cnos[i]) {
  82:subsystems/gps.c ****     send_svinfo_id(trans, dev, i);
  83:subsystems/gps.c ****     last_cnos[i] = gps.svinfos[i].cno;
  84:subsystems/gps.c ****   }
  85:subsystems/gps.c ****   i++;
  86:subsystems/gps.c **** }
  87:subsystems/gps.c **** 
  88:subsystems/gps.c **** static void send_gps(struct transport_tx *trans, struct link_device *dev)
  89:subsystems/gps.c **** {
  90:subsystems/gps.c ****   uint8_t zero = 0;
  91:subsystems/gps.c ****   int16_t climb = -gps.ned_vel.z;
  92:subsystems/gps.c ****   int16_t course = (DegOfRad(gps.course) / ((int32_t)1e6));
  93:subsystems/gps.c ****   pprz_msg_send_GPS(trans, dev, AC_ID, &gps.fix,
  94:subsystems/gps.c ****                     &gps.utm_pos.east, &gps.utm_pos.north,
  95:subsystems/gps.c ****                     &course, &gps.hmsl, &gps.gspeed, &climb,
  96:subsystems/gps.c ****                     &gps.week, &gps.tow, &gps.utm_pos.zone, &zero);
  97:subsystems/gps.c ****   // send SVINFO for available satellites that have new data
  98:subsystems/gps.c ****   send_svinfo_available(trans, dev);
  99:subsystems/gps.c **** }
 100:subsystems/gps.c **** 
 101:subsystems/gps.c **** static void send_gps_int(struct transport_tx *trans, struct link_device *dev)
 102:subsystems/gps.c **** {
 103:subsystems/gps.c ****   pprz_msg_send_GPS_INT(trans, dev, AC_ID,
 104:subsystems/gps.c ****                         &gps.ecef_pos.x, &gps.ecef_pos.y, &gps.ecef_pos.z,
 105:subsystems/gps.c ****                         &gps.lla_pos.lat, &gps.lla_pos.lon, &gps.lla_pos.alt,
 106:subsystems/gps.c ****                         &gps.hmsl,
 107:subsystems/gps.c ****                         &gps.ecef_vel.x, &gps.ecef_vel.y, &gps.ecef_vel.z,
 108:subsystems/gps.c ****                         &gps.pacc, &gps.sacc,
 109:subsystems/gps.c ****                         &gps.tow,
 110:subsystems/gps.c ****                         &gps.pdop,
 111:subsystems/gps.c ****                         &gps.num_sv,
 112:subsystems/gps.c ****                         &gps.fix);
 113:subsystems/gps.c ****   // send SVINFO for available satellites that have new data
 114:subsystems/gps.c ****   send_svinfo_available(trans, dev);
 115:subsystems/gps.c **** }
 116:subsystems/gps.c **** 
 117:subsystems/gps.c **** static void send_gps_lla(struct transport_tx *trans, struct link_device *dev)
 118:subsystems/gps.c **** {
  31              		.loc 1 118 0
  32              		.cfi_startproc
  33              		@ args = 0, pretend = 0, frame = 8
  34              		@ frame_needed = 0, uses_anonymous_args = 0
  35              	.LVL0:
  36 0000 2DE9F04F 		push	{r4, r5, r6, r7, r8, r9, r10, fp, lr}
  37              		.cfi_def_cfa_offset 36
  38              		.cfi_offset 4, -36
  39              		.cfi_offset 5, -32
  40              		.cfi_offset 6, -28
  41              		.cfi_offset 7, -24
  42              		.cfi_offset 8, -20
  43              		.cfi_offset 9, -16
  44              		.cfi_offset 10, -12
  45              		.cfi_offset 11, -8
  46              		.cfi_offset 14, -4
 119:subsystems/gps.c ****   uint8_t err = 0;
 120:subsystems/gps.c ****   int16_t climb = -gps.ned_vel.z;
  47              		.loc 1 120 0
  48 0004 7A4E     		ldr	r6, .L6+16
  49 0006 336C     		ldr	r3, [r6, #64]
 118:subsystems/gps.c ****   uint8_t err = 0;
  50              		.loc 1 118 0
  51 0008 85B0     		sub	sp, sp, #20
  52              		.cfi_def_cfa_offset 56
 118:subsystems/gps.c ****   uint8_t err = 0;
  53              		.loc 1 118 0
  54 000a 8346     		mov	fp, r0
  55              		.loc 1 120 0
  56 000c 5B42     		negs	r3, r3
 121:subsystems/gps.c ****   int16_t course = (DegOfRad(gps.course) / ((int32_t)1e6));
  57              		.loc 1 121 0
  58 000e B06C     		ldr	r0, [r6, #72]
  59              	.LVL1:
 120:subsystems/gps.c ****   int16_t course = (DegOfRad(gps.course) / ((int32_t)1e6));
  60              		.loc 1 120 0
  61 0010 ADF80C30 		strh	r3, [sp, #12]	@ movhi
 119:subsystems/gps.c ****   int16_t climb = -gps.ned_vel.z;
  62              		.loc 1 119 0
  63 0014 0025     		movs	r5, #0
 118:subsystems/gps.c ****   uint8_t err = 0;
  64              		.loc 1 118 0
  65 0016 0C46     		mov	r4, r1
 119:subsystems/gps.c ****   int16_t climb = -gps.ned_vel.z;
  66              		.loc 1 119 0
  67 0018 8DF80A50 		strb	r5, [sp, #10]
  68              		.loc 1 121 0
  69 001c FFF7FEFF 		bl	__aeabi_i2d
  70              	.LVL2:
  71 0020 6FA3     		adr	r3, .L6
  72 0022 D3E90023 		ldrd	r2, [r3]
  73 0026 FFF7FEFF 		bl	__aeabi_dmul
  74              	.LVL3:
  75 002a 6FA3     		adr	r3, .L6+8
  76 002c D3E90023 		ldrd	r2, [r3]
  77 0030 FFF7FEFF 		bl	__aeabi_ddiv
  78              	.LVL4:
  79 0034 FFF7FEFF 		bl	__aeabi_d2iz
  80              	.LVL5:
  81              	.LBB6:
  82              	.LBB7:
  83              		.file 2 "/home/dino/paparazzi/var/include/messages.h"
   1:/home/dino/paparazzi/var/include/messages.h **** /* Automatically generated by gen_messages from /home/dino/paparazzi/conf/messages.xml */
   2:/home/dino/paparazzi/var/include/messages.h **** /* Please DO NOT EDIT */
   3:/home/dino/paparazzi/var/include/messages.h **** /* Macros to send and receive messages of class telemetry */
   4:/home/dino/paparazzi/var/include/messages.h **** #ifndef _VAR_MESSAGES_telemetry_H_
   5:/home/dino/paparazzi/var/include/messages.h **** #define _VAR_MESSAGES_telemetry_H_
   6:/home/dino/paparazzi/var/include/messages.h **** #include "subsystems/datalink/transport.h"
   7:/home/dino/paparazzi/var/include/messages.h **** #include "mcu_periph/link_device.h"
   8:/home/dino/paparazzi/var/include/messages.h **** #if DOWNLINK
   9:/home/dino/paparazzi/var/include/messages.h **** #define DL_AUTOPILOT_VERSION 1
  10:/home/dino/paparazzi/var/include/messages.h **** #define DL_ALIVE 2
  11:/home/dino/paparazzi/var/include/messages.h **** #define DL_PONG 3
  12:/home/dino/paparazzi/var/include/messages.h **** #define DL_TAKEOFF 4
  13:/home/dino/paparazzi/var/include/messages.h **** #define DL_ARDRONE_NAVDATA 5
  14:/home/dino/paparazzi/var/include/messages.h **** #define DL_ATTITUDE 6
  15:/home/dino/paparazzi/var/include/messages.h **** #define DL_IR_SENSORS 7
  16:/home/dino/paparazzi/var/include/messages.h **** #define DL_GPS 8
  17:/home/dino/paparazzi/var/include/messages.h **** #define DL_NAVIGATION_REF 9
  18:/home/dino/paparazzi/var/include/messages.h **** #define DL_NAVIGATION 10
  19:/home/dino/paparazzi/var/include/messages.h **** #define DL_PPRZ_MODE 11
  20:/home/dino/paparazzi/var/include/messages.h **** #define DL_BAT 12
  21:/home/dino/paparazzi/var/include/messages.h **** #define DL_DEBUG_MCU_LINK 13
  22:/home/dino/paparazzi/var/include/messages.h **** #define DL_CALIBRATION 14
  23:/home/dino/paparazzi/var/include/messages.h **** #define DL_SETTINGS 15
  24:/home/dino/paparazzi/var/include/messages.h **** #define DL_DESIRED 16
  25:/home/dino/paparazzi/var/include/messages.h **** #define DL_GPS_SOL 17
  26:/home/dino/paparazzi/var/include/messages.h **** #define DL_ADC_GENERIC 18
  27:/home/dino/paparazzi/var/include/messages.h **** #define DL_TEST_FORMAT 19
  28:/home/dino/paparazzi/var/include/messages.h **** #define DL_CAM 20
  29:/home/dino/paparazzi/var/include/messages.h **** #define DL_CIRCLE 21
  30:/home/dino/paparazzi/var/include/messages.h **** #define DL_SEGMENT 22
  31:/home/dino/paparazzi/var/include/messages.h **** #define DL_SVINFO 25
  32:/home/dino/paparazzi/var/include/messages.h **** #define DL_DEBUG 26
  33:/home/dino/paparazzi/var/include/messages.h **** #define DL_SURVEY 27
  34:/home/dino/paparazzi/var/include/messages.h **** #define DL_WC_RSSI 28
  35:/home/dino/paparazzi/var/include/messages.h **** #define DL_RANGEFINDER 29
  36:/home/dino/paparazzi/var/include/messages.h **** #define DL_DATALINK_REPORT 30
  37:/home/dino/paparazzi/var/include/messages.h **** #define DL_DL_VALUE 31
  38:/home/dino/paparazzi/var/include/messages.h **** #define DL_MARK 32
  39:/home/dino/paparazzi/var/include/messages.h **** #define DL_SYS_MON 33
  40:/home/dino/paparazzi/var/include/messages.h **** #define DL_MOTOR 34
  41:/home/dino/paparazzi/var/include/messages.h **** #define DL_WP_MOVED 35
  42:/home/dino/paparazzi/var/include/messages.h **** #define DL_MKK 36
  43:/home/dino/paparazzi/var/include/messages.h **** #define DL_ENERGY 37
  44:/home/dino/paparazzi/var/include/messages.h **** #define DL_BARO_BMP85_CALIB 38
  45:/home/dino/paparazzi/var/include/messages.h **** #define DL_BARO_BMP85 39
  46:/home/dino/paparazzi/var/include/messages.h **** #define DL_SPEED_LOOP 40
  47:/home/dino/paparazzi/var/include/messages.h **** #define DL_ALT_KALMAN 41
  48:/home/dino/paparazzi/var/include/messages.h **** #define DL_ESTIMATOR 42
  49:/home/dino/paparazzi/var/include/messages.h **** #define DL_TUNE_ROLL 43
  50:/home/dino/paparazzi/var/include/messages.h **** #define DL_BARO_MS5534A 44
  51:/home/dino/paparazzi/var/include/messages.h **** #define DL_PRESSURE 45
  52:/home/dino/paparazzi/var/include/messages.h **** #define DL_BARO_WORDS 46
  53:/home/dino/paparazzi/var/include/messages.h **** #define DL_WP_MOVED_LLA 47
  54:/home/dino/paparazzi/var/include/messages.h **** #define DL_CHRONO 48
  55:/home/dino/paparazzi/var/include/messages.h **** #define DL_WP_MOVED_ENU 49
  56:/home/dino/paparazzi/var/include/messages.h **** #define DL_WINDTURBINE_STATUS_ 50
  57:/home/dino/paparazzi/var/include/messages.h **** #define DL_RC_3CH_ 51
  58:/home/dino/paparazzi/var/include/messages.h **** #define DL_MPPT 52
  59:/home/dino/paparazzi/var/include/messages.h **** #define DL_DEBUG_IR_I2C 53
  60:/home/dino/paparazzi/var/include/messages.h **** #define DL_AIRSPEED 54
  61:/home/dino/paparazzi/var/include/messages.h **** #define DL_XSENS 55
  62:/home/dino/paparazzi/var/include/messages.h **** #define DL_BARO_ETS 56
  63:/home/dino/paparazzi/var/include/messages.h **** #define DL_AIRSPEED_ETS 57
  64:/home/dino/paparazzi/var/include/messages.h **** #define DL_PBN 58
  65:/home/dino/paparazzi/var/include/messages.h **** #define DL_GPS_LLA 59
  66:/home/dino/paparazzi/var/include/messages.h **** #define DL_H_CTL_A 60
  67:/home/dino/paparazzi/var/include/messages.h **** #define DL_TURB_PRESSURE_RAW 61
  68:/home/dino/paparazzi/var/include/messages.h **** #define DL_TURB_PRESSURE_VOLTAGE 62
  69:/home/dino/paparazzi/var/include/messages.h **** #define DL_CAM_POINT 63
  70:/home/dino/paparazzi/var/include/messages.h **** #define DL_DC_INFO 64
  71:/home/dino/paparazzi/var/include/messages.h **** #define DL_AMSYS_BARO 65
  72:/home/dino/paparazzi/var/include/messages.h **** #define DL_AMSYS_AIRSPEED 66
  73:/home/dino/paparazzi/var/include/messages.h **** #define DL_FLIGHT_BENCHMARK 67
  74:/home/dino/paparazzi/var/include/messages.h **** #define DL_MPL3115_BARO 68
  75:/home/dino/paparazzi/var/include/messages.h **** #define DL_AOA_ADC 69
  76:/home/dino/paparazzi/var/include/messages.h **** #define DL_XTEND_RSSI 70
  77:/home/dino/paparazzi/var/include/messages.h **** #define DL_SUPERBITRF 72
  78:/home/dino/paparazzi/var/include/messages.h **** #define DL_GX3_INFO 73
  79:/home/dino/paparazzi/var/include/messages.h **** #define DL_EXPLAIN 74
  80:/home/dino/paparazzi/var/include/messages.h **** #define DL_VIDEO_TELEMETRY 75
  81:/home/dino/paparazzi/var/include/messages.h **** #define DL_VF_UPDATE 76
  82:/home/dino/paparazzi/var/include/messages.h **** #define DL_VF_PREDICT 77
  83:/home/dino/paparazzi/var/include/messages.h **** #define DL_INV_FILTER 78
  84:/home/dino/paparazzi/var/include/messages.h **** #define DL_MISSION_STATUS 79
  85:/home/dino/paparazzi/var/include/messages.h **** #define DL_CROSS_TRACK_ERROR 80
  86:/home/dino/paparazzi/var/include/messages.h **** #define DL_GENERIC_COM 81
  87:/home/dino/paparazzi/var/include/messages.h **** #define DL_FORMATION_SLOT_TM 82
  88:/home/dino/paparazzi/var/include/messages.h **** #define DL_FORMATION_STATUS_TM 83
  89:/home/dino/paparazzi/var/include/messages.h **** #define DL_BMP_STATUS 84
  90:/home/dino/paparazzi/var/include/messages.h **** #define DL_MLX_STATUS 85
  91:/home/dino/paparazzi/var/include/messages.h **** #define DL_TMP_STATUS 86
  92:/home/dino/paparazzi/var/include/messages.h **** #define DL_WIND_INFO_RET 87
  93:/home/dino/paparazzi/var/include/messages.h **** #define DL_SCP_STATUS 88
  94:/home/dino/paparazzi/var/include/messages.h **** #define DL_SHT_STATUS 89
  95:/home/dino/paparazzi/var/include/messages.h **** #define DL_ENOSE_STATUS 90
  96:/home/dino/paparazzi/var/include/messages.h **** #define DL_DPICCO_STATUS 91
  97:/home/dino/paparazzi/var/include/messages.h **** #define DL_ANTENNA_DEBUG 92
  98:/home/dino/paparazzi/var/include/messages.h **** #define DL_ANTENNA_STATUS 93
  99:/home/dino/paparazzi/var/include/messages.h **** #define DL_MOTOR_BENCH_STATUS 94
 100:/home/dino/paparazzi/var/include/messages.h **** #define DL_MOTOR_BENCH_STATIC 95
 101:/home/dino/paparazzi/var/include/messages.h **** #define DL_HIH_STATUS 96
 102:/home/dino/paparazzi/var/include/messages.h **** #define DL_TEMT_STATUS 97
 103:/home/dino/paparazzi/var/include/messages.h **** #define DL_GP2Y_STATUS 98
 104:/home/dino/paparazzi/var/include/messages.h **** #define DL_SHT_I2C_SERIAL 99
 105:/home/dino/paparazzi/var/include/messages.h **** #define DL_PPM 100
 106:/home/dino/paparazzi/var/include/messages.h **** #define DL_RC 101
 107:/home/dino/paparazzi/var/include/messages.h **** #define DL_COMMANDS 102
 108:/home/dino/paparazzi/var/include/messages.h **** #define DL_FBW_STATUS 103
 109:/home/dino/paparazzi/var/include/messages.h **** #define DL_ADC 104
 110:/home/dino/paparazzi/var/include/messages.h **** #define DL_ACTUATORS 105
 111:/home/dino/paparazzi/var/include/messages.h **** #define DL_DC_SHOT 110
 112:/home/dino/paparazzi/var/include/messages.h **** #define DL_TEST_BOARD_RESULTS 111
 113:/home/dino/paparazzi/var/include/messages.h **** #define DL_MLX_SERIAL 113
 114:/home/dino/paparazzi/var/include/messages.h **** #define DL_PAYLOAD 114
 115:/home/dino/paparazzi/var/include/messages.h **** #define DL_HTM_STATUS 115
 116:/home/dino/paparazzi/var/include/messages.h **** #define DL_BARO_MS5611 116
 117:/home/dino/paparazzi/var/include/messages.h **** #define DL_MS5611_COEFF 117
 118:/home/dino/paparazzi/var/include/messages.h **** #define DL_ATMOSPHERE_CHARGE 118
 119:/home/dino/paparazzi/var/include/messages.h **** #define DL_SOLAR_RADIATION 119
 120:/home/dino/paparazzi/var/include/messages.h **** #define DL_TCAS_TA 120
 121:/home/dino/paparazzi/var/include/messages.h **** #define DL_TCAS_RA 121
 122:/home/dino/paparazzi/var/include/messages.h **** #define DL_TCAS_RESOLVED 122
 123:/home/dino/paparazzi/var/include/messages.h **** #define DL_TCAS_DEBUG 123
 124:/home/dino/paparazzi/var/include/messages.h **** #define DL_POTENTIAL 124
 125:/home/dino/paparazzi/var/include/messages.h **** #define DL_VERTICAL_ENERGY 125
 126:/home/dino/paparazzi/var/include/messages.h **** #define DL_TEMP_TCOUPLE 126
 127:/home/dino/paparazzi/var/include/messages.h **** #define DL_SHT_I2C_STATUS 127
 128:/home/dino/paparazzi/var/include/messages.h **** #define DL_CAMERA_SNAPSHOT 128
 129:/home/dino/paparazzi/var/include/messages.h **** #define DL_TIMESTAMP 129
 130:/home/dino/paparazzi/var/include/messages.h **** #define DL_STAB_ATTITUDE_FLOAT 130
 131:/home/dino/paparazzi/var/include/messages.h **** #define DL_IMU_GYRO_SCALED 131
 132:/home/dino/paparazzi/var/include/messages.h **** #define DL_IMU_ACCEL_SCALED 132
 133:/home/dino/paparazzi/var/include/messages.h **** #define DL_IMU_MAG_SCALED 133
 134:/home/dino/paparazzi/var/include/messages.h **** #define DL_FILTER 134
 135:/home/dino/paparazzi/var/include/messages.h **** #define DL_FILTER2 135
 136:/home/dino/paparazzi/var/include/messages.h **** #define DL_RATE_LOOP 136
 137:/home/dino/paparazzi/var/include/messages.h **** #define DL_FILTER_ALIGNER 137
 138:/home/dino/paparazzi/var/include/messages.h **** #define DL_AIRSPEED_MS45XX 138
 139:/home/dino/paparazzi/var/include/messages.h **** #define DL_FILTER_COR 139
 140:/home/dino/paparazzi/var/include/messages.h **** #define DL_STAB_ATTITUDE_INT 140
 141:/home/dino/paparazzi/var/include/messages.h **** #define DL_STAB_ATTITUDE_REF_INT 141
 142:/home/dino/paparazzi/var/include/messages.h **** #define DL_STAB_ATTITUDE_REF_FLOAT 142
 143:/home/dino/paparazzi/var/include/messages.h **** #define DL_ROTORCRAFT_CMD 143
 144:/home/dino/paparazzi/var/include/messages.h **** #define DL_GUIDANCE_H_INT 144
 145:/home/dino/paparazzi/var/include/messages.h **** #define DL_VERT_LOOP 145
 146:/home/dino/paparazzi/var/include/messages.h **** #define DL_HOVER_LOOP 146
 147:/home/dino/paparazzi/var/include/messages.h **** #define DL_ROTORCRAFT_FP 147
 148:/home/dino/paparazzi/var/include/messages.h **** #define DL_TEMP_ADC 148
 149:/home/dino/paparazzi/var/include/messages.h **** #define DL_GUIDANCE_H_REF_INT 149
 150:/home/dino/paparazzi/var/include/messages.h **** #define DL_ROTORCRAFT_TUNE_HOVER 150
 151:/home/dino/paparazzi/var/include/messages.h **** #define DL_INS_Z 151
 152:/home/dino/paparazzi/var/include/messages.h **** #define DL_PCAP01_STATUS 152
 153:/home/dino/paparazzi/var/include/messages.h **** #define DL_GEIGER_COUNTER 153
 154:/home/dino/paparazzi/var/include/messages.h **** #define DL_INS_REF 154
 155:/home/dino/paparazzi/var/include/messages.h **** #define DL_GPS_INT 155
 156:/home/dino/paparazzi/var/include/messages.h **** #define DL_AHRS_EULER_INT 156
 157:/home/dino/paparazzi/var/include/messages.h **** #define DL_AHRS_QUAT_INT 157
 158:/home/dino/paparazzi/var/include/messages.h **** #define DL_AHRS_RMAT_INT 158
 159:/home/dino/paparazzi/var/include/messages.h **** #define DL_ROTORCRAFT_NAV_STATUS 159
 160:/home/dino/paparazzi/var/include/messages.h **** #define DL_ROTORCRAFT_RADIO_CONTROL 160
 161:/home/dino/paparazzi/var/include/messages.h **** #define DL_VFF_EXTENDED 161
 162:/home/dino/paparazzi/var/include/messages.h **** #define DL_VFF 162
 163:/home/dino/paparazzi/var/include/messages.h **** #define DL_GEO_MAG 163
 164:/home/dino/paparazzi/var/include/messages.h **** #define DL_HFF 164
 165:/home/dino/paparazzi/var/include/messages.h **** #define DL_HFF_DBG 165
 166:/home/dino/paparazzi/var/include/messages.h **** #define DL_HFF_GPS 166
 167:/home/dino/paparazzi/var/include/messages.h **** #define DL_INS_SONAR 167
 168:/home/dino/paparazzi/var/include/messages.h **** #define DL_ROTORCRAFT_CAM 168
 169:/home/dino/paparazzi/var/include/messages.h **** #define DL_AHRS_REF_QUAT 169
 170:/home/dino/paparazzi/var/include/messages.h **** #define DL_EKF7_XHAT 170
 171:/home/dino/paparazzi/var/include/messages.h **** #define DL_EKF7_Y 171
 172:/home/dino/paparazzi/var/include/messages.h **** #define DL_EKF7_P_DIAG 172
 173:/home/dino/paparazzi/var/include/messages.h **** #define DL_AHRS_EULER 173
 174:/home/dino/paparazzi/var/include/messages.h **** #define DL_AHRS_MEASUREMENT_EULER 174
 175:/home/dino/paparazzi/var/include/messages.h **** #define DL_WT 175
 176:/home/dino/paparazzi/var/include/messages.h **** #define DL_CSC_CAN_DEBUG 176
 177:/home/dino/paparazzi/var/include/messages.h **** #define DL_CSC_CAN_MSG 177
 178:/home/dino/paparazzi/var/include/messages.h **** #define DL_AHRS_GYRO_BIAS_INT 178
 179:/home/dino/paparazzi/var/include/messages.h **** #define DL_FLOW_AP_OTF 179
 180:/home/dino/paparazzi/var/include/messages.h **** #define DL_FMS_TIME 180
 181:/home/dino/paparazzi/var/include/messages.h **** #define DL_LOADCELL 181
 182:/home/dino/paparazzi/var/include/messages.h **** #define DL_FLA_DEBUG 182
 183:/home/dino/paparazzi/var/include/messages.h **** #define DL_BLMC_FAULT_STATUS 183
 184:/home/dino/paparazzi/var/include/messages.h **** #define DL_BLMC_SPEEDS 184
 185:/home/dino/paparazzi/var/include/messages.h **** #define DL_AHRS_DEBUG_QUAT 185
 186:/home/dino/paparazzi/var/include/messages.h **** #define DL_BLMC_BUSVOLTS 186
 187:/home/dino/paparazzi/var/include/messages.h **** #define DL_SYSTEM_STATUS 187
 188:/home/dino/paparazzi/var/include/messages.h **** #define DL_DYNAMIXEL 188
 189:/home/dino/paparazzi/var/include/messages.h **** #define DL_RMAT_DEBUG 189
 190:/home/dino/paparazzi/var/include/messages.h **** #define DL_SIMPLE_COMMANDS 190
 191:/home/dino/paparazzi/var/include/messages.h **** #define DL_VANE_SENSOR 191
 192:/home/dino/paparazzi/var/include/messages.h **** #define DL_CONTROLLER_GAINS 192
 193:/home/dino/paparazzi/var/include/messages.h **** #define DL_AHRS_LKF 193
 194:/home/dino/paparazzi/var/include/messages.h **** #define DL_AHRS_LKF_DEBUG 194
 195:/home/dino/paparazzi/var/include/messages.h **** #define DL_AHRS_LKF_ACC_DBG 195
 196:/home/dino/paparazzi/var/include/messages.h **** #define DL_AHRS_LKF_MAG_DBG 196
 197:/home/dino/paparazzi/var/include/messages.h **** #define DL_NPS_SENSORS_SCALED 197
 198:/home/dino/paparazzi/var/include/messages.h **** #define DL_INS 198
 199:/home/dino/paparazzi/var/include/messages.h **** #define DL_GPS_ERROR 199
 200:/home/dino/paparazzi/var/include/messages.h **** #define DL_IMU_GYRO 200
 201:/home/dino/paparazzi/var/include/messages.h **** #define DL_IMU_MAG 201
 202:/home/dino/paparazzi/var/include/messages.h **** #define DL_IMU_ACCEL 202
 203:/home/dino/paparazzi/var/include/messages.h **** #define DL_IMU_GYRO_RAW 203
 204:/home/dino/paparazzi/var/include/messages.h **** #define DL_IMU_ACCEL_RAW 204
 205:/home/dino/paparazzi/var/include/messages.h **** #define DL_IMU_MAG_RAW 205
 206:/home/dino/paparazzi/var/include/messages.h **** #define DL_IMU_MAG_SETTINGS 206
 207:/home/dino/paparazzi/var/include/messages.h **** #define DL_IMU_MAG_CURRENT_CALIBRATION 207
 208:/home/dino/paparazzi/var/include/messages.h **** #define DL_UART_ERRORS 208
 209:/home/dino/paparazzi/var/include/messages.h **** #define DL_IMU_GYRO_LP 209
 210:/home/dino/paparazzi/var/include/messages.h **** #define DL_IMU_PRESSURE 210
 211:/home/dino/paparazzi/var/include/messages.h **** #define DL_IMU_HS_GYRO 211
 212:/home/dino/paparazzi/var/include/messages.h **** #define DL_TEST_PASSTHROUGH_STATUS 212
 213:/home/dino/paparazzi/var/include/messages.h **** #define DL_TUNE_VERT 213
 214:/home/dino/paparazzi/var/include/messages.h **** #define DL_MF_DAQ_STATE 214
 215:/home/dino/paparazzi/var/include/messages.h **** #define DL_INFO_MSG 215
 216:/home/dino/paparazzi/var/include/messages.h **** #define DL_STAB_ATTITUDE_INDI 216
 217:/home/dino/paparazzi/var/include/messages.h **** #define DL_BEBOP_ACTUATORS 218
 218:/home/dino/paparazzi/var/include/messages.h **** #define DL_WEATHER 219
 219:/home/dino/paparazzi/var/include/messages.h **** #define DL_IMU_TURNTABLE 220
 220:/home/dino/paparazzi/var/include/messages.h **** #define DL_BARO_RAW 221
 221:/home/dino/paparazzi/var/include/messages.h **** #define DL_AIR_DATA 222
 222:/home/dino/paparazzi/var/include/messages.h **** #define DL_AMSL 223
 223:/home/dino/paparazzi/var/include/messages.h **** #define DL_VIDEO_SYNC 225
 224:/home/dino/paparazzi/var/include/messages.h **** #define DL_PERIODIC_TELEMETRY_ERR 226
 225:/home/dino/paparazzi/var/include/messages.h **** #define DL_TIME 227
 226:/home/dino/paparazzi/var/include/messages.h **** #define DL_OPTIC_FLOW_EST 228
 227:/home/dino/paparazzi/var/include/messages.h **** #define DL_AHRS_ARDRONE2 230
 228:/home/dino/paparazzi/var/include/messages.h **** #define DL_ROTORCRAFT_STATUS 231
 229:/home/dino/paparazzi/var/include/messages.h **** #define DL_STATE_FILTER_STATUS 232
 230:/home/dino/paparazzi/var/include/messages.h **** #define DL_PX4FLOW 233
 231:/home/dino/paparazzi/var/include/messages.h **** #define DL_OPTICFLOW 234
 232:/home/dino/paparazzi/var/include/messages.h **** #define DL_VISUALTARGET 235
 233:/home/dino/paparazzi/var/include/messages.h **** #define DL_SONAR 236
 234:/home/dino/paparazzi/var/include/messages.h **** #define DL_PAYLOAD_FLOAT 237
 235:/home/dino/paparazzi/var/include/messages.h **** #define DL_NPS_POS_LLH 238
 236:/home/dino/paparazzi/var/include/messages.h **** #define DL_NPS_RPMS 239
 237:/home/dino/paparazzi/var/include/messages.h **** #define DL_NPS_SPEED_POS 240
 238:/home/dino/paparazzi/var/include/messages.h **** #define DL_NPS_RATE_ATTITUDE 241
 239:/home/dino/paparazzi/var/include/messages.h **** #define DL_NPS_GYRO_BIAS 242
 240:/home/dino/paparazzi/var/include/messages.h **** #define DL_NPS_RANGE_METER 243
 241:/home/dino/paparazzi/var/include/messages.h **** #define DL_NPS_WIND 244
 242:/home/dino/paparazzi/var/include/messages.h **** #define DL_PPRZ_DEBUG 247
 243:/home/dino/paparazzi/var/include/messages.h **** #define DL_NPS_ACCEL_LTP 248
 244:/home/dino/paparazzi/var/include/messages.h **** #define DL_LOOSE_INS_GPS 249
 245:/home/dino/paparazzi/var/include/messages.h **** #define DL_AFL_COEFFS 250
 246:/home/dino/paparazzi/var/include/messages.h **** #define DL_I2C_ERRORS 253
 247:/home/dino/paparazzi/var/include/messages.h **** #define DL_RDYB_TRAJECTORY 254
 248:/home/dino/paparazzi/var/include/messages.h **** #define DL_HENRY_GNSS 255
 249:/home/dino/paparazzi/var/include/messages.h **** #define DL_MSG_telemetry_NB 240
 250:/home/dino/paparazzi/var/include/messages.h **** 
 251:/home/dino/paparazzi/var/include/messages.h **** #define DOWNLINK_SEND_AUTOPILOT_VERSION(_trans, _dev, version, nb_desc, desc) pprz_msg_send_AUTOPIL
 252:/home/dino/paparazzi/var/include/messages.h **** static inline void pprz_msg_send_AUTOPILOT_VERSION(struct transport_tx *trans, struct link_device *
 253:/home/dino/paparazzi/var/include/messages.h **** 	if (trans->check_available_space(trans->impl, dev, trans->size_of(trans->impl, 0+4+1+nb_desc*1 +2 
 254:/home/dino/paparazzi/var/include/messages.h **** 	  trans->count_bytes(trans->impl, dev, trans->size_of(trans->impl, 0+4+1+nb_desc*1 +2 /* msg heade
 255:/home/dino/paparazzi/var/include/messages.h **** 	  trans->start_message(trans->impl, dev, 0+4+1+nb_desc*1 +2 /* msg header overhead */);
 256:/home/dino/paparazzi/var/include/messages.h **** 	  trans->put_bytes(trans->impl, dev, DL_TYPE_UINT8, DL_FORMAT_SCALAR, 1, &ac_id);
 257:/home/dino/paparazzi/var/include/messages.h **** 	  trans->put_named_byte(trans->impl, dev, DL_TYPE_UINT8, DL_FORMAT_SCALAR, DL_AUTOPILOT_VERSION, "
 258:/home/dino/paparazzi/var/include/messages.h **** 	  trans->put_bytes(trans->impl, dev, DL_TYPE_UINT32, DL_FORMAT_SCALAR, 4, (void *) _version);
 259:/home/dino/paparazzi/var/include/messages.h **** 	  trans->put_bytes(trans->impl, dev, DL_TYPE_ARRAY_LENGTH, DL_FORMAT_SCALAR, 1, (void *) &nb_desc)
 260:/home/dino/paparazzi/var/include/messages.h **** 	  trans->put_bytes(trans->impl, dev, DL_TYPE_CHAR, DL_FORMAT_ARRAY, 1 * nb_desc, (void *) _desc);
 261:/home/dino/paparazzi/var/include/messages.h **** 	  trans->end_message(trans->impl, dev);
 262:/home/dino/paparazzi/var/include/messages.h **** 	} else
 263:/home/dino/paparazzi/var/include/messages.h **** 	  trans->overrun(trans->impl, dev);
 264:/home/dino/paparazzi/var/include/messages.h **** }
 265:/home/dino/paparazzi/var/include/messages.h **** 
 266:/home/dino/paparazzi/var/include/messages.h **** #define DOWNLINK_SEND_ALIVE(_trans, _dev, nb_md5sum, md5sum) pprz_msg_send_ALIVE(&((_trans).trans_t
 267:/home/dino/paparazzi/var/include/messages.h **** static inline void pprz_msg_send_ALIVE(struct transport_tx *trans, struct link_device *dev, uint8_t
 268:/home/dino/paparazzi/var/include/messages.h **** 	if (trans->check_available_space(trans->impl, dev, trans->size_of(trans->impl, 0+1+nb_md5sum*1 +2 
 269:/home/dino/paparazzi/var/include/messages.h **** 	  trans->count_bytes(trans->impl, dev, trans->size_of(trans->impl, 0+1+nb_md5sum*1 +2 /* msg heade
 270:/home/dino/paparazzi/var/include/messages.h **** 	  trans->start_message(trans->impl, dev, 0+1+nb_md5sum*1 +2 /* msg header overhead */);
 271:/home/dino/paparazzi/var/include/messages.h **** 	  trans->put_bytes(trans->impl, dev, DL_TYPE_UINT8, DL_FORMAT_SCALAR, 1, &ac_id);
 272:/home/dino/paparazzi/var/include/messages.h **** 	  trans->put_named_byte(trans->impl, dev, DL_TYPE_UINT8, DL_FORMAT_SCALAR, DL_ALIVE, "ALIVE");
 273:/home/dino/paparazzi/var/include/messages.h **** 	  trans->put_bytes(trans->impl, dev, DL_TYPE_ARRAY_LENGTH, DL_FORMAT_SCALAR, 1, (void *) &nb_md5su
 274:/home/dino/paparazzi/var/include/messages.h **** 	  trans->put_bytes(trans->impl, dev, DL_TYPE_UINT8, DL_FORMAT_ARRAY, 1 * nb_md5sum, (void *) _md5s
 275:/home/dino/paparazzi/var/include/messages.h **** 	  trans->end_message(trans->impl, dev);
 276:/home/dino/paparazzi/var/include/messages.h **** 	} else
 277:/home/dino/paparazzi/var/include/messages.h **** 	  trans->overrun(trans->impl, dev);
 278:/home/dino/paparazzi/var/include/messages.h **** }
 279:/home/dino/paparazzi/var/include/messages.h **** 
 280:/home/dino/paparazzi/var/include/messages.h **** #define DOWNLINK_SEND_PONG(_trans, _dev) pprz_msg_send_PONG(&((_trans).trans_tx), &((_dev).device),
 281:/home/dino/paparazzi/var/include/messages.h **** static inline void pprz_msg_send_PONG(struct transport_tx *trans, struct link_device *dev, uint8_t 
 282:/home/dino/paparazzi/var/include/messages.h **** 	if (trans->check_available_space(trans->impl, dev, trans->size_of(trans->impl, 0 +2 /* msg header 
 283:/home/dino/paparazzi/var/include/messages.h **** 	  trans->count_bytes(trans->impl, dev, trans->size_of(trans->impl, 0 +2 /* msg header overhead */)
 284:/home/dino/paparazzi/var/include/messages.h **** 	  trans->start_message(trans->impl, dev, 0 +2 /* msg header overhead */);
 285:/home/dino/paparazzi/var/include/messages.h **** 	  trans->put_bytes(trans->impl, dev, DL_TYPE_UINT8, DL_FORMAT_SCALAR, 1, &ac_id);
 286:/home/dino/paparazzi/var/include/messages.h **** 	  trans->put_named_byte(trans->impl, dev, DL_TYPE_UINT8, DL_FORMAT_SCALAR, DL_PONG, "PONG");
 287:/home/dino/paparazzi/var/include/messages.h **** 	  trans->end_message(trans->impl, dev);
 288:/home/dino/paparazzi/var/include/messages.h **** 	} else
 289:/home/dino/paparazzi/var/include/messages.h **** 	  trans->overrun(trans->impl, dev);
 290:/home/dino/paparazzi/var/include/messages.h **** }
 291:/home/dino/paparazzi/var/include/messages.h **** 
 292:/home/dino/paparazzi/var/include/messages.h **** #define DOWNLINK_SEND_TAKEOFF(_trans, _dev, cpu_time) pprz_msg_send_TAKEOFF(&((_trans).trans_tx), &
 293:/home/dino/paparazzi/var/include/messages.h **** static inline void pprz_msg_send_TAKEOFF(struct transport_tx *trans, struct link_device *dev, uint8
 294:/home/dino/paparazzi/var/include/messages.h **** 	if (trans->check_available_space(trans->impl, dev, trans->size_of(trans->impl, 0+2 +2 /* msg heade
 295:/home/dino/paparazzi/var/include/messages.h **** 	  trans->count_bytes(trans->impl, dev, trans->size_of(trans->impl, 0+2 +2 /* msg header overhead *
 296:/home/dino/paparazzi/var/include/messages.h **** 	  trans->start_message(trans->impl, dev, 0+2 +2 /* msg header overhead */);
 297:/home/dino/paparazzi/var/include/messages.h **** 	  trans->put_bytes(trans->impl, dev, DL_TYPE_UINT8, DL_FORMAT_SCALAR, 1, &ac_id);
 298:/home/dino/paparazzi/var/include/messages.h **** 	  trans->put_named_byte(trans->impl, dev, DL_TYPE_UINT8, DL_FORMAT_SCALAR, DL_TAKEOFF, "TAKEOFF");
 299:/home/dino/paparazzi/var/include/messages.h **** 	  trans->put_bytes(trans->impl, dev, DL_TYPE_UINT16, DL_FORMAT_SCALAR, 2, (void *) _cpu_time);
 300:/home/dino/paparazzi/var/include/messages.h **** 	  trans->end_message(trans->impl, dev);
 301:/home/dino/paparazzi/var/include/messages.h **** 	} else
 302:/home/dino/paparazzi/var/include/messages.h **** 	  trans->overrun(trans->impl, dev);
 303:/home/dino/paparazzi/var/include/messages.h **** }
 304:/home/dino/paparazzi/var/include/messages.h **** 
 305:/home/dino/paparazzi/var/include/messages.h **** #define DOWNLINK_SEND_ARDRONE_NAVDATA(_trans, _dev, taille, nu_trame, ax, ay, az, vx, vy, vz, tempe
 306:/home/dino/paparazzi/var/include/messages.h **** static inline void pprz_msg_send_ARDRONE_NAVDATA(struct transport_tx *trans, struct link_device *de
 307:/home/dino/paparazzi/var/include/messages.h **** 	if (trans->check_available_space(trans->impl, dev, trans->size_of(trans->impl, 0+2+2+2+2+2+2+2+2+2
 308:/home/dino/paparazzi/var/include/messages.h **** 	  trans->count_bytes(trans->impl, dev, trans->size_of(trans->impl, 0+2+2+2+2+2+2+2+2+2+2+2+2+2+2+2
 309:/home/dino/paparazzi/var/include/messages.h **** 	  trans->start_message(trans->impl, dev, 0+2+2+2+2+2+2+2+2+2+2+2+2+2+2+2+2+2+2+2+4+2+2+4+2+2+2+2+2
 310:/home/dino/paparazzi/var/include/messages.h **** 	  trans->put_bytes(trans->impl, dev, DL_TYPE_UINT8, DL_FORMAT_SCALAR, 1, &ac_id);
 311:/home/dino/paparazzi/var/include/messages.h **** 	  trans->put_named_byte(trans->impl, dev, DL_TYPE_UINT8, DL_FORMAT_SCALAR, DL_ARDRONE_NAVDATA, "AR
 312:/home/dino/paparazzi/var/include/messages.h **** 	  trans->put_bytes(trans->impl, dev, DL_TYPE_UINT16, DL_FORMAT_SCALAR, 2, (void *) _taille);
 313:/home/dino/paparazzi/var/include/messages.h **** 	  trans->put_bytes(trans->impl, dev, DL_TYPE_UINT16, DL_FORMAT_SCALAR, 2, (void *) _nu_trame);
 314:/home/dino/paparazzi/var/include/messages.h **** 	  trans->put_bytes(trans->impl, dev, DL_TYPE_UINT16, DL_FORMAT_SCALAR, 2, (void *) _ax);
 315:/home/dino/paparazzi/var/include/messages.h **** 	  trans->put_bytes(trans->impl, dev, DL_TYPE_UINT16, DL_FORMAT_SCALAR, 2, (void *) _ay);
 316:/home/dino/paparazzi/var/include/messages.h **** 	  trans->put_bytes(trans->impl, dev, DL_TYPE_UINT16, DL_FORMAT_SCALAR, 2, (void *) _az);
 317:/home/dino/paparazzi/var/include/messages.h **** 	  trans->put_bytes(trans->impl, dev, DL_TYPE_INT16, DL_FORMAT_SCALAR, 2, (void *) _vx);
 318:/home/dino/paparazzi/var/include/messages.h **** 	  trans->put_bytes(trans->impl, dev, DL_TYPE_INT16, DL_FORMAT_SCALAR, 2, (void *) _vy);
 319:/home/dino/paparazzi/var/include/messages.h **** 	  trans->put_bytes(trans->impl, dev, DL_TYPE_INT16, DL_FORMAT_SCALAR, 2, (void *) _vz);
 320:/home/dino/paparazzi/var/include/messages.h **** 	  trans->put_bytes(trans->impl, dev, DL_TYPE_UINT16, DL_FORMAT_SCALAR, 2, (void *) _temperature_ac
 321:/home/dino/paparazzi/var/include/messages.h **** 	  trans->put_bytes(trans->impl, dev, DL_TYPE_UINT16, DL_FORMAT_SCALAR, 2, (void *) _temperature_gy
 322:/home/dino/paparazzi/var/include/messages.h **** 	  trans->put_bytes(trans->impl, dev, DL_TYPE_UINT16, DL_FORMAT_SCALAR, 2, (void *) _ultrasound);
 323:/home/dino/paparazzi/var/include/messages.h **** 	  trans->put_bytes(trans->impl, dev, DL_TYPE_UINT16, DL_FORMAT_SCALAR, 2, (void *) _us_debut_echo)
 324:/home/dino/paparazzi/var/include/messages.h **** 	  trans->put_bytes(trans->impl, dev, DL_TYPE_UINT16, DL_FORMAT_SCALAR, 2, (void *) _us_fin_echo);
 325:/home/dino/paparazzi/var/include/messages.h **** 	  trans->put_bytes(trans->impl, dev, DL_TYPE_UINT16, DL_FORMAT_SCALAR, 2, (void *) _us_association
 326:/home/dino/paparazzi/var/include/messages.h **** 	  trans->put_bytes(trans->impl, dev, DL_TYPE_UINT16, DL_FORMAT_SCALAR, 2, (void *) _us_distance_ec
 327:/home/dino/paparazzi/var/include/messages.h **** 	  trans->put_bytes(trans->impl, dev, DL_TYPE_UINT16, DL_FORMAT_SCALAR, 2, (void *) _us_curve_time)
 328:/home/dino/paparazzi/var/include/messages.h **** 	  trans->put_bytes(trans->impl, dev, DL_TYPE_UINT16, DL_FORMAT_SCALAR, 2, (void *) _us_curve_value
 329:/home/dino/paparazzi/var/include/messages.h **** 	  trans->put_bytes(trans->impl, dev, DL_TYPE_UINT16, DL_FORMAT_SCALAR, 2, (void *) _us_curve_ref);
 330:/home/dino/paparazzi/var/include/messages.h **** 	  trans->put_bytes(trans->impl, dev, DL_TYPE_UINT16, DL_FORMAT_SCALAR, 2, (void *) _nb_echo);
 331:/home/dino/paparazzi/var/include/messages.h **** 	  trans->put_bytes(trans->impl, dev, DL_TYPE_UINT32, DL_FORMAT_SCALAR, 4, (void *) _sum_echo);
 332:/home/dino/paparazzi/var/include/messages.h **** 	  trans->put_bytes(trans->impl, dev, DL_TYPE_INT16, DL_FORMAT_SCALAR, 2, (void *) _gradient);
 333:/home/dino/paparazzi/var/include/messages.h **** 	  trans->put_bytes(trans->impl, dev, DL_TYPE_UINT16, DL_FORMAT_SCALAR, 2, (void *) _flag_echo_ini)
 334:/home/dino/paparazzi/var/include/messages.h **** 	  trans->put_bytes(trans->impl, dev, DL_TYPE_INT32, DL_FORMAT_SCALAR, 4, (void *) _pressure);
 335:/home/dino/paparazzi/var/include/messages.h **** 	  trans->put_bytes(trans->impl, dev, DL_TYPE_UINT16, DL_FORMAT_SCALAR, 2, (void *) _temperature_pr
 336:/home/dino/paparazzi/var/include/messages.h **** 	  trans->put_bytes(trans->impl, dev, DL_TYPE_INT16, DL_FORMAT_SCALAR, 2, (void *) _mx);
 337:/home/dino/paparazzi/var/include/messages.h **** 	  trans->put_bytes(trans->impl, dev, DL_TYPE_INT16, DL_FORMAT_SCALAR, 2, (void *) _my);
 338:/home/dino/paparazzi/var/include/messages.h **** 	  trans->put_bytes(trans->impl, dev, DL_TYPE_INT16, DL_FORMAT_SCALAR, 2, (void *) _mz);
 339:/home/dino/paparazzi/var/include/messages.h **** 	  trans->put_bytes(trans->impl, dev, DL_TYPE_UINT16, DL_FORMAT_SCALAR, 2, (void *) _chksum);
 340:/home/dino/paparazzi/var/include/messages.h **** 	  trans->put_bytes(trans->impl, dev, DL_TYPE_UINT32, DL_FORMAT_SCALAR, 4, (void *) _checksum_error
 341:/home/dino/paparazzi/var/include/messages.h **** 	  trans->end_message(trans->impl, dev);
 342:/home/dino/paparazzi/var/include/messages.h **** 	} else
 343:/home/dino/paparazzi/var/include/messages.h **** 	  trans->overrun(trans->impl, dev);
 344:/home/dino/paparazzi/var/include/messages.h **** }
 345:/home/dino/paparazzi/var/include/messages.h **** 
 346:/home/dino/paparazzi/var/include/messages.h **** #define DOWNLINK_SEND_ATTITUDE(_trans, _dev, phi, psi, theta) pprz_msg_send_ATTITUDE(&((_trans).tra
 347:/home/dino/paparazzi/var/include/messages.h **** static inline void pprz_msg_send_ATTITUDE(struct transport_tx *trans, struct link_device *dev, uint
 348:/home/dino/paparazzi/var/include/messages.h **** 	if (trans->check_available_space(trans->impl, dev, trans->size_of(trans->impl, 0+4+4+4 +2 /* msg h
 349:/home/dino/paparazzi/var/include/messages.h **** 	  trans->count_bytes(trans->impl, dev, trans->size_of(trans->impl, 0+4+4+4 +2 /* msg header overhe
 350:/home/dino/paparazzi/var/include/messages.h **** 	  trans->start_message(trans->impl, dev, 0+4+4+4 +2 /* msg header overhead */);
 351:/home/dino/paparazzi/var/include/messages.h **** 	  trans->put_bytes(trans->impl, dev, DL_TYPE_UINT8, DL_FORMAT_SCALAR, 1, &ac_id);
 352:/home/dino/paparazzi/var/include/messages.h **** 	  trans->put_named_byte(trans->impl, dev, DL_TYPE_UINT8, DL_FORMAT_SCALAR, DL_ATTITUDE, "ATTITUDE"
 353:/home/dino/paparazzi/var/include/messages.h **** 	  trans->put_bytes(trans->impl, dev, DL_TYPE_FLOAT, DL_FORMAT_SCALAR, 4, (void *) _phi);
 354:/home/dino/paparazzi/var/include/messages.h **** 	  trans->put_bytes(trans->impl, dev, DL_TYPE_FLOAT, DL_FORMAT_SCALAR, 4, (void *) _psi);
 355:/home/dino/paparazzi/var/include/messages.h **** 	  trans->put_bytes(trans->impl, dev, DL_TYPE_FLOAT, DL_FORMAT_SCALAR, 4, (void *) _theta);
 356:/home/dino/paparazzi/var/include/messages.h **** 	  trans->end_message(trans->impl, dev);
 357:/home/dino/paparazzi/var/include/messages.h **** 	} else
 358:/home/dino/paparazzi/var/include/messages.h **** 	  trans->overrun(trans->impl, dev);
 359:/home/dino/paparazzi/var/include/messages.h **** }
 360:/home/dino/paparazzi/var/include/messages.h **** 
 361:/home/dino/paparazzi/var/include/messages.h **** #define DOWNLINK_SEND_IR_SENSORS(_trans, _dev, ir1, ir2, longitudinal, lateral, vertical) pprz_msg_
 362:/home/dino/paparazzi/var/include/messages.h **** static inline void pprz_msg_send_IR_SENSORS(struct transport_tx *trans, struct link_device *dev, ui
 363:/home/dino/paparazzi/var/include/messages.h **** 	if (trans->check_available_space(trans->impl, dev, trans->size_of(trans->impl, 0+2+2+2+2+2 +2 /* m
 364:/home/dino/paparazzi/var/include/messages.h **** 	  trans->count_bytes(trans->impl, dev, trans->size_of(trans->impl, 0+2+2+2+2+2 +2 /* msg header ov
 365:/home/dino/paparazzi/var/include/messages.h **** 	  trans->start_message(trans->impl, dev, 0+2+2+2+2+2 +2 /* msg header overhead */);
 366:/home/dino/paparazzi/var/include/messages.h **** 	  trans->put_bytes(trans->impl, dev, DL_TYPE_UINT8, DL_FORMAT_SCALAR, 1, &ac_id);
 367:/home/dino/paparazzi/var/include/messages.h **** 	  trans->put_named_byte(trans->impl, dev, DL_TYPE_UINT8, DL_FORMAT_SCALAR, DL_IR_SENSORS, "IR_SENS
 368:/home/dino/paparazzi/var/include/messages.h **** 	  trans->put_bytes(trans->impl, dev, DL_TYPE_INT16, DL_FORMAT_SCALAR, 2, (void *) _ir1);
 369:/home/dino/paparazzi/var/include/messages.h **** 	  trans->put_bytes(trans->impl, dev, DL_TYPE_INT16, DL_FORMAT_SCALAR, 2, (void *) _ir2);
 370:/home/dino/paparazzi/var/include/messages.h **** 	  trans->put_bytes(trans->impl, dev, DL_TYPE_INT16, DL_FORMAT_SCALAR, 2, (void *) _longitudinal);
 371:/home/dino/paparazzi/var/include/messages.h **** 	  trans->put_bytes(trans->impl, dev, DL_TYPE_INT16, DL_FORMAT_SCALAR, 2, (void *) _lateral);
 372:/home/dino/paparazzi/var/include/messages.h **** 	  trans->put_bytes(trans->impl, dev, DL_TYPE_INT16, DL_FORMAT_SCALAR, 2, (void *) _vertical);
 373:/home/dino/paparazzi/var/include/messages.h **** 	  trans->end_message(trans->impl, dev);
 374:/home/dino/paparazzi/var/include/messages.h **** 	} else
 375:/home/dino/paparazzi/var/include/messages.h **** 	  trans->overrun(trans->impl, dev);
 376:/home/dino/paparazzi/var/include/messages.h **** }
 377:/home/dino/paparazzi/var/include/messages.h **** 
 378:/home/dino/paparazzi/var/include/messages.h **** #define DOWNLINK_SEND_GPS(_trans, _dev, mode, utm_east, utm_north, course, alt, speed, climb, week,
 379:/home/dino/paparazzi/var/include/messages.h **** static inline void pprz_msg_send_GPS(struct transport_tx *trans, struct link_device *dev, uint8_t a
 380:/home/dino/paparazzi/var/include/messages.h **** 	if (trans->check_available_space(trans->impl, dev, trans->size_of(trans->impl, 0+1+4+4+2+4+2+2+2+4
 381:/home/dino/paparazzi/var/include/messages.h **** 	  trans->count_bytes(trans->impl, dev, trans->size_of(trans->impl, 0+1+4+4+2+4+2+2+2+4+1+1 +2 /* m
 382:/home/dino/paparazzi/var/include/messages.h **** 	  trans->start_message(trans->impl, dev, 0+1+4+4+2+4+2+2+2+4+1+1 +2 /* msg header overhead */);
 383:/home/dino/paparazzi/var/include/messages.h **** 	  trans->put_bytes(trans->impl, dev, DL_TYPE_UINT8, DL_FORMAT_SCALAR, 1, &ac_id);
 384:/home/dino/paparazzi/var/include/messages.h **** 	  trans->put_named_byte(trans->impl, dev, DL_TYPE_UINT8, DL_FORMAT_SCALAR, DL_GPS, "GPS");
 385:/home/dino/paparazzi/var/include/messages.h **** 	  trans->put_bytes(trans->impl, dev, DL_TYPE_UINT8, DL_FORMAT_SCALAR, 1, (void *) _mode);
 386:/home/dino/paparazzi/var/include/messages.h **** 	  trans->put_bytes(trans->impl, dev, DL_TYPE_INT32, DL_FORMAT_SCALAR, 4, (void *) _utm_east);
 387:/home/dino/paparazzi/var/include/messages.h **** 	  trans->put_bytes(trans->impl, dev, DL_TYPE_INT32, DL_FORMAT_SCALAR, 4, (void *) _utm_north);
 388:/home/dino/paparazzi/var/include/messages.h **** 	  trans->put_bytes(trans->impl, dev, DL_TYPE_INT16, DL_FORMAT_SCALAR, 2, (void *) _course);
 389:/home/dino/paparazzi/var/include/messages.h **** 	  trans->put_bytes(trans->impl, dev, DL_TYPE_INT32, DL_FORMAT_SCALAR, 4, (void *) _alt);
 390:/home/dino/paparazzi/var/include/messages.h **** 	  trans->put_bytes(trans->impl, dev, DL_TYPE_UINT16, DL_FORMAT_SCALAR, 2, (void *) _speed);
 391:/home/dino/paparazzi/var/include/messages.h **** 	  trans->put_bytes(trans->impl, dev, DL_TYPE_INT16, DL_FORMAT_SCALAR, 2, (void *) _climb);
 392:/home/dino/paparazzi/var/include/messages.h **** 	  trans->put_bytes(trans->impl, dev, DL_TYPE_UINT16, DL_FORMAT_SCALAR, 2, (void *) _week);
 393:/home/dino/paparazzi/var/include/messages.h **** 	  trans->put_bytes(trans->impl, dev, DL_TYPE_UINT32, DL_FORMAT_SCALAR, 4, (void *) _itow);
 394:/home/dino/paparazzi/var/include/messages.h **** 	  trans->put_bytes(trans->impl, dev, DL_TYPE_UINT8, DL_FORMAT_SCALAR, 1, (void *) _utm_zone);
 395:/home/dino/paparazzi/var/include/messages.h **** 	  trans->put_bytes(trans->impl, dev, DL_TYPE_UINT8, DL_FORMAT_SCALAR, 1, (void *) _gps_nb_err);
 396:/home/dino/paparazzi/var/include/messages.h **** 	  trans->end_message(trans->impl, dev);
 397:/home/dino/paparazzi/var/include/messages.h **** 	} else
 398:/home/dino/paparazzi/var/include/messages.h **** 	  trans->overrun(trans->impl, dev);
 399:/home/dino/paparazzi/var/include/messages.h **** }
 400:/home/dino/paparazzi/var/include/messages.h **** 
 401:/home/dino/paparazzi/var/include/messages.h **** #define DOWNLINK_SEND_NAVIGATION_REF(_trans, _dev, utm_east, utm_north, utm_zone, ground_alt) pprz_
 402:/home/dino/paparazzi/var/include/messages.h **** static inline void pprz_msg_send_NAVIGATION_REF(struct transport_tx *trans, struct link_device *dev
 403:/home/dino/paparazzi/var/include/messages.h **** 	if (trans->check_available_space(trans->impl, dev, trans->size_of(trans->impl, 0+4+4+1+4 +2 /* msg
 404:/home/dino/paparazzi/var/include/messages.h **** 	  trans->count_bytes(trans->impl, dev, trans->size_of(trans->impl, 0+4+4+1+4 +2 /* msg header over
 405:/home/dino/paparazzi/var/include/messages.h **** 	  trans->start_message(trans->impl, dev, 0+4+4+1+4 +2 /* msg header overhead */);
 406:/home/dino/paparazzi/var/include/messages.h **** 	  trans->put_bytes(trans->impl, dev, DL_TYPE_UINT8, DL_FORMAT_SCALAR, 1, &ac_id);
 407:/home/dino/paparazzi/var/include/messages.h **** 	  trans->put_named_byte(trans->impl, dev, DL_TYPE_UINT8, DL_FORMAT_SCALAR, DL_NAVIGATION_REF, "NAV
 408:/home/dino/paparazzi/var/include/messages.h **** 	  trans->put_bytes(trans->impl, dev, DL_TYPE_INT32, DL_FORMAT_SCALAR, 4, (void *) _utm_east);
 409:/home/dino/paparazzi/var/include/messages.h **** 	  trans->put_bytes(trans->impl, dev, DL_TYPE_INT32, DL_FORMAT_SCALAR, 4, (void *) _utm_north);
 410:/home/dino/paparazzi/var/include/messages.h **** 	  trans->put_bytes(trans->impl, dev, DL_TYPE_UINT8, DL_FORMAT_SCALAR, 1, (void *) _utm_zone);
 411:/home/dino/paparazzi/var/include/messages.h **** 	  trans->put_bytes(trans->impl, dev, DL_TYPE_FLOAT, DL_FORMAT_SCALAR, 4, (void *) _ground_alt);
 412:/home/dino/paparazzi/var/include/messages.h **** 	  trans->end_message(trans->impl, dev);
 413:/home/dino/paparazzi/var/include/messages.h **** 	} else
 414:/home/dino/paparazzi/var/include/messages.h **** 	  trans->overrun(trans->impl, dev);
 415:/home/dino/paparazzi/var/include/messages.h **** }
 416:/home/dino/paparazzi/var/include/messages.h **** 
 417:/home/dino/paparazzi/var/include/messages.h **** #define DOWNLINK_SEND_NAVIGATION(_trans, _dev, cur_block, cur_stage, pos_x, pos_y, dist_wp, dist_ho
 418:/home/dino/paparazzi/var/include/messages.h **** static inline void pprz_msg_send_NAVIGATION(struct transport_tx *trans, struct link_device *dev, ui
 419:/home/dino/paparazzi/var/include/messages.h **** 	if (trans->check_available_space(trans->impl, dev, trans->size_of(trans->impl, 0+1+1+4+4+4+4+1+1 +
 420:/home/dino/paparazzi/var/include/messages.h **** 	  trans->count_bytes(trans->impl, dev, trans->size_of(trans->impl, 0+1+1+4+4+4+4+1+1 +2 /* msg hea
 421:/home/dino/paparazzi/var/include/messages.h **** 	  trans->start_message(trans->impl, dev, 0+1+1+4+4+4+4+1+1 +2 /* msg header overhead */);
 422:/home/dino/paparazzi/var/include/messages.h **** 	  trans->put_bytes(trans->impl, dev, DL_TYPE_UINT8, DL_FORMAT_SCALAR, 1, &ac_id);
 423:/home/dino/paparazzi/var/include/messages.h **** 	  trans->put_named_byte(trans->impl, dev, DL_TYPE_UINT8, DL_FORMAT_SCALAR, DL_NAVIGATION, "NAVIGAT
 424:/home/dino/paparazzi/var/include/messages.h **** 	  trans->put_bytes(trans->impl, dev, DL_TYPE_UINT8, DL_FORMAT_SCALAR, 1, (void *) _cur_block);
 425:/home/dino/paparazzi/var/include/messages.h **** 	  trans->put_bytes(trans->impl, dev, DL_TYPE_UINT8, DL_FORMAT_SCALAR, 1, (void *) _cur_stage);
 426:/home/dino/paparazzi/var/include/messages.h **** 	  trans->put_bytes(trans->impl, dev, DL_TYPE_FLOAT, DL_FORMAT_SCALAR, 4, (void *) _pos_x);
 427:/home/dino/paparazzi/var/include/messages.h **** 	  trans->put_bytes(trans->impl, dev, DL_TYPE_FLOAT, DL_FORMAT_SCALAR, 4, (void *) _pos_y);
 428:/home/dino/paparazzi/var/include/messages.h **** 	  trans->put_bytes(trans->impl, dev, DL_TYPE_FLOAT, DL_FORMAT_SCALAR, 4, (void *) _dist_wp);
 429:/home/dino/paparazzi/var/include/messages.h **** 	  trans->put_bytes(trans->impl, dev, DL_TYPE_FLOAT, DL_FORMAT_SCALAR, 4, (void *) _dist_home);
 430:/home/dino/paparazzi/var/include/messages.h **** 	  trans->put_bytes(trans->impl, dev, DL_TYPE_UINT8, DL_FORMAT_SCALAR, 1, (void *) _circle_count);
 431:/home/dino/paparazzi/var/include/messages.h **** 	  trans->put_bytes(trans->impl, dev, DL_TYPE_UINT8, DL_FORMAT_SCALAR, 1, (void *) _oval_count);
 432:/home/dino/paparazzi/var/include/messages.h **** 	  trans->end_message(trans->impl, dev);
 433:/home/dino/paparazzi/var/include/messages.h **** 	} else
 434:/home/dino/paparazzi/var/include/messages.h **** 	  trans->overrun(trans->impl, dev);
 435:/home/dino/paparazzi/var/include/messages.h **** }
 436:/home/dino/paparazzi/var/include/messages.h **** 
 437:/home/dino/paparazzi/var/include/messages.h **** #define DOWNLINK_SEND_PPRZ_MODE(_trans, _dev, ap_mode, ap_gaz, ap_lateral, ap_horizontal, if_calib_
 438:/home/dino/paparazzi/var/include/messages.h **** static inline void pprz_msg_send_PPRZ_MODE(struct transport_tx *trans, struct link_device *dev, uin
 439:/home/dino/paparazzi/var/include/messages.h **** 	if (trans->check_available_space(trans->impl, dev, trans->size_of(trans->impl, 0+1+1+1+1+1+1 +2 /*
 440:/home/dino/paparazzi/var/include/messages.h **** 	  trans->count_bytes(trans->impl, dev, trans->size_of(trans->impl, 0+1+1+1+1+1+1 +2 /* msg header 
 441:/home/dino/paparazzi/var/include/messages.h **** 	  trans->start_message(trans->impl, dev, 0+1+1+1+1+1+1 +2 /* msg header overhead */);
 442:/home/dino/paparazzi/var/include/messages.h **** 	  trans->put_bytes(trans->impl, dev, DL_TYPE_UINT8, DL_FORMAT_SCALAR, 1, &ac_id);
 443:/home/dino/paparazzi/var/include/messages.h **** 	  trans->put_named_byte(trans->impl, dev, DL_TYPE_UINT8, DL_FORMAT_SCALAR, DL_PPRZ_MODE, "PPRZ_MOD
 444:/home/dino/paparazzi/var/include/messages.h **** 	  trans->put_bytes(trans->impl, dev, DL_TYPE_UINT8, DL_FORMAT_SCALAR, 1, (void *) _ap_mode);
 445:/home/dino/paparazzi/var/include/messages.h **** 	  trans->put_bytes(trans->impl, dev, DL_TYPE_UINT8, DL_FORMAT_SCALAR, 1, (void *) _ap_gaz);
 446:/home/dino/paparazzi/var/include/messages.h **** 	  trans->put_bytes(trans->impl, dev, DL_TYPE_UINT8, DL_FORMAT_SCALAR, 1, (void *) _ap_lateral);
 447:/home/dino/paparazzi/var/include/messages.h **** 	  trans->put_bytes(trans->impl, dev, DL_TYPE_UINT8, DL_FORMAT_SCALAR, 1, (void *) _ap_horizontal);
 448:/home/dino/paparazzi/var/include/messages.h **** 	  trans->put_bytes(trans->impl, dev, DL_TYPE_UINT8, DL_FORMAT_SCALAR, 1, (void *) _if_calib_mode);
 449:/home/dino/paparazzi/var/include/messages.h **** 	  trans->put_bytes(trans->impl, dev, DL_TYPE_UINT8, DL_FORMAT_SCALAR, 1, (void *) _mcu1_status);
 450:/home/dino/paparazzi/var/include/messages.h **** 	  trans->end_message(trans->impl, dev);
 451:/home/dino/paparazzi/var/include/messages.h **** 	} else
 452:/home/dino/paparazzi/var/include/messages.h **** 	  trans->overrun(trans->impl, dev);
 453:/home/dino/paparazzi/var/include/messages.h **** }
 454:/home/dino/paparazzi/var/include/messages.h **** 
 455:/home/dino/paparazzi/var/include/messages.h **** #define DOWNLINK_SEND_BAT(_trans, _dev, throttle, voltage, amps, flight_time, kill_auto_throttle, b
 456:/home/dino/paparazzi/var/include/messages.h **** static inline void pprz_msg_send_BAT(struct transport_tx *trans, struct link_device *dev, uint8_t a
 457:/home/dino/paparazzi/var/include/messages.h **** 	if (trans->check_available_space(trans->impl, dev, trans->size_of(trans->impl, 0+2+2+2+2+1+2+2+2 +
 458:/home/dino/paparazzi/var/include/messages.h **** 	  trans->count_bytes(trans->impl, dev, trans->size_of(trans->impl, 0+2+2+2+2+1+2+2+2 +2 /* msg hea
 459:/home/dino/paparazzi/var/include/messages.h **** 	  trans->start_message(trans->impl, dev, 0+2+2+2+2+1+2+2+2 +2 /* msg header overhead */);
 460:/home/dino/paparazzi/var/include/messages.h **** 	  trans->put_bytes(trans->impl, dev, DL_TYPE_UINT8, DL_FORMAT_SCALAR, 1, &ac_id);
 461:/home/dino/paparazzi/var/include/messages.h **** 	  trans->put_named_byte(trans->impl, dev, DL_TYPE_UINT8, DL_FORMAT_SCALAR, DL_BAT, "BAT");
 462:/home/dino/paparazzi/var/include/messages.h **** 	  trans->put_bytes(trans->impl, dev, DL_TYPE_INT16, DL_FORMAT_SCALAR, 2, (void *) _throttle);
 463:/home/dino/paparazzi/var/include/messages.h **** 	  trans->put_bytes(trans->impl, dev, DL_TYPE_UINT16, DL_FORMAT_SCALAR, 2, (void *) _voltage);
 464:/home/dino/paparazzi/var/include/messages.h **** 	  trans->put_bytes(trans->impl, dev, DL_TYPE_INT16, DL_FORMAT_SCALAR, 2, (void *) _amps);
 465:/home/dino/paparazzi/var/include/messages.h **** 	  trans->put_bytes(trans->impl, dev, DL_TYPE_UINT16, DL_FORMAT_SCALAR, 2, (void *) _flight_time);
 466:/home/dino/paparazzi/var/include/messages.h **** 	  trans->put_bytes(trans->impl, dev, DL_TYPE_UINT8, DL_FORMAT_SCALAR, 1, (void *) _kill_auto_throt
 467:/home/dino/paparazzi/var/include/messages.h **** 	  trans->put_bytes(trans->impl, dev, DL_TYPE_UINT16, DL_FORMAT_SCALAR, 2, (void *) _block_time);
 468:/home/dino/paparazzi/var/include/messages.h **** 	  trans->put_bytes(trans->impl, dev, DL_TYPE_UINT16, DL_FORMAT_SCALAR, 2, (void *) _stage_time);
 469:/home/dino/paparazzi/var/include/messages.h **** 	  trans->put_bytes(trans->impl, dev, DL_TYPE_INT16, DL_FORMAT_SCALAR, 2, (void *) _energy);
 470:/home/dino/paparazzi/var/include/messages.h **** 	  trans->end_message(trans->impl, dev);
 471:/home/dino/paparazzi/var/include/messages.h **** 	} else
 472:/home/dino/paparazzi/var/include/messages.h **** 	  trans->overrun(trans->impl, dev);
 473:/home/dino/paparazzi/var/include/messages.h **** }
 474:/home/dino/paparazzi/var/include/messages.h **** 
 475:/home/dino/paparazzi/var/include/messages.h **** #define DOWNLINK_SEND_DEBUG_MCU_LINK(_trans, _dev, i2c_nb_err, i2c_mcu1_nb_err, ppm_rate) pprz_msg_
 476:/home/dino/paparazzi/var/include/messages.h **** static inline void pprz_msg_send_DEBUG_MCU_LINK(struct transport_tx *trans, struct link_device *dev
 477:/home/dino/paparazzi/var/include/messages.h **** 	if (trans->check_available_space(trans->impl, dev, trans->size_of(trans->impl, 0+1+1+1 +2 /* msg h
 478:/home/dino/paparazzi/var/include/messages.h **** 	  trans->count_bytes(trans->impl, dev, trans->size_of(trans->impl, 0+1+1+1 +2 /* msg header overhe
 479:/home/dino/paparazzi/var/include/messages.h **** 	  trans->start_message(trans->impl, dev, 0+1+1+1 +2 /* msg header overhead */);
 480:/home/dino/paparazzi/var/include/messages.h **** 	  trans->put_bytes(trans->impl, dev, DL_TYPE_UINT8, DL_FORMAT_SCALAR, 1, &ac_id);
 481:/home/dino/paparazzi/var/include/messages.h **** 	  trans->put_named_byte(trans->impl, dev, DL_TYPE_UINT8, DL_FORMAT_SCALAR, DL_DEBUG_MCU_LINK, "DEB
 482:/home/dino/paparazzi/var/include/messages.h **** 	  trans->put_bytes(trans->impl, dev, DL_TYPE_UINT8, DL_FORMAT_SCALAR, 1, (void *) _i2c_nb_err);
 483:/home/dino/paparazzi/var/include/messages.h **** 	  trans->put_bytes(trans->impl, dev, DL_TYPE_UINT8, DL_FORMAT_SCALAR, 1, (void *) _i2c_mcu1_nb_err
 484:/home/dino/paparazzi/var/include/messages.h **** 	  trans->put_bytes(trans->impl, dev, DL_TYPE_UINT8, DL_FORMAT_SCALAR, 1, (void *) _ppm_rate);
 485:/home/dino/paparazzi/var/include/messages.h **** 	  trans->end_message(trans->impl, dev);
 486:/home/dino/paparazzi/var/include/messages.h **** 	} else
 487:/home/dino/paparazzi/var/include/messages.h **** 	  trans->overrun(trans->impl, dev);
 488:/home/dino/paparazzi/var/include/messages.h **** }
 489:/home/dino/paparazzi/var/include/messages.h **** 
 490:/home/dino/paparazzi/var/include/messages.h **** #define DOWNLINK_SEND_CALIBRATION(_trans, _dev, climb_sum_err, climb_gaz_submode) pprz_msg_send_CAL
 491:/home/dino/paparazzi/var/include/messages.h **** static inline void pprz_msg_send_CALIBRATION(struct transport_tx *trans, struct link_device *dev, u
 492:/home/dino/paparazzi/var/include/messages.h **** 	if (trans->check_available_space(trans->impl, dev, trans->size_of(trans->impl, 0+4+1 +2 /* msg hea
 493:/home/dino/paparazzi/var/include/messages.h **** 	  trans->count_bytes(trans->impl, dev, trans->size_of(trans->impl, 0+4+1 +2 /* msg header overhead
 494:/home/dino/paparazzi/var/include/messages.h **** 	  trans->start_message(trans->impl, dev, 0+4+1 +2 /* msg header overhead */);
 495:/home/dino/paparazzi/var/include/messages.h **** 	  trans->put_bytes(trans->impl, dev, DL_TYPE_UINT8, DL_FORMAT_SCALAR, 1, &ac_id);
 496:/home/dino/paparazzi/var/include/messages.h **** 	  trans->put_named_byte(trans->impl, dev, DL_TYPE_UINT8, DL_FORMAT_SCALAR, DL_CALIBRATION, "CALIBR
 497:/home/dino/paparazzi/var/include/messages.h **** 	  trans->put_bytes(trans->impl, dev, DL_TYPE_FLOAT, DL_FORMAT_SCALAR, 4, (void *) _climb_sum_err);
 498:/home/dino/paparazzi/var/include/messages.h **** 	  trans->put_bytes(trans->impl, dev, DL_TYPE_UINT8, DL_FORMAT_SCALAR, 1, (void *) _climb_gaz_submo
 499:/home/dino/paparazzi/var/include/messages.h **** 	  trans->end_message(trans->impl, dev);
 500:/home/dino/paparazzi/var/include/messages.h **** 	} else
 501:/home/dino/paparazzi/var/include/messages.h **** 	  trans->overrun(trans->impl, dev);
 502:/home/dino/paparazzi/var/include/messages.h **** }
 503:/home/dino/paparazzi/var/include/messages.h **** 
 504:/home/dino/paparazzi/var/include/messages.h **** #define DOWNLINK_SEND_SETTINGS(_trans, _dev, slider_1_val, slider_2_val) pprz_msg_send_SETTINGS(&((
 505:/home/dino/paparazzi/var/include/messages.h **** static inline void pprz_msg_send_SETTINGS(struct transport_tx *trans, struct link_device *dev, uint
 506:/home/dino/paparazzi/var/include/messages.h **** 	if (trans->check_available_space(trans->impl, dev, trans->size_of(trans->impl, 0+4+4 +2 /* msg hea
 507:/home/dino/paparazzi/var/include/messages.h **** 	  trans->count_bytes(trans->impl, dev, trans->size_of(trans->impl, 0+4+4 +2 /* msg header overhead
 508:/home/dino/paparazzi/var/include/messages.h **** 	  trans->start_message(trans->impl, dev, 0+4+4 +2 /* msg header overhead */);
 509:/home/dino/paparazzi/var/include/messages.h **** 	  trans->put_bytes(trans->impl, dev, DL_TYPE_UINT8, DL_FORMAT_SCALAR, 1, &ac_id);
 510:/home/dino/paparazzi/var/include/messages.h **** 	  trans->put_named_byte(trans->impl, dev, DL_TYPE_UINT8, DL_FORMAT_SCALAR, DL_SETTINGS, "SETTINGS"
 511:/home/dino/paparazzi/var/include/messages.h **** 	  trans->put_bytes(trans->impl, dev, DL_TYPE_FLOAT, DL_FORMAT_SCALAR, 4, (void *) _slider_1_val);
 512:/home/dino/paparazzi/var/include/messages.h **** 	  trans->put_bytes(trans->impl, dev, DL_TYPE_FLOAT, DL_FORMAT_SCALAR, 4, (void *) _slider_2_val);
 513:/home/dino/paparazzi/var/include/messages.h **** 	  trans->end_message(trans->impl, dev);
 514:/home/dino/paparazzi/var/include/messages.h **** 	} else
 515:/home/dino/paparazzi/var/include/messages.h **** 	  trans->overrun(trans->impl, dev);
 516:/home/dino/paparazzi/var/include/messages.h **** }
 517:/home/dino/paparazzi/var/include/messages.h **** 
 518:/home/dino/paparazzi/var/include/messages.h **** #define DOWNLINK_SEND_DESIRED(_trans, _dev, roll, pitch, course, x, y, altitude, climb, airspeed) p
 519:/home/dino/paparazzi/var/include/messages.h **** static inline void pprz_msg_send_DESIRED(struct transport_tx *trans, struct link_device *dev, uint8
 520:/home/dino/paparazzi/var/include/messages.h **** 	if (trans->check_available_space(trans->impl, dev, trans->size_of(trans->impl, 0+4+4+4+4+4+4+4+4 +
 521:/home/dino/paparazzi/var/include/messages.h **** 	  trans->count_bytes(trans->impl, dev, trans->size_of(trans->impl, 0+4+4+4+4+4+4+4+4 +2 /* msg hea
 522:/home/dino/paparazzi/var/include/messages.h **** 	  trans->start_message(trans->impl, dev, 0+4+4+4+4+4+4+4+4 +2 /* msg header overhead */);
 523:/home/dino/paparazzi/var/include/messages.h **** 	  trans->put_bytes(trans->impl, dev, DL_TYPE_UINT8, DL_FORMAT_SCALAR, 1, &ac_id);
 524:/home/dino/paparazzi/var/include/messages.h **** 	  trans->put_named_byte(trans->impl, dev, DL_TYPE_UINT8, DL_FORMAT_SCALAR, DL_DESIRED, "DESIRED");
 525:/home/dino/paparazzi/var/include/messages.h **** 	  trans->put_bytes(trans->impl, dev, DL_TYPE_FLOAT, DL_FORMAT_SCALAR, 4, (void *) _roll);
 526:/home/dino/paparazzi/var/include/messages.h **** 	  trans->put_bytes(trans->impl, dev, DL_TYPE_FLOAT, DL_FORMAT_SCALAR, 4, (void *) _pitch);
 527:/home/dino/paparazzi/var/include/messages.h **** 	  trans->put_bytes(trans->impl, dev, DL_TYPE_FLOAT, DL_FORMAT_SCALAR, 4, (void *) _course);
 528:/home/dino/paparazzi/var/include/messages.h **** 	  trans->put_bytes(trans->impl, dev, DL_TYPE_FLOAT, DL_FORMAT_SCALAR, 4, (void *) _x);
 529:/home/dino/paparazzi/var/include/messages.h **** 	  trans->put_bytes(trans->impl, dev, DL_TYPE_FLOAT, DL_FORMAT_SCALAR, 4, (void *) _y);
 530:/home/dino/paparazzi/var/include/messages.h **** 	  trans->put_bytes(trans->impl, dev, DL_TYPE_FLOAT, DL_FORMAT_SCALAR, 4, (void *) _altitude);
 531:/home/dino/paparazzi/var/include/messages.h **** 	  trans->put_bytes(trans->impl, dev, DL_TYPE_FLOAT, DL_FORMAT_SCALAR, 4, (void *) _climb);
 532:/home/dino/paparazzi/var/include/messages.h **** 	  trans->put_bytes(trans->impl, dev, DL_TYPE_FLOAT, DL_FORMAT_SCALAR, 4, (void *) _airspeed);
 533:/home/dino/paparazzi/var/include/messages.h **** 	  trans->end_message(trans->impl, dev);
 534:/home/dino/paparazzi/var/include/messages.h **** 	} else
 535:/home/dino/paparazzi/var/include/messages.h **** 	  trans->overrun(trans->impl, dev);
 536:/home/dino/paparazzi/var/include/messages.h **** }
 537:/home/dino/paparazzi/var/include/messages.h **** 
 538:/home/dino/paparazzi/var/include/messages.h **** #define DOWNLINK_SEND_GPS_SOL(_trans, _dev, Pacc, Sacc, PDOP, numSV) pprz_msg_send_GPS_SOL(&((_tran
 539:/home/dino/paparazzi/var/include/messages.h **** static inline void pprz_msg_send_GPS_SOL(struct transport_tx *trans, struct link_device *dev, uint8
 540:/home/dino/paparazzi/var/include/messages.h **** 	if (trans->check_available_space(trans->impl, dev, trans->size_of(trans->impl, 0+4+4+2+1 +2 /* msg
 541:/home/dino/paparazzi/var/include/messages.h **** 	  trans->count_bytes(trans->impl, dev, trans->size_of(trans->impl, 0+4+4+2+1 +2 /* msg header over
 542:/home/dino/paparazzi/var/include/messages.h **** 	  trans->start_message(trans->impl, dev, 0+4+4+2+1 +2 /* msg header overhead */);
 543:/home/dino/paparazzi/var/include/messages.h **** 	  trans->put_bytes(trans->impl, dev, DL_TYPE_UINT8, DL_FORMAT_SCALAR, 1, &ac_id);
 544:/home/dino/paparazzi/var/include/messages.h **** 	  trans->put_named_byte(trans->impl, dev, DL_TYPE_UINT8, DL_FORMAT_SCALAR, DL_GPS_SOL, "GPS_SOL");
 545:/home/dino/paparazzi/var/include/messages.h **** 	  trans->put_bytes(trans->impl, dev, DL_TYPE_UINT32, DL_FORMAT_SCALAR, 4, (void *) _Pacc);
 546:/home/dino/paparazzi/var/include/messages.h **** 	  trans->put_bytes(trans->impl, dev, DL_TYPE_UINT32, DL_FORMAT_SCALAR, 4, (void *) _Sacc);
 547:/home/dino/paparazzi/var/include/messages.h **** 	  trans->put_bytes(trans->impl, dev, DL_TYPE_UINT16, DL_FORMAT_SCALAR, 2, (void *) _PDOP);
 548:/home/dino/paparazzi/var/include/messages.h **** 	  trans->put_bytes(trans->impl, dev, DL_TYPE_UINT8, DL_FORMAT_SCALAR, 1, (void *) _numSV);
 549:/home/dino/paparazzi/var/include/messages.h **** 	  trans->end_message(trans->impl, dev);
 550:/home/dino/paparazzi/var/include/messages.h **** 	} else
 551:/home/dino/paparazzi/var/include/messages.h **** 	  trans->overrun(trans->impl, dev);
 552:/home/dino/paparazzi/var/include/messages.h **** }
 553:/home/dino/paparazzi/var/include/messages.h **** 
 554:/home/dino/paparazzi/var/include/messages.h **** #define DOWNLINK_SEND_ADC_GENERIC(_trans, _dev, val1, val2) pprz_msg_send_ADC_GENERIC(&((_trans).tr
 555:/home/dino/paparazzi/var/include/messages.h **** static inline void pprz_msg_send_ADC_GENERIC(struct transport_tx *trans, struct link_device *dev, u
 556:/home/dino/paparazzi/var/include/messages.h **** 	if (trans->check_available_space(trans->impl, dev, trans->size_of(trans->impl, 0+2+2 +2 /* msg hea
 557:/home/dino/paparazzi/var/include/messages.h **** 	  trans->count_bytes(trans->impl, dev, trans->size_of(trans->impl, 0+2+2 +2 /* msg header overhead
 558:/home/dino/paparazzi/var/include/messages.h **** 	  trans->start_message(trans->impl, dev, 0+2+2 +2 /* msg header overhead */);
 559:/home/dino/paparazzi/var/include/messages.h **** 	  trans->put_bytes(trans->impl, dev, DL_TYPE_UINT8, DL_FORMAT_SCALAR, 1, &ac_id);
 560:/home/dino/paparazzi/var/include/messages.h **** 	  trans->put_named_byte(trans->impl, dev, DL_TYPE_UINT8, DL_FORMAT_SCALAR, DL_ADC_GENERIC, "ADC_GE
 561:/home/dino/paparazzi/var/include/messages.h **** 	  trans->put_bytes(trans->impl, dev, DL_TYPE_UINT16, DL_FORMAT_SCALAR, 2, (void *) _val1);
 562:/home/dino/paparazzi/var/include/messages.h **** 	  trans->put_bytes(trans->impl, dev, DL_TYPE_UINT16, DL_FORMAT_SCALAR, 2, (void *) _val2);
 563:/home/dino/paparazzi/var/include/messages.h **** 	  trans->end_message(trans->impl, dev);
 564:/home/dino/paparazzi/var/include/messages.h **** 	} else
 565:/home/dino/paparazzi/var/include/messages.h **** 	  trans->overrun(trans->impl, dev);
 566:/home/dino/paparazzi/var/include/messages.h **** }
 567:/home/dino/paparazzi/var/include/messages.h **** 
 568:/home/dino/paparazzi/var/include/messages.h **** #define DOWNLINK_SEND_TEST_FORMAT(_trans, _dev, val1, val2) pprz_msg_send_TEST_FORMAT(&((_trans).tr
 569:/home/dino/paparazzi/var/include/messages.h **** static inline void pprz_msg_send_TEST_FORMAT(struct transport_tx *trans, struct link_device *dev, u
 570:/home/dino/paparazzi/var/include/messages.h **** 	if (trans->check_available_space(trans->impl, dev, trans->size_of(trans->impl, 0+8+4 +2 /* msg hea
 571:/home/dino/paparazzi/var/include/messages.h **** 	  trans->count_bytes(trans->impl, dev, trans->size_of(trans->impl, 0+8+4 +2 /* msg header overhead
 572:/home/dino/paparazzi/var/include/messages.h **** 	  trans->start_message(trans->impl, dev, 0+8+4 +2 /* msg header overhead */);
 573:/home/dino/paparazzi/var/include/messages.h **** 	  trans->put_bytes(trans->impl, dev, DL_TYPE_UINT8, DL_FORMAT_SCALAR, 1, &ac_id);
 574:/home/dino/paparazzi/var/include/messages.h **** 	  trans->put_named_byte(trans->impl, dev, DL_TYPE_UINT8, DL_FORMAT_SCALAR, DL_TEST_FORMAT, "TEST_F
 575:/home/dino/paparazzi/var/include/messages.h **** 	  trans->put_bytes(trans->impl, dev, DL_TYPE_DOUBLE, DL_FORMAT_SCALAR, 8, (void *) _val1);
 576:/home/dino/paparazzi/var/include/messages.h **** 	  trans->put_bytes(trans->impl, dev, DL_TYPE_FLOAT, DL_FORMAT_SCALAR, 4, (void *) _val2);
 577:/home/dino/paparazzi/var/include/messages.h **** 	  trans->end_message(trans->impl, dev);
 578:/home/dino/paparazzi/var/include/messages.h **** 	} else
 579:/home/dino/paparazzi/var/include/messages.h **** 	  trans->overrun(trans->impl, dev);
 580:/home/dino/paparazzi/var/include/messages.h **** }
 581:/home/dino/paparazzi/var/include/messages.h **** 
 582:/home/dino/paparazzi/var/include/messages.h **** #define DOWNLINK_SEND_CAM(_trans, _dev, phi, theta, target_x, target_y) pprz_msg_send_CAM(&((_trans
 583:/home/dino/paparazzi/var/include/messages.h **** static inline void pprz_msg_send_CAM(struct transport_tx *trans, struct link_device *dev, uint8_t a
 584:/home/dino/paparazzi/var/include/messages.h **** 	if (trans->check_available_space(trans->impl, dev, trans->size_of(trans->impl, 0+2+2+2+2 +2 /* msg
 585:/home/dino/paparazzi/var/include/messages.h **** 	  trans->count_bytes(trans->impl, dev, trans->size_of(trans->impl, 0+2+2+2+2 +2 /* msg header over
 586:/home/dino/paparazzi/var/include/messages.h **** 	  trans->start_message(trans->impl, dev, 0+2+2+2+2 +2 /* msg header overhead */);
 587:/home/dino/paparazzi/var/include/messages.h **** 	  trans->put_bytes(trans->impl, dev, DL_TYPE_UINT8, DL_FORMAT_SCALAR, 1, &ac_id);
 588:/home/dino/paparazzi/var/include/messages.h **** 	  trans->put_named_byte(trans->impl, dev, DL_TYPE_UINT8, DL_FORMAT_SCALAR, DL_CAM, "CAM");
 589:/home/dino/paparazzi/var/include/messages.h **** 	  trans->put_bytes(trans->impl, dev, DL_TYPE_INT16, DL_FORMAT_SCALAR, 2, (void *) _phi);
 590:/home/dino/paparazzi/var/include/messages.h **** 	  trans->put_bytes(trans->impl, dev, DL_TYPE_INT16, DL_FORMAT_SCALAR, 2, (void *) _theta);
 591:/home/dino/paparazzi/var/include/messages.h **** 	  trans->put_bytes(trans->impl, dev, DL_TYPE_INT16, DL_FORMAT_SCALAR, 2, (void *) _target_x);
 592:/home/dino/paparazzi/var/include/messages.h **** 	  trans->put_bytes(trans->impl, dev, DL_TYPE_INT16, DL_FORMAT_SCALAR, 2, (void *) _target_y);
 593:/home/dino/paparazzi/var/include/messages.h **** 	  trans->end_message(trans->impl, dev);
 594:/home/dino/paparazzi/var/include/messages.h **** 	} else
 595:/home/dino/paparazzi/var/include/messages.h **** 	  trans->overrun(trans->impl, dev);
 596:/home/dino/paparazzi/var/include/messages.h **** }
 597:/home/dino/paparazzi/var/include/messages.h **** 
 598:/home/dino/paparazzi/var/include/messages.h **** #define DOWNLINK_SEND_CIRCLE(_trans, _dev, center_east, center_north, radius) pprz_msg_send_CIRCLE(
 599:/home/dino/paparazzi/var/include/messages.h **** static inline void pprz_msg_send_CIRCLE(struct transport_tx *trans, struct link_device *dev, uint8_
 600:/home/dino/paparazzi/var/include/messages.h **** 	if (trans->check_available_space(trans->impl, dev, trans->size_of(trans->impl, 0+4+4+4 +2 /* msg h
 601:/home/dino/paparazzi/var/include/messages.h **** 	  trans->count_bytes(trans->impl, dev, trans->size_of(trans->impl, 0+4+4+4 +2 /* msg header overhe
 602:/home/dino/paparazzi/var/include/messages.h **** 	  trans->start_message(trans->impl, dev, 0+4+4+4 +2 /* msg header overhead */);
 603:/home/dino/paparazzi/var/include/messages.h **** 	  trans->put_bytes(trans->impl, dev, DL_TYPE_UINT8, DL_FORMAT_SCALAR, 1, &ac_id);
 604:/home/dino/paparazzi/var/include/messages.h **** 	  trans->put_named_byte(trans->impl, dev, DL_TYPE_UINT8, DL_FORMAT_SCALAR, DL_CIRCLE, "CIRCLE");
 605:/home/dino/paparazzi/var/include/messages.h **** 	  trans->put_bytes(trans->impl, dev, DL_TYPE_FLOAT, DL_FORMAT_SCALAR, 4, (void *) _center_east);
 606:/home/dino/paparazzi/var/include/messages.h **** 	  trans->put_bytes(trans->impl, dev, DL_TYPE_FLOAT, DL_FORMAT_SCALAR, 4, (void *) _center_north);
 607:/home/dino/paparazzi/var/include/messages.h **** 	  trans->put_bytes(trans->impl, dev, DL_TYPE_FLOAT, DL_FORMAT_SCALAR, 4, (void *) _radius);
 608:/home/dino/paparazzi/var/include/messages.h **** 	  trans->end_message(trans->impl, dev);
 609:/home/dino/paparazzi/var/include/messages.h **** 	} else
 610:/home/dino/paparazzi/var/include/messages.h **** 	  trans->overrun(trans->impl, dev);
 611:/home/dino/paparazzi/var/include/messages.h **** }
 612:/home/dino/paparazzi/var/include/messages.h **** 
 613:/home/dino/paparazzi/var/include/messages.h **** #define DOWNLINK_SEND_SEGMENT(_trans, _dev, segment_east_1, segment_north_1, segment_east_2, segmen
 614:/home/dino/paparazzi/var/include/messages.h **** static inline void pprz_msg_send_SEGMENT(struct transport_tx *trans, struct link_device *dev, uint8
 615:/home/dino/paparazzi/var/include/messages.h **** 	if (trans->check_available_space(trans->impl, dev, trans->size_of(trans->impl, 0+4+4+4+4 +2 /* msg
 616:/home/dino/paparazzi/var/include/messages.h **** 	  trans->count_bytes(trans->impl, dev, trans->size_of(trans->impl, 0+4+4+4+4 +2 /* msg header over
 617:/home/dino/paparazzi/var/include/messages.h **** 	  trans->start_message(trans->impl, dev, 0+4+4+4+4 +2 /* msg header overhead */);
 618:/home/dino/paparazzi/var/include/messages.h **** 	  trans->put_bytes(trans->impl, dev, DL_TYPE_UINT8, DL_FORMAT_SCALAR, 1, &ac_id);
 619:/home/dino/paparazzi/var/include/messages.h **** 	  trans->put_named_byte(trans->impl, dev, DL_TYPE_UINT8, DL_FORMAT_SCALAR, DL_SEGMENT, "SEGMENT");
 620:/home/dino/paparazzi/var/include/messages.h **** 	  trans->put_bytes(trans->impl, dev, DL_TYPE_FLOAT, DL_FORMAT_SCALAR, 4, (void *) _segment_east_1)
 621:/home/dino/paparazzi/var/include/messages.h **** 	  trans->put_bytes(trans->impl, dev, DL_TYPE_FLOAT, DL_FORMAT_SCALAR, 4, (void *) _segment_north_1
 622:/home/dino/paparazzi/var/include/messages.h **** 	  trans->put_bytes(trans->impl, dev, DL_TYPE_FLOAT, DL_FORMAT_SCALAR, 4, (void *) _segment_east_2)
 623:/home/dino/paparazzi/var/include/messages.h **** 	  trans->put_bytes(trans->impl, dev, DL_TYPE_FLOAT, DL_FORMAT_SCALAR, 4, (void *) _segment_north_2
 624:/home/dino/paparazzi/var/include/messages.h **** 	  trans->end_message(trans->impl, dev);
 625:/home/dino/paparazzi/var/include/messages.h **** 	} else
 626:/home/dino/paparazzi/var/include/messages.h **** 	  trans->overrun(trans->impl, dev);
 627:/home/dino/paparazzi/var/include/messages.h **** }
 628:/home/dino/paparazzi/var/include/messages.h **** 
 629:/home/dino/paparazzi/var/include/messages.h **** #define DOWNLINK_SEND_SVINFO(_trans, _dev, chn, SVID, Flags, QI, CNO, Elev, Azim) pprz_msg_send_SVI
 630:/home/dino/paparazzi/var/include/messages.h **** static inline void pprz_msg_send_SVINFO(struct transport_tx *trans, struct link_device *dev, uint8_
 631:/home/dino/paparazzi/var/include/messages.h **** 	if (trans->check_available_space(trans->impl, dev, trans->size_of(trans->impl, 0+1+1+1+1+1+1+2 +2 
 632:/home/dino/paparazzi/var/include/messages.h **** 	  trans->count_bytes(trans->impl, dev, trans->size_of(trans->impl, 0+1+1+1+1+1+1+2 +2 /* msg heade
 633:/home/dino/paparazzi/var/include/messages.h **** 	  trans->start_message(trans->impl, dev, 0+1+1+1+1+1+1+2 +2 /* msg header overhead */);
 634:/home/dino/paparazzi/var/include/messages.h **** 	  trans->put_bytes(trans->impl, dev, DL_TYPE_UINT8, DL_FORMAT_SCALAR, 1, &ac_id);
 635:/home/dino/paparazzi/var/include/messages.h **** 	  trans->put_named_byte(trans->impl, dev, DL_TYPE_UINT8, DL_FORMAT_SCALAR, DL_SVINFO, "SVINFO");
 636:/home/dino/paparazzi/var/include/messages.h **** 	  trans->put_bytes(trans->impl, dev, DL_TYPE_UINT8, DL_FORMAT_SCALAR, 1, (void *) _chn);
 637:/home/dino/paparazzi/var/include/messages.h **** 	  trans->put_bytes(trans->impl, dev, DL_TYPE_UINT8, DL_FORMAT_SCALAR, 1, (void *) _SVID);
 638:/home/dino/paparazzi/var/include/messages.h **** 	  trans->put_bytes(trans->impl, dev, DL_TYPE_UINT8, DL_FORMAT_SCALAR, 1, (void *) _Flags);
 639:/home/dino/paparazzi/var/include/messages.h **** 	  trans->put_bytes(trans->impl, dev, DL_TYPE_UINT8, DL_FORMAT_SCALAR, 1, (void *) _QI);
 640:/home/dino/paparazzi/var/include/messages.h **** 	  trans->put_bytes(trans->impl, dev, DL_TYPE_UINT8, DL_FORMAT_SCALAR, 1, (void *) _CNO);
 641:/home/dino/paparazzi/var/include/messages.h **** 	  trans->put_bytes(trans->impl, dev, DL_TYPE_INT8, DL_FORMAT_SCALAR, 1, (void *) _Elev);
 642:/home/dino/paparazzi/var/include/messages.h **** 	  trans->put_bytes(trans->impl, dev, DL_TYPE_INT16, DL_FORMAT_SCALAR, 2, (void *) _Azim);
 643:/home/dino/paparazzi/var/include/messages.h **** 	  trans->end_message(trans->impl, dev);
 644:/home/dino/paparazzi/var/include/messages.h **** 	} else
 645:/home/dino/paparazzi/var/include/messages.h **** 	  trans->overrun(trans->impl, dev);
 646:/home/dino/paparazzi/var/include/messages.h **** }
 647:/home/dino/paparazzi/var/include/messages.h **** 
 648:/home/dino/paparazzi/var/include/messages.h **** #define DOWNLINK_SEND_DEBUG(_trans, _dev, nb_msg, msg) pprz_msg_send_DEBUG(&((_trans).trans_tx), &(
 649:/home/dino/paparazzi/var/include/messages.h **** static inline void pprz_msg_send_DEBUG(struct transport_tx *trans, struct link_device *dev, uint8_t
 650:/home/dino/paparazzi/var/include/messages.h **** 	if (trans->check_available_space(trans->impl, dev, trans->size_of(trans->impl, 0+1+nb_msg*1 +2 /* 
 651:/home/dino/paparazzi/var/include/messages.h **** 	  trans->count_bytes(trans->impl, dev, trans->size_of(trans->impl, 0+1+nb_msg*1 +2 /* msg header o
 652:/home/dino/paparazzi/var/include/messages.h **** 	  trans->start_message(trans->impl, dev, 0+1+nb_msg*1 +2 /* msg header overhead */);
 653:/home/dino/paparazzi/var/include/messages.h **** 	  trans->put_bytes(trans->impl, dev, DL_TYPE_UINT8, DL_FORMAT_SCALAR, 1, &ac_id);
 654:/home/dino/paparazzi/var/include/messages.h **** 	  trans->put_named_byte(trans->impl, dev, DL_TYPE_UINT8, DL_FORMAT_SCALAR, DL_DEBUG, "DEBUG");
 655:/home/dino/paparazzi/var/include/messages.h **** 	  trans->put_bytes(trans->impl, dev, DL_TYPE_ARRAY_LENGTH, DL_FORMAT_SCALAR, 1, (void *) &nb_msg);
 656:/home/dino/paparazzi/var/include/messages.h **** 	  trans->put_bytes(trans->impl, dev, DL_TYPE_UINT8, DL_FORMAT_ARRAY, 1 * nb_msg, (void *) _msg);
 657:/home/dino/paparazzi/var/include/messages.h **** 	  trans->end_message(trans->impl, dev);
 658:/home/dino/paparazzi/var/include/messages.h **** 	} else
 659:/home/dino/paparazzi/var/include/messages.h **** 	  trans->overrun(trans->impl, dev);
 660:/home/dino/paparazzi/var/include/messages.h **** }
 661:/home/dino/paparazzi/var/include/messages.h **** 
 662:/home/dino/paparazzi/var/include/messages.h **** #define DOWNLINK_SEND_SURVEY(_trans, _dev, east, north, west, south) pprz_msg_send_SURVEY(&((_trans
 663:/home/dino/paparazzi/var/include/messages.h **** static inline void pprz_msg_send_SURVEY(struct transport_tx *trans, struct link_device *dev, uint8_
 664:/home/dino/paparazzi/var/include/messages.h **** 	if (trans->check_available_space(trans->impl, dev, trans->size_of(trans->impl, 0+4+4+4+4 +2 /* msg
 665:/home/dino/paparazzi/var/include/messages.h **** 	  trans->count_bytes(trans->impl, dev, trans->size_of(trans->impl, 0+4+4+4+4 +2 /* msg header over
 666:/home/dino/paparazzi/var/include/messages.h **** 	  trans->start_message(trans->impl, dev, 0+4+4+4+4 +2 /* msg header overhead */);
 667:/home/dino/paparazzi/var/include/messages.h **** 	  trans->put_bytes(trans->impl, dev, DL_TYPE_UINT8, DL_FORMAT_SCALAR, 1, &ac_id);
 668:/home/dino/paparazzi/var/include/messages.h **** 	  trans->put_named_byte(trans->impl, dev, DL_TYPE_UINT8, DL_FORMAT_SCALAR, DL_SURVEY, "SURVEY");
 669:/home/dino/paparazzi/var/include/messages.h **** 	  trans->put_bytes(trans->impl, dev, DL_TYPE_FLOAT, DL_FORMAT_SCALAR, 4, (void *) _east);
 670:/home/dino/paparazzi/var/include/messages.h **** 	  trans->put_bytes(trans->impl, dev, DL_TYPE_FLOAT, DL_FORMAT_SCALAR, 4, (void *) _north);
 671:/home/dino/paparazzi/var/include/messages.h **** 	  trans->put_bytes(trans->impl, dev, DL_TYPE_FLOAT, DL_FORMAT_SCALAR, 4, (void *) _west);
 672:/home/dino/paparazzi/var/include/messages.h **** 	  trans->put_bytes(trans->impl, dev, DL_TYPE_FLOAT, DL_FORMAT_SCALAR, 4, (void *) _south);
 673:/home/dino/paparazzi/var/include/messages.h **** 	  trans->end_message(trans->impl, dev);
 674:/home/dino/paparazzi/var/include/messages.h **** 	} else
 675:/home/dino/paparazzi/var/include/messages.h **** 	  trans->overrun(trans->impl, dev);
 676:/home/dino/paparazzi/var/include/messages.h **** }
 677:/home/dino/paparazzi/var/include/messages.h **** 
 678:/home/dino/paparazzi/var/include/messages.h **** #define DOWNLINK_SEND_WC_RSSI(_trans, _dev, raw_level) pprz_msg_send_WC_RSSI(&((_trans).trans_tx), 
 679:/home/dino/paparazzi/var/include/messages.h **** static inline void pprz_msg_send_WC_RSSI(struct transport_tx *trans, struct link_device *dev, uint8
 680:/home/dino/paparazzi/var/include/messages.h **** 	if (trans->check_available_space(trans->impl, dev, trans->size_of(trans->impl, 0+1 +2 /* msg heade
 681:/home/dino/paparazzi/var/include/messages.h **** 	  trans->count_bytes(trans->impl, dev, trans->size_of(trans->impl, 0+1 +2 /* msg header overhead *
 682:/home/dino/paparazzi/var/include/messages.h **** 	  trans->start_message(trans->impl, dev, 0+1 +2 /* msg header overhead */);
 683:/home/dino/paparazzi/var/include/messages.h **** 	  trans->put_bytes(trans->impl, dev, DL_TYPE_UINT8, DL_FORMAT_SCALAR, 1, &ac_id);
 684:/home/dino/paparazzi/var/include/messages.h **** 	  trans->put_named_byte(trans->impl, dev, DL_TYPE_UINT8, DL_FORMAT_SCALAR, DL_WC_RSSI, "WC_RSSI");
 685:/home/dino/paparazzi/var/include/messages.h **** 	  trans->put_bytes(trans->impl, dev, DL_TYPE_UINT8, DL_FORMAT_SCALAR, 1, (void *) _raw_level);
 686:/home/dino/paparazzi/var/include/messages.h **** 	  trans->end_message(trans->impl, dev);
 687:/home/dino/paparazzi/var/include/messages.h **** 	} else
 688:/home/dino/paparazzi/var/include/messages.h **** 	  trans->overrun(trans->impl, dev);
 689:/home/dino/paparazzi/var/include/messages.h **** }
 690:/home/dino/paparazzi/var/include/messages.h **** 
 691:/home/dino/paparazzi/var/include/messages.h **** #define DOWNLINK_SEND_RANGEFINDER(_trans, _dev, range, z_dot, z_dot_sum_err, z_dot_setpoint, z_sum_
 692:/home/dino/paparazzi/var/include/messages.h **** static inline void pprz_msg_send_RANGEFINDER(struct transport_tx *trans, struct link_device *dev, u
 693:/home/dino/paparazzi/var/include/messages.h **** 	if (trans->check_available_space(trans->impl, dev, trans->size_of(trans->impl, 0+2+4+4+4+4+4+1 +2 
 694:/home/dino/paparazzi/var/include/messages.h **** 	  trans->count_bytes(trans->impl, dev, trans->size_of(trans->impl, 0+2+4+4+4+4+4+1 +2 /* msg heade
 695:/home/dino/paparazzi/var/include/messages.h **** 	  trans->start_message(trans->impl, dev, 0+2+4+4+4+4+4+1 +2 /* msg header overhead */);
 696:/home/dino/paparazzi/var/include/messages.h **** 	  trans->put_bytes(trans->impl, dev, DL_TYPE_UINT8, DL_FORMAT_SCALAR, 1, &ac_id);
 697:/home/dino/paparazzi/var/include/messages.h **** 	  trans->put_named_byte(trans->impl, dev, DL_TYPE_UINT8, DL_FORMAT_SCALAR, DL_RANGEFINDER, "RANGEF
 698:/home/dino/paparazzi/var/include/messages.h **** 	  trans->put_bytes(trans->impl, dev, DL_TYPE_UINT16, DL_FORMAT_SCALAR, 2, (void *) _range);
 699:/home/dino/paparazzi/var/include/messages.h **** 	  trans->put_bytes(trans->impl, dev, DL_TYPE_FLOAT, DL_FORMAT_SCALAR, 4, (void *) _z_dot);
 700:/home/dino/paparazzi/var/include/messages.h **** 	  trans->put_bytes(trans->impl, dev, DL_TYPE_FLOAT, DL_FORMAT_SCALAR, 4, (void *) _z_dot_sum_err);
 701:/home/dino/paparazzi/var/include/messages.h **** 	  trans->put_bytes(trans->impl, dev, DL_TYPE_FLOAT, DL_FORMAT_SCALAR, 4, (void *) _z_dot_setpoint)
 702:/home/dino/paparazzi/var/include/messages.h **** 	  trans->put_bytes(trans->impl, dev, DL_TYPE_FLOAT, DL_FORMAT_SCALAR, 4, (void *) _z_sum_err);
 703:/home/dino/paparazzi/var/include/messages.h **** 	  trans->put_bytes(trans->impl, dev, DL_TYPE_FLOAT, DL_FORMAT_SCALAR, 4, (void *) _z_setpoint);
 704:/home/dino/paparazzi/var/include/messages.h **** 	  trans->put_bytes(trans->impl, dev, DL_TYPE_UINT8, DL_FORMAT_SCALAR, 1, (void *) _flying);
 705:/home/dino/paparazzi/var/include/messages.h **** 	  trans->end_message(trans->impl, dev);
 706:/home/dino/paparazzi/var/include/messages.h **** 	} else
 707:/home/dino/paparazzi/var/include/messages.h **** 	  trans->overrun(trans->impl, dev);
 708:/home/dino/paparazzi/var/include/messages.h **** }
 709:/home/dino/paparazzi/var/include/messages.h **** 
 710:/home/dino/paparazzi/var/include/messages.h **** #define DOWNLINK_SEND_DATALINK_REPORT(_trans, _dev, uplink_lost_time, uplink_nb_msgs, downlink_nb_m
 711:/home/dino/paparazzi/var/include/messages.h **** static inline void pprz_msg_send_DATALINK_REPORT(struct transport_tx *trans, struct link_device *de
 712:/home/dino/paparazzi/var/include/messages.h **** 	if (trans->check_available_space(trans->impl, dev, trans->size_of(trans->impl, 0+2+2+2+2+1 +2 /* m
 713:/home/dino/paparazzi/var/include/messages.h **** 	  trans->count_bytes(trans->impl, dev, trans->size_of(trans->impl, 0+2+2+2+2+1 +2 /* msg header ov
 714:/home/dino/paparazzi/var/include/messages.h **** 	  trans->start_message(trans->impl, dev, 0+2+2+2+2+1 +2 /* msg header overhead */);
 715:/home/dino/paparazzi/var/include/messages.h **** 	  trans->put_bytes(trans->impl, dev, DL_TYPE_UINT8, DL_FORMAT_SCALAR, 1, &ac_id);
 716:/home/dino/paparazzi/var/include/messages.h **** 	  trans->put_named_byte(trans->impl, dev, DL_TYPE_UINT8, DL_FORMAT_SCALAR, DL_DATALINK_REPORT, "DA
 717:/home/dino/paparazzi/var/include/messages.h **** 	  trans->put_bytes(trans->impl, dev, DL_TYPE_UINT16, DL_FORMAT_SCALAR, 2, (void *) _uplink_lost_ti
 718:/home/dino/paparazzi/var/include/messages.h **** 	  trans->put_bytes(trans->impl, dev, DL_TYPE_UINT16, DL_FORMAT_SCALAR, 2, (void *) _uplink_nb_msgs
 719:/home/dino/paparazzi/var/include/messages.h **** 	  trans->put_bytes(trans->impl, dev, DL_TYPE_UINT16, DL_FORMAT_SCALAR, 2, (void *) _downlink_nb_ms
 720:/home/dino/paparazzi/var/include/messages.h **** 	  trans->put_bytes(trans->impl, dev, DL_TYPE_UINT16, DL_FORMAT_SCALAR, 2, (void *) _downlink_rate)
 721:/home/dino/paparazzi/var/include/messages.h **** 	  trans->put_bytes(trans->impl, dev, DL_TYPE_UINT8, DL_FORMAT_SCALAR, 1, (void *) _downlink_ovrn);
 722:/home/dino/paparazzi/var/include/messages.h **** 	  trans->end_message(trans->impl, dev);
 723:/home/dino/paparazzi/var/include/messages.h **** 	} else
 724:/home/dino/paparazzi/var/include/messages.h **** 	  trans->overrun(trans->impl, dev);
 725:/home/dino/paparazzi/var/include/messages.h **** }
 726:/home/dino/paparazzi/var/include/messages.h **** 
 727:/home/dino/paparazzi/var/include/messages.h **** #define DOWNLINK_SEND_DL_VALUE(_trans, _dev, index, value) pprz_msg_send_DL_VALUE(&((_trans).trans_
 728:/home/dino/paparazzi/var/include/messages.h **** static inline void pprz_msg_send_DL_VALUE(struct transport_tx *trans, struct link_device *dev, uint
 729:/home/dino/paparazzi/var/include/messages.h **** 	if (trans->check_available_space(trans->impl, dev, trans->size_of(trans->impl, 0+1+4 +2 /* msg hea
 730:/home/dino/paparazzi/var/include/messages.h **** 	  trans->count_bytes(trans->impl, dev, trans->size_of(trans->impl, 0+1+4 +2 /* msg header overhead
 731:/home/dino/paparazzi/var/include/messages.h **** 	  trans->start_message(trans->impl, dev, 0+1+4 +2 /* msg header overhead */);
 732:/home/dino/paparazzi/var/include/messages.h **** 	  trans->put_bytes(trans->impl, dev, DL_TYPE_UINT8, DL_FORMAT_SCALAR, 1, &ac_id);
 733:/home/dino/paparazzi/var/include/messages.h **** 	  trans->put_named_byte(trans->impl, dev, DL_TYPE_UINT8, DL_FORMAT_SCALAR, DL_DL_VALUE, "DL_VALUE"
 734:/home/dino/paparazzi/var/include/messages.h **** 	  trans->put_bytes(trans->impl, dev, DL_TYPE_UINT8, DL_FORMAT_SCALAR, 1, (void *) _index);
 735:/home/dino/paparazzi/var/include/messages.h **** 	  trans->put_bytes(trans->impl, dev, DL_TYPE_FLOAT, DL_FORMAT_SCALAR, 4, (void *) _value);
 736:/home/dino/paparazzi/var/include/messages.h **** 	  trans->end_message(trans->impl, dev);
 737:/home/dino/paparazzi/var/include/messages.h **** 	} else
 738:/home/dino/paparazzi/var/include/messages.h **** 	  trans->overrun(trans->impl, dev);
 739:/home/dino/paparazzi/var/include/messages.h **** }
 740:/home/dino/paparazzi/var/include/messages.h **** 
 741:/home/dino/paparazzi/var/include/messages.h **** #define DOWNLINK_SEND_MARK(_trans, _dev, ac_id, lat, long) pprz_msg_send_MARK(&((_trans).trans_tx),
 742:/home/dino/paparazzi/var/include/messages.h **** static inline void pprz_msg_send_MARK(struct transport_tx *trans, struct link_device *dev, uint8_t 
 743:/home/dino/paparazzi/var/include/messages.h **** 	if (trans->check_available_space(trans->impl, dev, trans->size_of(trans->impl, 0+1+4+4 +2 /* msg h
 744:/home/dino/paparazzi/var/include/messages.h **** 	  trans->count_bytes(trans->impl, dev, trans->size_of(trans->impl, 0+1+4+4 +2 /* msg header overhe
 745:/home/dino/paparazzi/var/include/messages.h **** 	  trans->start_message(trans->impl, dev, 0+1+4+4 +2 /* msg header overhead */);
 746:/home/dino/paparazzi/var/include/messages.h **** 	  trans->put_bytes(trans->impl, dev, DL_TYPE_UINT8, DL_FORMAT_SCALAR, 1, &ac_id);
 747:/home/dino/paparazzi/var/include/messages.h **** 	  trans->put_named_byte(trans->impl, dev, DL_TYPE_UINT8, DL_FORMAT_SCALAR, DL_MARK, "MARK");
 748:/home/dino/paparazzi/var/include/messages.h **** 	  trans->put_bytes(trans->impl, dev, DL_TYPE_UINT8, DL_FORMAT_SCALAR, 1, (void *) _ac_id);
 749:/home/dino/paparazzi/var/include/messages.h **** 	  trans->put_bytes(trans->impl, dev, DL_TYPE_FLOAT, DL_FORMAT_SCALAR, 4, (void *) _lat);
 750:/home/dino/paparazzi/var/include/messages.h **** 	  trans->put_bytes(trans->impl, dev, DL_TYPE_FLOAT, DL_FORMAT_SCALAR, 4, (void *) _long);
 751:/home/dino/paparazzi/var/include/messages.h **** 	  trans->end_message(trans->impl, dev);
 752:/home/dino/paparazzi/var/include/messages.h **** 	} else
 753:/home/dino/paparazzi/var/include/messages.h **** 	  trans->overrun(trans->impl, dev);
 754:/home/dino/paparazzi/var/include/messages.h **** }
 755:/home/dino/paparazzi/var/include/messages.h **** 
 756:/home/dino/paparazzi/var/include/messages.h **** #define DOWNLINK_SEND_SYS_MON(_trans, _dev, periodic_time, periodic_time_min, periodic_time_max, pe
 757:/home/dino/paparazzi/var/include/messages.h **** static inline void pprz_msg_send_SYS_MON(struct transport_tx *trans, struct link_device *dev, uint8
 758:/home/dino/paparazzi/var/include/messages.h **** 	if (trans->check_available_space(trans->impl, dev, trans->size_of(trans->impl, 0+2+2+2+2+2+2+2+1 +
 759:/home/dino/paparazzi/var/include/messages.h **** 	  trans->count_bytes(trans->impl, dev, trans->size_of(trans->impl, 0+2+2+2+2+2+2+2+1 +2 /* msg hea
 760:/home/dino/paparazzi/var/include/messages.h **** 	  trans->start_message(trans->impl, dev, 0+2+2+2+2+2+2+2+1 +2 /* msg header overhead */);
 761:/home/dino/paparazzi/var/include/messages.h **** 	  trans->put_bytes(trans->impl, dev, DL_TYPE_UINT8, DL_FORMAT_SCALAR, 1, &ac_id);
 762:/home/dino/paparazzi/var/include/messages.h **** 	  trans->put_named_byte(trans->impl, dev, DL_TYPE_UINT8, DL_FORMAT_SCALAR, DL_SYS_MON, "SYS_MON");
 763:/home/dino/paparazzi/var/include/messages.h **** 	  trans->put_bytes(trans->impl, dev, DL_TYPE_UINT16, DL_FORMAT_SCALAR, 2, (void *) _periodic_time)
 764:/home/dino/paparazzi/var/include/messages.h **** 	  trans->put_bytes(trans->impl, dev, DL_TYPE_UINT16, DL_FORMAT_SCALAR, 2, (void *) _periodic_time_
 765:/home/dino/paparazzi/var/include/messages.h **** 	  trans->put_bytes(trans->impl, dev, DL_TYPE_UINT16, DL_FORMAT_SCALAR, 2, (void *) _periodic_time_
 766:/home/dino/paparazzi/var/include/messages.h **** 	  trans->put_bytes(trans->impl, dev, DL_TYPE_UINT16, DL_FORMAT_SCALAR, 2, (void *) _periodic_cycle
 767:/home/dino/paparazzi/var/include/messages.h **** 	  trans->put_bytes(trans->impl, dev, DL_TYPE_UINT16, DL_FORMAT_SCALAR, 2, (void *) _periodic_cycle
 768:/home/dino/paparazzi/var/include/messages.h **** 	  trans->put_bytes(trans->impl, dev, DL_TYPE_UINT16, DL_FORMAT_SCALAR, 2, (void *) _periodic_cycle
 769:/home/dino/paparazzi/var/include/messages.h **** 	  trans->put_bytes(trans->impl, dev, DL_TYPE_UINT16, DL_FORMAT_SCALAR, 2, (void *) _event_number);
 770:/home/dino/paparazzi/var/include/messages.h **** 	  trans->put_bytes(trans->impl, dev, DL_TYPE_UINT8, DL_FORMAT_SCALAR, 1, (void *) _cpu_load);
 771:/home/dino/paparazzi/var/include/messages.h **** 	  trans->end_message(trans->impl, dev);
 772:/home/dino/paparazzi/var/include/messages.h **** 	} else
 773:/home/dino/paparazzi/var/include/messages.h **** 	  trans->overrun(trans->impl, dev);
 774:/home/dino/paparazzi/var/include/messages.h **** }
 775:/home/dino/paparazzi/var/include/messages.h **** 
 776:/home/dino/paparazzi/var/include/messages.h **** #define DOWNLINK_SEND_MOTOR(_trans, _dev, rpm, current) pprz_msg_send_MOTOR(&((_trans).trans_tx), &
 777:/home/dino/paparazzi/var/include/messages.h **** static inline void pprz_msg_send_MOTOR(struct transport_tx *trans, struct link_device *dev, uint8_t
 778:/home/dino/paparazzi/var/include/messages.h **** 	if (trans->check_available_space(trans->impl, dev, trans->size_of(trans->impl, 0+2+4 +2 /* msg hea
 779:/home/dino/paparazzi/var/include/messages.h **** 	  trans->count_bytes(trans->impl, dev, trans->size_of(trans->impl, 0+2+4 +2 /* msg header overhead
 780:/home/dino/paparazzi/var/include/messages.h **** 	  trans->start_message(trans->impl, dev, 0+2+4 +2 /* msg header overhead */);
 781:/home/dino/paparazzi/var/include/messages.h **** 	  trans->put_bytes(trans->impl, dev, DL_TYPE_UINT8, DL_FORMAT_SCALAR, 1, &ac_id);
 782:/home/dino/paparazzi/var/include/messages.h **** 	  trans->put_named_byte(trans->impl, dev, DL_TYPE_UINT8, DL_FORMAT_SCALAR, DL_MOTOR, "MOTOR");
 783:/home/dino/paparazzi/var/include/messages.h **** 	  trans->put_bytes(trans->impl, dev, DL_TYPE_UINT16, DL_FORMAT_SCALAR, 2, (void *) _rpm);
 784:/home/dino/paparazzi/var/include/messages.h **** 	  trans->put_bytes(trans->impl, dev, DL_TYPE_INT32, DL_FORMAT_SCALAR, 4, (void *) _current);
 785:/home/dino/paparazzi/var/include/messages.h **** 	  trans->end_message(trans->impl, dev);
 786:/home/dino/paparazzi/var/include/messages.h **** 	} else
 787:/home/dino/paparazzi/var/include/messages.h **** 	  trans->overrun(trans->impl, dev);
 788:/home/dino/paparazzi/var/include/messages.h **** }
 789:/home/dino/paparazzi/var/include/messages.h **** 
 790:/home/dino/paparazzi/var/include/messages.h **** #define DOWNLINK_SEND_WP_MOVED(_trans, _dev, wp_id, utm_east, utm_north, alt, utm_zone) pprz_msg_se
 791:/home/dino/paparazzi/var/include/messages.h **** static inline void pprz_msg_send_WP_MOVED(struct transport_tx *trans, struct link_device *dev, uint
 792:/home/dino/paparazzi/var/include/messages.h **** 	if (trans->check_available_space(trans->impl, dev, trans->size_of(trans->impl, 0+1+4+4+4+1 +2 /* m
 793:/home/dino/paparazzi/var/include/messages.h **** 	  trans->count_bytes(trans->impl, dev, trans->size_of(trans->impl, 0+1+4+4+4+1 +2 /* msg header ov
 794:/home/dino/paparazzi/var/include/messages.h **** 	  trans->start_message(trans->impl, dev, 0+1+4+4+4+1 +2 /* msg header overhead */);
 795:/home/dino/paparazzi/var/include/messages.h **** 	  trans->put_bytes(trans->impl, dev, DL_TYPE_UINT8, DL_FORMAT_SCALAR, 1, &ac_id);
 796:/home/dino/paparazzi/var/include/messages.h **** 	  trans->put_named_byte(trans->impl, dev, DL_TYPE_UINT8, DL_FORMAT_SCALAR, DL_WP_MOVED, "WP_MOVED"
 797:/home/dino/paparazzi/var/include/messages.h **** 	  trans->put_bytes(trans->impl, dev, DL_TYPE_UINT8, DL_FORMAT_SCALAR, 1, (void *) _wp_id);
 798:/home/dino/paparazzi/var/include/messages.h **** 	  trans->put_bytes(trans->impl, dev, DL_TYPE_FLOAT, DL_FORMAT_SCALAR, 4, (void *) _utm_east);
 799:/home/dino/paparazzi/var/include/messages.h **** 	  trans->put_bytes(trans->impl, dev, DL_TYPE_FLOAT, DL_FORMAT_SCALAR, 4, (void *) _utm_north);
 800:/home/dino/paparazzi/var/include/messages.h **** 	  trans->put_bytes(trans->impl, dev, DL_TYPE_FLOAT, DL_FORMAT_SCALAR, 4, (void *) _alt);
 801:/home/dino/paparazzi/var/include/messages.h **** 	  trans->put_bytes(trans->impl, dev, DL_TYPE_UINT8, DL_FORMAT_SCALAR, 1, (void *) _utm_zone);
 802:/home/dino/paparazzi/var/include/messages.h **** 	  trans->end_message(trans->impl, dev);
 803:/home/dino/paparazzi/var/include/messages.h **** 	} else
 804:/home/dino/paparazzi/var/include/messages.h **** 	  trans->overrun(trans->impl, dev);
 805:/home/dino/paparazzi/var/include/messages.h **** }
 806:/home/dino/paparazzi/var/include/messages.h **** 
 807:/home/dino/paparazzi/var/include/messages.h **** #define DOWNLINK_SEND_MKK(_trans, _dev, nr, rpm, current, temp) pprz_msg_send_MKK(&((_trans).trans_
 808:/home/dino/paparazzi/var/include/messages.h **** static inline void pprz_msg_send_MKK(struct transport_tx *trans, struct link_device *dev, uint8_t a
 809:/home/dino/paparazzi/var/include/messages.h **** 	if (trans->check_available_space(trans->impl, dev, trans->size_of(trans->impl, 0+1+1+1+1 +2 /* msg
 810:/home/dino/paparazzi/var/include/messages.h **** 	  trans->count_bytes(trans->impl, dev, trans->size_of(trans->impl, 0+1+1+1+1 +2 /* msg header over
 811:/home/dino/paparazzi/var/include/messages.h **** 	  trans->start_message(trans->impl, dev, 0+1+1+1+1 +2 /* msg header overhead */);
 812:/home/dino/paparazzi/var/include/messages.h **** 	  trans->put_bytes(trans->impl, dev, DL_TYPE_UINT8, DL_FORMAT_SCALAR, 1, &ac_id);
 813:/home/dino/paparazzi/var/include/messages.h **** 	  trans->put_named_byte(trans->impl, dev, DL_TYPE_UINT8, DL_FORMAT_SCALAR, DL_MKK, "MKK");
 814:/home/dino/paparazzi/var/include/messages.h **** 	  trans->put_bytes(trans->impl, dev, DL_TYPE_UINT8, DL_FORMAT_SCALAR, 1, (void *) _nr);
 815:/home/dino/paparazzi/var/include/messages.h **** 	  trans->put_bytes(trans->impl, dev, DL_TYPE_UINT8, DL_FORMAT_SCALAR, 1, (void *) _rpm);
 816:/home/dino/paparazzi/var/include/messages.h **** 	  trans->put_bytes(trans->impl, dev, DL_TYPE_UINT8, DL_FORMAT_SCALAR, 1, (void *) _current);
 817:/home/dino/paparazzi/var/include/messages.h **** 	  trans->put_bytes(trans->impl, dev, DL_TYPE_INT8, DL_FORMAT_SCALAR, 1, (void *) _temp);
 818:/home/dino/paparazzi/var/include/messages.h **** 	  trans->end_message(trans->impl, dev);
 819:/home/dino/paparazzi/var/include/messages.h **** 	} else
 820:/home/dino/paparazzi/var/include/messages.h **** 	  trans->overrun(trans->impl, dev);
 821:/home/dino/paparazzi/var/include/messages.h **** }
 822:/home/dino/paparazzi/var/include/messages.h **** 
 823:/home/dino/paparazzi/var/include/messages.h **** #define DOWNLINK_SEND_ENERGY(_trans, _dev, bat, amp, energy, power) pprz_msg_send_ENERGY(&((_trans)
 824:/home/dino/paparazzi/var/include/messages.h **** static inline void pprz_msg_send_ENERGY(struct transport_tx *trans, struct link_device *dev, uint8_
 825:/home/dino/paparazzi/var/include/messages.h **** 	if (trans->check_available_space(trans->impl, dev, trans->size_of(trans->impl, 0+4+4+2+4 +2 /* msg
 826:/home/dino/paparazzi/var/include/messages.h **** 	  trans->count_bytes(trans->impl, dev, trans->size_of(trans->impl, 0+4+4+2+4 +2 /* msg header over
 827:/home/dino/paparazzi/var/include/messages.h **** 	  trans->start_message(trans->impl, dev, 0+4+4+2+4 +2 /* msg header overhead */);
 828:/home/dino/paparazzi/var/include/messages.h **** 	  trans->put_bytes(trans->impl, dev, DL_TYPE_UINT8, DL_FORMAT_SCALAR, 1, &ac_id);
 829:/home/dino/paparazzi/var/include/messages.h **** 	  trans->put_named_byte(trans->impl, dev, DL_TYPE_UINT8, DL_FORMAT_SCALAR, DL_ENERGY, "ENERGY");
 830:/home/dino/paparazzi/var/include/messages.h **** 	  trans->put_bytes(trans->impl, dev, DL_TYPE_FLOAT, DL_FORMAT_SCALAR, 4, (void *) _bat);
 831:/home/dino/paparazzi/var/include/messages.h **** 	  trans->put_bytes(trans->impl, dev, DL_TYPE_FLOAT, DL_FORMAT_SCALAR, 4, (void *) _amp);
 832:/home/dino/paparazzi/var/include/messages.h **** 	  trans->put_bytes(trans->impl, dev, DL_TYPE_UINT16, DL_FORMAT_SCALAR, 2, (void *) _energy);
 833:/home/dino/paparazzi/var/include/messages.h **** 	  trans->put_bytes(trans->impl, dev, DL_TYPE_FLOAT, DL_FORMAT_SCALAR, 4, (void *) _power);
 834:/home/dino/paparazzi/var/include/messages.h **** 	  trans->end_message(trans->impl, dev);
 835:/home/dino/paparazzi/var/include/messages.h **** 	} else
 836:/home/dino/paparazzi/var/include/messages.h **** 	  trans->overrun(trans->impl, dev);
 837:/home/dino/paparazzi/var/include/messages.h **** }
 838:/home/dino/paparazzi/var/include/messages.h **** 
 839:/home/dino/paparazzi/var/include/messages.h **** #define DOWNLINK_SEND_BARO_BMP85_CALIB(_trans, _dev, a1, a2, a3, a4, a5, a6, b1, b2, mb, mc, md) pp
 840:/home/dino/paparazzi/var/include/messages.h **** static inline void pprz_msg_send_BARO_BMP85_CALIB(struct transport_tx *trans, struct link_device *d
 841:/home/dino/paparazzi/var/include/messages.h **** 	if (trans->check_available_space(trans->impl, dev, trans->size_of(trans->impl, 0+2+2+2+2+2+2+2+2+2
 842:/home/dino/paparazzi/var/include/messages.h **** 	  trans->count_bytes(trans->impl, dev, trans->size_of(trans->impl, 0+2+2+2+2+2+2+2+2+2+2+2 +2 /* m
 843:/home/dino/paparazzi/var/include/messages.h **** 	  trans->start_message(trans->impl, dev, 0+2+2+2+2+2+2+2+2+2+2+2 +2 /* msg header overhead */);
 844:/home/dino/paparazzi/var/include/messages.h **** 	  trans->put_bytes(trans->impl, dev, DL_TYPE_UINT8, DL_FORMAT_SCALAR, 1, &ac_id);
 845:/home/dino/paparazzi/var/include/messages.h **** 	  trans->put_named_byte(trans->impl, dev, DL_TYPE_UINT8, DL_FORMAT_SCALAR, DL_BARO_BMP85_CALIB, "B
 846:/home/dino/paparazzi/var/include/messages.h **** 	  trans->put_bytes(trans->impl, dev, DL_TYPE_INT16, DL_FORMAT_SCALAR, 2, (void *) _a1);
 847:/home/dino/paparazzi/var/include/messages.h **** 	  trans->put_bytes(trans->impl, dev, DL_TYPE_INT16, DL_FORMAT_SCALAR, 2, (void *) _a2);
 848:/home/dino/paparazzi/var/include/messages.h **** 	  trans->put_bytes(trans->impl, dev, DL_TYPE_INT16, DL_FORMAT_SCALAR, 2, (void *) _a3);
 849:/home/dino/paparazzi/var/include/messages.h **** 	  trans->put_bytes(trans->impl, dev, DL_TYPE_UINT16, DL_FORMAT_SCALAR, 2, (void *) _a4);
 850:/home/dino/paparazzi/var/include/messages.h **** 	  trans->put_bytes(trans->impl, dev, DL_TYPE_UINT16, DL_FORMAT_SCALAR, 2, (void *) _a5);
 851:/home/dino/paparazzi/var/include/messages.h **** 	  trans->put_bytes(trans->impl, dev, DL_TYPE_UINT16, DL_FORMAT_SCALAR, 2, (void *) _a6);
 852:/home/dino/paparazzi/var/include/messages.h **** 	  trans->put_bytes(trans->impl, dev, DL_TYPE_INT16, DL_FORMAT_SCALAR, 2, (void *) _b1);
 853:/home/dino/paparazzi/var/include/messages.h **** 	  trans->put_bytes(trans->impl, dev, DL_TYPE_INT16, DL_FORMAT_SCALAR, 2, (void *) _b2);
 854:/home/dino/paparazzi/var/include/messages.h **** 	  trans->put_bytes(trans->impl, dev, DL_TYPE_INT16, DL_FORMAT_SCALAR, 2, (void *) _mb);
 855:/home/dino/paparazzi/var/include/messages.h **** 	  trans->put_bytes(trans->impl, dev, DL_TYPE_INT16, DL_FORMAT_SCALAR, 2, (void *) _mc);
 856:/home/dino/paparazzi/var/include/messages.h **** 	  trans->put_bytes(trans->impl, dev, DL_TYPE_INT16, DL_FORMAT_SCALAR, 2, (void *) _md);
 857:/home/dino/paparazzi/var/include/messages.h **** 	  trans->end_message(trans->impl, dev);
 858:/home/dino/paparazzi/var/include/messages.h **** 	} else
 859:/home/dino/paparazzi/var/include/messages.h **** 	  trans->overrun(trans->impl, dev);
 860:/home/dino/paparazzi/var/include/messages.h **** }
 861:/home/dino/paparazzi/var/include/messages.h **** 
 862:/home/dino/paparazzi/var/include/messages.h **** #define DOWNLINK_SEND_BARO_BMP85(_trans, _dev, UT, UP, P, T, MSL) pprz_msg_send_BARO_BMP85(&((_tran
 863:/home/dino/paparazzi/var/include/messages.h **** static inline void pprz_msg_send_BARO_BMP85(struct transport_tx *trans, struct link_device *dev, ui
 864:/home/dino/paparazzi/var/include/messages.h **** 	if (trans->check_available_space(trans->impl, dev, trans->size_of(trans->impl, 0+4+4+4+4+4 +2 /* m
 865:/home/dino/paparazzi/var/include/messages.h **** 	  trans->count_bytes(trans->impl, dev, trans->size_of(trans->impl, 0+4+4+4+4+4 +2 /* msg header ov
 866:/home/dino/paparazzi/var/include/messages.h **** 	  trans->start_message(trans->impl, dev, 0+4+4+4+4+4 +2 /* msg header overhead */);
 867:/home/dino/paparazzi/var/include/messages.h **** 	  trans->put_bytes(trans->impl, dev, DL_TYPE_UINT8, DL_FORMAT_SCALAR, 1, &ac_id);
 868:/home/dino/paparazzi/var/include/messages.h **** 	  trans->put_named_byte(trans->impl, dev, DL_TYPE_UINT8, DL_FORMAT_SCALAR, DL_BARO_BMP85, "BARO_BM
 869:/home/dino/paparazzi/var/include/messages.h **** 	  trans->put_bytes(trans->impl, dev, DL_TYPE_INT32, DL_FORMAT_SCALAR, 4, (void *) _UT);
 870:/home/dino/paparazzi/var/include/messages.h **** 	  trans->put_bytes(trans->impl, dev, DL_TYPE_INT32, DL_FORMAT_SCALAR, 4, (void *) _UP);
 871:/home/dino/paparazzi/var/include/messages.h **** 	  trans->put_bytes(trans->impl, dev, DL_TYPE_UINT32, DL_FORMAT_SCALAR, 4, (void *) _P);
 872:/home/dino/paparazzi/var/include/messages.h **** 	  trans->put_bytes(trans->impl, dev, DL_TYPE_FLOAT, DL_FORMAT_SCALAR, 4, (void *) _T);
 873:/home/dino/paparazzi/var/include/messages.h **** 	  trans->put_bytes(trans->impl, dev, DL_TYPE_FLOAT, DL_FORMAT_SCALAR, 4, (void *) _MSL);
 874:/home/dino/paparazzi/var/include/messages.h **** 	  trans->end_message(trans->impl, dev);
 875:/home/dino/paparazzi/var/include/messages.h **** 	} else
 876:/home/dino/paparazzi/var/include/messages.h **** 	  trans->overrun(trans->impl, dev);
 877:/home/dino/paparazzi/var/include/messages.h **** }
 878:/home/dino/paparazzi/var/include/messages.h **** 
 879:/home/dino/paparazzi/var/include/messages.h **** #define DOWNLINK_SEND_SPEED_LOOP(_trans, _dev, ve_set_point, ve, vn_set_point, vn, north_sp, east_s
 880:/home/dino/paparazzi/var/include/messages.h **** static inline void pprz_msg_send_SPEED_LOOP(struct transport_tx *trans, struct link_device *dev, ui
 881:/home/dino/paparazzi/var/include/messages.h **** 	if (trans->check_available_space(trans->impl, dev, trans->size_of(trans->impl, 0+4+4+4+4+4+4 +2 /*
 882:/home/dino/paparazzi/var/include/messages.h **** 	  trans->count_bytes(trans->impl, dev, trans->size_of(trans->impl, 0+4+4+4+4+4+4 +2 /* msg header 
 883:/home/dino/paparazzi/var/include/messages.h **** 	  trans->start_message(trans->impl, dev, 0+4+4+4+4+4+4 +2 /* msg header overhead */);
 884:/home/dino/paparazzi/var/include/messages.h **** 	  trans->put_bytes(trans->impl, dev, DL_TYPE_UINT8, DL_FORMAT_SCALAR, 1, &ac_id);
 885:/home/dino/paparazzi/var/include/messages.h **** 	  trans->put_named_byte(trans->impl, dev, DL_TYPE_UINT8, DL_FORMAT_SCALAR, DL_SPEED_LOOP, "SPEED_L
 886:/home/dino/paparazzi/var/include/messages.h **** 	  trans->put_bytes(trans->impl, dev, DL_TYPE_FLOAT, DL_FORMAT_SCALAR, 4, (void *) _ve_set_point);
 887:/home/dino/paparazzi/var/include/messages.h **** 	  trans->put_bytes(trans->impl, dev, DL_TYPE_FLOAT, DL_FORMAT_SCALAR, 4, (void *) _ve);
 888:/home/dino/paparazzi/var/include/messages.h **** 	  trans->put_bytes(trans->impl, dev, DL_TYPE_FLOAT, DL_FORMAT_SCALAR, 4, (void *) _vn_set_point);
 889:/home/dino/paparazzi/var/include/messages.h **** 	  trans->put_bytes(trans->impl, dev, DL_TYPE_FLOAT, DL_FORMAT_SCALAR, 4, (void *) _vn);
 890:/home/dino/paparazzi/var/include/messages.h **** 	  trans->put_bytes(trans->impl, dev, DL_TYPE_FLOAT, DL_FORMAT_SCALAR, 4, (void *) _north_sp);
 891:/home/dino/paparazzi/var/include/messages.h **** 	  trans->put_bytes(trans->impl, dev, DL_TYPE_FLOAT, DL_FORMAT_SCALAR, 4, (void *) _east_sp);
 892:/home/dino/paparazzi/var/include/messages.h **** 	  trans->end_message(trans->impl, dev);
 893:/home/dino/paparazzi/var/include/messages.h **** 	} else
 894:/home/dino/paparazzi/var/include/messages.h **** 	  trans->overrun(trans->impl, dev);
 895:/home/dino/paparazzi/var/include/messages.h **** }
 896:/home/dino/paparazzi/var/include/messages.h **** 
 897:/home/dino/paparazzi/var/include/messages.h **** #define DOWNLINK_SEND_ALT_KALMAN(_trans, _dev, p00, p01, p10, p11) pprz_msg_send_ALT_KALMAN(&((_tra
 898:/home/dino/paparazzi/var/include/messages.h **** static inline void pprz_msg_send_ALT_KALMAN(struct transport_tx *trans, struct link_device *dev, ui
 899:/home/dino/paparazzi/var/include/messages.h **** 	if (trans->check_available_space(trans->impl, dev, trans->size_of(trans->impl, 0+4+4+4+4 +2 /* msg
 900:/home/dino/paparazzi/var/include/messages.h **** 	  trans->count_bytes(trans->impl, dev, trans->size_of(trans->impl, 0+4+4+4+4 +2 /* msg header over
 901:/home/dino/paparazzi/var/include/messages.h **** 	  trans->start_message(trans->impl, dev, 0+4+4+4+4 +2 /* msg header overhead */);
 902:/home/dino/paparazzi/var/include/messages.h **** 	  trans->put_bytes(trans->impl, dev, DL_TYPE_UINT8, DL_FORMAT_SCALAR, 1, &ac_id);
 903:/home/dino/paparazzi/var/include/messages.h **** 	  trans->put_named_byte(trans->impl, dev, DL_TYPE_UINT8, DL_FORMAT_SCALAR, DL_ALT_KALMAN, "ALT_KAL
 904:/home/dino/paparazzi/var/include/messages.h **** 	  trans->put_bytes(trans->impl, dev, DL_TYPE_FLOAT, DL_FORMAT_SCALAR, 4, (void *) _p00);
 905:/home/dino/paparazzi/var/include/messages.h **** 	  trans->put_bytes(trans->impl, dev, DL_TYPE_FLOAT, DL_FORMAT_SCALAR, 4, (void *) _p01);
 906:/home/dino/paparazzi/var/include/messages.h **** 	  trans->put_bytes(trans->impl, dev, DL_TYPE_FLOAT, DL_FORMAT_SCALAR, 4, (void *) _p10);
 907:/home/dino/paparazzi/var/include/messages.h **** 	  trans->put_bytes(trans->impl, dev, DL_TYPE_FLOAT, DL_FORMAT_SCALAR, 4, (void *) _p11);
 908:/home/dino/paparazzi/var/include/messages.h **** 	  trans->end_message(trans->impl, dev);
 909:/home/dino/paparazzi/var/include/messages.h **** 	} else
 910:/home/dino/paparazzi/var/include/messages.h **** 	  trans->overrun(trans->impl, dev);
 911:/home/dino/paparazzi/var/include/messages.h **** }
 912:/home/dino/paparazzi/var/include/messages.h **** 
 913:/home/dino/paparazzi/var/include/messages.h **** #define DOWNLINK_SEND_ESTIMATOR(_trans, _dev, z, z_dot) pprz_msg_send_ESTIMATOR(&((_trans).trans_tx
 914:/home/dino/paparazzi/var/include/messages.h **** static inline void pprz_msg_send_ESTIMATOR(struct transport_tx *trans, struct link_device *dev, uin
 915:/home/dino/paparazzi/var/include/messages.h **** 	if (trans->check_available_space(trans->impl, dev, trans->size_of(trans->impl, 0+4+4 +2 /* msg hea
 916:/home/dino/paparazzi/var/include/messages.h **** 	  trans->count_bytes(trans->impl, dev, trans->size_of(trans->impl, 0+4+4 +2 /* msg header overhead
 917:/home/dino/paparazzi/var/include/messages.h **** 	  trans->start_message(trans->impl, dev, 0+4+4 +2 /* msg header overhead */);
 918:/home/dino/paparazzi/var/include/messages.h **** 	  trans->put_bytes(trans->impl, dev, DL_TYPE_UINT8, DL_FORMAT_SCALAR, 1, &ac_id);
 919:/home/dino/paparazzi/var/include/messages.h **** 	  trans->put_named_byte(trans->impl, dev, DL_TYPE_UINT8, DL_FORMAT_SCALAR, DL_ESTIMATOR, "ESTIMATO
 920:/home/dino/paparazzi/var/include/messages.h **** 	  trans->put_bytes(trans->impl, dev, DL_TYPE_FLOAT, DL_FORMAT_SCALAR, 4, (void *) _z);
 921:/home/dino/paparazzi/var/include/messages.h **** 	  trans->put_bytes(trans->impl, dev, DL_TYPE_FLOAT, DL_FORMAT_SCALAR, 4, (void *) _z_dot);
 922:/home/dino/paparazzi/var/include/messages.h **** 	  trans->end_message(trans->impl, dev);
 923:/home/dino/paparazzi/var/include/messages.h **** 	} else
 924:/home/dino/paparazzi/var/include/messages.h **** 	  trans->overrun(trans->impl, dev);
 925:/home/dino/paparazzi/var/include/messages.h **** }
 926:/home/dino/paparazzi/var/include/messages.h **** 
 927:/home/dino/paparazzi/var/include/messages.h **** #define DOWNLINK_SEND_TUNE_ROLL(_trans, _dev, p, phi, phi_sp) pprz_msg_send_TUNE_ROLL(&((_trans).tr
 928:/home/dino/paparazzi/var/include/messages.h **** static inline void pprz_msg_send_TUNE_ROLL(struct transport_tx *trans, struct link_device *dev, uin
 929:/home/dino/paparazzi/var/include/messages.h **** 	if (trans->check_available_space(trans->impl, dev, trans->size_of(trans->impl, 0+4+4+4 +2 /* msg h
 930:/home/dino/paparazzi/var/include/messages.h **** 	  trans->count_bytes(trans->impl, dev, trans->size_of(trans->impl, 0+4+4+4 +2 /* msg header overhe
 931:/home/dino/paparazzi/var/include/messages.h **** 	  trans->start_message(trans->impl, dev, 0+4+4+4 +2 /* msg header overhead */);
 932:/home/dino/paparazzi/var/include/messages.h **** 	  trans->put_bytes(trans->impl, dev, DL_TYPE_UINT8, DL_FORMAT_SCALAR, 1, &ac_id);
 933:/home/dino/paparazzi/var/include/messages.h **** 	  trans->put_named_byte(trans->impl, dev, DL_TYPE_UINT8, DL_FORMAT_SCALAR, DL_TUNE_ROLL, "TUNE_ROL
 934:/home/dino/paparazzi/var/include/messages.h **** 	  trans->put_bytes(trans->impl, dev, DL_TYPE_FLOAT, DL_FORMAT_SCALAR, 4, (void *) _p);
 935:/home/dino/paparazzi/var/include/messages.h **** 	  trans->put_bytes(trans->impl, dev, DL_TYPE_FLOAT, DL_FORMAT_SCALAR, 4, (void *) _phi);
 936:/home/dino/paparazzi/var/include/messages.h **** 	  trans->put_bytes(trans->impl, dev, DL_TYPE_FLOAT, DL_FORMAT_SCALAR, 4, (void *) _phi_sp);
 937:/home/dino/paparazzi/var/include/messages.h **** 	  trans->end_message(trans->impl, dev);
 938:/home/dino/paparazzi/var/include/messages.h **** 	} else
 939:/home/dino/paparazzi/var/include/messages.h **** 	  trans->overrun(trans->impl, dev);
 940:/home/dino/paparazzi/var/include/messages.h **** }
 941:/home/dino/paparazzi/var/include/messages.h **** 
 942:/home/dino/paparazzi/var/include/messages.h **** #define DOWNLINK_SEND_BARO_MS5534A(_trans, _dev, pressure, temp, alt) pprz_msg_send_BARO_MS5534A(&(
 943:/home/dino/paparazzi/var/include/messages.h **** static inline void pprz_msg_send_BARO_MS5534A(struct transport_tx *trans, struct link_device *dev, 
 944:/home/dino/paparazzi/var/include/messages.h **** 	if (trans->check_available_space(trans->impl, dev, trans->size_of(trans->impl, 0+4+2+4 +2 /* msg h
 945:/home/dino/paparazzi/var/include/messages.h **** 	  trans->count_bytes(trans->impl, dev, trans->size_of(trans->impl, 0+4+2+4 +2 /* msg header overhe
 946:/home/dino/paparazzi/var/include/messages.h **** 	  trans->start_message(trans->impl, dev, 0+4+2+4 +2 /* msg header overhead */);
 947:/home/dino/paparazzi/var/include/messages.h **** 	  trans->put_bytes(trans->impl, dev, DL_TYPE_UINT8, DL_FORMAT_SCALAR, 1, &ac_id);
 948:/home/dino/paparazzi/var/include/messages.h **** 	  trans->put_named_byte(trans->impl, dev, DL_TYPE_UINT8, DL_FORMAT_SCALAR, DL_BARO_MS5534A, "BARO_
 949:/home/dino/paparazzi/var/include/messages.h **** 	  trans->put_bytes(trans->impl, dev, DL_TYPE_UINT32, DL_FORMAT_SCALAR, 4, (void *) _pressure);
 950:/home/dino/paparazzi/var/include/messages.h **** 	  trans->put_bytes(trans->impl, dev, DL_TYPE_UINT16, DL_FORMAT_SCALAR, 2, (void *) _temp);
 951:/home/dino/paparazzi/var/include/messages.h **** 	  trans->put_bytes(trans->impl, dev, DL_TYPE_FLOAT, DL_FORMAT_SCALAR, 4, (void *) _alt);
 952:/home/dino/paparazzi/var/include/messages.h **** 	  trans->end_message(trans->impl, dev);
 953:/home/dino/paparazzi/var/include/messages.h **** 	} else
 954:/home/dino/paparazzi/var/include/messages.h **** 	  trans->overrun(trans->impl, dev);
 955:/home/dino/paparazzi/var/include/messages.h **** }
 956:/home/dino/paparazzi/var/include/messages.h **** 
 957:/home/dino/paparazzi/var/include/messages.h **** #define DOWNLINK_SEND_PRESSURE(_trans, _dev, airspeed_adc, airspeed, altitude_adc, altitude) pprz_m
 958:/home/dino/paparazzi/var/include/messages.h **** static inline void pprz_msg_send_PRESSURE(struct transport_tx *trans, struct link_device *dev, uint
 959:/home/dino/paparazzi/var/include/messages.h **** 	if (trans->check_available_space(trans->impl, dev, trans->size_of(trans->impl, 0+4+4+4+4 +2 /* msg
 960:/home/dino/paparazzi/var/include/messages.h **** 	  trans->count_bytes(trans->impl, dev, trans->size_of(trans->impl, 0+4+4+4+4 +2 /* msg header over
 961:/home/dino/paparazzi/var/include/messages.h **** 	  trans->start_message(trans->impl, dev, 0+4+4+4+4 +2 /* msg header overhead */);
 962:/home/dino/paparazzi/var/include/messages.h **** 	  trans->put_bytes(trans->impl, dev, DL_TYPE_UINT8, DL_FORMAT_SCALAR, 1, &ac_id);
 963:/home/dino/paparazzi/var/include/messages.h **** 	  trans->put_named_byte(trans->impl, dev, DL_TYPE_UINT8, DL_FORMAT_SCALAR, DL_PRESSURE, "PRESSURE"
 964:/home/dino/paparazzi/var/include/messages.h **** 	  trans->put_bytes(trans->impl, dev, DL_TYPE_FLOAT, DL_FORMAT_SCALAR, 4, (void *) _airspeed_adc);
 965:/home/dino/paparazzi/var/include/messages.h **** 	  trans->put_bytes(trans->impl, dev, DL_TYPE_FLOAT, DL_FORMAT_SCALAR, 4, (void *) _airspeed);
 966:/home/dino/paparazzi/var/include/messages.h **** 	  trans->put_bytes(trans->impl, dev, DL_TYPE_FLOAT, DL_FORMAT_SCALAR, 4, (void *) _altitude_adc);
 967:/home/dino/paparazzi/var/include/messages.h **** 	  trans->put_bytes(trans->impl, dev, DL_TYPE_FLOAT, DL_FORMAT_SCALAR, 4, (void *) _altitude);
 968:/home/dino/paparazzi/var/include/messages.h **** 	  trans->end_message(trans->impl, dev);
 969:/home/dino/paparazzi/var/include/messages.h **** 	} else
 970:/home/dino/paparazzi/var/include/messages.h **** 	  trans->overrun(trans->impl, dev);
 971:/home/dino/paparazzi/var/include/messages.h **** }
 972:/home/dino/paparazzi/var/include/messages.h **** 
 973:/home/dino/paparazzi/var/include/messages.h **** #define DOWNLINK_SEND_BARO_WORDS(_trans, _dev, w1, w2, w3, w4) pprz_msg_send_BARO_WORDS(&((_trans).
 974:/home/dino/paparazzi/var/include/messages.h **** static inline void pprz_msg_send_BARO_WORDS(struct transport_tx *trans, struct link_device *dev, ui
 975:/home/dino/paparazzi/var/include/messages.h **** 	if (trans->check_available_space(trans->impl, dev, trans->size_of(trans->impl, 0+2+2+2+2 +2 /* msg
 976:/home/dino/paparazzi/var/include/messages.h **** 	  trans->count_bytes(trans->impl, dev, trans->size_of(trans->impl, 0+2+2+2+2 +2 /* msg header over
 977:/home/dino/paparazzi/var/include/messages.h **** 	  trans->start_message(trans->impl, dev, 0+2+2+2+2 +2 /* msg header overhead */);
 978:/home/dino/paparazzi/var/include/messages.h **** 	  trans->put_bytes(trans->impl, dev, DL_TYPE_UINT8, DL_FORMAT_SCALAR, 1, &ac_id);
 979:/home/dino/paparazzi/var/include/messages.h **** 	  trans->put_named_byte(trans->impl, dev, DL_TYPE_UINT8, DL_FORMAT_SCALAR, DL_BARO_WORDS, "BARO_WO
 980:/home/dino/paparazzi/var/include/messages.h **** 	  trans->put_bytes(trans->impl, dev, DL_TYPE_UINT16, DL_FORMAT_SCALAR, 2, (void *) _w1);
 981:/home/dino/paparazzi/var/include/messages.h **** 	  trans->put_bytes(trans->impl, dev, DL_TYPE_UINT16, DL_FORMAT_SCALAR, 2, (void *) _w2);
 982:/home/dino/paparazzi/var/include/messages.h **** 	  trans->put_bytes(trans->impl, dev, DL_TYPE_UINT16, DL_FORMAT_SCALAR, 2, (void *) _w3);
 983:/home/dino/paparazzi/var/include/messages.h **** 	  trans->put_bytes(trans->impl, dev, DL_TYPE_UINT16, DL_FORMAT_SCALAR, 2, (void *) _w4);
 984:/home/dino/paparazzi/var/include/messages.h **** 	  trans->end_message(trans->impl, dev);
 985:/home/dino/paparazzi/var/include/messages.h **** 	} else
 986:/home/dino/paparazzi/var/include/messages.h **** 	  trans->overrun(trans->impl, dev);
 987:/home/dino/paparazzi/var/include/messages.h **** }
 988:/home/dino/paparazzi/var/include/messages.h **** 
 989:/home/dino/paparazzi/var/include/messages.h **** #define DOWNLINK_SEND_WP_MOVED_LLA(_trans, _dev, wp_id, lat, lon, alt) pprz_msg_send_WP_MOVED_LLA(&
 990:/home/dino/paparazzi/var/include/messages.h **** static inline void pprz_msg_send_WP_MOVED_LLA(struct transport_tx *trans, struct link_device *dev, 
 991:/home/dino/paparazzi/var/include/messages.h **** 	if (trans->check_available_space(trans->impl, dev, trans->size_of(trans->impl, 0+1+4+4+4 +2 /* msg
 992:/home/dino/paparazzi/var/include/messages.h **** 	  trans->count_bytes(trans->impl, dev, trans->size_of(trans->impl, 0+1+4+4+4 +2 /* msg header over
 993:/home/dino/paparazzi/var/include/messages.h **** 	  trans->start_message(trans->impl, dev, 0+1+4+4+4 +2 /* msg header overhead */);
 994:/home/dino/paparazzi/var/include/messages.h **** 	  trans->put_bytes(trans->impl, dev, DL_TYPE_UINT8, DL_FORMAT_SCALAR, 1, &ac_id);
 995:/home/dino/paparazzi/var/include/messages.h **** 	  trans->put_named_byte(trans->impl, dev, DL_TYPE_UINT8, DL_FORMAT_SCALAR, DL_WP_MOVED_LLA, "WP_MO
 996:/home/dino/paparazzi/var/include/messages.h **** 	  trans->put_bytes(trans->impl, dev, DL_TYPE_UINT8, DL_FORMAT_SCALAR, 1, (void *) _wp_id);
 997:/home/dino/paparazzi/var/include/messages.h **** 	  trans->put_bytes(trans->impl, dev, DL_TYPE_INT32, DL_FORMAT_SCALAR, 4, (void *) _lat);
 998:/home/dino/paparazzi/var/include/messages.h **** 	  trans->put_bytes(trans->impl, dev, DL_TYPE_INT32, DL_FORMAT_SCALAR, 4, (void *) _lon);
 999:/home/dino/paparazzi/var/include/messages.h **** 	  trans->put_bytes(trans->impl, dev, DL_TYPE_INT32, DL_FORMAT_SCALAR, 4, (void *) _alt);
1000:/home/dino/paparazzi/var/include/messages.h **** 	  trans->end_message(trans->impl, dev);
1001:/home/dino/paparazzi/var/include/messages.h **** 	} else
1002:/home/dino/paparazzi/var/include/messages.h **** 	  trans->overrun(trans->impl, dev);
1003:/home/dino/paparazzi/var/include/messages.h **** }
1004:/home/dino/paparazzi/var/include/messages.h **** 
1005:/home/dino/paparazzi/var/include/messages.h **** #define DOWNLINK_SEND_CHRONO(_trans, _dev, tag, time) pprz_msg_send_CHRONO(&((_trans).trans_tx), &(
1006:/home/dino/paparazzi/var/include/messages.h **** static inline void pprz_msg_send_CHRONO(struct transport_tx *trans, struct link_device *dev, uint8_
1007:/home/dino/paparazzi/var/include/messages.h **** 	if (trans->check_available_space(trans->impl, dev, trans->size_of(trans->impl, 0+1+4 +2 /* msg hea
1008:/home/dino/paparazzi/var/include/messages.h **** 	  trans->count_bytes(trans->impl, dev, trans->size_of(trans->impl, 0+1+4 +2 /* msg header overhead
1009:/home/dino/paparazzi/var/include/messages.h **** 	  trans->start_message(trans->impl, dev, 0+1+4 +2 /* msg header overhead */);
1010:/home/dino/paparazzi/var/include/messages.h **** 	  trans->put_bytes(trans->impl, dev, DL_TYPE_UINT8, DL_FORMAT_SCALAR, 1, &ac_id);
1011:/home/dino/paparazzi/var/include/messages.h **** 	  trans->put_named_byte(trans->impl, dev, DL_TYPE_UINT8, DL_FORMAT_SCALAR, DL_CHRONO, "CHRONO");
1012:/home/dino/paparazzi/var/include/messages.h **** 	  trans->put_bytes(trans->impl, dev, DL_TYPE_UINT8, DL_FORMAT_SCALAR, 1, (void *) _tag);
1013:/home/dino/paparazzi/var/include/messages.h **** 	  trans->put_bytes(trans->impl, dev, DL_TYPE_UINT32, DL_FORMAT_SCALAR, 4, (void *) _time);
1014:/home/dino/paparazzi/var/include/messages.h **** 	  trans->end_message(trans->impl, dev);
1015:/home/dino/paparazzi/var/include/messages.h **** 	} else
1016:/home/dino/paparazzi/var/include/messages.h **** 	  trans->overrun(trans->impl, dev);
1017:/home/dino/paparazzi/var/include/messages.h **** }
1018:/home/dino/paparazzi/var/include/messages.h **** 
1019:/home/dino/paparazzi/var/include/messages.h **** #define DOWNLINK_SEND_WP_MOVED_ENU(_trans, _dev, wp_id, east, north, up) pprz_msg_send_WP_MOVED_ENU
1020:/home/dino/paparazzi/var/include/messages.h **** static inline void pprz_msg_send_WP_MOVED_ENU(struct transport_tx *trans, struct link_device *dev, 
1021:/home/dino/paparazzi/var/include/messages.h **** 	if (trans->check_available_space(trans->impl, dev, trans->size_of(trans->impl, 0+1+4+4+4 +2 /* msg
1022:/home/dino/paparazzi/var/include/messages.h **** 	  trans->count_bytes(trans->impl, dev, trans->size_of(trans->impl, 0+1+4+4+4 +2 /* msg header over
1023:/home/dino/paparazzi/var/include/messages.h **** 	  trans->start_message(trans->impl, dev, 0+1+4+4+4 +2 /* msg header overhead */);
1024:/home/dino/paparazzi/var/include/messages.h **** 	  trans->put_bytes(trans->impl, dev, DL_TYPE_UINT8, DL_FORMAT_SCALAR, 1, &ac_id);
1025:/home/dino/paparazzi/var/include/messages.h **** 	  trans->put_named_byte(trans->impl, dev, DL_TYPE_UINT8, DL_FORMAT_SCALAR, DL_WP_MOVED_ENU, "WP_MO
1026:/home/dino/paparazzi/var/include/messages.h **** 	  trans->put_bytes(trans->impl, dev, DL_TYPE_UINT8, DL_FORMAT_SCALAR, 1, (void *) _wp_id);
1027:/home/dino/paparazzi/var/include/messages.h **** 	  trans->put_bytes(trans->impl, dev, DL_TYPE_INT32, DL_FORMAT_SCALAR, 4, (void *) _east);
1028:/home/dino/paparazzi/var/include/messages.h **** 	  trans->put_bytes(trans->impl, dev, DL_TYPE_INT32, DL_FORMAT_SCALAR, 4, (void *) _north);
1029:/home/dino/paparazzi/var/include/messages.h **** 	  trans->put_bytes(trans->impl, dev, DL_TYPE_INT32, DL_FORMAT_SCALAR, 4, (void *) _up);
1030:/home/dino/paparazzi/var/include/messages.h **** 	  trans->end_message(trans->impl, dev);
1031:/home/dino/paparazzi/var/include/messages.h **** 	} else
1032:/home/dino/paparazzi/var/include/messages.h **** 	  trans->overrun(trans->impl, dev);
1033:/home/dino/paparazzi/var/include/messages.h **** }
1034:/home/dino/paparazzi/var/include/messages.h **** 
1035:/home/dino/paparazzi/var/include/messages.h **** #define DOWNLINK_SEND_WINDTURBINE_STATUS_(_trans, _dev, ac_id, tb_id, sync_itow, cycle_time) pprz_m
1036:/home/dino/paparazzi/var/include/messages.h **** static inline void pprz_msg_send_WINDTURBINE_STATUS_(struct transport_tx *trans, struct link_device
1037:/home/dino/paparazzi/var/include/messages.h **** 	if (trans->check_available_space(trans->impl, dev, trans->size_of(trans->impl, 0+1+1+4+4 +2 /* msg
1038:/home/dino/paparazzi/var/include/messages.h **** 	  trans->count_bytes(trans->impl, dev, trans->size_of(trans->impl, 0+1+1+4+4 +2 /* msg header over
1039:/home/dino/paparazzi/var/include/messages.h **** 	  trans->start_message(trans->impl, dev, 0+1+1+4+4 +2 /* msg header overhead */);
1040:/home/dino/paparazzi/var/include/messages.h **** 	  trans->put_bytes(trans->impl, dev, DL_TYPE_UINT8, DL_FORMAT_SCALAR, 1, &ac_id);
1041:/home/dino/paparazzi/var/include/messages.h **** 	  trans->put_named_byte(trans->impl, dev, DL_TYPE_UINT8, DL_FORMAT_SCALAR, DL_WINDTURBINE_STATUS_,
1042:/home/dino/paparazzi/var/include/messages.h **** 	  trans->put_bytes(trans->impl, dev, DL_TYPE_UINT8, DL_FORMAT_SCALAR, 1, (void *) _ac_id);
1043:/home/dino/paparazzi/var/include/messages.h **** 	  trans->put_bytes(trans->impl, dev, DL_TYPE_UINT8, DL_FORMAT_SCALAR, 1, (void *) _tb_id);
1044:/home/dino/paparazzi/var/include/messages.h **** 	  trans->put_bytes(trans->impl, dev, DL_TYPE_UINT32, DL_FORMAT_SCALAR, 4, (void *) _sync_itow);
1045:/home/dino/paparazzi/var/include/messages.h **** 	  trans->put_bytes(trans->impl, dev, DL_TYPE_UINT32, DL_FORMAT_SCALAR, 4, (void *) _cycle_time);
1046:/home/dino/paparazzi/var/include/messages.h **** 	  trans->end_message(trans->impl, dev);
1047:/home/dino/paparazzi/var/include/messages.h **** 	} else
1048:/home/dino/paparazzi/var/include/messages.h **** 	  trans->overrun(trans->impl, dev);
1049:/home/dino/paparazzi/var/include/messages.h **** }
1050:/home/dino/paparazzi/var/include/messages.h **** 
1051:/home/dino/paparazzi/var/include/messages.h **** #define DOWNLINK_SEND_RC_3CH_(_trans, _dev, throttle_mode, roll, pitch) pprz_msg_send_RC_3CH_(&((_t
1052:/home/dino/paparazzi/var/include/messages.h **** static inline void pprz_msg_send_RC_3CH_(struct transport_tx *trans, struct link_device *dev, uint8
1053:/home/dino/paparazzi/var/include/messages.h **** 	if (trans->check_available_space(trans->impl, dev, trans->size_of(trans->impl, 0+1+1+1 +2 /* msg h
1054:/home/dino/paparazzi/var/include/messages.h **** 	  trans->count_bytes(trans->impl, dev, trans->size_of(trans->impl, 0+1+1+1 +2 /* msg header overhe
1055:/home/dino/paparazzi/var/include/messages.h **** 	  trans->start_message(trans->impl, dev, 0+1+1+1 +2 /* msg header overhead */);
1056:/home/dino/paparazzi/var/include/messages.h **** 	  trans->put_bytes(trans->impl, dev, DL_TYPE_UINT8, DL_FORMAT_SCALAR, 1, &ac_id);
1057:/home/dino/paparazzi/var/include/messages.h **** 	  trans->put_named_byte(trans->impl, dev, DL_TYPE_UINT8, DL_FORMAT_SCALAR, DL_RC_3CH_, "RC_3CH_");
1058:/home/dino/paparazzi/var/include/messages.h **** 	  trans->put_bytes(trans->impl, dev, DL_TYPE_UINT8, DL_FORMAT_SCALAR, 1, (void *) _throttle_mode);
1059:/home/dino/paparazzi/var/include/messages.h **** 	  trans->put_bytes(trans->impl, dev, DL_TYPE_INT8, DL_FORMAT_SCALAR, 1, (void *) _roll);
1060:/home/dino/paparazzi/var/include/messages.h **** 	  trans->put_bytes(trans->impl, dev, DL_TYPE_INT8, DL_FORMAT_SCALAR, 1, (void *) _pitch);
1061:/home/dino/paparazzi/var/include/messages.h **** 	  trans->end_message(trans->impl, dev);
1062:/home/dino/paparazzi/var/include/messages.h **** 	} else
1063:/home/dino/paparazzi/var/include/messages.h **** 	  trans->overrun(trans->impl, dev);
1064:/home/dino/paparazzi/var/include/messages.h **** }
1065:/home/dino/paparazzi/var/include/messages.h **** 
1066:/home/dino/paparazzi/var/include/messages.h **** #define DOWNLINK_SEND_MPPT(_trans, _dev, nb_values, values) pprz_msg_send_MPPT(&((_trans).trans_tx)
1067:/home/dino/paparazzi/var/include/messages.h **** static inline void pprz_msg_send_MPPT(struct transport_tx *trans, struct link_device *dev, uint8_t 
1068:/home/dino/paparazzi/var/include/messages.h **** 	if (trans->check_available_space(trans->impl, dev, trans->size_of(trans->impl, 0+1+nb_values*2 +2 
1069:/home/dino/paparazzi/var/include/messages.h **** 	  trans->count_bytes(trans->impl, dev, trans->size_of(trans->impl, 0+1+nb_values*2 +2 /* msg heade
1070:/home/dino/paparazzi/var/include/messages.h **** 	  trans->start_message(trans->impl, dev, 0+1+nb_values*2 +2 /* msg header overhead */);
1071:/home/dino/paparazzi/var/include/messages.h **** 	  trans->put_bytes(trans->impl, dev, DL_TYPE_UINT8, DL_FORMAT_SCALAR, 1, &ac_id);
1072:/home/dino/paparazzi/var/include/messages.h **** 	  trans->put_named_byte(trans->impl, dev, DL_TYPE_UINT8, DL_FORMAT_SCALAR, DL_MPPT, "MPPT");
1073:/home/dino/paparazzi/var/include/messages.h **** 	  trans->put_bytes(trans->impl, dev, DL_TYPE_ARRAY_LENGTH, DL_FORMAT_SCALAR, 1, (void *) &nb_value
1074:/home/dino/paparazzi/var/include/messages.h **** 	  trans->put_bytes(trans->impl, dev, DL_TYPE_INT16, DL_FORMAT_ARRAY, 2 * nb_values, (void *) _valu
1075:/home/dino/paparazzi/var/include/messages.h **** 	  trans->end_message(trans->impl, dev);
1076:/home/dino/paparazzi/var/include/messages.h **** 	} else
1077:/home/dino/paparazzi/var/include/messages.h **** 	  trans->overrun(trans->impl, dev);
1078:/home/dino/paparazzi/var/include/messages.h **** }
1079:/home/dino/paparazzi/var/include/messages.h **** 
1080:/home/dino/paparazzi/var/include/messages.h **** #define DOWNLINK_SEND_DEBUG_IR_I2C(_trans, _dev, ir1, ir2, top) pprz_msg_send_DEBUG_IR_I2C(&((_tran
1081:/home/dino/paparazzi/var/include/messages.h **** static inline void pprz_msg_send_DEBUG_IR_I2C(struct transport_tx *trans, struct link_device *dev, 
1082:/home/dino/paparazzi/var/include/messages.h **** 	if (trans->check_available_space(trans->impl, dev, trans->size_of(trans->impl, 0+2+2+2 +2 /* msg h
1083:/home/dino/paparazzi/var/include/messages.h **** 	  trans->count_bytes(trans->impl, dev, trans->size_of(trans->impl, 0+2+2+2 +2 /* msg header overhe
1084:/home/dino/paparazzi/var/include/messages.h **** 	  trans->start_message(trans->impl, dev, 0+2+2+2 +2 /* msg header overhead */);
1085:/home/dino/paparazzi/var/include/messages.h **** 	  trans->put_bytes(trans->impl, dev, DL_TYPE_UINT8, DL_FORMAT_SCALAR, 1, &ac_id);
1086:/home/dino/paparazzi/var/include/messages.h **** 	  trans->put_named_byte(trans->impl, dev, DL_TYPE_UINT8, DL_FORMAT_SCALAR, DL_DEBUG_IR_I2C, "DEBUG
1087:/home/dino/paparazzi/var/include/messages.h **** 	  trans->put_bytes(trans->impl, dev, DL_TYPE_INT16, DL_FORMAT_SCALAR, 2, (void *) _ir1);
1088:/home/dino/paparazzi/var/include/messages.h **** 	  trans->put_bytes(trans->impl, dev, DL_TYPE_INT16, DL_FORMAT_SCALAR, 2, (void *) _ir2);
1089:/home/dino/paparazzi/var/include/messages.h **** 	  trans->put_bytes(trans->impl, dev, DL_TYPE_INT16, DL_FORMAT_SCALAR, 2, (void *) _top);
1090:/home/dino/paparazzi/var/include/messages.h **** 	  trans->end_message(trans->impl, dev);
1091:/home/dino/paparazzi/var/include/messages.h **** 	} else
1092:/home/dino/paparazzi/var/include/messages.h **** 	  trans->overrun(trans->impl, dev);
1093:/home/dino/paparazzi/var/include/messages.h **** }
1094:/home/dino/paparazzi/var/include/messages.h **** 
1095:/home/dino/paparazzi/var/include/messages.h **** #define DOWNLINK_SEND_AIRSPEED(_trans, _dev, airspeed, airspeed_sp, airspeed_cnt, groundspeed_sp) p
1096:/home/dino/paparazzi/var/include/messages.h **** static inline void pprz_msg_send_AIRSPEED(struct transport_tx *trans, struct link_device *dev, uint
1097:/home/dino/paparazzi/var/include/messages.h **** 	if (trans->check_available_space(trans->impl, dev, trans->size_of(trans->impl, 0+4+4+4+4 +2 /* msg
1098:/home/dino/paparazzi/var/include/messages.h **** 	  trans->count_bytes(trans->impl, dev, trans->size_of(trans->impl, 0+4+4+4+4 +2 /* msg header over
1099:/home/dino/paparazzi/var/include/messages.h **** 	  trans->start_message(trans->impl, dev, 0+4+4+4+4 +2 /* msg header overhead */);
1100:/home/dino/paparazzi/var/include/messages.h **** 	  trans->put_bytes(trans->impl, dev, DL_TYPE_UINT8, DL_FORMAT_SCALAR, 1, &ac_id);
1101:/home/dino/paparazzi/var/include/messages.h **** 	  trans->put_named_byte(trans->impl, dev, DL_TYPE_UINT8, DL_FORMAT_SCALAR, DL_AIRSPEED, "AIRSPEED"
1102:/home/dino/paparazzi/var/include/messages.h **** 	  trans->put_bytes(trans->impl, dev, DL_TYPE_FLOAT, DL_FORMAT_SCALAR, 4, (void *) _airspeed);
1103:/home/dino/paparazzi/var/include/messages.h **** 	  trans->put_bytes(trans->impl, dev, DL_TYPE_FLOAT, DL_FORMAT_SCALAR, 4, (void *) _airspeed_sp);
1104:/home/dino/paparazzi/var/include/messages.h **** 	  trans->put_bytes(trans->impl, dev, DL_TYPE_FLOAT, DL_FORMAT_SCALAR, 4, (void *) _airspeed_cnt);
1105:/home/dino/paparazzi/var/include/messages.h **** 	  trans->put_bytes(trans->impl, dev, DL_TYPE_FLOAT, DL_FORMAT_SCALAR, 4, (void *) _groundspeed_sp)
1106:/home/dino/paparazzi/var/include/messages.h **** 	  trans->end_message(trans->impl, dev);
1107:/home/dino/paparazzi/var/include/messages.h **** 	} else
1108:/home/dino/paparazzi/var/include/messages.h **** 	  trans->overrun(trans->impl, dev);
1109:/home/dino/paparazzi/var/include/messages.h **** }
1110:/home/dino/paparazzi/var/include/messages.h **** 
1111:/home/dino/paparazzi/var/include/messages.h **** #define DOWNLINK_SEND_XSENS(_trans, _dev, counter, p, q, r, phi, theta, psi, ax, ay, az, vx, vy, vz
1112:/home/dino/paparazzi/var/include/messages.h **** static inline void pprz_msg_send_XSENS(struct transport_tx *trans, struct link_device *dev, uint8_t
1113:/home/dino/paparazzi/var/include/messages.h **** 	if (trans->check_available_space(trans->impl, dev, trans->size_of(trans->impl, 0+2+4+4+4+4+4+4+4+4
1114:/home/dino/paparazzi/var/include/messages.h **** 	  trans->count_bytes(trans->impl, dev, trans->size_of(trans->impl, 0+2+4+4+4+4+4+4+4+4+4+4+4+4+4+4
1115:/home/dino/paparazzi/var/include/messages.h **** 	  trans->start_message(trans->impl, dev, 0+2+4+4+4+4+4+4+4+4+4+4+4+4+4+4+4+1+1+1+1+4+2+1+1 +2 /* m
1116:/home/dino/paparazzi/var/include/messages.h **** 	  trans->put_bytes(trans->impl, dev, DL_TYPE_UINT8, DL_FORMAT_SCALAR, 1, &ac_id);
1117:/home/dino/paparazzi/var/include/messages.h **** 	  trans->put_named_byte(trans->impl, dev, DL_TYPE_UINT8, DL_FORMAT_SCALAR, DL_XSENS, "XSENS");
1118:/home/dino/paparazzi/var/include/messages.h **** 	  trans->put_bytes(trans->impl, dev, DL_TYPE_INT16, DL_FORMAT_SCALAR, 2, (void *) _counter);
1119:/home/dino/paparazzi/var/include/messages.h **** 	  trans->put_bytes(trans->impl, dev, DL_TYPE_FLOAT, DL_FORMAT_SCALAR, 4, (void *) _p);
1120:/home/dino/paparazzi/var/include/messages.h **** 	  trans->put_bytes(trans->impl, dev, DL_TYPE_FLOAT, DL_FORMAT_SCALAR, 4, (void *) _q);
1121:/home/dino/paparazzi/var/include/messages.h **** 	  trans->put_bytes(trans->impl, dev, DL_TYPE_FLOAT, DL_FORMAT_SCALAR, 4, (void *) _r);
1122:/home/dino/paparazzi/var/include/messages.h **** 	  trans->put_bytes(trans->impl, dev, DL_TYPE_FLOAT, DL_FORMAT_SCALAR, 4, (void *) _phi);
1123:/home/dino/paparazzi/var/include/messages.h **** 	  trans->put_bytes(trans->impl, dev, DL_TYPE_FLOAT, DL_FORMAT_SCALAR, 4, (void *) _theta);
1124:/home/dino/paparazzi/var/include/messages.h **** 	  trans->put_bytes(trans->impl, dev, DL_TYPE_FLOAT, DL_FORMAT_SCALAR, 4, (void *) _psi);
1125:/home/dino/paparazzi/var/include/messages.h **** 	  trans->put_bytes(trans->impl, dev, DL_TYPE_FLOAT, DL_FORMAT_SCALAR, 4, (void *) _ax);
1126:/home/dino/paparazzi/var/include/messages.h **** 	  trans->put_bytes(trans->impl, dev, DL_TYPE_FLOAT, DL_FORMAT_SCALAR, 4, (void *) _ay);
1127:/home/dino/paparazzi/var/include/messages.h **** 	  trans->put_bytes(trans->impl, dev, DL_TYPE_FLOAT, DL_FORMAT_SCALAR, 4, (void *) _az);
1128:/home/dino/paparazzi/var/include/messages.h **** 	  trans->put_bytes(trans->impl, dev, DL_TYPE_FLOAT, DL_FORMAT_SCALAR, 4, (void *) _vx);
1129:/home/dino/paparazzi/var/include/messages.h **** 	  trans->put_bytes(trans->impl, dev, DL_TYPE_FLOAT, DL_FORMAT_SCALAR, 4, (void *) _vy);
1130:/home/dino/paparazzi/var/include/messages.h **** 	  trans->put_bytes(trans->impl, dev, DL_TYPE_FLOAT, DL_FORMAT_SCALAR, 4, (void *) _vz);
1131:/home/dino/paparazzi/var/include/messages.h **** 	  trans->put_bytes(trans->impl, dev, DL_TYPE_FLOAT, DL_FORMAT_SCALAR, 4, (void *) _lat);
1132:/home/dino/paparazzi/var/include/messages.h **** 	  trans->put_bytes(trans->impl, dev, DL_TYPE_FLOAT, DL_FORMAT_SCALAR, 4, (void *) _lon);
1133:/home/dino/paparazzi/var/include/messages.h **** 	  trans->put_bytes(trans->impl, dev, DL_TYPE_FLOAT, DL_FORMAT_SCALAR, 4, (void *) _alt);
1134:/home/dino/paparazzi/var/include/messages.h **** 	  trans->put_bytes(trans->impl, dev, DL_TYPE_UINT8, DL_FORMAT_SCALAR, 1, (void *) _status);
1135:/home/dino/paparazzi/var/include/messages.h **** 	  trans->put_bytes(trans->impl, dev, DL_TYPE_UINT8, DL_FORMAT_SCALAR, 1, (void *) _hour);
1136:/home/dino/paparazzi/var/include/messages.h **** 	  trans->put_bytes(trans->impl, dev, DL_TYPE_UINT8, DL_FORMAT_SCALAR, 1, (void *) _min);
1137:/home/dino/paparazzi/var/include/messages.h **** 	  trans->put_bytes(trans->impl, dev, DL_TYPE_UINT8, DL_FORMAT_SCALAR, 1, (void *) _sec);
1138:/home/dino/paparazzi/var/include/messages.h **** 	  trans->put_bytes(trans->impl, dev, DL_TYPE_UINT32, DL_FORMAT_SCALAR, 4, (void *) _nanosec);
1139:/home/dino/paparazzi/var/include/messages.h **** 	  trans->put_bytes(trans->impl, dev, DL_TYPE_UINT16, DL_FORMAT_SCALAR, 2, (void *) _year);
1140:/home/dino/paparazzi/var/include/messages.h **** 	  trans->put_bytes(trans->impl, dev, DL_TYPE_UINT8, DL_FORMAT_SCALAR, 1, (void *) _month);
1141:/home/dino/paparazzi/var/include/messages.h **** 	  trans->put_bytes(trans->impl, dev, DL_TYPE_UINT8, DL_FORMAT_SCALAR, 1, (void *) _day);
1142:/home/dino/paparazzi/var/include/messages.h **** 	  trans->end_message(trans->impl, dev);
1143:/home/dino/paparazzi/var/include/messages.h **** 	} else
1144:/home/dino/paparazzi/var/include/messages.h **** 	  trans->overrun(trans->impl, dev);
1145:/home/dino/paparazzi/var/include/messages.h **** }
1146:/home/dino/paparazzi/var/include/messages.h **** 
1147:/home/dino/paparazzi/var/include/messages.h **** #define DOWNLINK_SEND_BARO_ETS(_trans, _dev, adc, offset, scaled) pprz_msg_send_BARO_ETS(&((_trans)
1148:/home/dino/paparazzi/var/include/messages.h **** static inline void pprz_msg_send_BARO_ETS(struct transport_tx *trans, struct link_device *dev, uint
1149:/home/dino/paparazzi/var/include/messages.h **** 	if (trans->check_available_space(trans->impl, dev, trans->size_of(trans->impl, 0+2+2+4 +2 /* msg h
1150:/home/dino/paparazzi/var/include/messages.h **** 	  trans->count_bytes(trans->impl, dev, trans->size_of(trans->impl, 0+2+2+4 +2 /* msg header overhe
1151:/home/dino/paparazzi/var/include/messages.h **** 	  trans->start_message(trans->impl, dev, 0+2+2+4 +2 /* msg header overhead */);
1152:/home/dino/paparazzi/var/include/messages.h **** 	  trans->put_bytes(trans->impl, dev, DL_TYPE_UINT8, DL_FORMAT_SCALAR, 1, &ac_id);
1153:/home/dino/paparazzi/var/include/messages.h **** 	  trans->put_named_byte(trans->impl, dev, DL_TYPE_UINT8, DL_FORMAT_SCALAR, DL_BARO_ETS, "BARO_ETS"
1154:/home/dino/paparazzi/var/include/messages.h **** 	  trans->put_bytes(trans->impl, dev, DL_TYPE_UINT16, DL_FORMAT_SCALAR, 2, (void *) _adc);
1155:/home/dino/paparazzi/var/include/messages.h **** 	  trans->put_bytes(trans->impl, dev, DL_TYPE_UINT16, DL_FORMAT_SCALAR, 2, (void *) _offset);
1156:/home/dino/paparazzi/var/include/messages.h **** 	  trans->put_bytes(trans->impl, dev, DL_TYPE_FLOAT, DL_FORMAT_SCALAR, 4, (void *) _scaled);
1157:/home/dino/paparazzi/var/include/messages.h **** 	  trans->end_message(trans->impl, dev);
1158:/home/dino/paparazzi/var/include/messages.h **** 	} else
1159:/home/dino/paparazzi/var/include/messages.h **** 	  trans->overrun(trans->impl, dev);
1160:/home/dino/paparazzi/var/include/messages.h **** }
1161:/home/dino/paparazzi/var/include/messages.h **** 
1162:/home/dino/paparazzi/var/include/messages.h **** #define DOWNLINK_SEND_AIRSPEED_ETS(_trans, _dev, adc, offset, scaled) pprz_msg_send_AIRSPEED_ETS(&(
1163:/home/dino/paparazzi/var/include/messages.h **** static inline void pprz_msg_send_AIRSPEED_ETS(struct transport_tx *trans, struct link_device *dev, 
1164:/home/dino/paparazzi/var/include/messages.h **** 	if (trans->check_available_space(trans->impl, dev, trans->size_of(trans->impl, 0+2+2+4 +2 /* msg h
1165:/home/dino/paparazzi/var/include/messages.h **** 	  trans->count_bytes(trans->impl, dev, trans->size_of(trans->impl, 0+2+2+4 +2 /* msg header overhe
1166:/home/dino/paparazzi/var/include/messages.h **** 	  trans->start_message(trans->impl, dev, 0+2+2+4 +2 /* msg header overhead */);
1167:/home/dino/paparazzi/var/include/messages.h **** 	  trans->put_bytes(trans->impl, dev, DL_TYPE_UINT8, DL_FORMAT_SCALAR, 1, &ac_id);
1168:/home/dino/paparazzi/var/include/messages.h **** 	  trans->put_named_byte(trans->impl, dev, DL_TYPE_UINT8, DL_FORMAT_SCALAR, DL_AIRSPEED_ETS, "AIRSP
1169:/home/dino/paparazzi/var/include/messages.h **** 	  trans->put_bytes(trans->impl, dev, DL_TYPE_UINT16, DL_FORMAT_SCALAR, 2, (void *) _adc);
1170:/home/dino/paparazzi/var/include/messages.h **** 	  trans->put_bytes(trans->impl, dev, DL_TYPE_UINT16, DL_FORMAT_SCALAR, 2, (void *) _offset);
1171:/home/dino/paparazzi/var/include/messages.h **** 	  trans->put_bytes(trans->impl, dev, DL_TYPE_FLOAT, DL_FORMAT_SCALAR, 4, (void *) _scaled);
1172:/home/dino/paparazzi/var/include/messages.h **** 	  trans->end_message(trans->impl, dev);
1173:/home/dino/paparazzi/var/include/messages.h **** 	} else
1174:/home/dino/paparazzi/var/include/messages.h **** 	  trans->overrun(trans->impl, dev);
1175:/home/dino/paparazzi/var/include/messages.h **** }
1176:/home/dino/paparazzi/var/include/messages.h **** 
1177:/home/dino/paparazzi/var/include/messages.h **** #define DOWNLINK_SEND_PBN(_trans, _dev, airspeed_adc, altitude_adc, airspeed, altitude, airspeed_of
1178:/home/dino/paparazzi/var/include/messages.h **** static inline void pprz_msg_send_PBN(struct transport_tx *trans, struct link_device *dev, uint8_t a
1179:/home/dino/paparazzi/var/include/messages.h **** 	if (trans->check_available_space(trans->impl, dev, trans->size_of(trans->impl, 0+2+2+4+4+2+2 +2 /*
1180:/home/dino/paparazzi/var/include/messages.h **** 	  trans->count_bytes(trans->impl, dev, trans->size_of(trans->impl, 0+2+2+4+4+2+2 +2 /* msg header 
1181:/home/dino/paparazzi/var/include/messages.h **** 	  trans->start_message(trans->impl, dev, 0+2+2+4+4+2+2 +2 /* msg header overhead */);
1182:/home/dino/paparazzi/var/include/messages.h **** 	  trans->put_bytes(trans->impl, dev, DL_TYPE_UINT8, DL_FORMAT_SCALAR, 1, &ac_id);
1183:/home/dino/paparazzi/var/include/messages.h **** 	  trans->put_named_byte(trans->impl, dev, DL_TYPE_UINT8, DL_FORMAT_SCALAR, DL_PBN, "PBN");
1184:/home/dino/paparazzi/var/include/messages.h **** 	  trans->put_bytes(trans->impl, dev, DL_TYPE_UINT16, DL_FORMAT_SCALAR, 2, (void *) _airspeed_adc);
1185:/home/dino/paparazzi/var/include/messages.h **** 	  trans->put_bytes(trans->impl, dev, DL_TYPE_UINT16, DL_FORMAT_SCALAR, 2, (void *) _altitude_adc);
1186:/home/dino/paparazzi/var/include/messages.h **** 	  trans->put_bytes(trans->impl, dev, DL_TYPE_FLOAT, DL_FORMAT_SCALAR, 4, (void *) _airspeed);
1187:/home/dino/paparazzi/var/include/messages.h **** 	  trans->put_bytes(trans->impl, dev, DL_TYPE_FLOAT, DL_FORMAT_SCALAR, 4, (void *) _altitude);
1188:/home/dino/paparazzi/var/include/messages.h **** 	  trans->put_bytes(trans->impl, dev, DL_TYPE_UINT16, DL_FORMAT_SCALAR, 2, (void *) _airspeed_offse
1189:/home/dino/paparazzi/var/include/messages.h **** 	  trans->put_bytes(trans->impl, dev, DL_TYPE_UINT16, DL_FORMAT_SCALAR, 2, (void *) _altitude_offse
1190:/home/dino/paparazzi/var/include/messages.h **** 	  trans->end_message(trans->impl, dev);
1191:/home/dino/paparazzi/var/include/messages.h **** 	} else
1192:/home/dino/paparazzi/var/include/messages.h **** 	  trans->overrun(trans->impl, dev);
1193:/home/dino/paparazzi/var/include/messages.h **** }
1194:/home/dino/paparazzi/var/include/messages.h **** 
1195:/home/dino/paparazzi/var/include/messages.h **** #define DOWNLINK_SEND_GPS_LLA(_trans, _dev, lat, lon, alt, course, speed, climb, week, itow, mode, 
1196:/home/dino/paparazzi/var/include/messages.h **** static inline void pprz_msg_send_GPS_LLA(struct transport_tx *trans, struct link_device *dev, uint8
1197:/home/dino/paparazzi/var/include/messages.h **** 	if (trans->check_available_space(trans->impl, dev, trans->size_of(trans->impl, 0+4+4+4+2+2+2+2+4+1
  84              		.loc 2 1197 0
  85 0038 DBF82070 		ldr	r7, [fp, #32]
  86              	.LBE7:
  87              	.LBE6:
  88              		.loc 1 121 0
  89 003c ADF80E00 		strh	r0, [sp, #14]	@ movhi
  90              	.LVL6:
  91 0040 4FF0010A 		mov	r10, #1
  92              	.LBB9:
  93              	.LBB8:
  94              		.loc 2 1197 0
  95 0044 1C21     		movs	r1, #28
  96 0046 8DF80BA0 		strb	r10, [sp, #11]
  97              	.LVL7:
  98 004a DBF80030 		ldr	r3, [fp]
  99 004e DBF80480 		ldr	r8, [fp, #4]
 100 0052 3846     		mov	r0, r7
 101 0054 9847     		blx	r3
 102              	.LVL8:
 103 0056 2146     		mov	r1, r4
 104 0058 0246     		mov	r2, r0
 105 005a 3846     		mov	r0, r7
 106 005c C047     		blx	r8
 107              	.LVL9:
 108 005e 0028     		cmp	r0, #0
 109 0060 00F0B480 		beq	.L2
1198:/home/dino/paparazzi/var/include/messages.h **** 	  trans->count_bytes(trans->impl, dev, trans->size_of(trans->impl, 0+4+4+4+2+2+2+2+4+1+1 +2 /* msg
 110              		.loc 2 1198 0
 111 0064 DBF82070 		ldr	r7, [fp, #32]
 112 0068 DBF80030 		ldr	r3, [fp]
 113 006c DBF81C80 		ldr	r8, [fp, #28]
 114 0070 3846     		mov	r0, r7
 115 0072 1C21     		movs	r1, #28
 116 0074 9847     		blx	r3
 117              	.LVL10:
 118 0076 2146     		mov	r1, r4
 119 0078 0246     		mov	r2, r0
 120 007a 3846     		mov	r0, r7
 121 007c C047     		blx	r8
 122              	.LVL11:
1199:/home/dino/paparazzi/var/include/messages.h **** 	  trans->start_message(trans->impl, dev, 0+4+4+4+2+2+2+2+4+1+1 +2 /* msg header overhead */);
 123              		.loc 2 1199 0
 124 007e DBF81030 		ldr	r3, [fp, #16]
 125 0082 DBF82000 		ldr	r0, [fp, #32]
 126 0086 2146     		mov	r1, r4
 127 0088 1C22     		movs	r2, #28
 128 008a 9847     		blx	r3
 129              	.LVL12:
1200:/home/dino/paparazzi/var/include/messages.h **** 	  trans->put_bytes(trans->impl, dev, DL_TYPE_UINT8, DL_FORMAT_SCALAR, 1, &ac_id);
 130              		.loc 2 1200 0
 131 008c 0DF10B03 		add	r3, sp, #11
 132 0090 0193     		str	r3, [sp, #4]
 133 0092 DBF80870 		ldr	r7, [fp, #8]
 134 0096 DBF82000 		ldr	r0, [fp, #32]
 135 009a CDF800A0 		str	r10, [sp]
 136 009e 2146     		mov	r1, r4
 137 00a0 0222     		movs	r2, #2
 138 00a2 2B46     		mov	r3, r5
 139 00a4 B847     		blx	r7
 140              	.LVL13:
1201:/home/dino/paparazzi/var/include/messages.h **** 	  trans->put_named_byte(trans->impl, dev, DL_TYPE_UINT8, DL_FORMAT_SCALAR, DL_GPS_LLA, "GPS_LLA");
 141              		.loc 2 1201 0
 142 00a6 3B23     		movs	r3, #59
 143 00a8 0093     		str	r3, [sp]
 144 00aa 524B     		ldr	r3, .L6+20
 145 00ac 0193     		str	r3, [sp, #4]
 146 00ae DBF80C70 		ldr	r7, [fp, #12]
 147 00b2 DBF82000 		ldr	r0, [fp, #32]
 148 00b6 2146     		mov	r1, r4
 149 00b8 0222     		movs	r2, #2
 150 00ba 2B46     		mov	r3, r5
 151 00bc B847     		blx	r7
 152              	.LVL14:
1202:/home/dino/paparazzi/var/include/messages.h **** 	  trans->put_bytes(trans->impl, dev, DL_TYPE_INT32, DL_FORMAT_SCALAR, 4, (void *) _lat);
 153              		.loc 2 1202 0
 154 00be 4FF00409 		mov	r9, #4
 155 00c2 06F10C03 		add	r3, r6, #12
 156 00c6 0193     		str	r3, [sp, #4]
 157 00c8 DBF80870 		ldr	r7, [fp, #8]
 158 00cc DBF82000 		ldr	r0, [fp, #32]
 159 00d0 CDF80090 		str	r9, [sp]
 160 00d4 2146     		mov	r1, r4
 161 00d6 0722     		movs	r2, #7
 162 00d8 2B46     		mov	r3, r5
 163 00da B847     		blx	r7
 164              	.LVL15:
1203:/home/dino/paparazzi/var/include/messages.h **** 	  trans->put_bytes(trans->impl, dev, DL_TYPE_INT32, DL_FORMAT_SCALAR, 4, (void *) _lon);
 165              		.loc 2 1203 0
 166 00dc 06F11003 		add	r3, r6, #16
 167 00e0 0193     		str	r3, [sp, #4]
 168 00e2 DBF80870 		ldr	r7, [fp, #8]
 169 00e6 DBF82000 		ldr	r0, [fp, #32]
 170 00ea CDF80090 		str	r9, [sp]
 171 00ee 2146     		mov	r1, r4
 172 00f0 0722     		movs	r2, #7
 173 00f2 2B46     		mov	r3, r5
 174 00f4 B847     		blx	r7
 175              	.LVL16:
1204:/home/dino/paparazzi/var/include/messages.h **** 	  trans->put_bytes(trans->impl, dev, DL_TYPE_INT32, DL_FORMAT_SCALAR, 4, (void *) _alt);
 176              		.loc 2 1204 0
 177 00f6 06F11403 		add	r3, r6, #20
 178 00fa 0193     		str	r3, [sp, #4]
 179 00fc DBF80870 		ldr	r7, [fp, #8]
 180 0100 DBF82000 		ldr	r0, [fp, #32]
 181 0104 CDF80090 		str	r9, [sp]
 182 0108 2146     		mov	r1, r4
 183 010a 0722     		movs	r2, #7
 184 010c 2B46     		mov	r3, r5
 185 010e B847     		blx	r7
 186              	.LVL17:
1205:/home/dino/paparazzi/var/include/messages.h **** 	  trans->put_bytes(trans->impl, dev, DL_TYPE_INT16, DL_FORMAT_SCALAR, 2, (void *) _course);
 187              		.loc 2 1205 0
 188 0110 4FF00208 		mov	r8, #2
 189 0114 0DF10E03 		add	r3, sp, #14
 190              	.LVL18:
 191 0118 0193     		str	r3, [sp, #4]
 192 011a DBF82000 		ldr	r0, [fp, #32]
 193 011e DBF80870 		ldr	r7, [fp, #8]
 194 0122 CDF80080 		str	r8, [sp]
 195 0126 2146     		mov	r1, r4
 196 0128 0522     		movs	r2, #5
 197 012a 2B46     		mov	r3, r5
 198              	.LVL19:
 199 012c B847     		blx	r7
 200              	.LVL20:
1206:/home/dino/paparazzi/var/include/messages.h **** 	  trans->put_bytes(trans->impl, dev, DL_TYPE_UINT16, DL_FORMAT_SCALAR, 2, (void *) _speed);
 201              		.loc 2 1206 0
 202 012e 06F14403 		add	r3, r6, #68
 203 0132 0193     		str	r3, [sp, #4]
 204 0134 DBF82000 		ldr	r0, [fp, #32]
 205 0138 DBF80870 		ldr	r7, [fp, #8]
 206 013c CDF80080 		str	r8, [sp]
 207 0140 2146     		mov	r1, r4
 208 0142 4A46     		mov	r2, r9
 209 0144 2B46     		mov	r3, r5
 210 0146 B847     		blx	r7
 211              	.LVL21:
1207:/home/dino/paparazzi/var/include/messages.h **** 	  trans->put_bytes(trans->impl, dev, DL_TYPE_INT16, DL_FORMAT_SCALAR, 2, (void *) _climb);
 212              		.loc 2 1207 0
 213 0148 03AB     		add	r3, sp, #12
 214              	.LVL22:
 215 014a 0193     		str	r3, [sp, #4]
 216 014c DBF82000 		ldr	r0, [fp, #32]
 217 0150 DBF80870 		ldr	r7, [fp, #8]
 218 0154 CDF80080 		str	r8, [sp]
 219 0158 2146     		mov	r1, r4
 220 015a 0522     		movs	r2, #5
 221 015c 2B46     		mov	r3, r5
 222              	.LVL23:
 223 015e B847     		blx	r7
 224              	.LVL24:
1208:/home/dino/paparazzi/var/include/messages.h **** 	  trans->put_bytes(trans->impl, dev, DL_TYPE_UINT16, DL_FORMAT_SCALAR, 2, (void *) _week);
 225              		.loc 2 1208 0
 226 0160 06F15C03 		add	r3, r6, #92
 227 0164 0193     		str	r3, [sp, #4]
 228 0166 DBF82000 		ldr	r0, [fp, #32]
 229 016a DBF80870 		ldr	r7, [fp, #8]
 230 016e CDF80080 		str	r8, [sp]
 231 0172 2146     		mov	r1, r4
 232 0174 4A46     		mov	r2, r9
 233 0176 2B46     		mov	r3, r5
 234 0178 B847     		blx	r7
 235              	.LVL25:
1209:/home/dino/paparazzi/var/include/messages.h **** 	  trans->put_bytes(trans->impl, dev, DL_TYPE_UINT32, DL_FORMAT_SCALAR, 4, (void *) _itow);
 236              		.loc 2 1209 0
 237 017a 06F16003 		add	r3, r6, #96
 238 017e 0193     		str	r3, [sp, #4]
 239 0180 DBF82000 		ldr	r0, [fp, #32]
 240 0184 CDF80090 		str	r9, [sp]
 241 0188 2146     		mov	r1, r4
 242 018a 0622     		movs	r2, #6
 243 018c 2B46     		mov	r3, r5
1210:/home/dino/paparazzi/var/include/messages.h **** 	  trans->put_bytes(trans->impl, dev, DL_TYPE_UINT8, DL_FORMAT_SCALAR, 1, (void *) _mode);
 244              		.loc 2 1210 0
 245 018e 5B36     		adds	r6, r6, #91
1209:/home/dino/paparazzi/var/include/messages.h **** 	  trans->put_bytes(trans->impl, dev, DL_TYPE_UINT32, DL_FORMAT_SCALAR, 4, (void *) _itow);
 246              		.loc 2 1209 0
 247 0190 DBF80870 		ldr	r7, [fp, #8]
 248 0194 B847     		blx	r7
 249              	.LVL26:
 250              		.loc 2 1210 0
 251 0196 0196     		str	r6, [sp, #4]
 252 0198 DBF82000 		ldr	r0, [fp, #32]
 253 019c DBF80860 		ldr	r6, [fp, #8]
 254 01a0 CDF800A0 		str	r10, [sp]
 255 01a4 2146     		mov	r1, r4
 256 01a6 4246     		mov	r2, r8
 257 01a8 2B46     		mov	r3, r5
 258 01aa B047     		blx	r6
 259              	.LVL27:
1211:/home/dino/paparazzi/var/include/messages.h **** 	  trans->put_bytes(trans->impl, dev, DL_TYPE_UINT8, DL_FORMAT_SCALAR, 1, (void *) _gps_nb_err);
 260              		.loc 2 1211 0
 261 01ac 0DF10A03 		add	r3, sp, #10
 262              	.LVL28:
 263 01b0 0193     		str	r3, [sp, #4]
 264 01b2 CDF800A0 		str	r10, [sp]
 265 01b6 2B46     		mov	r3, r5
 266              	.LVL29:
 267 01b8 DBF80860 		ldr	r6, [fp, #8]
 268 01bc DBF82000 		ldr	r0, [fp, #32]
 269 01c0 2146     		mov	r1, r4
 270 01c2 4246     		mov	r2, r8
 271 01c4 B047     		blx	r6
 272              	.LVL30:
1212:/home/dino/paparazzi/var/include/messages.h **** 	  trans->end_message(trans->impl, dev);
 273              		.loc 2 1212 0
 274 01c6 DBF81430 		ldr	r3, [fp, #20]
 275 01ca 01E0     		b	.L4
 276              	.L2:
1213:/home/dino/paparazzi/var/include/messages.h **** 	} else
1214:/home/dino/paparazzi/var/include/messages.h **** 	  trans->overrun(trans->impl, dev);
 277              		.loc 2 1214 0
 278 01cc DBF81830 		ldr	r3, [fp, #24]
 279              	.L4:
 280 01d0 DBF82000 		ldr	r0, [fp, #32]
 281 01d4 2146     		mov	r1, r4
 282 01d6 9847     		blx	r3
 283              	.LVL31:
 284              	.LBE8:
 285              	.LBE9:
 122:subsystems/gps.c ****   pprz_msg_send_GPS_LLA(trans, dev, AC_ID,
 123:subsystems/gps.c ****                         &gps.lla_pos.lat, &gps.lla_pos.lon, &gps.lla_pos.alt,
 124:subsystems/gps.c ****                         &course, &gps.gspeed, &climb,
 125:subsystems/gps.c ****                         &gps.week, &gps.tow,
 126:subsystems/gps.c ****                         &gps.fix, &err);
 127:subsystems/gps.c **** }
 286              		.loc 1 127 0
 287 01d8 05B0     		add	sp, sp, #20
 288              		.cfi_def_cfa_offset 36
 289              		@ sp needed
 290 01da BDE8F08F 		pop	{r4, r5, r6, r7, r8, r9, r10, fp, pc}
 291              	.LVL32:
 292              	.L7:
 293 01de 00BF     		.align	3
 294              	.L6:
 295 01e0 F8C1631A 		.word	442745336
 296 01e4 DCA54C40 		.word	1078765020
 297 01e8 00000000 		.word	0
 298 01ec 80842E41 		.word	1093567616
 299 01f0 00000000 		.word	.LANCHOR0
 300 01f4 00000000 		.word	.LC0
 301              		.cfi_endproc
 302              	.LFE330:
 304              		.section	.text.send_svinfo_id,"ax",%progbits
 305              		.align	1
 306              		.thumb
 307              		.thumb_func
 309              	send_svinfo_id:
 310              	.LFB325:
  50:subsystems/gps.c ****   if (svid < GPS_NB_CHANNELS) {
 311              		.loc 1 50 0
 312              		.cfi_startproc
 313              		@ args = 0, pretend = 0, frame = 16
 314              		@ frame_needed = 0, uses_anonymous_args = 0
 315              	.LVL33:
 316 0000 2DE9F043 		push	{r4, r5, r6, r7, r8, r9, lr}
 317              		.cfi_def_cfa_offset 28
 318              		.cfi_offset 4, -28
 319              		.cfi_offset 5, -24
 320              		.cfi_offset 6, -20
 321              		.cfi_offset 7, -16
 322              		.cfi_offset 8, -12
 323              		.cfi_offset 9, -8
 324              		.cfi_offset 14, -4
 325 0004 87B0     		sub	sp, sp, #28
 326              		.cfi_def_cfa_offset 56
  51:subsystems/gps.c ****     pprz_msg_send_SVINFO(trans, dev, AC_ID, &svid,
 327              		.loc 1 51 0
 328 0006 0F2A     		cmp	r2, #15
  50:subsystems/gps.c ****   if (svid < GPS_NB_CHANNELS) {
 329              		.loc 1 50 0
 330 0008 0446     		mov	r4, r0
 331 000a 0D46     		mov	r5, r1
 332 000c 8DF80F20 		strb	r2, [sp, #15]
  51:subsystems/gps.c ****     pprz_msg_send_SVINFO(trans, dev, AC_ID, &svid,
 333              		.loc 1 51 0
 334 0010 1646     		mov	r6, r2
 335 0012 00F28A80 		bhi	.L8
 336              	.LVL34:
 337              	.LBB12:
 338              	.LBB13:
 631:/home/dino/paparazzi/var/include/messages.h **** 	  trans->count_bytes(trans->impl, dev, trans->size_of(trans->impl, 0+1+1+1+1+1+1+2 +2 /* msg heade
 339              		.loc 2 631 0
 340 0016 076A     		ldr	r7, [r0, #32]
 341 0018 D0F80490 		ldr	r9, [r0, #4]
 342 001c 0368     		ldr	r3, [r0]
 343 001e 4FF00108 		mov	r8, #1
 344 0022 0A21     		movs	r1, #10
 345              	.LVL35:
 346 0024 8DF81780 		strb	r8, [sp, #23]
 347              	.LVL36:
 348 0028 3846     		mov	r0, r7
 349              	.LVL37:
 350 002a 9847     		blx	r3
 351              	.LVL38:
 352 002c 2946     		mov	r1, r5
 353 002e 0246     		mov	r2, r0
 354 0030 3846     		mov	r0, r7
 355 0032 C847     		blx	r9
 356              	.LVL39:
 357 0034 0028     		cmp	r0, #0
 358 0036 74D0     		beq	.L10
 632:/home/dino/paparazzi/var/include/messages.h **** 	  trans->start_message(trans->impl, dev, 0+1+1+1+1+1+1+2 +2 /* msg header overhead */);
 359              		.loc 2 632 0
 360 0038 276A     		ldr	r7, [r4, #32]
 361 003a 2368     		ldr	r3, [r4]
 362 003c D4F81C90 		ldr	r9, [r4, #28]
 363 0040 3846     		mov	r0, r7
 364 0042 0A21     		movs	r1, #10
 365 0044 9847     		blx	r3
 366              	.LVL40:
 367 0046 2946     		mov	r1, r5
 368 0048 0246     		mov	r2, r0
 369 004a 3846     		mov	r0, r7
 370 004c C847     		blx	r9
 371              	.LVL41:
 633:/home/dino/paparazzi/var/include/messages.h **** 	  trans->put_bytes(trans->impl, dev, DL_TYPE_UINT8, DL_FORMAT_SCALAR, 1, &ac_id);
 372              		.loc 2 633 0
 373 004e 2369     		ldr	r3, [r4, #16]
 374 0050 206A     		ldr	r0, [r4, #32]
 375 0052 2946     		mov	r1, r5
 376 0054 0A22     		movs	r2, #10
 377 0056 9847     		blx	r3
 378              	.LVL42:
 634:/home/dino/paparazzi/var/include/messages.h **** 	  trans->put_named_byte(trans->impl, dev, DL_TYPE_UINT8, DL_FORMAT_SCALAR, DL_SVINFO, "SVINFO");
 379              		.loc 2 634 0
 380 0058 0DF11703 		add	r3, sp, #23
 381 005c 0193     		str	r3, [sp, #4]
 382 005e A768     		ldr	r7, [r4, #8]
 383 0060 206A     		ldr	r0, [r4, #32]
 384 0062 CDF80080 		str	r8, [sp]
 385 0066 2946     		mov	r1, r5
 386 0068 0222     		movs	r2, #2
 387 006a 0023     		movs	r3, #0
 388 006c B847     		blx	r7
 389              	.LVL43:
 635:/home/dino/paparazzi/var/include/messages.h **** 	  trans->put_bytes(trans->impl, dev, DL_TYPE_UINT8, DL_FORMAT_SCALAR, 1, (void *) _chn);
 390              		.loc 2 635 0
 391 006e 1923     		movs	r3, #25
 392 0070 0093     		str	r3, [sp]
 393 0072 2F4B     		ldr	r3, .L12
 394 0074 0193     		str	r3, [sp, #4]
 395 0076 E768     		ldr	r7, [r4, #12]
 396 0078 206A     		ldr	r0, [r4, #32]
 397 007a 2946     		mov	r1, r5
 398 007c 0222     		movs	r2, #2
 399 007e 0023     		movs	r3, #0
 400 0080 B847     		blx	r7
 401              	.LVL44:
 636:/home/dino/paparazzi/var/include/messages.h **** 	  trans->put_bytes(trans->impl, dev, DL_TYPE_UINT8, DL_FORMAT_SCALAR, 1, (void *) _SVID);
 402              		.loc 2 636 0
 403 0082 0DF10F03 		add	r3, sp, #15
 404              	.LVL45:
 405 0086 0193     		str	r3, [sp, #4]
 406 0088 A768     		ldr	r7, [r4, #8]
 407 008a 206A     		ldr	r0, [r4, #32]
 408 008c CDF80080 		str	r8, [sp]
 409 0090 2946     		mov	r1, r5
 410 0092 0222     		movs	r2, #2
 411 0094 0023     		movs	r3, #0
 412              	.LVL46:
 413 0096 B847     		blx	r7
 414              	.LVL47:
 415              	.LBE13:
 416              	.LBE12:
  52:subsystems/gps.c ****                          &gps.svinfos[svid].svid, &gps.svinfos[svid].flags,
 417              		.loc 1 52 0
 418 0098 264A     		ldr	r2, .L12+4
 419              	.LBB21:
 420              	.LBB14:
 637:/home/dino/paparazzi/var/include/messages.h **** 	  trans->put_bytes(trans->impl, dev, DL_TYPE_UINT8, DL_FORMAT_SCALAR, 1, (void *) _Flags);
 421              		.loc 2 637 0
 422 009a A768     		ldr	r7, [r4, #8]
 423 009c 206A     		ldr	r0, [r4, #32]
 424 009e CDF80080 		str	r8, [sp]
 425              	.LBE14:
 426              	.LBE21:
  52:subsystems/gps.c ****                          &gps.svinfos[svid].svid, &gps.svinfos[svid].flags,
 427              		.loc 1 52 0
 428 00a2 0C36     		adds	r6, r6, #12
 429              	.LVL48:
 430 00a4 02EBC606 		add	r6, r2, r6, lsl #3
 431 00a8 B31D     		adds	r3, r6, #6
 432              	.LBB22:
 433              	.LBB15:
 637:/home/dino/paparazzi/var/include/messages.h **** 	  trans->put_bytes(trans->impl, dev, DL_TYPE_UINT8, DL_FORMAT_SCALAR, 1, (void *) _Flags);
 434              		.loc 2 637 0
 435 00aa 0193     		str	r3, [sp, #4]
 436 00ac 2946     		mov	r1, r5
 437 00ae 0222     		movs	r2, #2
 438 00b0 0023     		movs	r3, #0
 439 00b2 B847     		blx	r7
 440              	.LVL49:
 441              	.LBE15:
 442              	.LBE22:
  52:subsystems/gps.c ****                          &gps.svinfos[svid].svid, &gps.svinfos[svid].flags,
 443              		.loc 1 52 0
 444 00b4 F31D     		adds	r3, r6, #7
 445              	.LBB23:
 446              	.LBB16:
 638:/home/dino/paparazzi/var/include/messages.h **** 	  trans->put_bytes(trans->impl, dev, DL_TYPE_UINT8, DL_FORMAT_SCALAR, 1, (void *) _QI);
 447              		.loc 2 638 0
 448 00b6 0193     		str	r3, [sp, #4]
 449 00b8 A768     		ldr	r7, [r4, #8]
 450 00ba 206A     		ldr	r0, [r4, #32]
 451 00bc CDF80080 		str	r8, [sp]
 452 00c0 2946     		mov	r1, r5
 453 00c2 0222     		movs	r2, #2
 454 00c4 0023     		movs	r3, #0
 455 00c6 B847     		blx	r7
 456              	.LVL50:
 457              	.LBE16:
 458              	.LBE23:
  52:subsystems/gps.c ****                          &gps.svinfos[svid].svid, &gps.svinfos[svid].flags,
 459              		.loc 1 52 0
 460 00c8 06F10803 		add	r3, r6, #8
 461              	.LBB24:
 462              	.LBB17:
 639:/home/dino/paparazzi/var/include/messages.h **** 	  trans->put_bytes(trans->impl, dev, DL_TYPE_UINT8, DL_FORMAT_SCALAR, 1, (void *) _CNO);
 463              		.loc 2 639 0
 464 00cc 0193     		str	r3, [sp, #4]
 465 00ce A768     		ldr	r7, [r4, #8]
 466 00d0 206A     		ldr	r0, [r4, #32]
 467 00d2 CDF80080 		str	r8, [sp]
 468 00d6 2946     		mov	r1, r5
 469 00d8 0222     		movs	r2, #2
 470 00da 0023     		movs	r3, #0
 471 00dc B847     		blx	r7
 472              	.LVL51:
 473              	.LBE17:
 474              	.LBE24:
  52:subsystems/gps.c ****                          &gps.svinfos[svid].svid, &gps.svinfos[svid].flags,
 475              		.loc 1 52 0
 476 00de 06F10903 		add	r3, r6, #9
 477              	.LBB25:
 478              	.LBB18:
 640:/home/dino/paparazzi/var/include/messages.h **** 	  trans->put_bytes(trans->impl, dev, DL_TYPE_INT8, DL_FORMAT_SCALAR, 1, (void *) _Elev);
 479              		.loc 2 640 0
 480 00e2 0193     		str	r3, [sp, #4]
 481 00e4 A768     		ldr	r7, [r4, #8]
 482 00e6 206A     		ldr	r0, [r4, #32]
 483 00e8 CDF80080 		str	r8, [sp]
 484 00ec 2946     		mov	r1, r5
 485 00ee 0222     		movs	r2, #2
 486 00f0 0023     		movs	r3, #0
 487 00f2 B847     		blx	r7
 488              	.LVL52:
 489              	.LBE18:
 490              	.LBE25:
  52:subsystems/gps.c ****                          &gps.svinfos[svid].svid, &gps.svinfos[svid].flags,
 491              		.loc 1 52 0
 492 00f4 06F10A03 		add	r3, r6, #10
 493              	.LBB26:
 494              	.LBB19:
 641:/home/dino/paparazzi/var/include/messages.h **** 	  trans->put_bytes(trans->impl, dev, DL_TYPE_INT16, DL_FORMAT_SCALAR, 2, (void *) _Azim);
 495              		.loc 2 641 0
 496 00f8 0193     		str	r3, [sp, #4]
 497 00fa 206A     		ldr	r0, [r4, #32]
 498 00fc CDF80080 		str	r8, [sp]
 499 0100 2946     		mov	r1, r5
 500 0102 0322     		movs	r2, #3
 501 0104 0023     		movs	r3, #0
 502 0106 A768     		ldr	r7, [r4, #8]
 503 0108 B847     		blx	r7
 504              	.LVL53:
 505              	.LBE19:
 506              	.LBE26:
  52:subsystems/gps.c ****                          &gps.svinfos[svid].svid, &gps.svinfos[svid].flags,
 507              		.loc 1 52 0
 508 010a 0C36     		adds	r6, r6, #12
 509              	.LBB27:
 510              	.LBB20:
 642:/home/dino/paparazzi/var/include/messages.h **** 	  trans->end_message(trans->impl, dev);
 511              		.loc 2 642 0
 512 010c 0223     		movs	r3, #2
 513 010e 0093     		str	r3, [sp]
 514 0110 0196     		str	r6, [sp, #4]
 515 0112 0023     		movs	r3, #0
 516 0114 A668     		ldr	r6, [r4, #8]
 517 0116 206A     		ldr	r0, [r4, #32]
 518 0118 2946     		mov	r1, r5
 519 011a 0522     		movs	r2, #5
 520 011c B047     		blx	r6
 521              	.LVL54:
 643:/home/dino/paparazzi/var/include/messages.h **** 	} else
 522              		.loc 2 643 0
 523 011e 6369     		ldr	r3, [r4, #20]
 524 0120 00E0     		b	.L11
 525              	.LVL55:
 526              	.L10:
 645:/home/dino/paparazzi/var/include/messages.h **** }
 527              		.loc 2 645 0
 528 0122 A369     		ldr	r3, [r4, #24]
 529              	.LVL56:
 530              	.L11:
 531 0124 206A     		ldr	r0, [r4, #32]
 532 0126 2946     		mov	r1, r5
 533 0128 9847     		blx	r3
 534              	.LVL57:
 535              	.L8:
 536              	.LBE20:
 537              	.LBE27:
  57:subsystems/gps.c **** 
 538              		.loc 1 57 0
 539 012a 07B0     		add	sp, sp, #28
 540              		.cfi_def_cfa_offset 28
 541              		@ sp needed
 542 012c BDE8F083 		pop	{r4, r5, r6, r7, r8, r9, pc}
 543              	.LVL58:
 544              	.L13:
 545              		.align	2
 546              	.L12:
 547 0130 08000000 		.word	.LC1
 548 0134 00000000 		.word	.LANCHOR0
 549              		.cfi_endproc
 550              	.LFE325:
 552              		.section	.text.send_svinfo,"ax",%progbits
 553              		.align	1
 554              		.thumb
 555              		.thumb_func
 557              	send_svinfo:
 558              	.LFB326:
  61:subsystems/gps.c ****   static uint8_t i = 0;
 559              		.loc 1 61 0
 560              		.cfi_startproc
 561              		@ args = 0, pretend = 0, frame = 0
 562              		@ frame_needed = 0, uses_anonymous_args = 0
 563              	.LVL59:
 564 0000 10B5     		push	{r4, lr}
 565              		.cfi_def_cfa_offset 8
 566              		.cfi_offset 4, -8
 567              		.cfi_offset 14, -4
  63:subsystems/gps.c ****   send_svinfo_id(trans, dev, i);
 568              		.loc 1 63 0
 569 0002 084B     		ldr	r3, .L16
 570 0004 084C     		ldr	r4, .L16+4
 571 0006 93F86430 		ldrb	r3, [r3, #100]	@ zero_extendqisi2
 572 000a 2278     		ldrb	r2, [r4]	@ zero_extendqisi2
 573 000c 9A42     		cmp	r2, r3
 574 000e 04BF     		itt	eq
 575 0010 0023     		moveq	r3, #0
 576 0012 2370     		strbeq	r3, [r4]
  64:subsystems/gps.c ****   i++;
 577              		.loc 1 64 0
 578 0014 2278     		ldrb	r2, [r4]	@ zero_extendqisi2
 579 0016 FFF7FEFF 		bl	send_svinfo_id
 580              	.LVL60:
  65:subsystems/gps.c **** }
 581              		.loc 1 65 0
 582 001a 2378     		ldrb	r3, [r4]	@ zero_extendqisi2
 583 001c 0133     		adds	r3, r3, #1
 584 001e 2370     		strb	r3, [r4]
 585 0020 10BD     		pop	{r4, pc}
 586              	.L17:
 587 0022 00BF     		.align	2
 588              	.L16:
 589 0024 00000000 		.word	.LANCHOR0
 590 0028 00000000 		.word	.LANCHOR1
 591              		.cfi_endproc
 592              	.LFE326:
 594              		.section	.text.send_svinfo_available,"ax",%progbits
 595              		.align	1
 596              		.thumb
 597              		.thumb_func
 599              	send_svinfo_available:
 600              	.LFB327:
  73:subsystems/gps.c ****   static uint8_t i = 0;
 601              		.loc 1 73 0
 602              		.cfi_startproc
 603              		@ args = 0, pretend = 0, frame = 0
 604              		@ frame_needed = 0, uses_anonymous_args = 0
 605              	.LVL61:
 606 0000 F8B5     		push	{r3, r4, r5, r6, r7, lr}
 607              		.cfi_def_cfa_offset 24
 608              		.cfi_offset 3, -24
 609              		.cfi_offset 4, -20
 610              		.cfi_offset 5, -16
 611              		.cfi_offset 6, -12
 612              		.cfi_offset 7, -8
 613              		.cfi_offset 14, -4
  76:subsystems/gps.c ****   // send SVINFO for all satellites while no GPS fix,
 614              		.loc 1 76 0
 615 0002 134C     		ldr	r4, .L22
 616 0004 134B     		ldr	r3, .L22+4
 617 0006 2578     		ldrb	r5, [r4]	@ zero_extendqisi2
 618 0008 93F86420 		ldrb	r2, [r3, #100]	@ zero_extendqisi2
  79:subsystems/gps.c ****     send_svinfo_id(trans, dev, i);
 619              		.loc 1 79 0
 620 000c 93F85B30 		ldrb	r3, [r3, #91]	@ zero_extendqisi2
  76:subsystems/gps.c ****   // send SVINFO for all satellites while no GPS fix,
 621              		.loc 1 76 0
 622 0010 9542     		cmp	r5, r2
 623 0012 24BF     		itt	cs
 624 0014 0022     		movcs	r2, #0
 625 0016 2270     		strbcs	r2, [r4]
  79:subsystems/gps.c ****     send_svinfo_id(trans, dev, i);
 626              		.loc 1 79 0
 627 0018 032B     		cmp	r3, #3
 628 001a 0E4D     		ldr	r5, .L22+4
  80:subsystems/gps.c ****   } else if (gps.svinfos[i].cno != last_cnos[i]) {
 629              		.loc 1 80 0
 630 001c 2278     		ldrb	r2, [r4]	@ zero_extendqisi2
  79:subsystems/gps.c ****     send_svinfo_id(trans, dev, i);
 631              		.loc 1 79 0
 632 001e 02D0     		beq	.L20
  80:subsystems/gps.c ****   } else if (gps.svinfos[i].cno != last_cnos[i]) {
 633              		.loc 1 80 0
 634 0020 FFF7FEFF 		bl	send_svinfo_id
 635              	.LVL62:
 636 0024 10E0     		b	.L21
 637              	.LVL63:
 638              	.L20:
  81:subsystems/gps.c ****     send_svinfo_id(trans, dev, i);
 639              		.loc 1 81 0
 640 0026 05EBC203 		add	r3, r5, r2, lsl #3
 641 002a 0B4E     		ldr	r6, .L22+8
 642 002c 93F86970 		ldrb	r7, [r3, #105]	@ zero_extendqisi2
 643 0030 B35C     		ldrb	r3, [r6, r2]	@ zero_extendqisi2
 644 0032 9F42     		cmp	r7, r3
 645 0034 08D0     		beq	.L21
  82:subsystems/gps.c ****     last_cnos[i] = gps.svinfos[i].cno;
 646              		.loc 1 82 0
 647 0036 FFF7FEFF 		bl	send_svinfo_id
 648              	.LVL64:
  83:subsystems/gps.c ****   }
 649              		.loc 1 83 0
 650 003a 054B     		ldr	r3, .L22
 651 003c 1B78     		ldrb	r3, [r3]	@ zero_extendqisi2
 652 003e 05EBC305 		add	r5, r5, r3, lsl #3
 653 0042 95F86920 		ldrb	r2, [r5, #105]	@ zero_extendqisi2
 654 0046 F254     		strb	r2, [r6, r3]
 655              	.L21:
  85:subsystems/gps.c **** }
 656              		.loc 1 85 0
 657 0048 2378     		ldrb	r3, [r4]	@ zero_extendqisi2
 658 004a 0133     		adds	r3, r3, #1
 659 004c 2370     		strb	r3, [r4]
 660 004e F8BD     		pop	{r3, r4, r5, r6, r7, pc}
 661              	.L23:
 662              		.align	2
 663              	.L22:
 664 0050 00000000 		.word	.LANCHOR2
 665 0054 00000000 		.word	.LANCHOR0
 666 0058 00000000 		.word	.LANCHOR3
 667              		.cfi_endproc
 668              	.LFE327:
 670              		.section	.text.send_gps_int,"ax",%progbits
 671              		.align	1
 672              		.thumb
 673              		.thumb_func
 675              	send_gps_int:
 676              	.LFB329:
 102:subsystems/gps.c ****   pprz_msg_send_GPS_INT(trans, dev, AC_ID,
 677              		.loc 1 102 0
 678              		.cfi_startproc
 679              		@ args = 0, pretend = 0, frame = 8
 680              		@ frame_needed = 0, uses_anonymous_args = 0
 681              	.LVL65:
 682 0000 2DE9F043 		push	{r4, r5, r6, r7, r8, r9, lr}
 683              		.cfi_def_cfa_offset 28
 684              		.cfi_offset 4, -28
 685              		.cfi_offset 5, -24
 686              		.cfi_offset 6, -20
 687              		.cfi_offset 7, -16
 688              		.cfi_offset 8, -12
 689              		.cfi_offset 9, -8
 690              		.cfi_offset 14, -4
 691              	.LBB30:
 692              	.LBB31:
1215:/home/dino/paparazzi/var/include/messages.h **** }
1216:/home/dino/paparazzi/var/include/messages.h **** 
1217:/home/dino/paparazzi/var/include/messages.h **** #define DOWNLINK_SEND_H_CTL_A(_trans, _dev, roll_sum_err, roll_sp, roll_ref, phi, aileron_sp, pitch
1218:/home/dino/paparazzi/var/include/messages.h **** static inline void pprz_msg_send_H_CTL_A(struct transport_tx *trans, struct link_device *dev, uint8
1219:/home/dino/paparazzi/var/include/messages.h **** 	if (trans->check_available_space(trans->impl, dev, trans->size_of(trans->impl, 0+4+4+4+4+2+4+4+4+4
1220:/home/dino/paparazzi/var/include/messages.h **** 	  trans->count_bytes(trans->impl, dev, trans->size_of(trans->impl, 0+4+4+4+4+2+4+4+4+4+2 +2 /* msg
1221:/home/dino/paparazzi/var/include/messages.h **** 	  trans->start_message(trans->impl, dev, 0+4+4+4+4+2+4+4+4+4+2 +2 /* msg header overhead */);
1222:/home/dino/paparazzi/var/include/messages.h **** 	  trans->put_bytes(trans->impl, dev, DL_TYPE_UINT8, DL_FORMAT_SCALAR, 1, &ac_id);
1223:/home/dino/paparazzi/var/include/messages.h **** 	  trans->put_named_byte(trans->impl, dev, DL_TYPE_UINT8, DL_FORMAT_SCALAR, DL_H_CTL_A, "H_CTL_A");
1224:/home/dino/paparazzi/var/include/messages.h **** 	  trans->put_bytes(trans->impl, dev, DL_TYPE_FLOAT, DL_FORMAT_SCALAR, 4, (void *) _roll_sum_err);
1225:/home/dino/paparazzi/var/include/messages.h **** 	  trans->put_bytes(trans->impl, dev, DL_TYPE_FLOAT, DL_FORMAT_SCALAR, 4, (void *) _roll_sp);
1226:/home/dino/paparazzi/var/include/messages.h **** 	  trans->put_bytes(trans->impl, dev, DL_TYPE_FLOAT, DL_FORMAT_SCALAR, 4, (void *) _roll_ref);
1227:/home/dino/paparazzi/var/include/messages.h **** 	  trans->put_bytes(trans->impl, dev, DL_TYPE_FLOAT, DL_FORMAT_SCALAR, 4, (void *) _phi);
1228:/home/dino/paparazzi/var/include/messages.h **** 	  trans->put_bytes(trans->impl, dev, DL_TYPE_INT16, DL_FORMAT_SCALAR, 2, (void *) _aileron_sp);
1229:/home/dino/paparazzi/var/include/messages.h **** 	  trans->put_bytes(trans->impl, dev, DL_TYPE_FLOAT, DL_FORMAT_SCALAR, 4, (void *) _pitch_sum_err);
1230:/home/dino/paparazzi/var/include/messages.h **** 	  trans->put_bytes(trans->impl, dev, DL_TYPE_FLOAT, DL_FORMAT_SCALAR, 4, (void *) _pitch_sp);
1231:/home/dino/paparazzi/var/include/messages.h **** 	  trans->put_bytes(trans->impl, dev, DL_TYPE_FLOAT, DL_FORMAT_SCALAR, 4, (void *) _pitch_ref);
1232:/home/dino/paparazzi/var/include/messages.h **** 	  trans->put_bytes(trans->impl, dev, DL_TYPE_FLOAT, DL_FORMAT_SCALAR, 4, (void *) _theta);
1233:/home/dino/paparazzi/var/include/messages.h **** 	  trans->put_bytes(trans->impl, dev, DL_TYPE_INT16, DL_FORMAT_SCALAR, 2, (void *) _elevator_sp);
1234:/home/dino/paparazzi/var/include/messages.h **** 	  trans->end_message(trans->impl, dev);
1235:/home/dino/paparazzi/var/include/messages.h **** 	} else
1236:/home/dino/paparazzi/var/include/messages.h **** 	  trans->overrun(trans->impl, dev);
1237:/home/dino/paparazzi/var/include/messages.h **** }
1238:/home/dino/paparazzi/var/include/messages.h **** 
1239:/home/dino/paparazzi/var/include/messages.h **** #define DOWNLINK_SEND_TURB_PRESSURE_RAW(_trans, _dev, ch_0, ch_1, ch_2, ch_3, ch_4, ch_5, ch_6, ch_
1240:/home/dino/paparazzi/var/include/messages.h **** static inline void pprz_msg_send_TURB_PRESSURE_RAW(struct transport_tx *trans, struct link_device *
1241:/home/dino/paparazzi/var/include/messages.h **** 	if (trans->check_available_space(trans->impl, dev, trans->size_of(trans->impl, 0+4+4+4+4+4+4+4+4+4
1242:/home/dino/paparazzi/var/include/messages.h **** 	  trans->count_bytes(trans->impl, dev, trans->size_of(trans->impl, 0+4+4+4+4+4+4+4+4+4+4+4+4+4+4+4
1243:/home/dino/paparazzi/var/include/messages.h **** 	  trans->start_message(trans->impl, dev, 0+4+4+4+4+4+4+4+4+4+4+4+4+4+4+4+4 +2 /* msg header overhe
1244:/home/dino/paparazzi/var/include/messages.h **** 	  trans->put_bytes(trans->impl, dev, DL_TYPE_UINT8, DL_FORMAT_SCALAR, 1, &ac_id);
1245:/home/dino/paparazzi/var/include/messages.h **** 	  trans->put_named_byte(trans->impl, dev, DL_TYPE_UINT8, DL_FORMAT_SCALAR, DL_TURB_PRESSURE_RAW, "
1246:/home/dino/paparazzi/var/include/messages.h **** 	  trans->put_bytes(trans->impl, dev, DL_TYPE_INT32, DL_FORMAT_SCALAR, 4, (void *) _ch_0);
1247:/home/dino/paparazzi/var/include/messages.h **** 	  trans->put_bytes(trans->impl, dev, DL_TYPE_INT32, DL_FORMAT_SCALAR, 4, (void *) _ch_1);
1248:/home/dino/paparazzi/var/include/messages.h **** 	  trans->put_bytes(trans->impl, dev, DL_TYPE_INT32, DL_FORMAT_SCALAR, 4, (void *) _ch_2);
1249:/home/dino/paparazzi/var/include/messages.h **** 	  trans->put_bytes(trans->impl, dev, DL_TYPE_INT32, DL_FORMAT_SCALAR, 4, (void *) _ch_3);
1250:/home/dino/paparazzi/var/include/messages.h **** 	  trans->put_bytes(trans->impl, dev, DL_TYPE_INT32, DL_FORMAT_SCALAR, 4, (void *) _ch_4);
1251:/home/dino/paparazzi/var/include/messages.h **** 	  trans->put_bytes(trans->impl, dev, DL_TYPE_INT32, DL_FORMAT_SCALAR, 4, (void *) _ch_5);
1252:/home/dino/paparazzi/var/include/messages.h **** 	  trans->put_bytes(trans->impl, dev, DL_TYPE_INT32, DL_FORMAT_SCALAR, 4, (void *) _ch_6);
1253:/home/dino/paparazzi/var/include/messages.h **** 	  trans->put_bytes(trans->impl, dev, DL_TYPE_INT32, DL_FORMAT_SCALAR, 4, (void *) _ch_7);
1254:/home/dino/paparazzi/var/include/messages.h **** 	  trans->put_bytes(trans->impl, dev, DL_TYPE_INT32, DL_FORMAT_SCALAR, 4, (void *) _ch_8);
1255:/home/dino/paparazzi/var/include/messages.h **** 	  trans->put_bytes(trans->impl, dev, DL_TYPE_INT32, DL_FORMAT_SCALAR, 4, (void *) _ch_9);
1256:/home/dino/paparazzi/var/include/messages.h **** 	  trans->put_bytes(trans->impl, dev, DL_TYPE_INT32, DL_FORMAT_SCALAR, 4, (void *) _ch_10);
1257:/home/dino/paparazzi/var/include/messages.h **** 	  trans->put_bytes(trans->impl, dev, DL_TYPE_INT32, DL_FORMAT_SCALAR, 4, (void *) _ch_11);
1258:/home/dino/paparazzi/var/include/messages.h **** 	  trans->put_bytes(trans->impl, dev, DL_TYPE_INT32, DL_FORMAT_SCALAR, 4, (void *) _ch_12);
1259:/home/dino/paparazzi/var/include/messages.h **** 	  trans->put_bytes(trans->impl, dev, DL_TYPE_INT32, DL_FORMAT_SCALAR, 4, (void *) _ch_13);
1260:/home/dino/paparazzi/var/include/messages.h **** 	  trans->put_bytes(trans->impl, dev, DL_TYPE_INT32, DL_FORMAT_SCALAR, 4, (void *) _ch_14);
1261:/home/dino/paparazzi/var/include/messages.h **** 	  trans->put_bytes(trans->impl, dev, DL_TYPE_INT32, DL_FORMAT_SCALAR, 4, (void *) _ch_15);
1262:/home/dino/paparazzi/var/include/messages.h **** 	  trans->end_message(trans->impl, dev);
1263:/home/dino/paparazzi/var/include/messages.h **** 	} else
1264:/home/dino/paparazzi/var/include/messages.h **** 	  trans->overrun(trans->impl, dev);
1265:/home/dino/paparazzi/var/include/messages.h **** }
1266:/home/dino/paparazzi/var/include/messages.h **** 
1267:/home/dino/paparazzi/var/include/messages.h **** #define DOWNLINK_SEND_TURB_PRESSURE_VOLTAGE(_trans, _dev, ch_1_p, ch_1_t, ch_2_p, ch_2_t, ch_3_p, c
1268:/home/dino/paparazzi/var/include/messages.h **** static inline void pprz_msg_send_TURB_PRESSURE_VOLTAGE(struct transport_tx *trans, struct link_devi
1269:/home/dino/paparazzi/var/include/messages.h **** 	if (trans->check_available_space(trans->impl, dev, trans->size_of(trans->impl, 0+4+4+4+4+4+4+4+4+4
1270:/home/dino/paparazzi/var/include/messages.h **** 	  trans->count_bytes(trans->impl, dev, trans->size_of(trans->impl, 0+4+4+4+4+4+4+4+4+4+4+4+4+4+4+4
1271:/home/dino/paparazzi/var/include/messages.h **** 	  trans->start_message(trans->impl, dev, 0+4+4+4+4+4+4+4+4+4+4+4+4+4+4+4+4 +2 /* msg header overhe
1272:/home/dino/paparazzi/var/include/messages.h **** 	  trans->put_bytes(trans->impl, dev, DL_TYPE_UINT8, DL_FORMAT_SCALAR, 1, &ac_id);
1273:/home/dino/paparazzi/var/include/messages.h **** 	  trans->put_named_byte(trans->impl, dev, DL_TYPE_UINT8, DL_FORMAT_SCALAR, DL_TURB_PRESSURE_VOLTAG
1274:/home/dino/paparazzi/var/include/messages.h **** 	  trans->put_bytes(trans->impl, dev, DL_TYPE_FLOAT, DL_FORMAT_SCALAR, 4, (void *) _ch_1_p);
1275:/home/dino/paparazzi/var/include/messages.h **** 	  trans->put_bytes(trans->impl, dev, DL_TYPE_FLOAT, DL_FORMAT_SCALAR, 4, (void *) _ch_1_t);
1276:/home/dino/paparazzi/var/include/messages.h **** 	  trans->put_bytes(trans->impl, dev, DL_TYPE_FLOAT, DL_FORMAT_SCALAR, 4, (void *) _ch_2_p);
1277:/home/dino/paparazzi/var/include/messages.h **** 	  trans->put_bytes(trans->impl, dev, DL_TYPE_FLOAT, DL_FORMAT_SCALAR, 4, (void *) _ch_2_t);
1278:/home/dino/paparazzi/var/include/messages.h **** 	  trans->put_bytes(trans->impl, dev, DL_TYPE_FLOAT, DL_FORMAT_SCALAR, 4, (void *) _ch_3_p);
1279:/home/dino/paparazzi/var/include/messages.h **** 	  trans->put_bytes(trans->impl, dev, DL_TYPE_FLOAT, DL_FORMAT_SCALAR, 4, (void *) _ch_3_t);
1280:/home/dino/paparazzi/var/include/messages.h **** 	  trans->put_bytes(trans->impl, dev, DL_TYPE_FLOAT, DL_FORMAT_SCALAR, 4, (void *) _ch_4_p);
1281:/home/dino/paparazzi/var/include/messages.h **** 	  trans->put_bytes(trans->impl, dev, DL_TYPE_FLOAT, DL_FORMAT_SCALAR, 4, (void *) _ch_4_t);
1282:/home/dino/paparazzi/var/include/messages.h **** 	  trans->put_bytes(trans->impl, dev, DL_TYPE_FLOAT, DL_FORMAT_SCALAR, 4, (void *) _ch_5_p);
1283:/home/dino/paparazzi/var/include/messages.h **** 	  trans->put_bytes(trans->impl, dev, DL_TYPE_FLOAT, DL_FORMAT_SCALAR, 4, (void *) _ch_5_t);
1284:/home/dino/paparazzi/var/include/messages.h **** 	  trans->put_bytes(trans->impl, dev, DL_TYPE_FLOAT, DL_FORMAT_SCALAR, 4, (void *) _ch_6_p);
1285:/home/dino/paparazzi/var/include/messages.h **** 	  trans->put_bytes(trans->impl, dev, DL_TYPE_FLOAT, DL_FORMAT_SCALAR, 4, (void *) _ch_6_t);
1286:/home/dino/paparazzi/var/include/messages.h **** 	  trans->put_bytes(trans->impl, dev, DL_TYPE_FLOAT, DL_FORMAT_SCALAR, 4, (void *) _ch_7_p);
1287:/home/dino/paparazzi/var/include/messages.h **** 	  trans->put_bytes(trans->impl, dev, DL_TYPE_FLOAT, DL_FORMAT_SCALAR, 4, (void *) _ch_7_t);
1288:/home/dino/paparazzi/var/include/messages.h **** 	  trans->put_bytes(trans->impl, dev, DL_TYPE_FLOAT, DL_FORMAT_SCALAR, 4, (void *) _gnd1);
1289:/home/dino/paparazzi/var/include/messages.h **** 	  trans->put_bytes(trans->impl, dev, DL_TYPE_FLOAT, DL_FORMAT_SCALAR, 4, (void *) _gnd2);
1290:/home/dino/paparazzi/var/include/messages.h **** 	  trans->end_message(trans->impl, dev);
1291:/home/dino/paparazzi/var/include/messages.h **** 	} else
1292:/home/dino/paparazzi/var/include/messages.h **** 	  trans->overrun(trans->impl, dev);
1293:/home/dino/paparazzi/var/include/messages.h **** }
1294:/home/dino/paparazzi/var/include/messages.h **** 
1295:/home/dino/paparazzi/var/include/messages.h **** #define DOWNLINK_SEND_CAM_POINT(_trans, _dev, cam_point_distance_from_home, cam_point_lat, cam_poin
1296:/home/dino/paparazzi/var/include/messages.h **** static inline void pprz_msg_send_CAM_POINT(struct transport_tx *trans, struct link_device *dev, uin
1297:/home/dino/paparazzi/var/include/messages.h **** 	if (trans->check_available_space(trans->impl, dev, trans->size_of(trans->impl, 0+2+4+4 +2 /* msg h
1298:/home/dino/paparazzi/var/include/messages.h **** 	  trans->count_bytes(trans->impl, dev, trans->size_of(trans->impl, 0+2+4+4 +2 /* msg header overhe
1299:/home/dino/paparazzi/var/include/messages.h **** 	  trans->start_message(trans->impl, dev, 0+2+4+4 +2 /* msg header overhead */);
1300:/home/dino/paparazzi/var/include/messages.h **** 	  trans->put_bytes(trans->impl, dev, DL_TYPE_UINT8, DL_FORMAT_SCALAR, 1, &ac_id);
1301:/home/dino/paparazzi/var/include/messages.h **** 	  trans->put_named_byte(trans->impl, dev, DL_TYPE_UINT8, DL_FORMAT_SCALAR, DL_CAM_POINT, "CAM_POIN
1302:/home/dino/paparazzi/var/include/messages.h **** 	  trans->put_bytes(trans->impl, dev, DL_TYPE_UINT16, DL_FORMAT_SCALAR, 2, (void *) _cam_point_dist
1303:/home/dino/paparazzi/var/include/messages.h **** 	  trans->put_bytes(trans->impl, dev, DL_TYPE_FLOAT, DL_FORMAT_SCALAR, 4, (void *) _cam_point_lat);
1304:/home/dino/paparazzi/var/include/messages.h **** 	  trans->put_bytes(trans->impl, dev, DL_TYPE_FLOAT, DL_FORMAT_SCALAR, 4, (void *) _cam_point_lon);
1305:/home/dino/paparazzi/var/include/messages.h **** 	  trans->end_message(trans->impl, dev);
1306:/home/dino/paparazzi/var/include/messages.h **** 	} else
1307:/home/dino/paparazzi/var/include/messages.h **** 	  trans->overrun(trans->impl, dev);
1308:/home/dino/paparazzi/var/include/messages.h **** }
1309:/home/dino/paparazzi/var/include/messages.h **** 
1310:/home/dino/paparazzi/var/include/messages.h **** #define DOWNLINK_SEND_DC_INFO(_trans, _dev, mode, lat, lon, alt, course, photo_nr, dist, next_dist,
1311:/home/dino/paparazzi/var/include/messages.h **** static inline void pprz_msg_send_DC_INFO(struct transport_tx *trans, struct link_device *dev, uint8
1312:/home/dino/paparazzi/var/include/messages.h **** 	if (trans->check_available_space(trans->impl, dev, trans->size_of(trans->impl, 0+2+4+4+4+4+2+4+4+4
1313:/home/dino/paparazzi/var/include/messages.h **** 	  trans->count_bytes(trans->impl, dev, trans->size_of(trans->impl, 0+2+4+4+4+4+2+4+4+4+4+4+4+4+2+1
1314:/home/dino/paparazzi/var/include/messages.h **** 	  trans->start_message(trans->impl, dev, 0+2+4+4+4+4+2+4+4+4+4+4+4+4+2+1 +2 /* msg header overhead
1315:/home/dino/paparazzi/var/include/messages.h **** 	  trans->put_bytes(trans->impl, dev, DL_TYPE_UINT8, DL_FORMAT_SCALAR, 1, &ac_id);
1316:/home/dino/paparazzi/var/include/messages.h **** 	  trans->put_named_byte(trans->impl, dev, DL_TYPE_UINT8, DL_FORMAT_SCALAR, DL_DC_INFO, "DC_INFO");
1317:/home/dino/paparazzi/var/include/messages.h **** 	  trans->put_bytes(trans->impl, dev, DL_TYPE_INT16, DL_FORMAT_SCALAR, 2, (void *) _mode);
1318:/home/dino/paparazzi/var/include/messages.h **** 	  trans->put_bytes(trans->impl, dev, DL_TYPE_INT32, DL_FORMAT_SCALAR, 4, (void *) _lat);
1319:/home/dino/paparazzi/var/include/messages.h **** 	  trans->put_bytes(trans->impl, dev, DL_TYPE_INT32, DL_FORMAT_SCALAR, 4, (void *) _lon);
1320:/home/dino/paparazzi/var/include/messages.h **** 	  trans->put_bytes(trans->impl, dev, DL_TYPE_INT32, DL_FORMAT_SCALAR, 4, (void *) _alt);
1321:/home/dino/paparazzi/var/include/messages.h **** 	  trans->put_bytes(trans->impl, dev, DL_TYPE_FLOAT, DL_FORMAT_SCALAR, 4, (void *) _course);
1322:/home/dino/paparazzi/var/include/messages.h **** 	  trans->put_bytes(trans->impl, dev, DL_TYPE_UINT16, DL_FORMAT_SCALAR, 2, (void *) _photo_nr);
1323:/home/dino/paparazzi/var/include/messages.h **** 	  trans->put_bytes(trans->impl, dev, DL_TYPE_FLOAT, DL_FORMAT_SCALAR, 4, (void *) _dist);
1324:/home/dino/paparazzi/var/include/messages.h **** 	  trans->put_bytes(trans->impl, dev, DL_TYPE_FLOAT, DL_FORMAT_SCALAR, 4, (void *) _next_dist);
1325:/home/dino/paparazzi/var/include/messages.h **** 	  trans->put_bytes(trans->impl, dev, DL_TYPE_FLOAT, DL_FORMAT_SCALAR, 4, (void *) _start_x);
1326:/home/dino/paparazzi/var/include/messages.h **** 	  trans->put_bytes(trans->impl, dev, DL_TYPE_FLOAT, DL_FORMAT_SCALAR, 4, (void *) _start_y);
1327:/home/dino/paparazzi/var/include/messages.h **** 	  trans->put_bytes(trans->impl, dev, DL_TYPE_FLOAT, DL_FORMAT_SCALAR, 4, (void *) _start_angle);
1328:/home/dino/paparazzi/var/include/messages.h **** 	  trans->put_bytes(trans->impl, dev, DL_TYPE_FLOAT, DL_FORMAT_SCALAR, 4, (void *) _angle);
1329:/home/dino/paparazzi/var/include/messages.h **** 	  trans->put_bytes(trans->impl, dev, DL_TYPE_FLOAT, DL_FORMAT_SCALAR, 4, (void *) _last_block);
1330:/home/dino/paparazzi/var/include/messages.h **** 	  trans->put_bytes(trans->impl, dev, DL_TYPE_UINT16, DL_FORMAT_SCALAR, 2, (void *) _count);
1331:/home/dino/paparazzi/var/include/messages.h **** 	  trans->put_bytes(trans->impl, dev, DL_TYPE_UINT8, DL_FORMAT_SCALAR, 1, (void *) _shutter);
1332:/home/dino/paparazzi/var/include/messages.h **** 	  trans->end_message(trans->impl, dev);
1333:/home/dino/paparazzi/var/include/messages.h **** 	} else
1334:/home/dino/paparazzi/var/include/messages.h **** 	  trans->overrun(trans->impl, dev);
1335:/home/dino/paparazzi/var/include/messages.h **** }
1336:/home/dino/paparazzi/var/include/messages.h **** 
1337:/home/dino/paparazzi/var/include/messages.h **** #define DOWNLINK_SEND_AMSYS_BARO(_trans, _dev, pBaroRaw, pBaro, pHomePressure, AltOffset, aktuell, 
1338:/home/dino/paparazzi/var/include/messages.h **** static inline void pprz_msg_send_AMSYS_BARO(struct transport_tx *trans, struct link_device *dev, ui
1339:/home/dino/paparazzi/var/include/messages.h **** 	if (trans->check_available_space(trans->impl, dev, trans->size_of(trans->impl, 0+2+4+4+4+4+4+4 +2 
1340:/home/dino/paparazzi/var/include/messages.h **** 	  trans->count_bytes(trans->impl, dev, trans->size_of(trans->impl, 0+2+4+4+4+4+4+4 +2 /* msg heade
1341:/home/dino/paparazzi/var/include/messages.h **** 	  trans->start_message(trans->impl, dev, 0+2+4+4+4+4+4+4 +2 /* msg header overhead */);
1342:/home/dino/paparazzi/var/include/messages.h **** 	  trans->put_bytes(trans->impl, dev, DL_TYPE_UINT8, DL_FORMAT_SCALAR, 1, &ac_id);
1343:/home/dino/paparazzi/var/include/messages.h **** 	  trans->put_named_byte(trans->impl, dev, DL_TYPE_UINT8, DL_FORMAT_SCALAR, DL_AMSYS_BARO, "AMSYS_B
1344:/home/dino/paparazzi/var/include/messages.h **** 	  trans->put_bytes(trans->impl, dev, DL_TYPE_UINT16, DL_FORMAT_SCALAR, 2, (void *) _pBaroRaw);
1345:/home/dino/paparazzi/var/include/messages.h **** 	  trans->put_bytes(trans->impl, dev, DL_TYPE_FLOAT, DL_FORMAT_SCALAR, 4, (void *) _pBaro);
1346:/home/dino/paparazzi/var/include/messages.h **** 	  trans->put_bytes(trans->impl, dev, DL_TYPE_FLOAT, DL_FORMAT_SCALAR, 4, (void *) _pHomePressure);
1347:/home/dino/paparazzi/var/include/messages.h **** 	  trans->put_bytes(trans->impl, dev, DL_TYPE_FLOAT, DL_FORMAT_SCALAR, 4, (void *) _AltOffset);
1348:/home/dino/paparazzi/var/include/messages.h **** 	  trans->put_bytes(trans->impl, dev, DL_TYPE_FLOAT, DL_FORMAT_SCALAR, 4, (void *) _aktuell);
1349:/home/dino/paparazzi/var/include/messages.h **** 	  trans->put_bytes(trans->impl, dev, DL_TYPE_FLOAT, DL_FORMAT_SCALAR, 4, (void *) _Over_Ground);
1350:/home/dino/paparazzi/var/include/messages.h **** 	  trans->put_bytes(trans->impl, dev, DL_TYPE_FLOAT, DL_FORMAT_SCALAR, 4, (void *) _tempBaro);
1351:/home/dino/paparazzi/var/include/messages.h **** 	  trans->end_message(trans->impl, dev);
1352:/home/dino/paparazzi/var/include/messages.h **** 	} else
1353:/home/dino/paparazzi/var/include/messages.h **** 	  trans->overrun(trans->impl, dev);
1354:/home/dino/paparazzi/var/include/messages.h **** }
1355:/home/dino/paparazzi/var/include/messages.h **** 
1356:/home/dino/paparazzi/var/include/messages.h **** #define DOWNLINK_SEND_AMSYS_AIRSPEED(_trans, _dev, asRaw, asPresure, asAirspeed, asAirsFilt, asTemp
1357:/home/dino/paparazzi/var/include/messages.h **** static inline void pprz_msg_send_AMSYS_AIRSPEED(struct transport_tx *trans, struct link_device *dev
1358:/home/dino/paparazzi/var/include/messages.h **** 	if (trans->check_available_space(trans->impl, dev, trans->size_of(trans->impl, 0+2+4+4+4+4 +2 /* m
1359:/home/dino/paparazzi/var/include/messages.h **** 	  trans->count_bytes(trans->impl, dev, trans->size_of(trans->impl, 0+2+4+4+4+4 +2 /* msg header ov
1360:/home/dino/paparazzi/var/include/messages.h **** 	  trans->start_message(trans->impl, dev, 0+2+4+4+4+4 +2 /* msg header overhead */);
1361:/home/dino/paparazzi/var/include/messages.h **** 	  trans->put_bytes(trans->impl, dev, DL_TYPE_UINT8, DL_FORMAT_SCALAR, 1, &ac_id);
1362:/home/dino/paparazzi/var/include/messages.h **** 	  trans->put_named_byte(trans->impl, dev, DL_TYPE_UINT8, DL_FORMAT_SCALAR, DL_AMSYS_AIRSPEED, "AMS
1363:/home/dino/paparazzi/var/include/messages.h **** 	  trans->put_bytes(trans->impl, dev, DL_TYPE_UINT16, DL_FORMAT_SCALAR, 2, (void *) _asRaw);
1364:/home/dino/paparazzi/var/include/messages.h **** 	  trans->put_bytes(trans->impl, dev, DL_TYPE_FLOAT, DL_FORMAT_SCALAR, 4, (void *) _asPresure);
1365:/home/dino/paparazzi/var/include/messages.h **** 	  trans->put_bytes(trans->impl, dev, DL_TYPE_FLOAT, DL_FORMAT_SCALAR, 4, (void *) _asAirspeed);
1366:/home/dino/paparazzi/var/include/messages.h **** 	  trans->put_bytes(trans->impl, dev, DL_TYPE_FLOAT, DL_FORMAT_SCALAR, 4, (void *) _asAirsFilt);
1367:/home/dino/paparazzi/var/include/messages.h **** 	  trans->put_bytes(trans->impl, dev, DL_TYPE_FLOAT, DL_FORMAT_SCALAR, 4, (void *) _asTemp);
1368:/home/dino/paparazzi/var/include/messages.h **** 	  trans->end_message(trans->impl, dev);
1369:/home/dino/paparazzi/var/include/messages.h **** 	} else
1370:/home/dino/paparazzi/var/include/messages.h **** 	  trans->overrun(trans->impl, dev);
1371:/home/dino/paparazzi/var/include/messages.h **** }
1372:/home/dino/paparazzi/var/include/messages.h **** 
1373:/home/dino/paparazzi/var/include/messages.h **** #define DOWNLINK_SEND_FLIGHT_BENCHMARK(_trans, _dev, SE_As, SE_Alt, SE_Pos, Err_As, Err_Alt, Err_Po
1374:/home/dino/paparazzi/var/include/messages.h **** static inline void pprz_msg_send_FLIGHT_BENCHMARK(struct transport_tx *trans, struct link_device *d
1375:/home/dino/paparazzi/var/include/messages.h **** 	if (trans->check_available_space(trans->impl, dev, trans->size_of(trans->impl, 0+4+4+4+4+4+4 +2 /*
1376:/home/dino/paparazzi/var/include/messages.h **** 	  trans->count_bytes(trans->impl, dev, trans->size_of(trans->impl, 0+4+4+4+4+4+4 +2 /* msg header 
1377:/home/dino/paparazzi/var/include/messages.h **** 	  trans->start_message(trans->impl, dev, 0+4+4+4+4+4+4 +2 /* msg header overhead */);
1378:/home/dino/paparazzi/var/include/messages.h **** 	  trans->put_bytes(trans->impl, dev, DL_TYPE_UINT8, DL_FORMAT_SCALAR, 1, &ac_id);
1379:/home/dino/paparazzi/var/include/messages.h **** 	  trans->put_named_byte(trans->impl, dev, DL_TYPE_UINT8, DL_FORMAT_SCALAR, DL_FLIGHT_BENCHMARK, "F
1380:/home/dino/paparazzi/var/include/messages.h **** 	  trans->put_bytes(trans->impl, dev, DL_TYPE_FLOAT, DL_FORMAT_SCALAR, 4, (void *) _SE_As);
1381:/home/dino/paparazzi/var/include/messages.h **** 	  trans->put_bytes(trans->impl, dev, DL_TYPE_FLOAT, DL_FORMAT_SCALAR, 4, (void *) _SE_Alt);
1382:/home/dino/paparazzi/var/include/messages.h **** 	  trans->put_bytes(trans->impl, dev, DL_TYPE_FLOAT, DL_FORMAT_SCALAR, 4, (void *) _SE_Pos);
1383:/home/dino/paparazzi/var/include/messages.h **** 	  trans->put_bytes(trans->impl, dev, DL_TYPE_FLOAT, DL_FORMAT_SCALAR, 4, (void *) _Err_As);
1384:/home/dino/paparazzi/var/include/messages.h **** 	  trans->put_bytes(trans->impl, dev, DL_TYPE_FLOAT, DL_FORMAT_SCALAR, 4, (void *) _Err_Alt);
1385:/home/dino/paparazzi/var/include/messages.h **** 	  trans->put_bytes(trans->impl, dev, DL_TYPE_FLOAT, DL_FORMAT_SCALAR, 4, (void *) _Err_Pos);
1386:/home/dino/paparazzi/var/include/messages.h **** 	  trans->end_message(trans->impl, dev);
1387:/home/dino/paparazzi/var/include/messages.h **** 	} else
1388:/home/dino/paparazzi/var/include/messages.h **** 	  trans->overrun(trans->impl, dev);
1389:/home/dino/paparazzi/var/include/messages.h **** }
1390:/home/dino/paparazzi/var/include/messages.h **** 
1391:/home/dino/paparazzi/var/include/messages.h **** #define DOWNLINK_SEND_MPL3115_BARO(_trans, _dev, pressure, temp, alt) pprz_msg_send_MPL3115_BARO(&(
1392:/home/dino/paparazzi/var/include/messages.h **** static inline void pprz_msg_send_MPL3115_BARO(struct transport_tx *trans, struct link_device *dev, 
1393:/home/dino/paparazzi/var/include/messages.h **** 	if (trans->check_available_space(trans->impl, dev, trans->size_of(trans->impl, 0+4+2+4 +2 /* msg h
1394:/home/dino/paparazzi/var/include/messages.h **** 	  trans->count_bytes(trans->impl, dev, trans->size_of(trans->impl, 0+4+2+4 +2 /* msg header overhe
1395:/home/dino/paparazzi/var/include/messages.h **** 	  trans->start_message(trans->impl, dev, 0+4+2+4 +2 /* msg header overhead */);
1396:/home/dino/paparazzi/var/include/messages.h **** 	  trans->put_bytes(trans->impl, dev, DL_TYPE_UINT8, DL_FORMAT_SCALAR, 1, &ac_id);
1397:/home/dino/paparazzi/var/include/messages.h **** 	  trans->put_named_byte(trans->impl, dev, DL_TYPE_UINT8, DL_FORMAT_SCALAR, DL_MPL3115_BARO, "MPL31
1398:/home/dino/paparazzi/var/include/messages.h **** 	  trans->put_bytes(trans->impl, dev, DL_TYPE_UINT32, DL_FORMAT_SCALAR, 4, (void *) _pressure);
1399:/home/dino/paparazzi/var/include/messages.h **** 	  trans->put_bytes(trans->impl, dev, DL_TYPE_INT16, DL_FORMAT_SCALAR, 2, (void *) _temp);
1400:/home/dino/paparazzi/var/include/messages.h **** 	  trans->put_bytes(trans->impl, dev, DL_TYPE_FLOAT, DL_FORMAT_SCALAR, 4, (void *) _alt);
1401:/home/dino/paparazzi/var/include/messages.h **** 	  trans->end_message(trans->impl, dev);
1402:/home/dino/paparazzi/var/include/messages.h **** 	} else
1403:/home/dino/paparazzi/var/include/messages.h **** 	  trans->overrun(trans->impl, dev);
1404:/home/dino/paparazzi/var/include/messages.h **** }
1405:/home/dino/paparazzi/var/include/messages.h **** 
1406:/home/dino/paparazzi/var/include/messages.h **** #define DOWNLINK_SEND_AOA_ADC(_trans, _dev, adcVal, AOA) pprz_msg_send_AOA_ADC(&((_trans).trans_tx)
1407:/home/dino/paparazzi/var/include/messages.h **** static inline void pprz_msg_send_AOA_ADC(struct transport_tx *trans, struct link_device *dev, uint8
1408:/home/dino/paparazzi/var/include/messages.h **** 	if (trans->check_available_space(trans->impl, dev, trans->size_of(trans->impl, 0+2+4 +2 /* msg hea
1409:/home/dino/paparazzi/var/include/messages.h **** 	  trans->count_bytes(trans->impl, dev, trans->size_of(trans->impl, 0+2+4 +2 /* msg header overhead
1410:/home/dino/paparazzi/var/include/messages.h **** 	  trans->start_message(trans->impl, dev, 0+2+4 +2 /* msg header overhead */);
1411:/home/dino/paparazzi/var/include/messages.h **** 	  trans->put_bytes(trans->impl, dev, DL_TYPE_UINT8, DL_FORMAT_SCALAR, 1, &ac_id);
1412:/home/dino/paparazzi/var/include/messages.h **** 	  trans->put_named_byte(trans->impl, dev, DL_TYPE_UINT8, DL_FORMAT_SCALAR, DL_AOA_ADC, "AOA_ADC");
1413:/home/dino/paparazzi/var/include/messages.h **** 	  trans->put_bytes(trans->impl, dev, DL_TYPE_UINT16, DL_FORMAT_SCALAR, 2, (void *) _adcVal);
1414:/home/dino/paparazzi/var/include/messages.h **** 	  trans->put_bytes(trans->impl, dev, DL_TYPE_FLOAT, DL_FORMAT_SCALAR, 4, (void *) _AOA);
1415:/home/dino/paparazzi/var/include/messages.h **** 	  trans->end_message(trans->impl, dev);
1416:/home/dino/paparazzi/var/include/messages.h **** 	} else
1417:/home/dino/paparazzi/var/include/messages.h **** 	  trans->overrun(trans->impl, dev);
1418:/home/dino/paparazzi/var/include/messages.h **** }
1419:/home/dino/paparazzi/var/include/messages.h **** 
1420:/home/dino/paparazzi/var/include/messages.h **** #define DOWNLINK_SEND_XTEND_RSSI(_trans, _dev, datalink_time, rssi_fade_margin, duty) pprz_msg_send
1421:/home/dino/paparazzi/var/include/messages.h **** static inline void pprz_msg_send_XTEND_RSSI(struct transport_tx *trans, struct link_device *dev, ui
1422:/home/dino/paparazzi/var/include/messages.h **** 	if (trans->check_available_space(trans->impl, dev, trans->size_of(trans->impl, 0+2+1+1 +2 /* msg h
1423:/home/dino/paparazzi/var/include/messages.h **** 	  trans->count_bytes(trans->impl, dev, trans->size_of(trans->impl, 0+2+1+1 +2 /* msg header overhe
1424:/home/dino/paparazzi/var/include/messages.h **** 	  trans->start_message(trans->impl, dev, 0+2+1+1 +2 /* msg header overhead */);
1425:/home/dino/paparazzi/var/include/messages.h **** 	  trans->put_bytes(trans->impl, dev, DL_TYPE_UINT8, DL_FORMAT_SCALAR, 1, &ac_id);
1426:/home/dino/paparazzi/var/include/messages.h **** 	  trans->put_named_byte(trans->impl, dev, DL_TYPE_UINT8, DL_FORMAT_SCALAR, DL_XTEND_RSSI, "XTEND_R
1427:/home/dino/paparazzi/var/include/messages.h **** 	  trans->put_bytes(trans->impl, dev, DL_TYPE_UINT16, DL_FORMAT_SCALAR, 2, (void *) _datalink_time)
1428:/home/dino/paparazzi/var/include/messages.h **** 	  trans->put_bytes(trans->impl, dev, DL_TYPE_UINT8, DL_FORMAT_SCALAR, 1, (void *) _rssi_fade_margi
1429:/home/dino/paparazzi/var/include/messages.h **** 	  trans->put_bytes(trans->impl, dev, DL_TYPE_UINT8, DL_FORMAT_SCALAR, 1, (void *) _duty);
1430:/home/dino/paparazzi/var/include/messages.h **** 	  trans->end_message(trans->impl, dev);
1431:/home/dino/paparazzi/var/include/messages.h **** 	} else
1432:/home/dino/paparazzi/var/include/messages.h **** 	  trans->overrun(trans->impl, dev);
1433:/home/dino/paparazzi/var/include/messages.h **** }
1434:/home/dino/paparazzi/var/include/messages.h **** 
1435:/home/dino/paparazzi/var/include/messages.h **** #define DOWNLINK_SEND_SUPERBITRF(_trans, _dev, status, cyrf_status, irq_count, rx_packet_count, tx_
1436:/home/dino/paparazzi/var/include/messages.h **** static inline void pprz_msg_send_SUPERBITRF(struct transport_tx *trans, struct link_device *dev, ui
1437:/home/dino/paparazzi/var/include/messages.h **** 	if (trans->check_available_space(trans->impl, dev, trans->size_of(trans->impl, 0+1+1+4+4+4+4+4+4+4
1438:/home/dino/paparazzi/var/include/messages.h **** 	  trans->count_bytes(trans->impl, dev, trans->size_of(trans->impl, 0+1+1+4+4+4+4+4+4+4+4+4+4+1+nb_
1439:/home/dino/paparazzi/var/include/messages.h **** 	  trans->start_message(trans->impl, dev, 0+1+1+4+4+4+4+4+4+4+4+4+4+1+nb_mfg_id*1 +2 /* msg header 
1440:/home/dino/paparazzi/var/include/messages.h **** 	  trans->put_bytes(trans->impl, dev, DL_TYPE_UINT8, DL_FORMAT_SCALAR, 1, &ac_id);
1441:/home/dino/paparazzi/var/include/messages.h **** 	  trans->put_named_byte(trans->impl, dev, DL_TYPE_UINT8, DL_FORMAT_SCALAR, DL_SUPERBITRF, "SUPERBI
1442:/home/dino/paparazzi/var/include/messages.h **** 	  trans->put_bytes(trans->impl, dev, DL_TYPE_UINT8, DL_FORMAT_SCALAR, 1, (void *) _status);
1443:/home/dino/paparazzi/var/include/messages.h **** 	  trans->put_bytes(trans->impl, dev, DL_TYPE_UINT8, DL_FORMAT_SCALAR, 1, (void *) _cyrf_status);
1444:/home/dino/paparazzi/var/include/messages.h **** 	  trans->put_bytes(trans->impl, dev, DL_TYPE_UINT32, DL_FORMAT_SCALAR, 4, (void *) _irq_count);
1445:/home/dino/paparazzi/var/include/messages.h **** 	  trans->put_bytes(trans->impl, dev, DL_TYPE_UINT32, DL_FORMAT_SCALAR, 4, (void *) _rx_packet_coun
1446:/home/dino/paparazzi/var/include/messages.h **** 	  trans->put_bytes(trans->impl, dev, DL_TYPE_UINT32, DL_FORMAT_SCALAR, 4, (void *) _tx_packet_coun
1447:/home/dino/paparazzi/var/include/messages.h **** 	  trans->put_bytes(trans->impl, dev, DL_TYPE_UINT32, DL_FORMAT_SCALAR, 4, (void *) _transfer_timeo
1448:/home/dino/paparazzi/var/include/messages.h **** 	  trans->put_bytes(trans->impl, dev, DL_TYPE_UINT32, DL_FORMAT_SCALAR, 4, (void *) _resync_count);
1449:/home/dino/paparazzi/var/include/messages.h **** 	  trans->put_bytes(trans->impl, dev, DL_TYPE_UINT32, DL_FORMAT_SCALAR, 4, (void *) _uplink_count);
1450:/home/dino/paparazzi/var/include/messages.h **** 	  trans->put_bytes(trans->impl, dev, DL_TYPE_UINT32, DL_FORMAT_SCALAR, 4, (void *) _rc_count);
1451:/home/dino/paparazzi/var/include/messages.h **** 	  trans->put_bytes(trans->impl, dev, DL_TYPE_UINT32, DL_FORMAT_SCALAR, 4, (void *) _timing1);
1452:/home/dino/paparazzi/var/include/messages.h **** 	  trans->put_bytes(trans->impl, dev, DL_TYPE_UINT32, DL_FORMAT_SCALAR, 4, (void *) _timing2);
1453:/home/dino/paparazzi/var/include/messages.h **** 	  trans->put_bytes(trans->impl, dev, DL_TYPE_UINT32, DL_FORMAT_SCALAR, 4, (void *) _bind_mfg_id);
1454:/home/dino/paparazzi/var/include/messages.h **** 	  trans->put_bytes(trans->impl, dev, DL_TYPE_ARRAY_LENGTH, DL_FORMAT_SCALAR, 1, (void *) &nb_mfg_i
1455:/home/dino/paparazzi/var/include/messages.h **** 	  trans->put_bytes(trans->impl, dev, DL_TYPE_UINT8, DL_FORMAT_ARRAY, 1 * nb_mfg_id, (void *) _mfg_
1456:/home/dino/paparazzi/var/include/messages.h **** 	  trans->end_message(trans->impl, dev);
1457:/home/dino/paparazzi/var/include/messages.h **** 	} else
1458:/home/dino/paparazzi/var/include/messages.h **** 	  trans->overrun(trans->impl, dev);
1459:/home/dino/paparazzi/var/include/messages.h **** }
1460:/home/dino/paparazzi/var/include/messages.h **** 
1461:/home/dino/paparazzi/var/include/messages.h **** #define DOWNLINK_SEND_GX3_INFO(_trans, _dev, GX3_freq, chksm_error, hdr_error, GX3_chksm) pprz_msg_
1462:/home/dino/paparazzi/var/include/messages.h **** static inline void pprz_msg_send_GX3_INFO(struct transport_tx *trans, struct link_device *dev, uint
1463:/home/dino/paparazzi/var/include/messages.h **** 	if (trans->check_available_space(trans->impl, dev, trans->size_of(trans->impl, 0+4+4+4+2 +2 /* msg
1464:/home/dino/paparazzi/var/include/messages.h **** 	  trans->count_bytes(trans->impl, dev, trans->size_of(trans->impl, 0+4+4+4+2 +2 /* msg header over
1465:/home/dino/paparazzi/var/include/messages.h **** 	  trans->start_message(trans->impl, dev, 0+4+4+4+2 +2 /* msg header overhead */);
1466:/home/dino/paparazzi/var/include/messages.h **** 	  trans->put_bytes(trans->impl, dev, DL_TYPE_UINT8, DL_FORMAT_SCALAR, 1, &ac_id);
1467:/home/dino/paparazzi/var/include/messages.h **** 	  trans->put_named_byte(trans->impl, dev, DL_TYPE_UINT8, DL_FORMAT_SCALAR, DL_GX3_INFO, "GX3_INFO"
1468:/home/dino/paparazzi/var/include/messages.h **** 	  trans->put_bytes(trans->impl, dev, DL_TYPE_FLOAT, DL_FORMAT_SCALAR, 4, (void *) _GX3_freq);
1469:/home/dino/paparazzi/var/include/messages.h **** 	  trans->put_bytes(trans->impl, dev, DL_TYPE_UINT32, DL_FORMAT_SCALAR, 4, (void *) _chksm_error);
1470:/home/dino/paparazzi/var/include/messages.h **** 	  trans->put_bytes(trans->impl, dev, DL_TYPE_UINT32, DL_FORMAT_SCALAR, 4, (void *) _hdr_error);
1471:/home/dino/paparazzi/var/include/messages.h **** 	  trans->put_bytes(trans->impl, dev, DL_TYPE_UINT16, DL_FORMAT_SCALAR, 2, (void *) _GX3_chksm);
1472:/home/dino/paparazzi/var/include/messages.h **** 	  trans->end_message(trans->impl, dev);
1473:/home/dino/paparazzi/var/include/messages.h **** 	} else
1474:/home/dino/paparazzi/var/include/messages.h **** 	  trans->overrun(trans->impl, dev);
1475:/home/dino/paparazzi/var/include/messages.h **** }
1476:/home/dino/paparazzi/var/include/messages.h **** 
1477:/home/dino/paparazzi/var/include/messages.h **** #define DOWNLINK_SEND_EXPLAIN(_trans, _dev, type, id, nb_string, string) pprz_msg_send_EXPLAIN(&((_
1478:/home/dino/paparazzi/var/include/messages.h **** static inline void pprz_msg_send_EXPLAIN(struct transport_tx *trans, struct link_device *dev, uint8
1479:/home/dino/paparazzi/var/include/messages.h **** 	if (trans->check_available_space(trans->impl, dev, trans->size_of(trans->impl, 0+1+1+1+nb_string*1
1480:/home/dino/paparazzi/var/include/messages.h **** 	  trans->count_bytes(trans->impl, dev, trans->size_of(trans->impl, 0+1+1+1+nb_string*1 +2 /* msg h
1481:/home/dino/paparazzi/var/include/messages.h **** 	  trans->start_message(trans->impl, dev, 0+1+1+1+nb_string*1 +2 /* msg header overhead */);
1482:/home/dino/paparazzi/var/include/messages.h **** 	  trans->put_bytes(trans->impl, dev, DL_TYPE_UINT8, DL_FORMAT_SCALAR, 1, &ac_id);
1483:/home/dino/paparazzi/var/include/messages.h **** 	  trans->put_named_byte(trans->impl, dev, DL_TYPE_UINT8, DL_FORMAT_SCALAR, DL_EXPLAIN, "EXPLAIN");
1484:/home/dino/paparazzi/var/include/messages.h **** 	  trans->put_bytes(trans->impl, dev, DL_TYPE_UINT8, DL_FORMAT_SCALAR, 1, (void *) _type);
1485:/home/dino/paparazzi/var/include/messages.h **** 	  trans->put_bytes(trans->impl, dev, DL_TYPE_UINT8, DL_FORMAT_SCALAR, 1, (void *) _id);
1486:/home/dino/paparazzi/var/include/messages.h **** 	  trans->put_bytes(trans->impl, dev, DL_TYPE_ARRAY_LENGTH, DL_FORMAT_SCALAR, 1, (void *) &nb_strin
1487:/home/dino/paparazzi/var/include/messages.h **** 	  trans->put_bytes(trans->impl, dev, DL_TYPE_UINT8, DL_FORMAT_ARRAY, 1 * nb_string, (void *) _stri
1488:/home/dino/paparazzi/var/include/messages.h **** 	  trans->end_message(trans->impl, dev);
1489:/home/dino/paparazzi/var/include/messages.h **** 	} else
1490:/home/dino/paparazzi/var/include/messages.h **** 	  trans->overrun(trans->impl, dev);
1491:/home/dino/paparazzi/var/include/messages.h **** }
1492:/home/dino/paparazzi/var/include/messages.h **** 
1493:/home/dino/paparazzi/var/include/messages.h **** #define DOWNLINK_SEND_VIDEO_TELEMETRY(_trans, _dev, blob_x1, blob_y1, blob_x2, blob_y2, blob_x3, bl
1494:/home/dino/paparazzi/var/include/messages.h **** static inline void pprz_msg_send_VIDEO_TELEMETRY(struct transport_tx *trans, struct link_device *de
1495:/home/dino/paparazzi/var/include/messages.h **** 	if (trans->check_available_space(trans->impl, dev, trans->size_of(trans->impl, 0+4+4+4+4+4+4+4+4 +
1496:/home/dino/paparazzi/var/include/messages.h **** 	  trans->count_bytes(trans->impl, dev, trans->size_of(trans->impl, 0+4+4+4+4+4+4+4+4 +2 /* msg hea
1497:/home/dino/paparazzi/var/include/messages.h **** 	  trans->start_message(trans->impl, dev, 0+4+4+4+4+4+4+4+4 +2 /* msg header overhead */);
1498:/home/dino/paparazzi/var/include/messages.h **** 	  trans->put_bytes(trans->impl, dev, DL_TYPE_UINT8, DL_FORMAT_SCALAR, 1, &ac_id);
1499:/home/dino/paparazzi/var/include/messages.h **** 	  trans->put_named_byte(trans->impl, dev, DL_TYPE_UINT8, DL_FORMAT_SCALAR, DL_VIDEO_TELEMETRY, "VI
1500:/home/dino/paparazzi/var/include/messages.h **** 	  trans->put_bytes(trans->impl, dev, DL_TYPE_INT32, DL_FORMAT_SCALAR, 4, (void *) _blob_x1);
1501:/home/dino/paparazzi/var/include/messages.h **** 	  trans->put_bytes(trans->impl, dev, DL_TYPE_INT32, DL_FORMAT_SCALAR, 4, (void *) _blob_y1);
1502:/home/dino/paparazzi/var/include/messages.h **** 	  trans->put_bytes(trans->impl, dev, DL_TYPE_INT32, DL_FORMAT_SCALAR, 4, (void *) _blob_x2);
1503:/home/dino/paparazzi/var/include/messages.h **** 	  trans->put_bytes(trans->impl, dev, DL_TYPE_INT32, DL_FORMAT_SCALAR, 4, (void *) _blob_y2);
1504:/home/dino/paparazzi/var/include/messages.h **** 	  trans->put_bytes(trans->impl, dev, DL_TYPE_INT32, DL_FORMAT_SCALAR, 4, (void *) _blob_x3);
1505:/home/dino/paparazzi/var/include/messages.h **** 	  trans->put_bytes(trans->impl, dev, DL_TYPE_INT32, DL_FORMAT_SCALAR, 4, (void *) _blob_y3);
1506:/home/dino/paparazzi/var/include/messages.h **** 	  trans->put_bytes(trans->impl, dev, DL_TYPE_INT32, DL_FORMAT_SCALAR, 4, (void *) _blob_x4);
1507:/home/dino/paparazzi/var/include/messages.h **** 	  trans->put_bytes(trans->impl, dev, DL_TYPE_INT32, DL_FORMAT_SCALAR, 4, (void *) _blob_y4);
1508:/home/dino/paparazzi/var/include/messages.h **** 	  trans->end_message(trans->impl, dev);
1509:/home/dino/paparazzi/var/include/messages.h **** 	} else
1510:/home/dino/paparazzi/var/include/messages.h **** 	  trans->overrun(trans->impl, dev);
1511:/home/dino/paparazzi/var/include/messages.h **** }
1512:/home/dino/paparazzi/var/include/messages.h **** 
1513:/home/dino/paparazzi/var/include/messages.h **** #define DOWNLINK_SEND_VF_UPDATE(_trans, _dev, baro, range_meter) pprz_msg_send_VF_UPDATE(&((_trans)
1514:/home/dino/paparazzi/var/include/messages.h **** static inline void pprz_msg_send_VF_UPDATE(struct transport_tx *trans, struct link_device *dev, uin
1515:/home/dino/paparazzi/var/include/messages.h **** 	if (trans->check_available_space(trans->impl, dev, trans->size_of(trans->impl, 0+4+4 +2 /* msg hea
1516:/home/dino/paparazzi/var/include/messages.h **** 	  trans->count_bytes(trans->impl, dev, trans->size_of(trans->impl, 0+4+4 +2 /* msg header overhead
1517:/home/dino/paparazzi/var/include/messages.h **** 	  trans->start_message(trans->impl, dev, 0+4+4 +2 /* msg header overhead */);
1518:/home/dino/paparazzi/var/include/messages.h **** 	  trans->put_bytes(trans->impl, dev, DL_TYPE_UINT8, DL_FORMAT_SCALAR, 1, &ac_id);
1519:/home/dino/paparazzi/var/include/messages.h **** 	  trans->put_named_byte(trans->impl, dev, DL_TYPE_UINT8, DL_FORMAT_SCALAR, DL_VF_UPDATE, "VF_UPDAT
1520:/home/dino/paparazzi/var/include/messages.h **** 	  trans->put_bytes(trans->impl, dev, DL_TYPE_FLOAT, DL_FORMAT_SCALAR, 4, (void *) _baro);
1521:/home/dino/paparazzi/var/include/messages.h **** 	  trans->put_bytes(trans->impl, dev, DL_TYPE_FLOAT, DL_FORMAT_SCALAR, 4, (void *) _range_meter);
1522:/home/dino/paparazzi/var/include/messages.h **** 	  trans->end_message(trans->impl, dev);
1523:/home/dino/paparazzi/var/include/messages.h **** 	} else
1524:/home/dino/paparazzi/var/include/messages.h **** 	  trans->overrun(trans->impl, dev);
1525:/home/dino/paparazzi/var/include/messages.h **** }
1526:/home/dino/paparazzi/var/include/messages.h **** 
1527:/home/dino/paparazzi/var/include/messages.h **** #define DOWNLINK_SEND_VF_PREDICT(_trans, _dev, accel) pprz_msg_send_VF_PREDICT(&((_trans).trans_tx)
1528:/home/dino/paparazzi/var/include/messages.h **** static inline void pprz_msg_send_VF_PREDICT(struct transport_tx *trans, struct link_device *dev, ui
1529:/home/dino/paparazzi/var/include/messages.h **** 	if (trans->check_available_space(trans->impl, dev, trans->size_of(trans->impl, 0+4 +2 /* msg heade
1530:/home/dino/paparazzi/var/include/messages.h **** 	  trans->count_bytes(trans->impl, dev, trans->size_of(trans->impl, 0+4 +2 /* msg header overhead *
1531:/home/dino/paparazzi/var/include/messages.h **** 	  trans->start_message(trans->impl, dev, 0+4 +2 /* msg header overhead */);
1532:/home/dino/paparazzi/var/include/messages.h **** 	  trans->put_bytes(trans->impl, dev, DL_TYPE_UINT8, DL_FORMAT_SCALAR, 1, &ac_id);
1533:/home/dino/paparazzi/var/include/messages.h **** 	  trans->put_named_byte(trans->impl, dev, DL_TYPE_UINT8, DL_FORMAT_SCALAR, DL_VF_PREDICT, "VF_PRED
1534:/home/dino/paparazzi/var/include/messages.h **** 	  trans->put_bytes(trans->impl, dev, DL_TYPE_FLOAT, DL_FORMAT_SCALAR, 4, (void *) _accel);
1535:/home/dino/paparazzi/var/include/messages.h **** 	  trans->end_message(trans->impl, dev);
1536:/home/dino/paparazzi/var/include/messages.h **** 	} else
1537:/home/dino/paparazzi/var/include/messages.h **** 	  trans->overrun(trans->impl, dev);
1538:/home/dino/paparazzi/var/include/messages.h **** }
1539:/home/dino/paparazzi/var/include/messages.h **** 
1540:/home/dino/paparazzi/var/include/messages.h **** #define DOWNLINK_SEND_INV_FILTER(_trans, _dev, quat, phi_inv, theta_inv, psi_inv, Vx_inv, Vy_inv, V
1541:/home/dino/paparazzi/var/include/messages.h **** static inline void pprz_msg_send_INV_FILTER(struct transport_tx *trans, struct link_device *dev, ui
1542:/home/dino/paparazzi/var/include/messages.h **** 	if (trans->check_available_space(trans->impl, dev, trans->size_of(trans->impl, 0+4+4+4+4+4+4+4+4+4
1543:/home/dino/paparazzi/var/include/messages.h **** 	  trans->count_bytes(trans->impl, dev, trans->size_of(trans->impl, 0+4+4+4+4+4+4+4+4+4+4+4+4+4+4+4
1544:/home/dino/paparazzi/var/include/messages.h **** 	  trans->start_message(trans->impl, dev, 0+4+4+4+4+4+4+4+4+4+4+4+4+4+4+4+4+4 +2 /* msg header over
1545:/home/dino/paparazzi/var/include/messages.h **** 	  trans->put_bytes(trans->impl, dev, DL_TYPE_UINT8, DL_FORMAT_SCALAR, 1, &ac_id);
1546:/home/dino/paparazzi/var/include/messages.h **** 	  trans->put_named_byte(trans->impl, dev, DL_TYPE_UINT8, DL_FORMAT_SCALAR, DL_INV_FILTER, "INV_FIL
1547:/home/dino/paparazzi/var/include/messages.h **** 	  trans->put_bytes(trans->impl, dev, DL_TYPE_FLOAT, DL_FORMAT_SCALAR, 4, (void *) _quat);
1548:/home/dino/paparazzi/var/include/messages.h **** 	  trans->put_bytes(trans->impl, dev, DL_TYPE_FLOAT, DL_FORMAT_SCALAR, 4, (void *) _phi_inv);
1549:/home/dino/paparazzi/var/include/messages.h **** 	  trans->put_bytes(trans->impl, dev, DL_TYPE_FLOAT, DL_FORMAT_SCALAR, 4, (void *) _theta_inv);
1550:/home/dino/paparazzi/var/include/messages.h **** 	  trans->put_bytes(trans->impl, dev, DL_TYPE_FLOAT, DL_FORMAT_SCALAR, 4, (void *) _psi_inv);
1551:/home/dino/paparazzi/var/include/messages.h **** 	  trans->put_bytes(trans->impl, dev, DL_TYPE_FLOAT, DL_FORMAT_SCALAR, 4, (void *) _Vx_inv);
1552:/home/dino/paparazzi/var/include/messages.h **** 	  trans->put_bytes(trans->impl, dev, DL_TYPE_FLOAT, DL_FORMAT_SCALAR, 4, (void *) _Vy_inv);
1553:/home/dino/paparazzi/var/include/messages.h **** 	  trans->put_bytes(trans->impl, dev, DL_TYPE_FLOAT, DL_FORMAT_SCALAR, 4, (void *) _Vz_inv);
1554:/home/dino/paparazzi/var/include/messages.h **** 	  trans->put_bytes(trans->impl, dev, DL_TYPE_FLOAT, DL_FORMAT_SCALAR, 4, (void *) _Px_inv);
1555:/home/dino/paparazzi/var/include/messages.h **** 	  trans->put_bytes(trans->impl, dev, DL_TYPE_FLOAT, DL_FORMAT_SCALAR, 4, (void *) _Py_inv);
1556:/home/dino/paparazzi/var/include/messages.h **** 	  trans->put_bytes(trans->impl, dev, DL_TYPE_FLOAT, DL_FORMAT_SCALAR, 4, (void *) _Pz_inv);
1557:/home/dino/paparazzi/var/include/messages.h **** 	  trans->put_bytes(trans->impl, dev, DL_TYPE_FLOAT, DL_FORMAT_SCALAR, 4, (void *) _bias_phi);
1558:/home/dino/paparazzi/var/include/messages.h **** 	  trans->put_bytes(trans->impl, dev, DL_TYPE_FLOAT, DL_FORMAT_SCALAR, 4, (void *) _bias_theta);
1559:/home/dino/paparazzi/var/include/messages.h **** 	  trans->put_bytes(trans->impl, dev, DL_TYPE_FLOAT, DL_FORMAT_SCALAR, 4, (void *) _bias_psi);
1560:/home/dino/paparazzi/var/include/messages.h **** 	  trans->put_bytes(trans->impl, dev, DL_TYPE_FLOAT, DL_FORMAT_SCALAR, 4, (void *) _bias_as);
1561:/home/dino/paparazzi/var/include/messages.h **** 	  trans->put_bytes(trans->impl, dev, DL_TYPE_FLOAT, DL_FORMAT_SCALAR, 4, (void *) _bias_hb);
1562:/home/dino/paparazzi/var/include/messages.h **** 	  trans->put_bytes(trans->impl, dev, DL_TYPE_FLOAT, DL_FORMAT_SCALAR, 4, (void *) _meas_baro);
1563:/home/dino/paparazzi/var/include/messages.h **** 	  trans->put_bytes(trans->impl, dev, DL_TYPE_FLOAT, DL_FORMAT_SCALAR, 4, (void *) _meas_gps);
1564:/home/dino/paparazzi/var/include/messages.h **** 	  trans->end_message(trans->impl, dev);
1565:/home/dino/paparazzi/var/include/messages.h **** 	} else
1566:/home/dino/paparazzi/var/include/messages.h **** 	  trans->overrun(trans->impl, dev);
1567:/home/dino/paparazzi/var/include/messages.h **** }
1568:/home/dino/paparazzi/var/include/messages.h **** 
1569:/home/dino/paparazzi/var/include/messages.h **** #define DOWNLINK_SEND_MISSION_STATUS(_trans, _dev, remaining_time, nb_task_list, task_list) pprz_ms
1570:/home/dino/paparazzi/var/include/messages.h **** static inline void pprz_msg_send_MISSION_STATUS(struct transport_tx *trans, struct link_device *dev
1571:/home/dino/paparazzi/var/include/messages.h **** 	if (trans->check_available_space(trans->impl, dev, trans->size_of(trans->impl, 0+4+1+nb_task_list*
1572:/home/dino/paparazzi/var/include/messages.h **** 	  trans->count_bytes(trans->impl, dev, trans->size_of(trans->impl, 0+4+1+nb_task_list*1 +2 /* msg 
1573:/home/dino/paparazzi/var/include/messages.h **** 	  trans->start_message(trans->impl, dev, 0+4+1+nb_task_list*1 +2 /* msg header overhead */);
1574:/home/dino/paparazzi/var/include/messages.h **** 	  trans->put_bytes(trans->impl, dev, DL_TYPE_UINT8, DL_FORMAT_SCALAR, 1, &ac_id);
1575:/home/dino/paparazzi/var/include/messages.h **** 	  trans->put_named_byte(trans->impl, dev, DL_TYPE_UINT8, DL_FORMAT_SCALAR, DL_MISSION_STATUS, "MIS
1576:/home/dino/paparazzi/var/include/messages.h **** 	  trans->put_bytes(trans->impl, dev, DL_TYPE_FLOAT, DL_FORMAT_SCALAR, 4, (void *) _remaining_time)
1577:/home/dino/paparazzi/var/include/messages.h **** 	  trans->put_bytes(trans->impl, dev, DL_TYPE_ARRAY_LENGTH, DL_FORMAT_SCALAR, 1, (void *) &nb_task_
1578:/home/dino/paparazzi/var/include/messages.h **** 	  trans->put_bytes(trans->impl, dev, DL_TYPE_UINT8, DL_FORMAT_ARRAY, 1 * nb_task_list, (void *) _t
1579:/home/dino/paparazzi/var/include/messages.h **** 	  trans->end_message(trans->impl, dev);
1580:/home/dino/paparazzi/var/include/messages.h **** 	} else
1581:/home/dino/paparazzi/var/include/messages.h **** 	  trans->overrun(trans->impl, dev);
1582:/home/dino/paparazzi/var/include/messages.h **** }
1583:/home/dino/paparazzi/var/include/messages.h **** 
1584:/home/dino/paparazzi/var/include/messages.h **** #define DOWNLINK_SEND_CROSS_TRACK_ERROR(_trans, _dev, cross_track_error, cte_int) pprz_msg_send_CRO
1585:/home/dino/paparazzi/var/include/messages.h **** static inline void pprz_msg_send_CROSS_TRACK_ERROR(struct transport_tx *trans, struct link_device *
1586:/home/dino/paparazzi/var/include/messages.h **** 	if (trans->check_available_space(trans->impl, dev, trans->size_of(trans->impl, 0+4+4 +2 /* msg hea
1587:/home/dino/paparazzi/var/include/messages.h **** 	  trans->count_bytes(trans->impl, dev, trans->size_of(trans->impl, 0+4+4 +2 /* msg header overhead
1588:/home/dino/paparazzi/var/include/messages.h **** 	  trans->start_message(trans->impl, dev, 0+4+4 +2 /* msg header overhead */);
1589:/home/dino/paparazzi/var/include/messages.h **** 	  trans->put_bytes(trans->impl, dev, DL_TYPE_UINT8, DL_FORMAT_SCALAR, 1, &ac_id);
1590:/home/dino/paparazzi/var/include/messages.h **** 	  trans->put_named_byte(trans->impl, dev, DL_TYPE_UINT8, DL_FORMAT_SCALAR, DL_CROSS_TRACK_ERROR, "
1591:/home/dino/paparazzi/var/include/messages.h **** 	  trans->put_bytes(trans->impl, dev, DL_TYPE_FLOAT, DL_FORMAT_SCALAR, 4, (void *) _cross_track_err
1592:/home/dino/paparazzi/var/include/messages.h **** 	  trans->put_bytes(trans->impl, dev, DL_TYPE_FLOAT, DL_FORMAT_SCALAR, 4, (void *) _cte_int);
1593:/home/dino/paparazzi/var/include/messages.h **** 	  trans->end_message(trans->impl, dev);
1594:/home/dino/paparazzi/var/include/messages.h **** 	} else
1595:/home/dino/paparazzi/var/include/messages.h **** 	  trans->overrun(trans->impl, dev);
1596:/home/dino/paparazzi/var/include/messages.h **** }
1597:/home/dino/paparazzi/var/include/messages.h **** 
1598:/home/dino/paparazzi/var/include/messages.h **** #define DOWNLINK_SEND_GENERIC_COM(_trans, _dev, lat, lon, alt, gspeed, course, airspeed, vsupply, e
1599:/home/dino/paparazzi/var/include/messages.h **** static inline void pprz_msg_send_GENERIC_COM(struct transport_tx *trans, struct link_device *dev, u
1600:/home/dino/paparazzi/var/include/messages.h **** 	if (trans->check_available_space(trans->impl, dev, trans->size_of(trans->impl, 0+4+4+2+2+2+2+1+1+1
1601:/home/dino/paparazzi/var/include/messages.h **** 	  trans->count_bytes(trans->impl, dev, trans->size_of(trans->impl, 0+4+4+2+2+2+2+1+1+1+1+1+2 +2 /*
1602:/home/dino/paparazzi/var/include/messages.h **** 	  trans->start_message(trans->impl, dev, 0+4+4+2+2+2+2+1+1+1+1+1+2 +2 /* msg header overhead */);
1603:/home/dino/paparazzi/var/include/messages.h **** 	  trans->put_bytes(trans->impl, dev, DL_TYPE_UINT8, DL_FORMAT_SCALAR, 1, &ac_id);
1604:/home/dino/paparazzi/var/include/messages.h **** 	  trans->put_named_byte(trans->impl, dev, DL_TYPE_UINT8, DL_FORMAT_SCALAR, DL_GENERIC_COM, "GENERI
1605:/home/dino/paparazzi/var/include/messages.h **** 	  trans->put_bytes(trans->impl, dev, DL_TYPE_INT32, DL_FORMAT_SCALAR, 4, (void *) _lat);
1606:/home/dino/paparazzi/var/include/messages.h **** 	  trans->put_bytes(trans->impl, dev, DL_TYPE_INT32, DL_FORMAT_SCALAR, 4, (void *) _lon);
1607:/home/dino/paparazzi/var/include/messages.h **** 	  trans->put_bytes(trans->impl, dev, DL_TYPE_INT16, DL_FORMAT_SCALAR, 2, (void *) _alt);
1608:/home/dino/paparazzi/var/include/messages.h **** 	  trans->put_bytes(trans->impl, dev, DL_TYPE_UINT16, DL_FORMAT_SCALAR, 2, (void *) _gspeed);
1609:/home/dino/paparazzi/var/include/messages.h **** 	  trans->put_bytes(trans->impl, dev, DL_TYPE_INT16, DL_FORMAT_SCALAR, 2, (void *) _course);
1610:/home/dino/paparazzi/var/include/messages.h **** 	  trans->put_bytes(trans->impl, dev, DL_TYPE_UINT16, DL_FORMAT_SCALAR, 2, (void *) _airspeed);
1611:/home/dino/paparazzi/var/include/messages.h **** 	  trans->put_bytes(trans->impl, dev, DL_TYPE_UINT8, DL_FORMAT_SCALAR, 1, (void *) _vsupply);
1612:/home/dino/paparazzi/var/include/messages.h **** 	  trans->put_bytes(trans->impl, dev, DL_TYPE_UINT8, DL_FORMAT_SCALAR, 1, (void *) _energy);
1613:/home/dino/paparazzi/var/include/messages.h **** 	  trans->put_bytes(trans->impl, dev, DL_TYPE_UINT8, DL_FORMAT_SCALAR, 1, (void *) _throttle);
1614:/home/dino/paparazzi/var/include/messages.h **** 	  trans->put_bytes(trans->impl, dev, DL_TYPE_UINT8, DL_FORMAT_SCALAR, 1, (void *) _ap_mode);
1615:/home/dino/paparazzi/var/include/messages.h **** 	  trans->put_bytes(trans->impl, dev, DL_TYPE_UINT8, DL_FORMAT_SCALAR, 1, (void *) _nav_block);
1616:/home/dino/paparazzi/var/include/messages.h **** 	  trans->put_bytes(trans->impl, dev, DL_TYPE_UINT16, DL_FORMAT_SCALAR, 2, (void *) _flight_time);
1617:/home/dino/paparazzi/var/include/messages.h **** 	  trans->end_message(trans->impl, dev);
1618:/home/dino/paparazzi/var/include/messages.h **** 	} else
1619:/home/dino/paparazzi/var/include/messages.h **** 	  trans->overrun(trans->impl, dev);
1620:/home/dino/paparazzi/var/include/messages.h **** }
1621:/home/dino/paparazzi/var/include/messages.h **** 
1622:/home/dino/paparazzi/var/include/messages.h **** #define DOWNLINK_SEND_FORMATION_SLOT_TM(_trans, _dev, ac_id, mode, slot_east, slot_north, slot_alt)
1623:/home/dino/paparazzi/var/include/messages.h **** static inline void pprz_msg_send_FORMATION_SLOT_TM(struct transport_tx *trans, struct link_device *
1624:/home/dino/paparazzi/var/include/messages.h **** 	if (trans->check_available_space(trans->impl, dev, trans->size_of(trans->impl, 0+1+1+4+4+4 +2 /* m
1625:/home/dino/paparazzi/var/include/messages.h **** 	  trans->count_bytes(trans->impl, dev, trans->size_of(trans->impl, 0+1+1+4+4+4 +2 /* msg header ov
1626:/home/dino/paparazzi/var/include/messages.h **** 	  trans->start_message(trans->impl, dev, 0+1+1+4+4+4 +2 /* msg header overhead */);
1627:/home/dino/paparazzi/var/include/messages.h **** 	  trans->put_bytes(trans->impl, dev, DL_TYPE_UINT8, DL_FORMAT_SCALAR, 1, &ac_id);
1628:/home/dino/paparazzi/var/include/messages.h **** 	  trans->put_named_byte(trans->impl, dev, DL_TYPE_UINT8, DL_FORMAT_SCALAR, DL_FORMATION_SLOT_TM, "
1629:/home/dino/paparazzi/var/include/messages.h **** 	  trans->put_bytes(trans->impl, dev, DL_TYPE_UINT8, DL_FORMAT_SCALAR, 1, (void *) _ac_id);
1630:/home/dino/paparazzi/var/include/messages.h **** 	  trans->put_bytes(trans->impl, dev, DL_TYPE_UINT8, DL_FORMAT_SCALAR, 1, (void *) _mode);
1631:/home/dino/paparazzi/var/include/messages.h **** 	  trans->put_bytes(trans->impl, dev, DL_TYPE_FLOAT, DL_FORMAT_SCALAR, 4, (void *) _slot_east);
1632:/home/dino/paparazzi/var/include/messages.h **** 	  trans->put_bytes(trans->impl, dev, DL_TYPE_FLOAT, DL_FORMAT_SCALAR, 4, (void *) _slot_north);
1633:/home/dino/paparazzi/var/include/messages.h **** 	  trans->put_bytes(trans->impl, dev, DL_TYPE_FLOAT, DL_FORMAT_SCALAR, 4, (void *) _slot_alt);
1634:/home/dino/paparazzi/var/include/messages.h **** 	  trans->end_message(trans->impl, dev);
1635:/home/dino/paparazzi/var/include/messages.h **** 	} else
1636:/home/dino/paparazzi/var/include/messages.h **** 	  trans->overrun(trans->impl, dev);
1637:/home/dino/paparazzi/var/include/messages.h **** }
1638:/home/dino/paparazzi/var/include/messages.h **** 
1639:/home/dino/paparazzi/var/include/messages.h **** #define DOWNLINK_SEND_FORMATION_STATUS_TM(_trans, _dev, ac_id, leader_id, status) pprz_msg_send_FOR
1640:/home/dino/paparazzi/var/include/messages.h **** static inline void pprz_msg_send_FORMATION_STATUS_TM(struct transport_tx *trans, struct link_device
1641:/home/dino/paparazzi/var/include/messages.h **** 	if (trans->check_available_space(trans->impl, dev, trans->size_of(trans->impl, 0+1+1+1 +2 /* msg h
1642:/home/dino/paparazzi/var/include/messages.h **** 	  trans->count_bytes(trans->impl, dev, trans->size_of(trans->impl, 0+1+1+1 +2 /* msg header overhe
1643:/home/dino/paparazzi/var/include/messages.h **** 	  trans->start_message(trans->impl, dev, 0+1+1+1 +2 /* msg header overhead */);
1644:/home/dino/paparazzi/var/include/messages.h **** 	  trans->put_bytes(trans->impl, dev, DL_TYPE_UINT8, DL_FORMAT_SCALAR, 1, &ac_id);
1645:/home/dino/paparazzi/var/include/messages.h **** 	  trans->put_named_byte(trans->impl, dev, DL_TYPE_UINT8, DL_FORMAT_SCALAR, DL_FORMATION_STATUS_TM,
1646:/home/dino/paparazzi/var/include/messages.h **** 	  trans->put_bytes(trans->impl, dev, DL_TYPE_UINT8, DL_FORMAT_SCALAR, 1, (void *) _ac_id);
1647:/home/dino/paparazzi/var/include/messages.h **** 	  trans->put_bytes(trans->impl, dev, DL_TYPE_UINT8, DL_FORMAT_SCALAR, 1, (void *) _leader_id);
1648:/home/dino/paparazzi/var/include/messages.h **** 	  trans->put_bytes(trans->impl, dev, DL_TYPE_UINT8, DL_FORMAT_SCALAR, 1, (void *) _status);
1649:/home/dino/paparazzi/var/include/messages.h **** 	  trans->end_message(trans->impl, dev);
1650:/home/dino/paparazzi/var/include/messages.h **** 	} else
1651:/home/dino/paparazzi/var/include/messages.h **** 	  trans->overrun(trans->impl, dev);
1652:/home/dino/paparazzi/var/include/messages.h **** }
1653:/home/dino/paparazzi/var/include/messages.h **** 
1654:/home/dino/paparazzi/var/include/messages.h **** #define DOWNLINK_SEND_BMP_STATUS(_trans, _dev, UP, UT, press, temp) pprz_msg_send_BMP_STATUS(&((_tr
1655:/home/dino/paparazzi/var/include/messages.h **** static inline void pprz_msg_send_BMP_STATUS(struct transport_tx *trans, struct link_device *dev, ui
1656:/home/dino/paparazzi/var/include/messages.h **** 	if (trans->check_available_space(trans->impl, dev, trans->size_of(trans->impl, 0+4+4+4+4 +2 /* msg
1657:/home/dino/paparazzi/var/include/messages.h **** 	  trans->count_bytes(trans->impl, dev, trans->size_of(trans->impl, 0+4+4+4+4 +2 /* msg header over
1658:/home/dino/paparazzi/var/include/messages.h **** 	  trans->start_message(trans->impl, dev, 0+4+4+4+4 +2 /* msg header overhead */);
1659:/home/dino/paparazzi/var/include/messages.h **** 	  trans->put_bytes(trans->impl, dev, DL_TYPE_UINT8, DL_FORMAT_SCALAR, 1, &ac_id);
1660:/home/dino/paparazzi/var/include/messages.h **** 	  trans->put_named_byte(trans->impl, dev, DL_TYPE_UINT8, DL_FORMAT_SCALAR, DL_BMP_STATUS, "BMP_STA
1661:/home/dino/paparazzi/var/include/messages.h **** 	  trans->put_bytes(trans->impl, dev, DL_TYPE_INT32, DL_FORMAT_SCALAR, 4, (void *) _UP);
1662:/home/dino/paparazzi/var/include/messages.h **** 	  trans->put_bytes(trans->impl, dev, DL_TYPE_INT32, DL_FORMAT_SCALAR, 4, (void *) _UT);
1663:/home/dino/paparazzi/var/include/messages.h **** 	  trans->put_bytes(trans->impl, dev, DL_TYPE_INT32, DL_FORMAT_SCALAR, 4, (void *) _press);
1664:/home/dino/paparazzi/var/include/messages.h **** 	  trans->put_bytes(trans->impl, dev, DL_TYPE_INT32, DL_FORMAT_SCALAR, 4, (void *) _temp);
1665:/home/dino/paparazzi/var/include/messages.h **** 	  trans->end_message(trans->impl, dev);
1666:/home/dino/paparazzi/var/include/messages.h **** 	} else
1667:/home/dino/paparazzi/var/include/messages.h **** 	  trans->overrun(trans->impl, dev);
1668:/home/dino/paparazzi/var/include/messages.h **** }
1669:/home/dino/paparazzi/var/include/messages.h **** 
1670:/home/dino/paparazzi/var/include/messages.h **** #define DOWNLINK_SEND_MLX_STATUS(_trans, _dev, itemp_case, temp_case, itemp_obj, temp_obj) pprz_msg
1671:/home/dino/paparazzi/var/include/messages.h **** static inline void pprz_msg_send_MLX_STATUS(struct transport_tx *trans, struct link_device *dev, ui
1672:/home/dino/paparazzi/var/include/messages.h **** 	if (trans->check_available_space(trans->impl, dev, trans->size_of(trans->impl, 0+2+4+2+4 +2 /* msg
1673:/home/dino/paparazzi/var/include/messages.h **** 	  trans->count_bytes(trans->impl, dev, trans->size_of(trans->impl, 0+2+4+2+4 +2 /* msg header over
1674:/home/dino/paparazzi/var/include/messages.h **** 	  trans->start_message(trans->impl, dev, 0+2+4+2+4 +2 /* msg header overhead */);
1675:/home/dino/paparazzi/var/include/messages.h **** 	  trans->put_bytes(trans->impl, dev, DL_TYPE_UINT8, DL_FORMAT_SCALAR, 1, &ac_id);
1676:/home/dino/paparazzi/var/include/messages.h **** 	  trans->put_named_byte(trans->impl, dev, DL_TYPE_UINT8, DL_FORMAT_SCALAR, DL_MLX_STATUS, "MLX_STA
1677:/home/dino/paparazzi/var/include/messages.h **** 	  trans->put_bytes(trans->impl, dev, DL_TYPE_UINT16, DL_FORMAT_SCALAR, 2, (void *) _itemp_case);
1678:/home/dino/paparazzi/var/include/messages.h **** 	  trans->put_bytes(trans->impl, dev, DL_TYPE_FLOAT, DL_FORMAT_SCALAR, 4, (void *) _temp_case);
1679:/home/dino/paparazzi/var/include/messages.h **** 	  trans->put_bytes(trans->impl, dev, DL_TYPE_UINT16, DL_FORMAT_SCALAR, 2, (void *) _itemp_obj);
1680:/home/dino/paparazzi/var/include/messages.h **** 	  trans->put_bytes(trans->impl, dev, DL_TYPE_FLOAT, DL_FORMAT_SCALAR, 4, (void *) _temp_obj);
1681:/home/dino/paparazzi/var/include/messages.h **** 	  trans->end_message(trans->impl, dev);
1682:/home/dino/paparazzi/var/include/messages.h **** 	} else
1683:/home/dino/paparazzi/var/include/messages.h **** 	  trans->overrun(trans->impl, dev);
1684:/home/dino/paparazzi/var/include/messages.h **** }
1685:/home/dino/paparazzi/var/include/messages.h **** 
1686:/home/dino/paparazzi/var/include/messages.h **** #define DOWNLINK_SEND_TMP_STATUS(_trans, _dev, itemp, temp) pprz_msg_send_TMP_STATUS(&((_trans).tra
1687:/home/dino/paparazzi/var/include/messages.h **** static inline void pprz_msg_send_TMP_STATUS(struct transport_tx *trans, struct link_device *dev, ui
1688:/home/dino/paparazzi/var/include/messages.h **** 	if (trans->check_available_space(trans->impl, dev, trans->size_of(trans->impl, 0+2+4 +2 /* msg hea
1689:/home/dino/paparazzi/var/include/messages.h **** 	  trans->count_bytes(trans->impl, dev, trans->size_of(trans->impl, 0+2+4 +2 /* msg header overhead
1690:/home/dino/paparazzi/var/include/messages.h **** 	  trans->start_message(trans->impl, dev, 0+2+4 +2 /* msg header overhead */);
1691:/home/dino/paparazzi/var/include/messages.h **** 	  trans->put_bytes(trans->impl, dev, DL_TYPE_UINT8, DL_FORMAT_SCALAR, 1, &ac_id);
1692:/home/dino/paparazzi/var/include/messages.h **** 	  trans->put_named_byte(trans->impl, dev, DL_TYPE_UINT8, DL_FORMAT_SCALAR, DL_TMP_STATUS, "TMP_STA
1693:/home/dino/paparazzi/var/include/messages.h **** 	  trans->put_bytes(trans->impl, dev, DL_TYPE_UINT16, DL_FORMAT_SCALAR, 2, (void *) _itemp);
1694:/home/dino/paparazzi/var/include/messages.h **** 	  trans->put_bytes(trans->impl, dev, DL_TYPE_FLOAT, DL_FORMAT_SCALAR, 4, (void *) _temp);
1695:/home/dino/paparazzi/var/include/messages.h **** 	  trans->end_message(trans->impl, dev);
1696:/home/dino/paparazzi/var/include/messages.h **** 	} else
1697:/home/dino/paparazzi/var/include/messages.h **** 	  trans->overrun(trans->impl, dev);
1698:/home/dino/paparazzi/var/include/messages.h **** }
1699:/home/dino/paparazzi/var/include/messages.h **** 
1700:/home/dino/paparazzi/var/include/messages.h **** #define DOWNLINK_SEND_WIND_INFO_RET(_trans, _dev, east, north, airspeed) pprz_msg_send_WIND_INFO_RE
1701:/home/dino/paparazzi/var/include/messages.h **** static inline void pprz_msg_send_WIND_INFO_RET(struct transport_tx *trans, struct link_device *dev,
1702:/home/dino/paparazzi/var/include/messages.h **** 	if (trans->check_available_space(trans->impl, dev, trans->size_of(trans->impl, 0+4+4+4 +2 /* msg h
1703:/home/dino/paparazzi/var/include/messages.h **** 	  trans->count_bytes(trans->impl, dev, trans->size_of(trans->impl, 0+4+4+4 +2 /* msg header overhe
1704:/home/dino/paparazzi/var/include/messages.h **** 	  trans->start_message(trans->impl, dev, 0+4+4+4 +2 /* msg header overhead */);
1705:/home/dino/paparazzi/var/include/messages.h **** 	  trans->put_bytes(trans->impl, dev, DL_TYPE_UINT8, DL_FORMAT_SCALAR, 1, &ac_id);
1706:/home/dino/paparazzi/var/include/messages.h **** 	  trans->put_named_byte(trans->impl, dev, DL_TYPE_UINT8, DL_FORMAT_SCALAR, DL_WIND_INFO_RET, "WIND
1707:/home/dino/paparazzi/var/include/messages.h **** 	  trans->put_bytes(trans->impl, dev, DL_TYPE_FLOAT, DL_FORMAT_SCALAR, 4, (void *) _east);
1708:/home/dino/paparazzi/var/include/messages.h **** 	  trans->put_bytes(trans->impl, dev, DL_TYPE_FLOAT, DL_FORMAT_SCALAR, 4, (void *) _north);
1709:/home/dino/paparazzi/var/include/messages.h **** 	  trans->put_bytes(trans->impl, dev, DL_TYPE_FLOAT, DL_FORMAT_SCALAR, 4, (void *) _airspeed);
1710:/home/dino/paparazzi/var/include/messages.h **** 	  trans->end_message(trans->impl, dev);
1711:/home/dino/paparazzi/var/include/messages.h **** 	} else
1712:/home/dino/paparazzi/var/include/messages.h **** 	  trans->overrun(trans->impl, dev);
1713:/home/dino/paparazzi/var/include/messages.h **** }
1714:/home/dino/paparazzi/var/include/messages.h **** 
1715:/home/dino/paparazzi/var/include/messages.h **** #define DOWNLINK_SEND_SCP_STATUS(_trans, _dev, press, temp) pprz_msg_send_SCP_STATUS(&((_trans).tra
1716:/home/dino/paparazzi/var/include/messages.h **** static inline void pprz_msg_send_SCP_STATUS(struct transport_tx *trans, struct link_device *dev, ui
1717:/home/dino/paparazzi/var/include/messages.h **** 	if (trans->check_available_space(trans->impl, dev, trans->size_of(trans->impl, 0+4+2 +2 /* msg hea
1718:/home/dino/paparazzi/var/include/messages.h **** 	  trans->count_bytes(trans->impl, dev, trans->size_of(trans->impl, 0+4+2 +2 /* msg header overhead
1719:/home/dino/paparazzi/var/include/messages.h **** 	  trans->start_message(trans->impl, dev, 0+4+2 +2 /* msg header overhead */);
1720:/home/dino/paparazzi/var/include/messages.h **** 	  trans->put_bytes(trans->impl, dev, DL_TYPE_UINT8, DL_FORMAT_SCALAR, 1, &ac_id);
1721:/home/dino/paparazzi/var/include/messages.h **** 	  trans->put_named_byte(trans->impl, dev, DL_TYPE_UINT8, DL_FORMAT_SCALAR, DL_SCP_STATUS, "SCP_STA
1722:/home/dino/paparazzi/var/include/messages.h **** 	  trans->put_bytes(trans->impl, dev, DL_TYPE_UINT32, DL_FORMAT_SCALAR, 4, (void *) _press);
1723:/home/dino/paparazzi/var/include/messages.h **** 	  trans->put_bytes(trans->impl, dev, DL_TYPE_INT16, DL_FORMAT_SCALAR, 2, (void *) _temp);
1724:/home/dino/paparazzi/var/include/messages.h **** 	  trans->end_message(trans->impl, dev);
1725:/home/dino/paparazzi/var/include/messages.h **** 	} else
1726:/home/dino/paparazzi/var/include/messages.h **** 	  trans->overrun(trans->impl, dev);
1727:/home/dino/paparazzi/var/include/messages.h **** }
1728:/home/dino/paparazzi/var/include/messages.h **** 
1729:/home/dino/paparazzi/var/include/messages.h **** #define DOWNLINK_SEND_SHT_STATUS(_trans, _dev, ihumid, itemp, humid, temp) pprz_msg_send_SHT_STATUS
1730:/home/dino/paparazzi/var/include/messages.h **** static inline void pprz_msg_send_SHT_STATUS(struct transport_tx *trans, struct link_device *dev, ui
1731:/home/dino/paparazzi/var/include/messages.h **** 	if (trans->check_available_space(trans->impl, dev, trans->size_of(trans->impl, 0+2+2+4+4 +2 /* msg
1732:/home/dino/paparazzi/var/include/messages.h **** 	  trans->count_bytes(trans->impl, dev, trans->size_of(trans->impl, 0+2+2+4+4 +2 /* msg header over
1733:/home/dino/paparazzi/var/include/messages.h **** 	  trans->start_message(trans->impl, dev, 0+2+2+4+4 +2 /* msg header overhead */);
1734:/home/dino/paparazzi/var/include/messages.h **** 	  trans->put_bytes(trans->impl, dev, DL_TYPE_UINT8, DL_FORMAT_SCALAR, 1, &ac_id);
1735:/home/dino/paparazzi/var/include/messages.h **** 	  trans->put_named_byte(trans->impl, dev, DL_TYPE_UINT8, DL_FORMAT_SCALAR, DL_SHT_STATUS, "SHT_STA
1736:/home/dino/paparazzi/var/include/messages.h **** 	  trans->put_bytes(trans->impl, dev, DL_TYPE_UINT16, DL_FORMAT_SCALAR, 2, (void *) _ihumid);
1737:/home/dino/paparazzi/var/include/messages.h **** 	  trans->put_bytes(trans->impl, dev, DL_TYPE_UINT16, DL_FORMAT_SCALAR, 2, (void *) _itemp);
1738:/home/dino/paparazzi/var/include/messages.h **** 	  trans->put_bytes(trans->impl, dev, DL_TYPE_FLOAT, DL_FORMAT_SCALAR, 4, (void *) _humid);
1739:/home/dino/paparazzi/var/include/messages.h **** 	  trans->put_bytes(trans->impl, dev, DL_TYPE_FLOAT, DL_FORMAT_SCALAR, 4, (void *) _temp);
1740:/home/dino/paparazzi/var/include/messages.h **** 	  trans->end_message(trans->impl, dev);
1741:/home/dino/paparazzi/var/include/messages.h **** 	} else
1742:/home/dino/paparazzi/var/include/messages.h **** 	  trans->overrun(trans->impl, dev);
1743:/home/dino/paparazzi/var/include/messages.h **** }
1744:/home/dino/paparazzi/var/include/messages.h **** 
1745:/home/dino/paparazzi/var/include/messages.h **** #define DOWNLINK_SEND_ENOSE_STATUS(_trans, _dev, val1, val2, val3, PID, nb_heat, heat) pprz_msg_sen
1746:/home/dino/paparazzi/var/include/messages.h **** static inline void pprz_msg_send_ENOSE_STATUS(struct transport_tx *trans, struct link_device *dev, 
1747:/home/dino/paparazzi/var/include/messages.h **** 	if (trans->check_available_space(trans->impl, dev, trans->size_of(trans->impl, 0+2+2+2+2+1+nb_heat
1748:/home/dino/paparazzi/var/include/messages.h **** 	  trans->count_bytes(trans->impl, dev, trans->size_of(trans->impl, 0+2+2+2+2+1+nb_heat*1 +2 /* msg
1749:/home/dino/paparazzi/var/include/messages.h **** 	  trans->start_message(trans->impl, dev, 0+2+2+2+2+1+nb_heat*1 +2 /* msg header overhead */);
1750:/home/dino/paparazzi/var/include/messages.h **** 	  trans->put_bytes(trans->impl, dev, DL_TYPE_UINT8, DL_FORMAT_SCALAR, 1, &ac_id);
1751:/home/dino/paparazzi/var/include/messages.h **** 	  trans->put_named_byte(trans->impl, dev, DL_TYPE_UINT8, DL_FORMAT_SCALAR, DL_ENOSE_STATUS, "ENOSE
1752:/home/dino/paparazzi/var/include/messages.h **** 	  trans->put_bytes(trans->impl, dev, DL_TYPE_UINT16, DL_FORMAT_SCALAR, 2, (void *) _val1);
1753:/home/dino/paparazzi/var/include/messages.h **** 	  trans->put_bytes(trans->impl, dev, DL_TYPE_UINT16, DL_FORMAT_SCALAR, 2, (void *) _val2);
1754:/home/dino/paparazzi/var/include/messages.h **** 	  trans->put_bytes(trans->impl, dev, DL_TYPE_UINT16, DL_FORMAT_SCALAR, 2, (void *) _val3);
1755:/home/dino/paparazzi/var/include/messages.h **** 	  trans->put_bytes(trans->impl, dev, DL_TYPE_UINT16, DL_FORMAT_SCALAR, 2, (void *) _PID);
1756:/home/dino/paparazzi/var/include/messages.h **** 	  trans->put_bytes(trans->impl, dev, DL_TYPE_ARRAY_LENGTH, DL_FORMAT_SCALAR, 1, (void *) &nb_heat)
1757:/home/dino/paparazzi/var/include/messages.h **** 	  trans->put_bytes(trans->impl, dev, DL_TYPE_UINT8, DL_FORMAT_ARRAY, 1 * nb_heat, (void *) _heat);
1758:/home/dino/paparazzi/var/include/messages.h **** 	  trans->end_message(trans->impl, dev);
1759:/home/dino/paparazzi/var/include/messages.h **** 	} else
1760:/home/dino/paparazzi/var/include/messages.h **** 	  trans->overrun(trans->impl, dev);
1761:/home/dino/paparazzi/var/include/messages.h **** }
1762:/home/dino/paparazzi/var/include/messages.h **** 
1763:/home/dino/paparazzi/var/include/messages.h **** #define DOWNLINK_SEND_DPICCO_STATUS(_trans, _dev, humid, temp, fhumid, ftemp) pprz_msg_send_DPICCO_
1764:/home/dino/paparazzi/var/include/messages.h **** static inline void pprz_msg_send_DPICCO_STATUS(struct transport_tx *trans, struct link_device *dev,
1765:/home/dino/paparazzi/var/include/messages.h **** 	if (trans->check_available_space(trans->impl, dev, trans->size_of(trans->impl, 0+2+2+4+4 +2 /* msg
1766:/home/dino/paparazzi/var/include/messages.h **** 	  trans->count_bytes(trans->impl, dev, trans->size_of(trans->impl, 0+2+2+4+4 +2 /* msg header over
1767:/home/dino/paparazzi/var/include/messages.h **** 	  trans->start_message(trans->impl, dev, 0+2+2+4+4 +2 /* msg header overhead */);
1768:/home/dino/paparazzi/var/include/messages.h **** 	  trans->put_bytes(trans->impl, dev, DL_TYPE_UINT8, DL_FORMAT_SCALAR, 1, &ac_id);
1769:/home/dino/paparazzi/var/include/messages.h **** 	  trans->put_named_byte(trans->impl, dev, DL_TYPE_UINT8, DL_FORMAT_SCALAR, DL_DPICCO_STATUS, "DPIC
1770:/home/dino/paparazzi/var/include/messages.h **** 	  trans->put_bytes(trans->impl, dev, DL_TYPE_UINT16, DL_FORMAT_SCALAR, 2, (void *) _humid);
1771:/home/dino/paparazzi/var/include/messages.h **** 	  trans->put_bytes(trans->impl, dev, DL_TYPE_UINT16, DL_FORMAT_SCALAR, 2, (void *) _temp);
1772:/home/dino/paparazzi/var/include/messages.h **** 	  trans->put_bytes(trans->impl, dev, DL_TYPE_FLOAT, DL_FORMAT_SCALAR, 4, (void *) _fhumid);
1773:/home/dino/paparazzi/var/include/messages.h **** 	  trans->put_bytes(trans->impl, dev, DL_TYPE_FLOAT, DL_FORMAT_SCALAR, 4, (void *) _ftemp);
1774:/home/dino/paparazzi/var/include/messages.h **** 	  trans->end_message(trans->impl, dev);
1775:/home/dino/paparazzi/var/include/messages.h **** 	} else
1776:/home/dino/paparazzi/var/include/messages.h **** 	  trans->overrun(trans->impl, dev);
1777:/home/dino/paparazzi/var/include/messages.h **** }
1778:/home/dino/paparazzi/var/include/messages.h **** 
1779:/home/dino/paparazzi/var/include/messages.h **** #define DOWNLINK_SEND_ANTENNA_DEBUG(_trans, _dev, mag_xraw, mag_yraw, mag_xcal, mag_ycal, mag_headi
1780:/home/dino/paparazzi/var/include/messages.h **** static inline void pprz_msg_send_ANTENNA_DEBUG(struct transport_tx *trans, struct link_device *dev,
1781:/home/dino/paparazzi/var/include/messages.h **** 	if (trans->check_available_space(trans->impl, dev, trans->size_of(trans->impl, 0+4+4+4+4+4+4+4+1+1
1782:/home/dino/paparazzi/var/include/messages.h **** 	  trans->count_bytes(trans->impl, dev, trans->size_of(trans->impl, 0+4+4+4+4+4+4+4+1+1 +2 /* msg h
1783:/home/dino/paparazzi/var/include/messages.h **** 	  trans->start_message(trans->impl, dev, 0+4+4+4+4+4+4+4+1+1 +2 /* msg header overhead */);
1784:/home/dino/paparazzi/var/include/messages.h **** 	  trans->put_bytes(trans->impl, dev, DL_TYPE_UINT8, DL_FORMAT_SCALAR, 1, &ac_id);
1785:/home/dino/paparazzi/var/include/messages.h **** 	  trans->put_named_byte(trans->impl, dev, DL_TYPE_UINT8, DL_FORMAT_SCALAR, DL_ANTENNA_DEBUG, "ANTE
1786:/home/dino/paparazzi/var/include/messages.h **** 	  trans->put_bytes(trans->impl, dev, DL_TYPE_INT32, DL_FORMAT_SCALAR, 4, (void *) _mag_xraw);
1787:/home/dino/paparazzi/var/include/messages.h **** 	  trans->put_bytes(trans->impl, dev, DL_TYPE_INT32, DL_FORMAT_SCALAR, 4, (void *) _mag_yraw);
1788:/home/dino/paparazzi/var/include/messages.h **** 	  trans->put_bytes(trans->impl, dev, DL_TYPE_FLOAT, DL_FORMAT_SCALAR, 4, (void *) _mag_xcal);
1789:/home/dino/paparazzi/var/include/messages.h **** 	  trans->put_bytes(trans->impl, dev, DL_TYPE_FLOAT, DL_FORMAT_SCALAR, 4, (void *) _mag_ycal);
1790:/home/dino/paparazzi/var/include/messages.h **** 	  trans->put_bytes(trans->impl, dev, DL_TYPE_FLOAT, DL_FORMAT_SCALAR, 4, (void *) _mag_heading);
1791:/home/dino/paparazzi/var/include/messages.h **** 	  trans->put_bytes(trans->impl, dev, DL_TYPE_FLOAT, DL_FORMAT_SCALAR, 4, (void *) _mag_magnitude);
1792:/home/dino/paparazzi/var/include/messages.h **** 	  trans->put_bytes(trans->impl, dev, DL_TYPE_FLOAT, DL_FORMAT_SCALAR, 4, (void *) _mag_temp);
1793:/home/dino/paparazzi/var/include/messages.h **** 	  trans->put_bytes(trans->impl, dev, DL_TYPE_UINT8, DL_FORMAT_SCALAR, 1, (void *) _mag_distor);
1794:/home/dino/paparazzi/var/include/messages.h **** 	  trans->put_bytes(trans->impl, dev, DL_TYPE_UINT8, DL_FORMAT_SCALAR, 1, (void *) _mag_cal_status)
1795:/home/dino/paparazzi/var/include/messages.h **** 	  trans->end_message(trans->impl, dev);
1796:/home/dino/paparazzi/var/include/messages.h **** 	} else
1797:/home/dino/paparazzi/var/include/messages.h **** 	  trans->overrun(trans->impl, dev);
1798:/home/dino/paparazzi/var/include/messages.h **** }
1799:/home/dino/paparazzi/var/include/messages.h **** 
1800:/home/dino/paparazzi/var/include/messages.h **** #define DOWNLINK_SEND_ANTENNA_STATUS(_trans, _dev, azim_sp, elev_sp, id_sp, mode) pprz_msg_send_ANT
1801:/home/dino/paparazzi/var/include/messages.h **** static inline void pprz_msg_send_ANTENNA_STATUS(struct transport_tx *trans, struct link_device *dev
1802:/home/dino/paparazzi/var/include/messages.h **** 	if (trans->check_available_space(trans->impl, dev, trans->size_of(trans->impl, 0+4+4+1+1 +2 /* msg
1803:/home/dino/paparazzi/var/include/messages.h **** 	  trans->count_bytes(trans->impl, dev, trans->size_of(trans->impl, 0+4+4+1+1 +2 /* msg header over
1804:/home/dino/paparazzi/var/include/messages.h **** 	  trans->start_message(trans->impl, dev, 0+4+4+1+1 +2 /* msg header overhead */);
1805:/home/dino/paparazzi/var/include/messages.h **** 	  trans->put_bytes(trans->impl, dev, DL_TYPE_UINT8, DL_FORMAT_SCALAR, 1, &ac_id);
1806:/home/dino/paparazzi/var/include/messages.h **** 	  trans->put_named_byte(trans->impl, dev, DL_TYPE_UINT8, DL_FORMAT_SCALAR, DL_ANTENNA_STATUS, "ANT
1807:/home/dino/paparazzi/var/include/messages.h **** 	  trans->put_bytes(trans->impl, dev, DL_TYPE_FLOAT, DL_FORMAT_SCALAR, 4, (void *) _azim_sp);
1808:/home/dino/paparazzi/var/include/messages.h **** 	  trans->put_bytes(trans->impl, dev, DL_TYPE_FLOAT, DL_FORMAT_SCALAR, 4, (void *) _elev_sp);
1809:/home/dino/paparazzi/var/include/messages.h **** 	  trans->put_bytes(trans->impl, dev, DL_TYPE_UINT8, DL_FORMAT_SCALAR, 1, (void *) _id_sp);
1810:/home/dino/paparazzi/var/include/messages.h **** 	  trans->put_bytes(trans->impl, dev, DL_TYPE_UINT8, DL_FORMAT_SCALAR, 1, (void *) _mode);
1811:/home/dino/paparazzi/var/include/messages.h **** 	  trans->end_message(trans->impl, dev);
1812:/home/dino/paparazzi/var/include/messages.h **** 	} else
1813:/home/dino/paparazzi/var/include/messages.h **** 	  trans->overrun(trans->impl, dev);
1814:/home/dino/paparazzi/var/include/messages.h **** }
1815:/home/dino/paparazzi/var/include/messages.h **** 
1816:/home/dino/paparazzi/var/include/messages.h **** #define DOWNLINK_SEND_MOTOR_BENCH_STATUS(_trans, _dev, time_ticks, throttle, rpm, current, thrust, 
1817:/home/dino/paparazzi/var/include/messages.h **** static inline void pprz_msg_send_MOTOR_BENCH_STATUS(struct transport_tx *trans, struct link_device 
1818:/home/dino/paparazzi/var/include/messages.h **** 	if (trans->check_available_space(trans->impl, dev, trans->size_of(trans->impl, 0+4+4+4+4+4+4+2+1 +
1819:/home/dino/paparazzi/var/include/messages.h **** 	  trans->count_bytes(trans->impl, dev, trans->size_of(trans->impl, 0+4+4+4+4+4+4+2+1 +2 /* msg hea
1820:/home/dino/paparazzi/var/include/messages.h **** 	  trans->start_message(trans->impl, dev, 0+4+4+4+4+4+4+2+1 +2 /* msg header overhead */);
1821:/home/dino/paparazzi/var/include/messages.h **** 	  trans->put_bytes(trans->impl, dev, DL_TYPE_UINT8, DL_FORMAT_SCALAR, 1, &ac_id);
1822:/home/dino/paparazzi/var/include/messages.h **** 	  trans->put_named_byte(trans->impl, dev, DL_TYPE_UINT8, DL_FORMAT_SCALAR, DL_MOTOR_BENCH_STATUS, 
1823:/home/dino/paparazzi/var/include/messages.h **** 	  trans->put_bytes(trans->impl, dev, DL_TYPE_UINT32, DL_FORMAT_SCALAR, 4, (void *) _time_ticks);
1824:/home/dino/paparazzi/var/include/messages.h **** 	  trans->put_bytes(trans->impl, dev, DL_TYPE_FLOAT, DL_FORMAT_SCALAR, 4, (void *) _throttle);
1825:/home/dino/paparazzi/var/include/messages.h **** 	  trans->put_bytes(trans->impl, dev, DL_TYPE_FLOAT, DL_FORMAT_SCALAR, 4, (void *) _rpm);
1826:/home/dino/paparazzi/var/include/messages.h **** 	  trans->put_bytes(trans->impl, dev, DL_TYPE_FLOAT, DL_FORMAT_SCALAR, 4, (void *) _current);
1827:/home/dino/paparazzi/var/include/messages.h **** 	  trans->put_bytes(trans->impl, dev, DL_TYPE_FLOAT, DL_FORMAT_SCALAR, 4, (void *) _thrust);
1828:/home/dino/paparazzi/var/include/messages.h **** 	  trans->put_bytes(trans->impl, dev, DL_TYPE_FLOAT, DL_FORMAT_SCALAR, 4, (void *) _torque);
1829:/home/dino/paparazzi/var/include/messages.h **** 	  trans->put_bytes(trans->impl, dev, DL_TYPE_UINT16, DL_FORMAT_SCALAR, 2, (void *) _time_s);
1830:/home/dino/paparazzi/var/include/messages.h **** 	  trans->put_bytes(trans->impl, dev, DL_TYPE_UINT8, DL_FORMAT_SCALAR, 1, (void *) _mode);
1831:/home/dino/paparazzi/var/include/messages.h **** 	  trans->end_message(trans->impl, dev);
1832:/home/dino/paparazzi/var/include/messages.h **** 	} else
1833:/home/dino/paparazzi/var/include/messages.h **** 	  trans->overrun(trans->impl, dev);
1834:/home/dino/paparazzi/var/include/messages.h **** }
1835:/home/dino/paparazzi/var/include/messages.h **** 
1836:/home/dino/paparazzi/var/include/messages.h **** #define DOWNLINK_SEND_MOTOR_BENCH_STATIC(_trans, _dev, av_rpm, av_thrust, av_current, throttle) ppr
1837:/home/dino/paparazzi/var/include/messages.h **** static inline void pprz_msg_send_MOTOR_BENCH_STATIC(struct transport_tx *trans, struct link_device 
1838:/home/dino/paparazzi/var/include/messages.h **** 	if (trans->check_available_space(trans->impl, dev, trans->size_of(trans->impl, 0+4+4+4+2 +2 /* msg
1839:/home/dino/paparazzi/var/include/messages.h **** 	  trans->count_bytes(trans->impl, dev, trans->size_of(trans->impl, 0+4+4+4+2 +2 /* msg header over
1840:/home/dino/paparazzi/var/include/messages.h **** 	  trans->start_message(trans->impl, dev, 0+4+4+4+2 +2 /* msg header overhead */);
1841:/home/dino/paparazzi/var/include/messages.h **** 	  trans->put_bytes(trans->impl, dev, DL_TYPE_UINT8, DL_FORMAT_SCALAR, 1, &ac_id);
1842:/home/dino/paparazzi/var/include/messages.h **** 	  trans->put_named_byte(trans->impl, dev, DL_TYPE_UINT8, DL_FORMAT_SCALAR, DL_MOTOR_BENCH_STATIC, 
1843:/home/dino/paparazzi/var/include/messages.h **** 	  trans->put_bytes(trans->impl, dev, DL_TYPE_FLOAT, DL_FORMAT_SCALAR, 4, (void *) _av_rpm);
1844:/home/dino/paparazzi/var/include/messages.h **** 	  trans->put_bytes(trans->impl, dev, DL_TYPE_FLOAT, DL_FORMAT_SCALAR, 4, (void *) _av_thrust);
1845:/home/dino/paparazzi/var/include/messages.h **** 	  trans->put_bytes(trans->impl, dev, DL_TYPE_FLOAT, DL_FORMAT_SCALAR, 4, (void *) _av_current);
1846:/home/dino/paparazzi/var/include/messages.h **** 	  trans->put_bytes(trans->impl, dev, DL_TYPE_UINT16, DL_FORMAT_SCALAR, 2, (void *) _throttle);
1847:/home/dino/paparazzi/var/include/messages.h **** 	  trans->end_message(trans->impl, dev);
1848:/home/dino/paparazzi/var/include/messages.h **** 	} else
1849:/home/dino/paparazzi/var/include/messages.h **** 	  trans->overrun(trans->impl, dev);
1850:/home/dino/paparazzi/var/include/messages.h **** }
1851:/home/dino/paparazzi/var/include/messages.h **** 
1852:/home/dino/paparazzi/var/include/messages.h **** #define DOWNLINK_SEND_HIH_STATUS(_trans, _dev, humid, fhumid, ftemp) pprz_msg_send_HIH_STATUS(&((_t
1853:/home/dino/paparazzi/var/include/messages.h **** static inline void pprz_msg_send_HIH_STATUS(struct transport_tx *trans, struct link_device *dev, ui
1854:/home/dino/paparazzi/var/include/messages.h **** 	if (trans->check_available_space(trans->impl, dev, trans->size_of(trans->impl, 0+2+4+4 +2 /* msg h
1855:/home/dino/paparazzi/var/include/messages.h **** 	  trans->count_bytes(trans->impl, dev, trans->size_of(trans->impl, 0+2+4+4 +2 /* msg header overhe
1856:/home/dino/paparazzi/var/include/messages.h **** 	  trans->start_message(trans->impl, dev, 0+2+4+4 +2 /* msg header overhead */);
1857:/home/dino/paparazzi/var/include/messages.h **** 	  trans->put_bytes(trans->impl, dev, DL_TYPE_UINT8, DL_FORMAT_SCALAR, 1, &ac_id);
1858:/home/dino/paparazzi/var/include/messages.h **** 	  trans->put_named_byte(trans->impl, dev, DL_TYPE_UINT8, DL_FORMAT_SCALAR, DL_HIH_STATUS, "HIH_STA
1859:/home/dino/paparazzi/var/include/messages.h **** 	  trans->put_bytes(trans->impl, dev, DL_TYPE_UINT16, DL_FORMAT_SCALAR, 2, (void *) _humid);
1860:/home/dino/paparazzi/var/include/messages.h **** 	  trans->put_bytes(trans->impl, dev, DL_TYPE_FLOAT, DL_FORMAT_SCALAR, 4, (void *) _fhumid);
1861:/home/dino/paparazzi/var/include/messages.h **** 	  trans->put_bytes(trans->impl, dev, DL_TYPE_FLOAT, DL_FORMAT_SCALAR, 4, (void *) _ftemp);
1862:/home/dino/paparazzi/var/include/messages.h **** 	  trans->end_message(trans->impl, dev);
1863:/home/dino/paparazzi/var/include/messages.h **** 	} else
1864:/home/dino/paparazzi/var/include/messages.h **** 	  trans->overrun(trans->impl, dev);
1865:/home/dino/paparazzi/var/include/messages.h **** }
1866:/home/dino/paparazzi/var/include/messages.h **** 
1867:/home/dino/paparazzi/var/include/messages.h **** #define DOWNLINK_SEND_TEMT_STATUS(_trans, _dev, light, f_light) pprz_msg_send_TEMT_STATUS(&((_trans
1868:/home/dino/paparazzi/var/include/messages.h **** static inline void pprz_msg_send_TEMT_STATUS(struct transport_tx *trans, struct link_device *dev, u
1869:/home/dino/paparazzi/var/include/messages.h **** 	if (trans->check_available_space(trans->impl, dev, trans->size_of(trans->impl, 0+2+4 +2 /* msg hea
1870:/home/dino/paparazzi/var/include/messages.h **** 	  trans->count_bytes(trans->impl, dev, trans->size_of(trans->impl, 0+2+4 +2 /* msg header overhead
1871:/home/dino/paparazzi/var/include/messages.h **** 	  trans->start_message(trans->impl, dev, 0+2+4 +2 /* msg header overhead */);
1872:/home/dino/paparazzi/var/include/messages.h **** 	  trans->put_bytes(trans->impl, dev, DL_TYPE_UINT8, DL_FORMAT_SCALAR, 1, &ac_id);
1873:/home/dino/paparazzi/var/include/messages.h **** 	  trans->put_named_byte(trans->impl, dev, DL_TYPE_UINT8, DL_FORMAT_SCALAR, DL_TEMT_STATUS, "TEMT_S
1874:/home/dino/paparazzi/var/include/messages.h **** 	  trans->put_bytes(trans->impl, dev, DL_TYPE_UINT16, DL_FORMAT_SCALAR, 2, (void *) _light);
1875:/home/dino/paparazzi/var/include/messages.h **** 	  trans->put_bytes(trans->impl, dev, DL_TYPE_FLOAT, DL_FORMAT_SCALAR, 4, (void *) _f_light);
1876:/home/dino/paparazzi/var/include/messages.h **** 	  trans->end_message(trans->impl, dev);
1877:/home/dino/paparazzi/var/include/messages.h **** 	} else
1878:/home/dino/paparazzi/var/include/messages.h **** 	  trans->overrun(trans->impl, dev);
1879:/home/dino/paparazzi/var/include/messages.h **** }
1880:/home/dino/paparazzi/var/include/messages.h **** 
1881:/home/dino/paparazzi/var/include/messages.h **** #define DOWNLINK_SEND_GP2Y_STATUS(_trans, _dev, idensity, density) pprz_msg_send_GP2Y_STATUS(&((_tr
1882:/home/dino/paparazzi/var/include/messages.h **** static inline void pprz_msg_send_GP2Y_STATUS(struct transport_tx *trans, struct link_device *dev, u
1883:/home/dino/paparazzi/var/include/messages.h **** 	if (trans->check_available_space(trans->impl, dev, trans->size_of(trans->impl, 0+2+4 +2 /* msg hea
1884:/home/dino/paparazzi/var/include/messages.h **** 	  trans->count_bytes(trans->impl, dev, trans->size_of(trans->impl, 0+2+4 +2 /* msg header overhead
1885:/home/dino/paparazzi/var/include/messages.h **** 	  trans->start_message(trans->impl, dev, 0+2+4 +2 /* msg header overhead */);
1886:/home/dino/paparazzi/var/include/messages.h **** 	  trans->put_bytes(trans->impl, dev, DL_TYPE_UINT8, DL_FORMAT_SCALAR, 1, &ac_id);
1887:/home/dino/paparazzi/var/include/messages.h **** 	  trans->put_named_byte(trans->impl, dev, DL_TYPE_UINT8, DL_FORMAT_SCALAR, DL_GP2Y_STATUS, "GP2Y_S
1888:/home/dino/paparazzi/var/include/messages.h **** 	  trans->put_bytes(trans->impl, dev, DL_TYPE_UINT16, DL_FORMAT_SCALAR, 2, (void *) _idensity);
1889:/home/dino/paparazzi/var/include/messages.h **** 	  trans->put_bytes(trans->impl, dev, DL_TYPE_FLOAT, DL_FORMAT_SCALAR, 4, (void *) _density);
1890:/home/dino/paparazzi/var/include/messages.h **** 	  trans->end_message(trans->impl, dev);
1891:/home/dino/paparazzi/var/include/messages.h **** 	} else
1892:/home/dino/paparazzi/var/include/messages.h **** 	  trans->overrun(trans->impl, dev);
1893:/home/dino/paparazzi/var/include/messages.h **** }
1894:/home/dino/paparazzi/var/include/messages.h **** 
1895:/home/dino/paparazzi/var/include/messages.h **** #define DOWNLINK_SEND_SHT_I2C_SERIAL(_trans, _dev, serial0, serial1) pprz_msg_send_SHT_I2C_SERIAL(&
1896:/home/dino/paparazzi/var/include/messages.h **** static inline void pprz_msg_send_SHT_I2C_SERIAL(struct transport_tx *trans, struct link_device *dev
1897:/home/dino/paparazzi/var/include/messages.h **** 	if (trans->check_available_space(trans->impl, dev, trans->size_of(trans->impl, 0+4+4 +2 /* msg hea
1898:/home/dino/paparazzi/var/include/messages.h **** 	  trans->count_bytes(trans->impl, dev, trans->size_of(trans->impl, 0+4+4 +2 /* msg header overhead
1899:/home/dino/paparazzi/var/include/messages.h **** 	  trans->start_message(trans->impl, dev, 0+4+4 +2 /* msg header overhead */);
1900:/home/dino/paparazzi/var/include/messages.h **** 	  trans->put_bytes(trans->impl, dev, DL_TYPE_UINT8, DL_FORMAT_SCALAR, 1, &ac_id);
1901:/home/dino/paparazzi/var/include/messages.h **** 	  trans->put_named_byte(trans->impl, dev, DL_TYPE_UINT8, DL_FORMAT_SCALAR, DL_SHT_I2C_SERIAL, "SHT
1902:/home/dino/paparazzi/var/include/messages.h **** 	  trans->put_bytes(trans->impl, dev, DL_TYPE_UINT32, DL_FORMAT_SCALAR, 4, (void *) _serial0);
1903:/home/dino/paparazzi/var/include/messages.h **** 	  trans->put_bytes(trans->impl, dev, DL_TYPE_UINT32, DL_FORMAT_SCALAR, 4, (void *) _serial1);
1904:/home/dino/paparazzi/var/include/messages.h **** 	  trans->end_message(trans->impl, dev);
1905:/home/dino/paparazzi/var/include/messages.h **** 	} else
1906:/home/dino/paparazzi/var/include/messages.h **** 	  trans->overrun(trans->impl, dev);
1907:/home/dino/paparazzi/var/include/messages.h **** }
1908:/home/dino/paparazzi/var/include/messages.h **** 
1909:/home/dino/paparazzi/var/include/messages.h **** #define DOWNLINK_SEND_PPM(_trans, _dev, ppm_rate, nb_values, values) pprz_msg_send_PPM(&((_trans).t
1910:/home/dino/paparazzi/var/include/messages.h **** static inline void pprz_msg_send_PPM(struct transport_tx *trans, struct link_device *dev, uint8_t a
1911:/home/dino/paparazzi/var/include/messages.h **** 	if (trans->check_available_space(trans->impl, dev, trans->size_of(trans->impl, 0+1+1+nb_values*2 +
1912:/home/dino/paparazzi/var/include/messages.h **** 	  trans->count_bytes(trans->impl, dev, trans->size_of(trans->impl, 0+1+1+nb_values*2 +2 /* msg hea
1913:/home/dino/paparazzi/var/include/messages.h **** 	  trans->start_message(trans->impl, dev, 0+1+1+nb_values*2 +2 /* msg header overhead */);
1914:/home/dino/paparazzi/var/include/messages.h **** 	  trans->put_bytes(trans->impl, dev, DL_TYPE_UINT8, DL_FORMAT_SCALAR, 1, &ac_id);
1915:/home/dino/paparazzi/var/include/messages.h **** 	  trans->put_named_byte(trans->impl, dev, DL_TYPE_UINT8, DL_FORMAT_SCALAR, DL_PPM, "PPM");
1916:/home/dino/paparazzi/var/include/messages.h **** 	  trans->put_bytes(trans->impl, dev, DL_TYPE_UINT8, DL_FORMAT_SCALAR, 1, (void *) _ppm_rate);
1917:/home/dino/paparazzi/var/include/messages.h **** 	  trans->put_bytes(trans->impl, dev, DL_TYPE_ARRAY_LENGTH, DL_FORMAT_SCALAR, 1, (void *) &nb_value
1918:/home/dino/paparazzi/var/include/messages.h **** 	  trans->put_bytes(trans->impl, dev, DL_TYPE_UINT16, DL_FORMAT_ARRAY, 2 * nb_values, (void *) _val
1919:/home/dino/paparazzi/var/include/messages.h **** 	  trans->end_message(trans->impl, dev);
1920:/home/dino/paparazzi/var/include/messages.h **** 	} else
1921:/home/dino/paparazzi/var/include/messages.h **** 	  trans->overrun(trans->impl, dev);
1922:/home/dino/paparazzi/var/include/messages.h **** }
1923:/home/dino/paparazzi/var/include/messages.h **** 
1924:/home/dino/paparazzi/var/include/messages.h **** #define DOWNLINK_SEND_RC(_trans, _dev, nb_values, values) pprz_msg_send_RC(&((_trans).trans_tx), &(
1925:/home/dino/paparazzi/var/include/messages.h **** static inline void pprz_msg_send_RC(struct transport_tx *trans, struct link_device *dev, uint8_t ac
1926:/home/dino/paparazzi/var/include/messages.h **** 	if (trans->check_available_space(trans->impl, dev, trans->size_of(trans->impl, 0+1+nb_values*2 +2 
1927:/home/dino/paparazzi/var/include/messages.h **** 	  trans->count_bytes(trans->impl, dev, trans->size_of(trans->impl, 0+1+nb_values*2 +2 /* msg heade
1928:/home/dino/paparazzi/var/include/messages.h **** 	  trans->start_message(trans->impl, dev, 0+1+nb_values*2 +2 /* msg header overhead */);
1929:/home/dino/paparazzi/var/include/messages.h **** 	  trans->put_bytes(trans->impl, dev, DL_TYPE_UINT8, DL_FORMAT_SCALAR, 1, &ac_id);
1930:/home/dino/paparazzi/var/include/messages.h **** 	  trans->put_named_byte(trans->impl, dev, DL_TYPE_UINT8, DL_FORMAT_SCALAR, DL_RC, "RC");
1931:/home/dino/paparazzi/var/include/messages.h **** 	  trans->put_bytes(trans->impl, dev, DL_TYPE_ARRAY_LENGTH, DL_FORMAT_SCALAR, 1, (void *) &nb_value
1932:/home/dino/paparazzi/var/include/messages.h **** 	  trans->put_bytes(trans->impl, dev, DL_TYPE_INT16, DL_FORMAT_ARRAY, 2 * nb_values, (void *) _valu
1933:/home/dino/paparazzi/var/include/messages.h **** 	  trans->end_message(trans->impl, dev);
1934:/home/dino/paparazzi/var/include/messages.h **** 	} else
1935:/home/dino/paparazzi/var/include/messages.h **** 	  trans->overrun(trans->impl, dev);
1936:/home/dino/paparazzi/var/include/messages.h **** }
1937:/home/dino/paparazzi/var/include/messages.h **** 
1938:/home/dino/paparazzi/var/include/messages.h **** #define DOWNLINK_SEND_COMMANDS(_trans, _dev, nb_values, values) pprz_msg_send_COMMANDS(&((_trans).t
1939:/home/dino/paparazzi/var/include/messages.h **** static inline void pprz_msg_send_COMMANDS(struct transport_tx *trans, struct link_device *dev, uint
1940:/home/dino/paparazzi/var/include/messages.h **** 	if (trans->check_available_space(trans->impl, dev, trans->size_of(trans->impl, 0+1+nb_values*2 +2 
1941:/home/dino/paparazzi/var/include/messages.h **** 	  trans->count_bytes(trans->impl, dev, trans->size_of(trans->impl, 0+1+nb_values*2 +2 /* msg heade
1942:/home/dino/paparazzi/var/include/messages.h **** 	  trans->start_message(trans->impl, dev, 0+1+nb_values*2 +2 /* msg header overhead */);
1943:/home/dino/paparazzi/var/include/messages.h **** 	  trans->put_bytes(trans->impl, dev, DL_TYPE_UINT8, DL_FORMAT_SCALAR, 1, &ac_id);
1944:/home/dino/paparazzi/var/include/messages.h **** 	  trans->put_named_byte(trans->impl, dev, DL_TYPE_UINT8, DL_FORMAT_SCALAR, DL_COMMANDS, "COMMANDS"
1945:/home/dino/paparazzi/var/include/messages.h **** 	  trans->put_bytes(trans->impl, dev, DL_TYPE_ARRAY_LENGTH, DL_FORMAT_SCALAR, 1, (void *) &nb_value
1946:/home/dino/paparazzi/var/include/messages.h **** 	  trans->put_bytes(trans->impl, dev, DL_TYPE_INT16, DL_FORMAT_ARRAY, 2 * nb_values, (void *) _valu
1947:/home/dino/paparazzi/var/include/messages.h **** 	  trans->end_message(trans->impl, dev);
1948:/home/dino/paparazzi/var/include/messages.h **** 	} else
1949:/home/dino/paparazzi/var/include/messages.h **** 	  trans->overrun(trans->impl, dev);
1950:/home/dino/paparazzi/var/include/messages.h **** }
1951:/home/dino/paparazzi/var/include/messages.h **** 
1952:/home/dino/paparazzi/var/include/messages.h **** #define DOWNLINK_SEND_FBW_STATUS(_trans, _dev, rc_status, frame_rate, mode, vsupply, current) pprz_
1953:/home/dino/paparazzi/var/include/messages.h **** static inline void pprz_msg_send_FBW_STATUS(struct transport_tx *trans, struct link_device *dev, ui
1954:/home/dino/paparazzi/var/include/messages.h **** 	if (trans->check_available_space(trans->impl, dev, trans->size_of(trans->impl, 0+1+1+1+2+4 +2 /* m
1955:/home/dino/paparazzi/var/include/messages.h **** 	  trans->count_bytes(trans->impl, dev, trans->size_of(trans->impl, 0+1+1+1+2+4 +2 /* msg header ov
1956:/home/dino/paparazzi/var/include/messages.h **** 	  trans->start_message(trans->impl, dev, 0+1+1+1+2+4 +2 /* msg header overhead */);
1957:/home/dino/paparazzi/var/include/messages.h **** 	  trans->put_bytes(trans->impl, dev, DL_TYPE_UINT8, DL_FORMAT_SCALAR, 1, &ac_id);
1958:/home/dino/paparazzi/var/include/messages.h **** 	  trans->put_named_byte(trans->impl, dev, DL_TYPE_UINT8, DL_FORMAT_SCALAR, DL_FBW_STATUS, "FBW_STA
1959:/home/dino/paparazzi/var/include/messages.h **** 	  trans->put_bytes(trans->impl, dev, DL_TYPE_UINT8, DL_FORMAT_SCALAR, 1, (void *) _rc_status);
1960:/home/dino/paparazzi/var/include/messages.h **** 	  trans->put_bytes(trans->impl, dev, DL_TYPE_UINT8, DL_FORMAT_SCALAR, 1, (void *) _frame_rate);
1961:/home/dino/paparazzi/var/include/messages.h **** 	  trans->put_bytes(trans->impl, dev, DL_TYPE_UINT8, DL_FORMAT_SCALAR, 1, (void *) _mode);
1962:/home/dino/paparazzi/var/include/messages.h **** 	  trans->put_bytes(trans->impl, dev, DL_TYPE_UINT16, DL_FORMAT_SCALAR, 2, (void *) _vsupply);
1963:/home/dino/paparazzi/var/include/messages.h **** 	  trans->put_bytes(trans->impl, dev, DL_TYPE_INT32, DL_FORMAT_SCALAR, 4, (void *) _current);
1964:/home/dino/paparazzi/var/include/messages.h **** 	  trans->end_message(trans->impl, dev);
1965:/home/dino/paparazzi/var/include/messages.h **** 	} else
1966:/home/dino/paparazzi/var/include/messages.h **** 	  trans->overrun(trans->impl, dev);
1967:/home/dino/paparazzi/var/include/messages.h **** }
1968:/home/dino/paparazzi/var/include/messages.h **** 
1969:/home/dino/paparazzi/var/include/messages.h **** #define DOWNLINK_SEND_ADC(_trans, _dev, mcu, nb_values, values) pprz_msg_send_ADC(&((_trans).trans_
1970:/home/dino/paparazzi/var/include/messages.h **** static inline void pprz_msg_send_ADC(struct transport_tx *trans, struct link_device *dev, uint8_t a
1971:/home/dino/paparazzi/var/include/messages.h **** 	if (trans->check_available_space(trans->impl, dev, trans->size_of(trans->impl, 0+1+1+nb_values*2 +
1972:/home/dino/paparazzi/var/include/messages.h **** 	  trans->count_bytes(trans->impl, dev, trans->size_of(trans->impl, 0+1+1+nb_values*2 +2 /* msg hea
1973:/home/dino/paparazzi/var/include/messages.h **** 	  trans->start_message(trans->impl, dev, 0+1+1+nb_values*2 +2 /* msg header overhead */);
1974:/home/dino/paparazzi/var/include/messages.h **** 	  trans->put_bytes(trans->impl, dev, DL_TYPE_UINT8, DL_FORMAT_SCALAR, 1, &ac_id);
1975:/home/dino/paparazzi/var/include/messages.h **** 	  trans->put_named_byte(trans->impl, dev, DL_TYPE_UINT8, DL_FORMAT_SCALAR, DL_ADC, "ADC");
1976:/home/dino/paparazzi/var/include/messages.h **** 	  trans->put_bytes(trans->impl, dev, DL_TYPE_UINT8, DL_FORMAT_SCALAR, 1, (void *) _mcu);
1977:/home/dino/paparazzi/var/include/messages.h **** 	  trans->put_bytes(trans->impl, dev, DL_TYPE_ARRAY_LENGTH, DL_FORMAT_SCALAR, 1, (void *) &nb_value
1978:/home/dino/paparazzi/var/include/messages.h **** 	  trans->put_bytes(trans->impl, dev, DL_TYPE_UINT16, DL_FORMAT_ARRAY, 2 * nb_values, (void *) _val
1979:/home/dino/paparazzi/var/include/messages.h **** 	  trans->end_message(trans->impl, dev);
1980:/home/dino/paparazzi/var/include/messages.h **** 	} else
1981:/home/dino/paparazzi/var/include/messages.h **** 	  trans->overrun(trans->impl, dev);
1982:/home/dino/paparazzi/var/include/messages.h **** }
1983:/home/dino/paparazzi/var/include/messages.h **** 
1984:/home/dino/paparazzi/var/include/messages.h **** #define DOWNLINK_SEND_ACTUATORS(_trans, _dev, nb_values, values) pprz_msg_send_ACTUATORS(&((_trans)
1985:/home/dino/paparazzi/var/include/messages.h **** static inline void pprz_msg_send_ACTUATORS(struct transport_tx *trans, struct link_device *dev, uin
1986:/home/dino/paparazzi/var/include/messages.h **** 	if (trans->check_available_space(trans->impl, dev, trans->size_of(trans->impl, 0+1+nb_values*2 +2 
1987:/home/dino/paparazzi/var/include/messages.h **** 	  trans->count_bytes(trans->impl, dev, trans->size_of(trans->impl, 0+1+nb_values*2 +2 /* msg heade
1988:/home/dino/paparazzi/var/include/messages.h **** 	  trans->start_message(trans->impl, dev, 0+1+nb_values*2 +2 /* msg header overhead */);
1989:/home/dino/paparazzi/var/include/messages.h **** 	  trans->put_bytes(trans->impl, dev, DL_TYPE_UINT8, DL_FORMAT_SCALAR, 1, &ac_id);
1990:/home/dino/paparazzi/var/include/messages.h **** 	  trans->put_named_byte(trans->impl, dev, DL_TYPE_UINT8, DL_FORMAT_SCALAR, DL_ACTUATORS, "ACTUATOR
1991:/home/dino/paparazzi/var/include/messages.h **** 	  trans->put_bytes(trans->impl, dev, DL_TYPE_ARRAY_LENGTH, DL_FORMAT_SCALAR, 1, (void *) &nb_value
1992:/home/dino/paparazzi/var/include/messages.h **** 	  trans->put_bytes(trans->impl, dev, DL_TYPE_INT16, DL_FORMAT_ARRAY, 2 * nb_values, (void *) _valu
1993:/home/dino/paparazzi/var/include/messages.h **** 	  trans->end_message(trans->impl, dev);
1994:/home/dino/paparazzi/var/include/messages.h **** 	} else
1995:/home/dino/paparazzi/var/include/messages.h **** 	  trans->overrun(trans->impl, dev);
1996:/home/dino/paparazzi/var/include/messages.h **** }
1997:/home/dino/paparazzi/var/include/messages.h **** 
1998:/home/dino/paparazzi/var/include/messages.h **** #define DOWNLINK_SEND_DC_SHOT(_trans, _dev, photo_nr, lat, lon, alt, hmsl, phi, theta, psi, course,
1999:/home/dino/paparazzi/var/include/messages.h **** static inline void pprz_msg_send_DC_SHOT(struct transport_tx *trans, struct link_device *dev, uint8
2000:/home/dino/paparazzi/var/include/messages.h **** 	if (trans->check_available_space(trans->impl, dev, trans->size_of(trans->impl, 0+2+4+4+4+4+2+2+2+2
2001:/home/dino/paparazzi/var/include/messages.h **** 	  trans->count_bytes(trans->impl, dev, trans->size_of(trans->impl, 0+2+4+4+4+4+2+2+2+2+2+4 +2 /* m
2002:/home/dino/paparazzi/var/include/messages.h **** 	  trans->start_message(trans->impl, dev, 0+2+4+4+4+4+2+2+2+2+2+4 +2 /* msg header overhead */);
2003:/home/dino/paparazzi/var/include/messages.h **** 	  trans->put_bytes(trans->impl, dev, DL_TYPE_UINT8, DL_FORMAT_SCALAR, 1, &ac_id);
2004:/home/dino/paparazzi/var/include/messages.h **** 	  trans->put_named_byte(trans->impl, dev, DL_TYPE_UINT8, DL_FORMAT_SCALAR, DL_DC_SHOT, "DC_SHOT");
2005:/home/dino/paparazzi/var/include/messages.h **** 	  trans->put_bytes(trans->impl, dev, DL_TYPE_INT16, DL_FORMAT_SCALAR, 2, (void *) _photo_nr);
2006:/home/dino/paparazzi/var/include/messages.h **** 	  trans->put_bytes(trans->impl, dev, DL_TYPE_INT32, DL_FORMAT_SCALAR, 4, (void *) _lat);
2007:/home/dino/paparazzi/var/include/messages.h **** 	  trans->put_bytes(trans->impl, dev, DL_TYPE_INT32, DL_FORMAT_SCALAR, 4, (void *) _lon);
2008:/home/dino/paparazzi/var/include/messages.h **** 	  trans->put_bytes(trans->impl, dev, DL_TYPE_INT32, DL_FORMAT_SCALAR, 4, (void *) _alt);
2009:/home/dino/paparazzi/var/include/messages.h **** 	  trans->put_bytes(trans->impl, dev, DL_TYPE_INT32, DL_FORMAT_SCALAR, 4, (void *) _hmsl);
2010:/home/dino/paparazzi/var/include/messages.h **** 	  trans->put_bytes(trans->impl, dev, DL_TYPE_INT16, DL_FORMAT_SCALAR, 2, (void *) _phi);
2011:/home/dino/paparazzi/var/include/messages.h **** 	  trans->put_bytes(trans->impl, dev, DL_TYPE_INT16, DL_FORMAT_SCALAR, 2, (void *) _theta);
2012:/home/dino/paparazzi/var/include/messages.h **** 	  trans->put_bytes(trans->impl, dev, DL_TYPE_INT16, DL_FORMAT_SCALAR, 2, (void *) _psi);
2013:/home/dino/paparazzi/var/include/messages.h **** 	  trans->put_bytes(trans->impl, dev, DL_TYPE_INT16, DL_FORMAT_SCALAR, 2, (void *) _course);
2014:/home/dino/paparazzi/var/include/messages.h **** 	  trans->put_bytes(trans->impl, dev, DL_TYPE_UINT16, DL_FORMAT_SCALAR, 2, (void *) _speed);
2015:/home/dino/paparazzi/var/include/messages.h **** 	  trans->put_bytes(trans->impl, dev, DL_TYPE_UINT32, DL_FORMAT_SCALAR, 4, (void *) _itow);
2016:/home/dino/paparazzi/var/include/messages.h **** 	  trans->end_message(trans->impl, dev);
2017:/home/dino/paparazzi/var/include/messages.h **** 	} else
2018:/home/dino/paparazzi/var/include/messages.h **** 	  trans->overrun(trans->impl, dev);
2019:/home/dino/paparazzi/var/include/messages.h **** }
2020:/home/dino/paparazzi/var/include/messages.h **** 
2021:/home/dino/paparazzi/var/include/messages.h **** #define DOWNLINK_SEND_TEST_BOARD_RESULTS(_trans, _dev, uart, ppm, nb_servo, servo) pprz_msg_send_TE
2022:/home/dino/paparazzi/var/include/messages.h **** static inline void pprz_msg_send_TEST_BOARD_RESULTS(struct transport_tx *trans, struct link_device 
2023:/home/dino/paparazzi/var/include/messages.h **** 	if (trans->check_available_space(trans->impl, dev, trans->size_of(trans->impl, 0+1+1+1+nb_servo*2 
2024:/home/dino/paparazzi/var/include/messages.h **** 	  trans->count_bytes(trans->impl, dev, trans->size_of(trans->impl, 0+1+1+1+nb_servo*2 +2 /* msg he
2025:/home/dino/paparazzi/var/include/messages.h **** 	  trans->start_message(trans->impl, dev, 0+1+1+1+nb_servo*2 +2 /* msg header overhead */);
2026:/home/dino/paparazzi/var/include/messages.h **** 	  trans->put_bytes(trans->impl, dev, DL_TYPE_UINT8, DL_FORMAT_SCALAR, 1, &ac_id);
2027:/home/dino/paparazzi/var/include/messages.h **** 	  trans->put_named_byte(trans->impl, dev, DL_TYPE_UINT8, DL_FORMAT_SCALAR, DL_TEST_BOARD_RESULTS, 
2028:/home/dino/paparazzi/var/include/messages.h **** 	  trans->put_bytes(trans->impl, dev, DL_TYPE_UINT8, DL_FORMAT_SCALAR, 1, (void *) _uart);
2029:/home/dino/paparazzi/var/include/messages.h **** 	  trans->put_bytes(trans->impl, dev, DL_TYPE_UINT8, DL_FORMAT_SCALAR, 1, (void *) _ppm);
2030:/home/dino/paparazzi/var/include/messages.h **** 	  trans->put_bytes(trans->impl, dev, DL_TYPE_ARRAY_LENGTH, DL_FORMAT_SCALAR, 1, (void *) &nb_servo
2031:/home/dino/paparazzi/var/include/messages.h **** 	  trans->put_bytes(trans->impl, dev, DL_TYPE_UINT16, DL_FORMAT_ARRAY, 2 * nb_servo, (void *) _serv
2032:/home/dino/paparazzi/var/include/messages.h **** 	  trans->end_message(trans->impl, dev);
2033:/home/dino/paparazzi/var/include/messages.h **** 	} else
2034:/home/dino/paparazzi/var/include/messages.h **** 	  trans->overrun(trans->impl, dev);
2035:/home/dino/paparazzi/var/include/messages.h **** }
2036:/home/dino/paparazzi/var/include/messages.h **** 
2037:/home/dino/paparazzi/var/include/messages.h **** #define DOWNLINK_SEND_MLX_SERIAL(_trans, _dev, serial0, serial1) pprz_msg_send_MLX_SERIAL(&((_trans
2038:/home/dino/paparazzi/var/include/messages.h **** static inline void pprz_msg_send_MLX_SERIAL(struct transport_tx *trans, struct link_device *dev, ui
2039:/home/dino/paparazzi/var/include/messages.h **** 	if (trans->check_available_space(trans->impl, dev, trans->size_of(trans->impl, 0+4+4 +2 /* msg hea
2040:/home/dino/paparazzi/var/include/messages.h **** 	  trans->count_bytes(trans->impl, dev, trans->size_of(trans->impl, 0+4+4 +2 /* msg header overhead
2041:/home/dino/paparazzi/var/include/messages.h **** 	  trans->start_message(trans->impl, dev, 0+4+4 +2 /* msg header overhead */);
2042:/home/dino/paparazzi/var/include/messages.h **** 	  trans->put_bytes(trans->impl, dev, DL_TYPE_UINT8, DL_FORMAT_SCALAR, 1, &ac_id);
2043:/home/dino/paparazzi/var/include/messages.h **** 	  trans->put_named_byte(trans->impl, dev, DL_TYPE_UINT8, DL_FORMAT_SCALAR, DL_MLX_SERIAL, "MLX_SER
2044:/home/dino/paparazzi/var/include/messages.h **** 	  trans->put_bytes(trans->impl, dev, DL_TYPE_UINT32, DL_FORMAT_SCALAR, 4, (void *) _serial0);
2045:/home/dino/paparazzi/var/include/messages.h **** 	  trans->put_bytes(trans->impl, dev, DL_TYPE_UINT32, DL_FORMAT_SCALAR, 4, (void *) _serial1);
2046:/home/dino/paparazzi/var/include/messages.h **** 	  trans->end_message(trans->impl, dev);
2047:/home/dino/paparazzi/var/include/messages.h **** 	} else
2048:/home/dino/paparazzi/var/include/messages.h **** 	  trans->overrun(trans->impl, dev);
2049:/home/dino/paparazzi/var/include/messages.h **** }
2050:/home/dino/paparazzi/var/include/messages.h **** 
2051:/home/dino/paparazzi/var/include/messages.h **** #define DOWNLINK_SEND_PAYLOAD(_trans, _dev, nb_values, values) pprz_msg_send_PAYLOAD(&((_trans).tra
2052:/home/dino/paparazzi/var/include/messages.h **** static inline void pprz_msg_send_PAYLOAD(struct transport_tx *trans, struct link_device *dev, uint8
2053:/home/dino/paparazzi/var/include/messages.h **** 	if (trans->check_available_space(trans->impl, dev, trans->size_of(trans->impl, 0+1+nb_values*1 +2 
2054:/home/dino/paparazzi/var/include/messages.h **** 	  trans->count_bytes(trans->impl, dev, trans->size_of(trans->impl, 0+1+nb_values*1 +2 /* msg heade
2055:/home/dino/paparazzi/var/include/messages.h **** 	  trans->start_message(trans->impl, dev, 0+1+nb_values*1 +2 /* msg header overhead */);
2056:/home/dino/paparazzi/var/include/messages.h **** 	  trans->put_bytes(trans->impl, dev, DL_TYPE_UINT8, DL_FORMAT_SCALAR, 1, &ac_id);
2057:/home/dino/paparazzi/var/include/messages.h **** 	  trans->put_named_byte(trans->impl, dev, DL_TYPE_UINT8, DL_FORMAT_SCALAR, DL_PAYLOAD, "PAYLOAD");
2058:/home/dino/paparazzi/var/include/messages.h **** 	  trans->put_bytes(trans->impl, dev, DL_TYPE_ARRAY_LENGTH, DL_FORMAT_SCALAR, 1, (void *) &nb_value
2059:/home/dino/paparazzi/var/include/messages.h **** 	  trans->put_bytes(trans->impl, dev, DL_TYPE_UINT8, DL_FORMAT_ARRAY, 1 * nb_values, (void *) _valu
2060:/home/dino/paparazzi/var/include/messages.h **** 	  trans->end_message(trans->impl, dev);
2061:/home/dino/paparazzi/var/include/messages.h **** 	} else
2062:/home/dino/paparazzi/var/include/messages.h **** 	  trans->overrun(trans->impl, dev);
2063:/home/dino/paparazzi/var/include/messages.h **** }
2064:/home/dino/paparazzi/var/include/messages.h **** 
2065:/home/dino/paparazzi/var/include/messages.h **** #define DOWNLINK_SEND_HTM_STATUS(_trans, _dev, ihumid, itemp, humid, temp) pprz_msg_send_HTM_STATUS
2066:/home/dino/paparazzi/var/include/messages.h **** static inline void pprz_msg_send_HTM_STATUS(struct transport_tx *trans, struct link_device *dev, ui
2067:/home/dino/paparazzi/var/include/messages.h **** 	if (trans->check_available_space(trans->impl, dev, trans->size_of(trans->impl, 0+2+2+4+4 +2 /* msg
2068:/home/dino/paparazzi/var/include/messages.h **** 	  trans->count_bytes(trans->impl, dev, trans->size_of(trans->impl, 0+2+2+4+4 +2 /* msg header over
2069:/home/dino/paparazzi/var/include/messages.h **** 	  trans->start_message(trans->impl, dev, 0+2+2+4+4 +2 /* msg header overhead */);
2070:/home/dino/paparazzi/var/include/messages.h **** 	  trans->put_bytes(trans->impl, dev, DL_TYPE_UINT8, DL_FORMAT_SCALAR, 1, &ac_id);
2071:/home/dino/paparazzi/var/include/messages.h **** 	  trans->put_named_byte(trans->impl, dev, DL_TYPE_UINT8, DL_FORMAT_SCALAR, DL_HTM_STATUS, "HTM_STA
2072:/home/dino/paparazzi/var/include/messages.h **** 	  trans->put_bytes(trans->impl, dev, DL_TYPE_UINT16, DL_FORMAT_SCALAR, 2, (void *) _ihumid);
2073:/home/dino/paparazzi/var/include/messages.h **** 	  trans->put_bytes(trans->impl, dev, DL_TYPE_UINT16, DL_FORMAT_SCALAR, 2, (void *) _itemp);
2074:/home/dino/paparazzi/var/include/messages.h **** 	  trans->put_bytes(trans->impl, dev, DL_TYPE_FLOAT, DL_FORMAT_SCALAR, 4, (void *) _humid);
2075:/home/dino/paparazzi/var/include/messages.h **** 	  trans->put_bytes(trans->impl, dev, DL_TYPE_FLOAT, DL_FORMAT_SCALAR, 4, (void *) _temp);
2076:/home/dino/paparazzi/var/include/messages.h **** 	  trans->end_message(trans->impl, dev);
2077:/home/dino/paparazzi/var/include/messages.h **** 	} else
2078:/home/dino/paparazzi/var/include/messages.h **** 	  trans->overrun(trans->impl, dev);
2079:/home/dino/paparazzi/var/include/messages.h **** }
2080:/home/dino/paparazzi/var/include/messages.h **** 
2081:/home/dino/paparazzi/var/include/messages.h **** #define DOWNLINK_SEND_BARO_MS5611(_trans, _dev, d1, d2, pressure, temp) pprz_msg_send_BARO_MS5611(&
2082:/home/dino/paparazzi/var/include/messages.h **** static inline void pprz_msg_send_BARO_MS5611(struct transport_tx *trans, struct link_device *dev, u
2083:/home/dino/paparazzi/var/include/messages.h **** 	if (trans->check_available_space(trans->impl, dev, trans->size_of(trans->impl, 0+4+4+4+4 +2 /* msg
2084:/home/dino/paparazzi/var/include/messages.h **** 	  trans->count_bytes(trans->impl, dev, trans->size_of(trans->impl, 0+4+4+4+4 +2 /* msg header over
2085:/home/dino/paparazzi/var/include/messages.h **** 	  trans->start_message(trans->impl, dev, 0+4+4+4+4 +2 /* msg header overhead */);
2086:/home/dino/paparazzi/var/include/messages.h **** 	  trans->put_bytes(trans->impl, dev, DL_TYPE_UINT8, DL_FORMAT_SCALAR, 1, &ac_id);
2087:/home/dino/paparazzi/var/include/messages.h **** 	  trans->put_named_byte(trans->impl, dev, DL_TYPE_UINT8, DL_FORMAT_SCALAR, DL_BARO_MS5611, "BARO_M
2088:/home/dino/paparazzi/var/include/messages.h **** 	  trans->put_bytes(trans->impl, dev, DL_TYPE_UINT32, DL_FORMAT_SCALAR, 4, (void *) _d1);
2089:/home/dino/paparazzi/var/include/messages.h **** 	  trans->put_bytes(trans->impl, dev, DL_TYPE_UINT32, DL_FORMAT_SCALAR, 4, (void *) _d2);
2090:/home/dino/paparazzi/var/include/messages.h **** 	  trans->put_bytes(trans->impl, dev, DL_TYPE_FLOAT, DL_FORMAT_SCALAR, 4, (void *) _pressure);
2091:/home/dino/paparazzi/var/include/messages.h **** 	  trans->put_bytes(trans->impl, dev, DL_TYPE_FLOAT, DL_FORMAT_SCALAR, 4, (void *) _temp);
2092:/home/dino/paparazzi/var/include/messages.h **** 	  trans->end_message(trans->impl, dev);
2093:/home/dino/paparazzi/var/include/messages.h **** 	} else
2094:/home/dino/paparazzi/var/include/messages.h **** 	  trans->overrun(trans->impl, dev);
2095:/home/dino/paparazzi/var/include/messages.h **** }
2096:/home/dino/paparazzi/var/include/messages.h **** 
2097:/home/dino/paparazzi/var/include/messages.h **** #define DOWNLINK_SEND_MS5611_COEFF(_trans, _dev, c0, c1, c2, c3, c4, c5, c6, c7) pprz_msg_send_MS56
2098:/home/dino/paparazzi/var/include/messages.h **** static inline void pprz_msg_send_MS5611_COEFF(struct transport_tx *trans, struct link_device *dev, 
2099:/home/dino/paparazzi/var/include/messages.h **** 	if (trans->check_available_space(trans->impl, dev, trans->size_of(trans->impl, 0+2+2+2+2+2+2+2+2 +
2100:/home/dino/paparazzi/var/include/messages.h **** 	  trans->count_bytes(trans->impl, dev, trans->size_of(trans->impl, 0+2+2+2+2+2+2+2+2 +2 /* msg hea
2101:/home/dino/paparazzi/var/include/messages.h **** 	  trans->start_message(trans->impl, dev, 0+2+2+2+2+2+2+2+2 +2 /* msg header overhead */);
2102:/home/dino/paparazzi/var/include/messages.h **** 	  trans->put_bytes(trans->impl, dev, DL_TYPE_UINT8, DL_FORMAT_SCALAR, 1, &ac_id);
2103:/home/dino/paparazzi/var/include/messages.h **** 	  trans->put_named_byte(trans->impl, dev, DL_TYPE_UINT8, DL_FORMAT_SCALAR, DL_MS5611_COEFF, "MS561
2104:/home/dino/paparazzi/var/include/messages.h **** 	  trans->put_bytes(trans->impl, dev, DL_TYPE_UINT16, DL_FORMAT_SCALAR, 2, (void *) _c0);
2105:/home/dino/paparazzi/var/include/messages.h **** 	  trans->put_bytes(trans->impl, dev, DL_TYPE_UINT16, DL_FORMAT_SCALAR, 2, (void *) _c1);
2106:/home/dino/paparazzi/var/include/messages.h **** 	  trans->put_bytes(trans->impl, dev, DL_TYPE_UINT16, DL_FORMAT_SCALAR, 2, (void *) _c2);
2107:/home/dino/paparazzi/var/include/messages.h **** 	  trans->put_bytes(trans->impl, dev, DL_TYPE_UINT16, DL_FORMAT_SCALAR, 2, (void *) _c3);
2108:/home/dino/paparazzi/var/include/messages.h **** 	  trans->put_bytes(trans->impl, dev, DL_TYPE_UINT16, DL_FORMAT_SCALAR, 2, (void *) _c4);
2109:/home/dino/paparazzi/var/include/messages.h **** 	  trans->put_bytes(trans->impl, dev, DL_TYPE_UINT16, DL_FORMAT_SCALAR, 2, (void *) _c5);
2110:/home/dino/paparazzi/var/include/messages.h **** 	  trans->put_bytes(trans->impl, dev, DL_TYPE_UINT16, DL_FORMAT_SCALAR, 2, (void *) _c6);
2111:/home/dino/paparazzi/var/include/messages.h **** 	  trans->put_bytes(trans->impl, dev, DL_TYPE_UINT16, DL_FORMAT_SCALAR, 2, (void *) _c7);
2112:/home/dino/paparazzi/var/include/messages.h **** 	  trans->end_message(trans->impl, dev);
2113:/home/dino/paparazzi/var/include/messages.h **** 	} else
2114:/home/dino/paparazzi/var/include/messages.h **** 	  trans->overrun(trans->impl, dev);
2115:/home/dino/paparazzi/var/include/messages.h **** }
2116:/home/dino/paparazzi/var/include/messages.h **** 
2117:/home/dino/paparazzi/var/include/messages.h **** #define DOWNLINK_SEND_ATMOSPHERE_CHARGE(_trans, _dev, t0, t1, t2, t3, t4, t5, t6, t7, t8, t9) pprz_
2118:/home/dino/paparazzi/var/include/messages.h **** static inline void pprz_msg_send_ATMOSPHERE_CHARGE(struct transport_tx *trans, struct link_device *
2119:/home/dino/paparazzi/var/include/messages.h **** 	if (trans->check_available_space(trans->impl, dev, trans->size_of(trans->impl, 0+2+2+2+2+2+2+2+2+2
2120:/home/dino/paparazzi/var/include/messages.h **** 	  trans->count_bytes(trans->impl, dev, trans->size_of(trans->impl, 0+2+2+2+2+2+2+2+2+2+2 +2 /* msg
2121:/home/dino/paparazzi/var/include/messages.h **** 	  trans->start_message(trans->impl, dev, 0+2+2+2+2+2+2+2+2+2+2 +2 /* msg header overhead */);
2122:/home/dino/paparazzi/var/include/messages.h **** 	  trans->put_bytes(trans->impl, dev, DL_TYPE_UINT8, DL_FORMAT_SCALAR, 1, &ac_id);
2123:/home/dino/paparazzi/var/include/messages.h **** 	  trans->put_named_byte(trans->impl, dev, DL_TYPE_UINT8, DL_FORMAT_SCALAR, DL_ATMOSPHERE_CHARGE, "
2124:/home/dino/paparazzi/var/include/messages.h **** 	  trans->put_bytes(trans->impl, dev, DL_TYPE_UINT16, DL_FORMAT_SCALAR, 2, (void *) _t0);
2125:/home/dino/paparazzi/var/include/messages.h **** 	  trans->put_bytes(trans->impl, dev, DL_TYPE_UINT16, DL_FORMAT_SCALAR, 2, (void *) _t1);
2126:/home/dino/paparazzi/var/include/messages.h **** 	  trans->put_bytes(trans->impl, dev, DL_TYPE_UINT16, DL_FORMAT_SCALAR, 2, (void *) _t2);
2127:/home/dino/paparazzi/var/include/messages.h **** 	  trans->put_bytes(trans->impl, dev, DL_TYPE_UINT16, DL_FORMAT_SCALAR, 2, (void *) _t3);
2128:/home/dino/paparazzi/var/include/messages.h **** 	  trans->put_bytes(trans->impl, dev, DL_TYPE_UINT16, DL_FORMAT_SCALAR, 2, (void *) _t4);
2129:/home/dino/paparazzi/var/include/messages.h **** 	  trans->put_bytes(trans->impl, dev, DL_TYPE_UINT16, DL_FORMAT_SCALAR, 2, (void *) _t5);
2130:/home/dino/paparazzi/var/include/messages.h **** 	  trans->put_bytes(trans->impl, dev, DL_TYPE_UINT16, DL_FORMAT_SCALAR, 2, (void *) _t6);
2131:/home/dino/paparazzi/var/include/messages.h **** 	  trans->put_bytes(trans->impl, dev, DL_TYPE_UINT16, DL_FORMAT_SCALAR, 2, (void *) _t7);
2132:/home/dino/paparazzi/var/include/messages.h **** 	  trans->put_bytes(trans->impl, dev, DL_TYPE_UINT16, DL_FORMAT_SCALAR, 2, (void *) _t8);
2133:/home/dino/paparazzi/var/include/messages.h **** 	  trans->put_bytes(trans->impl, dev, DL_TYPE_UINT16, DL_FORMAT_SCALAR, 2, (void *) _t9);
2134:/home/dino/paparazzi/var/include/messages.h **** 	  trans->end_message(trans->impl, dev);
2135:/home/dino/paparazzi/var/include/messages.h **** 	} else
2136:/home/dino/paparazzi/var/include/messages.h **** 	  trans->overrun(trans->impl, dev);
2137:/home/dino/paparazzi/var/include/messages.h **** }
2138:/home/dino/paparazzi/var/include/messages.h **** 
2139:/home/dino/paparazzi/var/include/messages.h **** #define DOWNLINK_SEND_SOLAR_RADIATION(_trans, _dev, up_t0, dn_t0, up_t1, dn_t1, up_t2, dn_t2, up_t3
2140:/home/dino/paparazzi/var/include/messages.h **** static inline void pprz_msg_send_SOLAR_RADIATION(struct transport_tx *trans, struct link_device *de
2141:/home/dino/paparazzi/var/include/messages.h **** 	if (trans->check_available_space(trans->impl, dev, trans->size_of(trans->impl, 0+2+2+2+2+2+2+2+2+2
2142:/home/dino/paparazzi/var/include/messages.h **** 	  trans->count_bytes(trans->impl, dev, trans->size_of(trans->impl, 0+2+2+2+2+2+2+2+2+2+2+2+2+2+2+2
2143:/home/dino/paparazzi/var/include/messages.h **** 	  trans->start_message(trans->impl, dev, 0+2+2+2+2+2+2+2+2+2+2+2+2+2+2+2+2+2+2+2+2 +2 /* msg heade
2144:/home/dino/paparazzi/var/include/messages.h **** 	  trans->put_bytes(trans->impl, dev, DL_TYPE_UINT8, DL_FORMAT_SCALAR, 1, &ac_id);
2145:/home/dino/paparazzi/var/include/messages.h **** 	  trans->put_named_byte(trans->impl, dev, DL_TYPE_UINT8, DL_FORMAT_SCALAR, DL_SOLAR_RADIATION, "SO
2146:/home/dino/paparazzi/var/include/messages.h **** 	  trans->put_bytes(trans->impl, dev, DL_TYPE_UINT16, DL_FORMAT_SCALAR, 2, (void *) _up_t0);
2147:/home/dino/paparazzi/var/include/messages.h **** 	  trans->put_bytes(trans->impl, dev, DL_TYPE_UINT16, DL_FORMAT_SCALAR, 2, (void *) _dn_t0);
2148:/home/dino/paparazzi/var/include/messages.h **** 	  trans->put_bytes(trans->impl, dev, DL_TYPE_UINT16, DL_FORMAT_SCALAR, 2, (void *) _up_t1);
2149:/home/dino/paparazzi/var/include/messages.h **** 	  trans->put_bytes(trans->impl, dev, DL_TYPE_UINT16, DL_FORMAT_SCALAR, 2, (void *) _dn_t1);
2150:/home/dino/paparazzi/var/include/messages.h **** 	  trans->put_bytes(trans->impl, dev, DL_TYPE_UINT16, DL_FORMAT_SCALAR, 2, (void *) _up_t2);
2151:/home/dino/paparazzi/var/include/messages.h **** 	  trans->put_bytes(trans->impl, dev, DL_TYPE_UINT16, DL_FORMAT_SCALAR, 2, (void *) _dn_t2);
2152:/home/dino/paparazzi/var/include/messages.h **** 	  trans->put_bytes(trans->impl, dev, DL_TYPE_UINT16, DL_FORMAT_SCALAR, 2, (void *) _up_t3);
2153:/home/dino/paparazzi/var/include/messages.h **** 	  trans->put_bytes(trans->impl, dev, DL_TYPE_UINT16, DL_FORMAT_SCALAR, 2, (void *) _dn_t3);
2154:/home/dino/paparazzi/var/include/messages.h **** 	  trans->put_bytes(trans->impl, dev, DL_TYPE_UINT16, DL_FORMAT_SCALAR, 2, (void *) _up_t4);
2155:/home/dino/paparazzi/var/include/messages.h **** 	  trans->put_bytes(trans->impl, dev, DL_TYPE_UINT16, DL_FORMAT_SCALAR, 2, (void *) _dn_t4);
2156:/home/dino/paparazzi/var/include/messages.h **** 	  trans->put_bytes(trans->impl, dev, DL_TYPE_UINT16, DL_FORMAT_SCALAR, 2, (void *) _up_t5);
2157:/home/dino/paparazzi/var/include/messages.h **** 	  trans->put_bytes(trans->impl, dev, DL_TYPE_UINT16, DL_FORMAT_SCALAR, 2, (void *) _dn_t5);
2158:/home/dino/paparazzi/var/include/messages.h **** 	  trans->put_bytes(trans->impl, dev, DL_TYPE_UINT16, DL_FORMAT_SCALAR, 2, (void *) _up_t6);
2159:/home/dino/paparazzi/var/include/messages.h **** 	  trans->put_bytes(trans->impl, dev, DL_TYPE_UINT16, DL_FORMAT_SCALAR, 2, (void *) _dn_t6);
2160:/home/dino/paparazzi/var/include/messages.h **** 	  trans->put_bytes(trans->impl, dev, DL_TYPE_UINT16, DL_FORMAT_SCALAR, 2, (void *) _up_t7);
2161:/home/dino/paparazzi/var/include/messages.h **** 	  trans->put_bytes(trans->impl, dev, DL_TYPE_UINT16, DL_FORMAT_SCALAR, 2, (void *) _dn_t7);
2162:/home/dino/paparazzi/var/include/messages.h **** 	  trans->put_bytes(trans->impl, dev, DL_TYPE_UINT16, DL_FORMAT_SCALAR, 2, (void *) _up_t8);
2163:/home/dino/paparazzi/var/include/messages.h **** 	  trans->put_bytes(trans->impl, dev, DL_TYPE_UINT16, DL_FORMAT_SCALAR, 2, (void *) _dn_t8);
2164:/home/dino/paparazzi/var/include/messages.h **** 	  trans->put_bytes(trans->impl, dev, DL_TYPE_UINT16, DL_FORMAT_SCALAR, 2, (void *) _up_t9);
2165:/home/dino/paparazzi/var/include/messages.h **** 	  trans->put_bytes(trans->impl, dev, DL_TYPE_UINT16, DL_FORMAT_SCALAR, 2, (void *) _dn_t9);
2166:/home/dino/paparazzi/var/include/messages.h **** 	  trans->end_message(trans->impl, dev);
2167:/home/dino/paparazzi/var/include/messages.h **** 	} else
2168:/home/dino/paparazzi/var/include/messages.h **** 	  trans->overrun(trans->impl, dev);
2169:/home/dino/paparazzi/var/include/messages.h **** }
2170:/home/dino/paparazzi/var/include/messages.h **** 
2171:/home/dino/paparazzi/var/include/messages.h **** #define DOWNLINK_SEND_TCAS_TA(_trans, _dev, ac_id) pprz_msg_send_TCAS_TA(&((_trans).trans_tx), &((_
2172:/home/dino/paparazzi/var/include/messages.h **** static inline void pprz_msg_send_TCAS_TA(struct transport_tx *trans, struct link_device *dev, uint8
2173:/home/dino/paparazzi/var/include/messages.h **** 	if (trans->check_available_space(trans->impl, dev, trans->size_of(trans->impl, 0+1 +2 /* msg heade
2174:/home/dino/paparazzi/var/include/messages.h **** 	  trans->count_bytes(trans->impl, dev, trans->size_of(trans->impl, 0+1 +2 /* msg header overhead *
2175:/home/dino/paparazzi/var/include/messages.h **** 	  trans->start_message(trans->impl, dev, 0+1 +2 /* msg header overhead */);
2176:/home/dino/paparazzi/var/include/messages.h **** 	  trans->put_bytes(trans->impl, dev, DL_TYPE_UINT8, DL_FORMAT_SCALAR, 1, &ac_id);
2177:/home/dino/paparazzi/var/include/messages.h **** 	  trans->put_named_byte(trans->impl, dev, DL_TYPE_UINT8, DL_FORMAT_SCALAR, DL_TCAS_TA, "TCAS_TA");
2178:/home/dino/paparazzi/var/include/messages.h **** 	  trans->put_bytes(trans->impl, dev, DL_TYPE_UINT8, DL_FORMAT_SCALAR, 1, (void *) _ac_id);
2179:/home/dino/paparazzi/var/include/messages.h **** 	  trans->end_message(trans->impl, dev);
2180:/home/dino/paparazzi/var/include/messages.h **** 	} else
2181:/home/dino/paparazzi/var/include/messages.h **** 	  trans->overrun(trans->impl, dev);
2182:/home/dino/paparazzi/var/include/messages.h **** }
2183:/home/dino/paparazzi/var/include/messages.h **** 
2184:/home/dino/paparazzi/var/include/messages.h **** #define DOWNLINK_SEND_TCAS_RA(_trans, _dev, ac_id, resolve) pprz_msg_send_TCAS_RA(&((_trans).trans_
2185:/home/dino/paparazzi/var/include/messages.h **** static inline void pprz_msg_send_TCAS_RA(struct transport_tx *trans, struct link_device *dev, uint8
2186:/home/dino/paparazzi/var/include/messages.h **** 	if (trans->check_available_space(trans->impl, dev, trans->size_of(trans->impl, 0+1+1 +2 /* msg hea
2187:/home/dino/paparazzi/var/include/messages.h **** 	  trans->count_bytes(trans->impl, dev, trans->size_of(trans->impl, 0+1+1 +2 /* msg header overhead
2188:/home/dino/paparazzi/var/include/messages.h **** 	  trans->start_message(trans->impl, dev, 0+1+1 +2 /* msg header overhead */);
2189:/home/dino/paparazzi/var/include/messages.h **** 	  trans->put_bytes(trans->impl, dev, DL_TYPE_UINT8, DL_FORMAT_SCALAR, 1, &ac_id);
2190:/home/dino/paparazzi/var/include/messages.h **** 	  trans->put_named_byte(trans->impl, dev, DL_TYPE_UINT8, DL_FORMAT_SCALAR, DL_TCAS_RA, "TCAS_RA");
2191:/home/dino/paparazzi/var/include/messages.h **** 	  trans->put_bytes(trans->impl, dev, DL_TYPE_UINT8, DL_FORMAT_SCALAR, 1, (void *) _ac_id);
2192:/home/dino/paparazzi/var/include/messages.h **** 	  trans->put_bytes(trans->impl, dev, DL_TYPE_UINT8, DL_FORMAT_SCALAR, 1, (void *) _resolve);
2193:/home/dino/paparazzi/var/include/messages.h **** 	  trans->end_message(trans->impl, dev);
2194:/home/dino/paparazzi/var/include/messages.h **** 	} else
2195:/home/dino/paparazzi/var/include/messages.h **** 	  trans->overrun(trans->impl, dev);
2196:/home/dino/paparazzi/var/include/messages.h **** }
2197:/home/dino/paparazzi/var/include/messages.h **** 
2198:/home/dino/paparazzi/var/include/messages.h **** #define DOWNLINK_SEND_TCAS_RESOLVED(_trans, _dev, ac_id) pprz_msg_send_TCAS_RESOLVED(&((_trans).tra
2199:/home/dino/paparazzi/var/include/messages.h **** static inline void pprz_msg_send_TCAS_RESOLVED(struct transport_tx *trans, struct link_device *dev,
2200:/home/dino/paparazzi/var/include/messages.h **** 	if (trans->check_available_space(trans->impl, dev, trans->size_of(trans->impl, 0+1 +2 /* msg heade
2201:/home/dino/paparazzi/var/include/messages.h **** 	  trans->count_bytes(trans->impl, dev, trans->size_of(trans->impl, 0+1 +2 /* msg header overhead *
2202:/home/dino/paparazzi/var/include/messages.h **** 	  trans->start_message(trans->impl, dev, 0+1 +2 /* msg header overhead */);
2203:/home/dino/paparazzi/var/include/messages.h **** 	  trans->put_bytes(trans->impl, dev, DL_TYPE_UINT8, DL_FORMAT_SCALAR, 1, &ac_id);
2204:/home/dino/paparazzi/var/include/messages.h **** 	  trans->put_named_byte(trans->impl, dev, DL_TYPE_UINT8, DL_FORMAT_SCALAR, DL_TCAS_RESOLVED, "TCAS
2205:/home/dino/paparazzi/var/include/messages.h **** 	  trans->put_bytes(trans->impl, dev, DL_TYPE_UINT8, DL_FORMAT_SCALAR, 1, (void *) _ac_id);
2206:/home/dino/paparazzi/var/include/messages.h **** 	  trans->end_message(trans->impl, dev);
2207:/home/dino/paparazzi/var/include/messages.h **** 	} else
2208:/home/dino/paparazzi/var/include/messages.h **** 	  trans->overrun(trans->impl, dev);
2209:/home/dino/paparazzi/var/include/messages.h **** }
2210:/home/dino/paparazzi/var/include/messages.h **** 
2211:/home/dino/paparazzi/var/include/messages.h **** #define DOWNLINK_SEND_TCAS_DEBUG(_trans, _dev, ac_id, tau) pprz_msg_send_TCAS_DEBUG(&((_trans).tran
2212:/home/dino/paparazzi/var/include/messages.h **** static inline void pprz_msg_send_TCAS_DEBUG(struct transport_tx *trans, struct link_device *dev, ui
2213:/home/dino/paparazzi/var/include/messages.h **** 	if (trans->check_available_space(trans->impl, dev, trans->size_of(trans->impl, 0+1+4 +2 /* msg hea
2214:/home/dino/paparazzi/var/include/messages.h **** 	  trans->count_bytes(trans->impl, dev, trans->size_of(trans->impl, 0+1+4 +2 /* msg header overhead
2215:/home/dino/paparazzi/var/include/messages.h **** 	  trans->start_message(trans->impl, dev, 0+1+4 +2 /* msg header overhead */);
2216:/home/dino/paparazzi/var/include/messages.h **** 	  trans->put_bytes(trans->impl, dev, DL_TYPE_UINT8, DL_FORMAT_SCALAR, 1, &ac_id);
2217:/home/dino/paparazzi/var/include/messages.h **** 	  trans->put_named_byte(trans->impl, dev, DL_TYPE_UINT8, DL_FORMAT_SCALAR, DL_TCAS_DEBUG, "TCAS_DE
2218:/home/dino/paparazzi/var/include/messages.h **** 	  trans->put_bytes(trans->impl, dev, DL_TYPE_UINT8, DL_FORMAT_SCALAR, 1, (void *) _ac_id);
2219:/home/dino/paparazzi/var/include/messages.h **** 	  trans->put_bytes(trans->impl, dev, DL_TYPE_FLOAT, DL_FORMAT_SCALAR, 4, (void *) _tau);
2220:/home/dino/paparazzi/var/include/messages.h **** 	  trans->end_message(trans->impl, dev);
2221:/home/dino/paparazzi/var/include/messages.h **** 	} else
2222:/home/dino/paparazzi/var/include/messages.h **** 	  trans->overrun(trans->impl, dev);
2223:/home/dino/paparazzi/var/include/messages.h **** }
2224:/home/dino/paparazzi/var/include/messages.h **** 
2225:/home/dino/paparazzi/var/include/messages.h **** #define DOWNLINK_SEND_POTENTIAL(_trans, _dev, east, north, alt, speed, climb) pprz_msg_send_POTENTI
2226:/home/dino/paparazzi/var/include/messages.h **** static inline void pprz_msg_send_POTENTIAL(struct transport_tx *trans, struct link_device *dev, uin
2227:/home/dino/paparazzi/var/include/messages.h **** 	if (trans->check_available_space(trans->impl, dev, trans->size_of(trans->impl, 0+4+4+4+4+4 +2 /* m
2228:/home/dino/paparazzi/var/include/messages.h **** 	  trans->count_bytes(trans->impl, dev, trans->size_of(trans->impl, 0+4+4+4+4+4 +2 /* msg header ov
2229:/home/dino/paparazzi/var/include/messages.h **** 	  trans->start_message(trans->impl, dev, 0+4+4+4+4+4 +2 /* msg header overhead */);
2230:/home/dino/paparazzi/var/include/messages.h **** 	  trans->put_bytes(trans->impl, dev, DL_TYPE_UINT8, DL_FORMAT_SCALAR, 1, &ac_id);
2231:/home/dino/paparazzi/var/include/messages.h **** 	  trans->put_named_byte(trans->impl, dev, DL_TYPE_UINT8, DL_FORMAT_SCALAR, DL_POTENTIAL, "POTENTIA
2232:/home/dino/paparazzi/var/include/messages.h **** 	  trans->put_bytes(trans->impl, dev, DL_TYPE_FLOAT, DL_FORMAT_SCALAR, 4, (void *) _east);
2233:/home/dino/paparazzi/var/include/messages.h **** 	  trans->put_bytes(trans->impl, dev, DL_TYPE_FLOAT, DL_FORMAT_SCALAR, 4, (void *) _north);
2234:/home/dino/paparazzi/var/include/messages.h **** 	  trans->put_bytes(trans->impl, dev, DL_TYPE_FLOAT, DL_FORMAT_SCALAR, 4, (void *) _alt);
2235:/home/dino/paparazzi/var/include/messages.h **** 	  trans->put_bytes(trans->impl, dev, DL_TYPE_FLOAT, DL_FORMAT_SCALAR, 4, (void *) _speed);
2236:/home/dino/paparazzi/var/include/messages.h **** 	  trans->put_bytes(trans->impl, dev, DL_TYPE_FLOAT, DL_FORMAT_SCALAR, 4, (void *) _climb);
2237:/home/dino/paparazzi/var/include/messages.h **** 	  trans->end_message(trans->impl, dev);
2238:/home/dino/paparazzi/var/include/messages.h **** 	} else
2239:/home/dino/paparazzi/var/include/messages.h **** 	  trans->overrun(trans->impl, dev);
2240:/home/dino/paparazzi/var/include/messages.h **** }
2241:/home/dino/paparazzi/var/include/messages.h **** 
2242:/home/dino/paparazzi/var/include/messages.h **** #define DOWNLINK_SEND_VERTICAL_ENERGY(_trans, _dev, Epot_err, Ekin_err, Etot_err, Edis_err, throttl
2243:/home/dino/paparazzi/var/include/messages.h **** static inline void pprz_msg_send_VERTICAL_ENERGY(struct transport_tx *trans, struct link_device *de
2244:/home/dino/paparazzi/var/include/messages.h **** 	if (trans->check_available_space(trans->impl, dev, trans->size_of(trans->impl, 0+4+4+4+4+4+4+4 +2 
2245:/home/dino/paparazzi/var/include/messages.h **** 	  trans->count_bytes(trans->impl, dev, trans->size_of(trans->impl, 0+4+4+4+4+4+4+4 +2 /* msg heade
2246:/home/dino/paparazzi/var/include/messages.h **** 	  trans->start_message(trans->impl, dev, 0+4+4+4+4+4+4+4 +2 /* msg header overhead */);
2247:/home/dino/paparazzi/var/include/messages.h **** 	  trans->put_bytes(trans->impl, dev, DL_TYPE_UINT8, DL_FORMAT_SCALAR, 1, &ac_id);
2248:/home/dino/paparazzi/var/include/messages.h **** 	  trans->put_named_byte(trans->impl, dev, DL_TYPE_UINT8, DL_FORMAT_SCALAR, DL_VERTICAL_ENERGY, "VE
2249:/home/dino/paparazzi/var/include/messages.h **** 	  trans->put_bytes(trans->impl, dev, DL_TYPE_FLOAT, DL_FORMAT_SCALAR, 4, (void *) _Epot_err);
2250:/home/dino/paparazzi/var/include/messages.h **** 	  trans->put_bytes(trans->impl, dev, DL_TYPE_FLOAT, DL_FORMAT_SCALAR, 4, (void *) _Ekin_err);
2251:/home/dino/paparazzi/var/include/messages.h **** 	  trans->put_bytes(trans->impl, dev, DL_TYPE_FLOAT, DL_FORMAT_SCALAR, 4, (void *) _Etot_err);
2252:/home/dino/paparazzi/var/include/messages.h **** 	  trans->put_bytes(trans->impl, dev, DL_TYPE_FLOAT, DL_FORMAT_SCALAR, 4, (void *) _Edis_err);
2253:/home/dino/paparazzi/var/include/messages.h **** 	  trans->put_bytes(trans->impl, dev, DL_TYPE_FLOAT, DL_FORMAT_SCALAR, 4, (void *) _throttle);
2254:/home/dino/paparazzi/var/include/messages.h **** 	  trans->put_bytes(trans->impl, dev, DL_TYPE_FLOAT, DL_FORMAT_SCALAR, 4, (void *) _nav_pitch);
2255:/home/dino/paparazzi/var/include/messages.h **** 	  trans->put_bytes(trans->impl, dev, DL_TYPE_FLOAT, DL_FORMAT_SCALAR, 4, (void *) _speed_sp);
2256:/home/dino/paparazzi/var/include/messages.h **** 	  trans->end_message(trans->impl, dev);
2257:/home/dino/paparazzi/var/include/messages.h **** 	} else
2258:/home/dino/paparazzi/var/include/messages.h **** 	  trans->overrun(trans->impl, dev);
2259:/home/dino/paparazzi/var/include/messages.h **** }
2260:/home/dino/paparazzi/var/include/messages.h **** 
2261:/home/dino/paparazzi/var/include/messages.h **** #define DOWNLINK_SEND_TEMP_TCOUPLE(_trans, _dev, fval0, fval1, fval2, fval3, fref0, fref1, fref2, f
2262:/home/dino/paparazzi/var/include/messages.h **** static inline void pprz_msg_send_TEMP_TCOUPLE(struct transport_tx *trans, struct link_device *dev, 
2263:/home/dino/paparazzi/var/include/messages.h **** 	if (trans->check_available_space(trans->impl, dev, trans->size_of(trans->impl, 0+4+4+4+4+4+4+4+4+2
2264:/home/dino/paparazzi/var/include/messages.h **** 	  trans->count_bytes(trans->impl, dev, trans->size_of(trans->impl, 0+4+4+4+4+4+4+4+4+2+2+2+2+2+2+2
2265:/home/dino/paparazzi/var/include/messages.h **** 	  trans->start_message(trans->impl, dev, 0+4+4+4+4+4+4+4+4+2+2+2+2+2+2+2+2 +2 /* msg header overhe
2266:/home/dino/paparazzi/var/include/messages.h **** 	  trans->put_bytes(trans->impl, dev, DL_TYPE_UINT8, DL_FORMAT_SCALAR, 1, &ac_id);
2267:/home/dino/paparazzi/var/include/messages.h **** 	  trans->put_named_byte(trans->impl, dev, DL_TYPE_UINT8, DL_FORMAT_SCALAR, DL_TEMP_TCOUPLE, "TEMP_
2268:/home/dino/paparazzi/var/include/messages.h **** 	  trans->put_bytes(trans->impl, dev, DL_TYPE_FLOAT, DL_FORMAT_SCALAR, 4, (void *) _fval0);
2269:/home/dino/paparazzi/var/include/messages.h **** 	  trans->put_bytes(trans->impl, dev, DL_TYPE_FLOAT, DL_FORMAT_SCALAR, 4, (void *) _fval1);
2270:/home/dino/paparazzi/var/include/messages.h **** 	  trans->put_bytes(trans->impl, dev, DL_TYPE_FLOAT, DL_FORMAT_SCALAR, 4, (void *) _fval2);
2271:/home/dino/paparazzi/var/include/messages.h **** 	  trans->put_bytes(trans->impl, dev, DL_TYPE_FLOAT, DL_FORMAT_SCALAR, 4, (void *) _fval3);
2272:/home/dino/paparazzi/var/include/messages.h **** 	  trans->put_bytes(trans->impl, dev, DL_TYPE_FLOAT, DL_FORMAT_SCALAR, 4, (void *) _fref0);
2273:/home/dino/paparazzi/var/include/messages.h **** 	  trans->put_bytes(trans->impl, dev, DL_TYPE_FLOAT, DL_FORMAT_SCALAR, 4, (void *) _fref1);
2274:/home/dino/paparazzi/var/include/messages.h **** 	  trans->put_bytes(trans->impl, dev, DL_TYPE_FLOAT, DL_FORMAT_SCALAR, 4, (void *) _fref2);
2275:/home/dino/paparazzi/var/include/messages.h **** 	  trans->put_bytes(trans->impl, dev, DL_TYPE_FLOAT, DL_FORMAT_SCALAR, 4, (void *) _fref3);
2276:/home/dino/paparazzi/var/include/messages.h **** 	  trans->put_bytes(trans->impl, dev, DL_TYPE_UINT16, DL_FORMAT_SCALAR, 2, (void *) _val0);
2277:/home/dino/paparazzi/var/include/messages.h **** 	  trans->put_bytes(trans->impl, dev, DL_TYPE_UINT16, DL_FORMAT_SCALAR, 2, (void *) _val1);
2278:/home/dino/paparazzi/var/include/messages.h **** 	  trans->put_bytes(trans->impl, dev, DL_TYPE_UINT16, DL_FORMAT_SCALAR, 2, (void *) _val2);
2279:/home/dino/paparazzi/var/include/messages.h **** 	  trans->put_bytes(trans->impl, dev, DL_TYPE_UINT16, DL_FORMAT_SCALAR, 2, (void *) _val3);
2280:/home/dino/paparazzi/var/include/messages.h **** 	  trans->put_bytes(trans->impl, dev, DL_TYPE_UINT16, DL_FORMAT_SCALAR, 2, (void *) _ref0);
2281:/home/dino/paparazzi/var/include/messages.h **** 	  trans->put_bytes(trans->impl, dev, DL_TYPE_UINT16, DL_FORMAT_SCALAR, 2, (void *) _ref1);
2282:/home/dino/paparazzi/var/include/messages.h **** 	  trans->put_bytes(trans->impl, dev, DL_TYPE_UINT16, DL_FORMAT_SCALAR, 2, (void *) _ref2);
2283:/home/dino/paparazzi/var/include/messages.h **** 	  trans->put_bytes(trans->impl, dev, DL_TYPE_UINT16, DL_FORMAT_SCALAR, 2, (void *) _ref3);
2284:/home/dino/paparazzi/var/include/messages.h **** 	  trans->end_message(trans->impl, dev);
2285:/home/dino/paparazzi/var/include/messages.h **** 	} else
2286:/home/dino/paparazzi/var/include/messages.h **** 	  trans->overrun(trans->impl, dev);
2287:/home/dino/paparazzi/var/include/messages.h **** }
2288:/home/dino/paparazzi/var/include/messages.h **** 
2289:/home/dino/paparazzi/var/include/messages.h **** #define DOWNLINK_SEND_SHT_I2C_STATUS(_trans, _dev, ihumid, itemp, humid, temp) pprz_msg_send_SHT_I2
2290:/home/dino/paparazzi/var/include/messages.h **** static inline void pprz_msg_send_SHT_I2C_STATUS(struct transport_tx *trans, struct link_device *dev
2291:/home/dino/paparazzi/var/include/messages.h **** 	if (trans->check_available_space(trans->impl, dev, trans->size_of(trans->impl, 0+2+2+4+4 +2 /* msg
2292:/home/dino/paparazzi/var/include/messages.h **** 	  trans->count_bytes(trans->impl, dev, trans->size_of(trans->impl, 0+2+2+4+4 +2 /* msg header over
2293:/home/dino/paparazzi/var/include/messages.h **** 	  trans->start_message(trans->impl, dev, 0+2+2+4+4 +2 /* msg header overhead */);
2294:/home/dino/paparazzi/var/include/messages.h **** 	  trans->put_bytes(trans->impl, dev, DL_TYPE_UINT8, DL_FORMAT_SCALAR, 1, &ac_id);
2295:/home/dino/paparazzi/var/include/messages.h **** 	  trans->put_named_byte(trans->impl, dev, DL_TYPE_UINT8, DL_FORMAT_SCALAR, DL_SHT_I2C_STATUS, "SHT
2296:/home/dino/paparazzi/var/include/messages.h **** 	  trans->put_bytes(trans->impl, dev, DL_TYPE_UINT16, DL_FORMAT_SCALAR, 2, (void *) _ihumid);
2297:/home/dino/paparazzi/var/include/messages.h **** 	  trans->put_bytes(trans->impl, dev, DL_TYPE_UINT16, DL_FORMAT_SCALAR, 2, (void *) _itemp);
2298:/home/dino/paparazzi/var/include/messages.h **** 	  trans->put_bytes(trans->impl, dev, DL_TYPE_FLOAT, DL_FORMAT_SCALAR, 4, (void *) _humid);
2299:/home/dino/paparazzi/var/include/messages.h **** 	  trans->put_bytes(trans->impl, dev, DL_TYPE_FLOAT, DL_FORMAT_SCALAR, 4, (void *) _temp);
2300:/home/dino/paparazzi/var/include/messages.h **** 	  trans->end_message(trans->impl, dev);
2301:/home/dino/paparazzi/var/include/messages.h **** 	} else
2302:/home/dino/paparazzi/var/include/messages.h **** 	  trans->overrun(trans->impl, dev);
2303:/home/dino/paparazzi/var/include/messages.h **** }
2304:/home/dino/paparazzi/var/include/messages.h **** 
2305:/home/dino/paparazzi/var/include/messages.h **** #define DOWNLINK_SEND_CAMERA_SNAPSHOT(_trans, _dev, snapshot_image_number) pprz_msg_send_CAMERA_SNA
2306:/home/dino/paparazzi/var/include/messages.h **** static inline void pprz_msg_send_CAMERA_SNAPSHOT(struct transport_tx *trans, struct link_device *de
2307:/home/dino/paparazzi/var/include/messages.h **** 	if (trans->check_available_space(trans->impl, dev, trans->size_of(trans->impl, 0+2 +2 /* msg heade
2308:/home/dino/paparazzi/var/include/messages.h **** 	  trans->count_bytes(trans->impl, dev, trans->size_of(trans->impl, 0+2 +2 /* msg header overhead *
2309:/home/dino/paparazzi/var/include/messages.h **** 	  trans->start_message(trans->impl, dev, 0+2 +2 /* msg header overhead */);
2310:/home/dino/paparazzi/var/include/messages.h **** 	  trans->put_bytes(trans->impl, dev, DL_TYPE_UINT8, DL_FORMAT_SCALAR, 1, &ac_id);
2311:/home/dino/paparazzi/var/include/messages.h **** 	  trans->put_named_byte(trans->impl, dev, DL_TYPE_UINT8, DL_FORMAT_SCALAR, DL_CAMERA_SNAPSHOT, "CA
2312:/home/dino/paparazzi/var/include/messages.h **** 	  trans->put_bytes(trans->impl, dev, DL_TYPE_UINT16, DL_FORMAT_SCALAR, 2, (void *) _snapshot_image
2313:/home/dino/paparazzi/var/include/messages.h **** 	  trans->end_message(trans->impl, dev);
2314:/home/dino/paparazzi/var/include/messages.h **** 	} else
2315:/home/dino/paparazzi/var/include/messages.h **** 	  trans->overrun(trans->impl, dev);
2316:/home/dino/paparazzi/var/include/messages.h **** }
2317:/home/dino/paparazzi/var/include/messages.h **** 
2318:/home/dino/paparazzi/var/include/messages.h **** #define DOWNLINK_SEND_TIMESTAMP(_trans, _dev, timestamp) pprz_msg_send_TIMESTAMP(&((_trans).trans_t
2319:/home/dino/paparazzi/var/include/messages.h **** static inline void pprz_msg_send_TIMESTAMP(struct transport_tx *trans, struct link_device *dev, uin
2320:/home/dino/paparazzi/var/include/messages.h **** 	if (trans->check_available_space(trans->impl, dev, trans->size_of(trans->impl, 0+4 +2 /* msg heade
2321:/home/dino/paparazzi/var/include/messages.h **** 	  trans->count_bytes(trans->impl, dev, trans->size_of(trans->impl, 0+4 +2 /* msg header overhead *
2322:/home/dino/paparazzi/var/include/messages.h **** 	  trans->start_message(trans->impl, dev, 0+4 +2 /* msg header overhead */);
2323:/home/dino/paparazzi/var/include/messages.h **** 	  trans->put_bytes(trans->impl, dev, DL_TYPE_UINT8, DL_FORMAT_SCALAR, 1, &ac_id);
2324:/home/dino/paparazzi/var/include/messages.h **** 	  trans->put_named_byte(trans->impl, dev, DL_TYPE_UINT8, DL_FORMAT_SCALAR, DL_TIMESTAMP, "TIMESTAM
2325:/home/dino/paparazzi/var/include/messages.h **** 	  trans->put_bytes(trans->impl, dev, DL_TYPE_UINT32, DL_FORMAT_SCALAR, 4, (void *) _timestamp);
2326:/home/dino/paparazzi/var/include/messages.h **** 	  trans->end_message(trans->impl, dev);
2327:/home/dino/paparazzi/var/include/messages.h **** 	} else
2328:/home/dino/paparazzi/var/include/messages.h **** 	  trans->overrun(trans->impl, dev);
2329:/home/dino/paparazzi/var/include/messages.h **** }
2330:/home/dino/paparazzi/var/include/messages.h **** 
2331:/home/dino/paparazzi/var/include/messages.h **** #define DOWNLINK_SEND_STAB_ATTITUDE_FLOAT(_trans, _dev, est_p, est_q, est_r, est_phi, est_theta, es
2332:/home/dino/paparazzi/var/include/messages.h **** static inline void pprz_msg_send_STAB_ATTITUDE_FLOAT(struct transport_tx *trans, struct link_device
2333:/home/dino/paparazzi/var/include/messages.h **** 	if (trans->check_available_space(trans->impl, dev, trans->size_of(trans->impl, 0+4+4+4+4+4+4+4+4+4
2334:/home/dino/paparazzi/var/include/messages.h **** 	  trans->count_bytes(trans->impl, dev, trans->size_of(trans->impl, 0+4+4+4+4+4+4+4+4+4+4+4+4+4+4+4
2335:/home/dino/paparazzi/var/include/messages.h **** 	  trans->start_message(trans->impl, dev, 0+4+4+4+4+4+4+4+4+4+4+4+4+4+4+4+4+4+4+4+4+4+4+4+4 +2 /* m
2336:/home/dino/paparazzi/var/include/messages.h **** 	  trans->put_bytes(trans->impl, dev, DL_TYPE_UINT8, DL_FORMAT_SCALAR, 1, &ac_id);
2337:/home/dino/paparazzi/var/include/messages.h **** 	  trans->put_named_byte(trans->impl, dev, DL_TYPE_UINT8, DL_FORMAT_SCALAR, DL_STAB_ATTITUDE_FLOAT,
2338:/home/dino/paparazzi/var/include/messages.h **** 	  trans->put_bytes(trans->impl, dev, DL_TYPE_FLOAT, DL_FORMAT_SCALAR, 4, (void *) _est_p);
2339:/home/dino/paparazzi/var/include/messages.h **** 	  trans->put_bytes(trans->impl, dev, DL_TYPE_FLOAT, DL_FORMAT_SCALAR, 4, (void *) _est_q);
2340:/home/dino/paparazzi/var/include/messages.h **** 	  trans->put_bytes(trans->impl, dev, DL_TYPE_FLOAT, DL_FORMAT_SCALAR, 4, (void *) _est_r);
2341:/home/dino/paparazzi/var/include/messages.h **** 	  trans->put_bytes(trans->impl, dev, DL_TYPE_FLOAT, DL_FORMAT_SCALAR, 4, (void *) _est_phi);
2342:/home/dino/paparazzi/var/include/messages.h **** 	  trans->put_bytes(trans->impl, dev, DL_TYPE_FLOAT, DL_FORMAT_SCALAR, 4, (void *) _est_theta);
2343:/home/dino/paparazzi/var/include/messages.h **** 	  trans->put_bytes(trans->impl, dev, DL_TYPE_FLOAT, DL_FORMAT_SCALAR, 4, (void *) _est_psi);
2344:/home/dino/paparazzi/var/include/messages.h **** 	  trans->put_bytes(trans->impl, dev, DL_TYPE_FLOAT, DL_FORMAT_SCALAR, 4, (void *) _ref_phi);
2345:/home/dino/paparazzi/var/include/messages.h **** 	  trans->put_bytes(trans->impl, dev, DL_TYPE_FLOAT, DL_FORMAT_SCALAR, 4, (void *) _ref_theta);
2346:/home/dino/paparazzi/var/include/messages.h **** 	  trans->put_bytes(trans->impl, dev, DL_TYPE_FLOAT, DL_FORMAT_SCALAR, 4, (void *) _ref_psi);
2347:/home/dino/paparazzi/var/include/messages.h **** 	  trans->put_bytes(trans->impl, dev, DL_TYPE_FLOAT, DL_FORMAT_SCALAR, 4, (void *) _sum_err_phi);
2348:/home/dino/paparazzi/var/include/messages.h **** 	  trans->put_bytes(trans->impl, dev, DL_TYPE_FLOAT, DL_FORMAT_SCALAR, 4, (void *) _sum_err_theta);
2349:/home/dino/paparazzi/var/include/messages.h **** 	  trans->put_bytes(trans->impl, dev, DL_TYPE_FLOAT, DL_FORMAT_SCALAR, 4, (void *) _sum_err_psi);
2350:/home/dino/paparazzi/var/include/messages.h **** 	  trans->put_bytes(trans->impl, dev, DL_TYPE_FLOAT, DL_FORMAT_SCALAR, 4, (void *) _delta_a_fb);
2351:/home/dino/paparazzi/var/include/messages.h **** 	  trans->put_bytes(trans->impl, dev, DL_TYPE_FLOAT, DL_FORMAT_SCALAR, 4, (void *) _delta_e_fb);
2352:/home/dino/paparazzi/var/include/messages.h **** 	  trans->put_bytes(trans->impl, dev, DL_TYPE_FLOAT, DL_FORMAT_SCALAR, 4, (void *) _delta_r_fb);
2353:/home/dino/paparazzi/var/include/messages.h **** 	  trans->put_bytes(trans->impl, dev, DL_TYPE_FLOAT, DL_FORMAT_SCALAR, 4, (void *) _delta_a_ff);
2354:/home/dino/paparazzi/var/include/messages.h **** 	  trans->put_bytes(trans->impl, dev, DL_TYPE_FLOAT, DL_FORMAT_SCALAR, 4, (void *) _delta_e_ff);
2355:/home/dino/paparazzi/var/include/messages.h **** 	  trans->put_bytes(trans->impl, dev, DL_TYPE_FLOAT, DL_FORMAT_SCALAR, 4, (void *) _delta_r_ff);
2356:/home/dino/paparazzi/var/include/messages.h **** 	  trans->put_bytes(trans->impl, dev, DL_TYPE_INT32, DL_FORMAT_SCALAR, 4, (void *) _delta_a);
2357:/home/dino/paparazzi/var/include/messages.h **** 	  trans->put_bytes(trans->impl, dev, DL_TYPE_INT32, DL_FORMAT_SCALAR, 4, (void *) _delta_e);
2358:/home/dino/paparazzi/var/include/messages.h **** 	  trans->put_bytes(trans->impl, dev, DL_TYPE_INT32, DL_FORMAT_SCALAR, 4, (void *) _delta_r);
2359:/home/dino/paparazzi/var/include/messages.h **** 	  trans->put_bytes(trans->impl, dev, DL_TYPE_FLOAT, DL_FORMAT_SCALAR, 4, (void *) _est_p_d);
2360:/home/dino/paparazzi/var/include/messages.h **** 	  trans->put_bytes(trans->impl, dev, DL_TYPE_FLOAT, DL_FORMAT_SCALAR, 4, (void *) _est_q_d);
2361:/home/dino/paparazzi/var/include/messages.h **** 	  trans->put_bytes(trans->impl, dev, DL_TYPE_FLOAT, DL_FORMAT_SCALAR, 4, (void *) _est_r_d);
2362:/home/dino/paparazzi/var/include/messages.h **** 	  trans->end_message(trans->impl, dev);
2363:/home/dino/paparazzi/var/include/messages.h **** 	} else
2364:/home/dino/paparazzi/var/include/messages.h **** 	  trans->overrun(trans->impl, dev);
2365:/home/dino/paparazzi/var/include/messages.h **** }
2366:/home/dino/paparazzi/var/include/messages.h **** 
2367:/home/dino/paparazzi/var/include/messages.h **** #define DOWNLINK_SEND_IMU_GYRO_SCALED(_trans, _dev, gp, gq, gr) pprz_msg_send_IMU_GYRO_SCALED(&((_t
2368:/home/dino/paparazzi/var/include/messages.h **** static inline void pprz_msg_send_IMU_GYRO_SCALED(struct transport_tx *trans, struct link_device *de
2369:/home/dino/paparazzi/var/include/messages.h **** 	if (trans->check_available_space(trans->impl, dev, trans->size_of(trans->impl, 0+4+4+4 +2 /* msg h
2370:/home/dino/paparazzi/var/include/messages.h **** 	  trans->count_bytes(trans->impl, dev, trans->size_of(trans->impl, 0+4+4+4 +2 /* msg header overhe
2371:/home/dino/paparazzi/var/include/messages.h **** 	  trans->start_message(trans->impl, dev, 0+4+4+4 +2 /* msg header overhead */);
2372:/home/dino/paparazzi/var/include/messages.h **** 	  trans->put_bytes(trans->impl, dev, DL_TYPE_UINT8, DL_FORMAT_SCALAR, 1, &ac_id);
2373:/home/dino/paparazzi/var/include/messages.h **** 	  trans->put_named_byte(trans->impl, dev, DL_TYPE_UINT8, DL_FORMAT_SCALAR, DL_IMU_GYRO_SCALED, "IM
2374:/home/dino/paparazzi/var/include/messages.h **** 	  trans->put_bytes(trans->impl, dev, DL_TYPE_INT32, DL_FORMAT_SCALAR, 4, (void *) _gp);
2375:/home/dino/paparazzi/var/include/messages.h **** 	  trans->put_bytes(trans->impl, dev, DL_TYPE_INT32, DL_FORMAT_SCALAR, 4, (void *) _gq);
2376:/home/dino/paparazzi/var/include/messages.h **** 	  trans->put_bytes(trans->impl, dev, DL_TYPE_INT32, DL_FORMAT_SCALAR, 4, (void *) _gr);
2377:/home/dino/paparazzi/var/include/messages.h **** 	  trans->end_message(trans->impl, dev);
2378:/home/dino/paparazzi/var/include/messages.h **** 	} else
2379:/home/dino/paparazzi/var/include/messages.h **** 	  trans->overrun(trans->impl, dev);
2380:/home/dino/paparazzi/var/include/messages.h **** }
2381:/home/dino/paparazzi/var/include/messages.h **** 
2382:/home/dino/paparazzi/var/include/messages.h **** #define DOWNLINK_SEND_IMU_ACCEL_SCALED(_trans, _dev, ax, ay, az) pprz_msg_send_IMU_ACCEL_SCALED(&((
2383:/home/dino/paparazzi/var/include/messages.h **** static inline void pprz_msg_send_IMU_ACCEL_SCALED(struct transport_tx *trans, struct link_device *d
2384:/home/dino/paparazzi/var/include/messages.h **** 	if (trans->check_available_space(trans->impl, dev, trans->size_of(trans->impl, 0+4+4+4 +2 /* msg h
2385:/home/dino/paparazzi/var/include/messages.h **** 	  trans->count_bytes(trans->impl, dev, trans->size_of(trans->impl, 0+4+4+4 +2 /* msg header overhe
2386:/home/dino/paparazzi/var/include/messages.h **** 	  trans->start_message(trans->impl, dev, 0+4+4+4 +2 /* msg header overhead */);
2387:/home/dino/paparazzi/var/include/messages.h **** 	  trans->put_bytes(trans->impl, dev, DL_TYPE_UINT8, DL_FORMAT_SCALAR, 1, &ac_id);
2388:/home/dino/paparazzi/var/include/messages.h **** 	  trans->put_named_byte(trans->impl, dev, DL_TYPE_UINT8, DL_FORMAT_SCALAR, DL_IMU_ACCEL_SCALED, "I
2389:/home/dino/paparazzi/var/include/messages.h **** 	  trans->put_bytes(trans->impl, dev, DL_TYPE_INT32, DL_FORMAT_SCALAR, 4, (void *) _ax);
2390:/home/dino/paparazzi/var/include/messages.h **** 	  trans->put_bytes(trans->impl, dev, DL_TYPE_INT32, DL_FORMAT_SCALAR, 4, (void *) _ay);
2391:/home/dino/paparazzi/var/include/messages.h **** 	  trans->put_bytes(trans->impl, dev, DL_TYPE_INT32, DL_FORMAT_SCALAR, 4, (void *) _az);
2392:/home/dino/paparazzi/var/include/messages.h **** 	  trans->end_message(trans->impl, dev);
2393:/home/dino/paparazzi/var/include/messages.h **** 	} else
2394:/home/dino/paparazzi/var/include/messages.h **** 	  trans->overrun(trans->impl, dev);
2395:/home/dino/paparazzi/var/include/messages.h **** }
2396:/home/dino/paparazzi/var/include/messages.h **** 
2397:/home/dino/paparazzi/var/include/messages.h **** #define DOWNLINK_SEND_IMU_MAG_SCALED(_trans, _dev, mx, my, mz) pprz_msg_send_IMU_MAG_SCALED(&((_tra
2398:/home/dino/paparazzi/var/include/messages.h **** static inline void pprz_msg_send_IMU_MAG_SCALED(struct transport_tx *trans, struct link_device *dev
2399:/home/dino/paparazzi/var/include/messages.h **** 	if (trans->check_available_space(trans->impl, dev, trans->size_of(trans->impl, 0+4+4+4 +2 /* msg h
2400:/home/dino/paparazzi/var/include/messages.h **** 	  trans->count_bytes(trans->impl, dev, trans->size_of(trans->impl, 0+4+4+4 +2 /* msg header overhe
2401:/home/dino/paparazzi/var/include/messages.h **** 	  trans->start_message(trans->impl, dev, 0+4+4+4 +2 /* msg header overhead */);
2402:/home/dino/paparazzi/var/include/messages.h **** 	  trans->put_bytes(trans->impl, dev, DL_TYPE_UINT8, DL_FORMAT_SCALAR, 1, &ac_id);
2403:/home/dino/paparazzi/var/include/messages.h **** 	  trans->put_named_byte(trans->impl, dev, DL_TYPE_UINT8, DL_FORMAT_SCALAR, DL_IMU_MAG_SCALED, "IMU
2404:/home/dino/paparazzi/var/include/messages.h **** 	  trans->put_bytes(trans->impl, dev, DL_TYPE_INT32, DL_FORMAT_SCALAR, 4, (void *) _mx);
2405:/home/dino/paparazzi/var/include/messages.h **** 	  trans->put_bytes(trans->impl, dev, DL_TYPE_INT32, DL_FORMAT_SCALAR, 4, (void *) _my);
2406:/home/dino/paparazzi/var/include/messages.h **** 	  trans->put_bytes(trans->impl, dev, DL_TYPE_INT32, DL_FORMAT_SCALAR, 4, (void *) _mz);
2407:/home/dino/paparazzi/var/include/messages.h **** 	  trans->end_message(trans->impl, dev);
2408:/home/dino/paparazzi/var/include/messages.h **** 	} else
2409:/home/dino/paparazzi/var/include/messages.h **** 	  trans->overrun(trans->impl, dev);
2410:/home/dino/paparazzi/var/include/messages.h **** }
2411:/home/dino/paparazzi/var/include/messages.h **** 
2412:/home/dino/paparazzi/var/include/messages.h **** #define DOWNLINK_SEND_FILTER(_trans, _dev, phi, theta, psi, measure_phi, measure_theta, measure_psi
2413:/home/dino/paparazzi/var/include/messages.h **** static inline void pprz_msg_send_FILTER(struct transport_tx *trans, struct link_device *dev, uint8_
2414:/home/dino/paparazzi/var/include/messages.h **** 	if (trans->check_available_space(trans->impl, dev, trans->size_of(trans->impl, 0+4+4+4+4+4+4+4+4+4
2415:/home/dino/paparazzi/var/include/messages.h **** 	  trans->count_bytes(trans->impl, dev, trans->size_of(trans->impl, 0+4+4+4+4+4+4+4+4+4+4+4+4+4+4+4
2416:/home/dino/paparazzi/var/include/messages.h **** 	  trans->start_message(trans->impl, dev, 0+4+4+4+4+4+4+4+4+4+4+4+4+4+4+4 +2 /* msg header overhead
2417:/home/dino/paparazzi/var/include/messages.h **** 	  trans->put_bytes(trans->impl, dev, DL_TYPE_UINT8, DL_FORMAT_SCALAR, 1, &ac_id);
2418:/home/dino/paparazzi/var/include/messages.h **** 	  trans->put_named_byte(trans->impl, dev, DL_TYPE_UINT8, DL_FORMAT_SCALAR, DL_FILTER, "FILTER");
2419:/home/dino/paparazzi/var/include/messages.h **** 	  trans->put_bytes(trans->impl, dev, DL_TYPE_INT32, DL_FORMAT_SCALAR, 4, (void *) _phi);
2420:/home/dino/paparazzi/var/include/messages.h **** 	  trans->put_bytes(trans->impl, dev, DL_TYPE_INT32, DL_FORMAT_SCALAR, 4, (void *) _theta);
2421:/home/dino/paparazzi/var/include/messages.h **** 	  trans->put_bytes(trans->impl, dev, DL_TYPE_INT32, DL_FORMAT_SCALAR, 4, (void *) _psi);
2422:/home/dino/paparazzi/var/include/messages.h **** 	  trans->put_bytes(trans->impl, dev, DL_TYPE_INT32, DL_FORMAT_SCALAR, 4, (void *) _measure_phi);
2423:/home/dino/paparazzi/var/include/messages.h **** 	  trans->put_bytes(trans->impl, dev, DL_TYPE_INT32, DL_FORMAT_SCALAR, 4, (void *) _measure_theta);
2424:/home/dino/paparazzi/var/include/messages.h **** 	  trans->put_bytes(trans->impl, dev, DL_TYPE_INT32, DL_FORMAT_SCALAR, 4, (void *) _measure_psi);
2425:/home/dino/paparazzi/var/include/messages.h **** 	  trans->put_bytes(trans->impl, dev, DL_TYPE_INT32, DL_FORMAT_SCALAR, 4, (void *) _corrected_phi);
2426:/home/dino/paparazzi/var/include/messages.h **** 	  trans->put_bytes(trans->impl, dev, DL_TYPE_INT32, DL_FORMAT_SCALAR, 4, (void *) _corrected_theta
2427:/home/dino/paparazzi/var/include/messages.h **** 	  trans->put_bytes(trans->impl, dev, DL_TYPE_INT32, DL_FORMAT_SCALAR, 4, (void *) _corrected_psi);
2428:/home/dino/paparazzi/var/include/messages.h **** 	  trans->put_bytes(trans->impl, dev, DL_TYPE_INT32, DL_FORMAT_SCALAR, 4, (void *) _correction_phi)
2429:/home/dino/paparazzi/var/include/messages.h **** 	  trans->put_bytes(trans->impl, dev, DL_TYPE_INT32, DL_FORMAT_SCALAR, 4, (void *) _correction_thet
2430:/home/dino/paparazzi/var/include/messages.h **** 	  trans->put_bytes(trans->impl, dev, DL_TYPE_INT32, DL_FORMAT_SCALAR, 4, (void *) _correction_psi)
2431:/home/dino/paparazzi/var/include/messages.h **** 	  trans->put_bytes(trans->impl, dev, DL_TYPE_INT32, DL_FORMAT_SCALAR, 4, (void *) _bp);
2432:/home/dino/paparazzi/var/include/messages.h **** 	  trans->put_bytes(trans->impl, dev, DL_TYPE_INT32, DL_FORMAT_SCALAR, 4, (void *) _bq);
2433:/home/dino/paparazzi/var/include/messages.h **** 	  trans->put_bytes(trans->impl, dev, DL_TYPE_INT32, DL_FORMAT_SCALAR, 4, (void *) _br);
2434:/home/dino/paparazzi/var/include/messages.h **** 	  trans->end_message(trans->impl, dev);
2435:/home/dino/paparazzi/var/include/messages.h **** 	} else
2436:/home/dino/paparazzi/var/include/messages.h **** 	  trans->overrun(trans->impl, dev);
2437:/home/dino/paparazzi/var/include/messages.h **** }
2438:/home/dino/paparazzi/var/include/messages.h **** 
2439:/home/dino/paparazzi/var/include/messages.h **** #define DOWNLINK_SEND_FILTER2(_trans, _dev, px, py, pz, gsx, gsy, gsz) pprz_msg_send_FILTER2(&((_tr
2440:/home/dino/paparazzi/var/include/messages.h **** static inline void pprz_msg_send_FILTER2(struct transport_tx *trans, struct link_device *dev, uint8
2441:/home/dino/paparazzi/var/include/messages.h **** 	if (trans->check_available_space(trans->impl, dev, trans->size_of(trans->impl, 0+4+4+4+4+4+4 +2 /*
2442:/home/dino/paparazzi/var/include/messages.h **** 	  trans->count_bytes(trans->impl, dev, trans->size_of(trans->impl, 0+4+4+4+4+4+4 +2 /* msg header 
2443:/home/dino/paparazzi/var/include/messages.h **** 	  trans->start_message(trans->impl, dev, 0+4+4+4+4+4+4 +2 /* msg header overhead */);
2444:/home/dino/paparazzi/var/include/messages.h **** 	  trans->put_bytes(trans->impl, dev, DL_TYPE_UINT8, DL_FORMAT_SCALAR, 1, &ac_id);
2445:/home/dino/paparazzi/var/include/messages.h **** 	  trans->put_named_byte(trans->impl, dev, DL_TYPE_UINT8, DL_FORMAT_SCALAR, DL_FILTER2, "FILTER2");
2446:/home/dino/paparazzi/var/include/messages.h **** 	  trans->put_bytes(trans->impl, dev, DL_TYPE_INT32, DL_FORMAT_SCALAR, 4, (void *) _px);
2447:/home/dino/paparazzi/var/include/messages.h **** 	  trans->put_bytes(trans->impl, dev, DL_TYPE_INT32, DL_FORMAT_SCALAR, 4, (void *) _py);
2448:/home/dino/paparazzi/var/include/messages.h **** 	  trans->put_bytes(trans->impl, dev, DL_TYPE_INT32, DL_FORMAT_SCALAR, 4, (void *) _pz);
2449:/home/dino/paparazzi/var/include/messages.h **** 	  trans->put_bytes(trans->impl, dev, DL_TYPE_INT32, DL_FORMAT_SCALAR, 4, (void *) _gsx);
2450:/home/dino/paparazzi/var/include/messages.h **** 	  trans->put_bytes(trans->impl, dev, DL_TYPE_INT32, DL_FORMAT_SCALAR, 4, (void *) _gsy);
2451:/home/dino/paparazzi/var/include/messages.h **** 	  trans->put_bytes(trans->impl, dev, DL_TYPE_INT32, DL_FORMAT_SCALAR, 4, (void *) _gsz);
2452:/home/dino/paparazzi/var/include/messages.h **** 	  trans->end_message(trans->impl, dev);
2453:/home/dino/paparazzi/var/include/messages.h **** 	} else
2454:/home/dino/paparazzi/var/include/messages.h **** 	  trans->overrun(trans->impl, dev);
2455:/home/dino/paparazzi/var/include/messages.h **** }
2456:/home/dino/paparazzi/var/include/messages.h **** 
2457:/home/dino/paparazzi/var/include/messages.h **** #define DOWNLINK_SEND_RATE_LOOP(_trans, _dev, sp_p, sp_q, sp_r, ref_p, ref_q, ref_r, refdot_p, refd
2458:/home/dino/paparazzi/var/include/messages.h **** static inline void pprz_msg_send_RATE_LOOP(struct transport_tx *trans, struct link_device *dev, uin
2459:/home/dino/paparazzi/var/include/messages.h **** 	if (trans->check_available_space(trans->impl, dev, trans->size_of(trans->impl, 0+4+4+4+4+4+4+4+4+4
2460:/home/dino/paparazzi/var/include/messages.h **** 	  trans->count_bytes(trans->impl, dev, trans->size_of(trans->impl, 0+4+4+4+4+4+4+4+4+4+4+4+4+4+4+4
2461:/home/dino/paparazzi/var/include/messages.h **** 	  trans->start_message(trans->impl, dev, 0+4+4+4+4+4+4+4+4+4+4+4+4+4+4+4+4+4+4+4 +2 /* msg header 
2462:/home/dino/paparazzi/var/include/messages.h **** 	  trans->put_bytes(trans->impl, dev, DL_TYPE_UINT8, DL_FORMAT_SCALAR, 1, &ac_id);
2463:/home/dino/paparazzi/var/include/messages.h **** 	  trans->put_named_byte(trans->impl, dev, DL_TYPE_UINT8, DL_FORMAT_SCALAR, DL_RATE_LOOP, "RATE_LOO
2464:/home/dino/paparazzi/var/include/messages.h **** 	  trans->put_bytes(trans->impl, dev, DL_TYPE_INT32, DL_FORMAT_SCALAR, 4, (void *) _sp_p);
2465:/home/dino/paparazzi/var/include/messages.h **** 	  trans->put_bytes(trans->impl, dev, DL_TYPE_INT32, DL_FORMAT_SCALAR, 4, (void *) _sp_q);
2466:/home/dino/paparazzi/var/include/messages.h **** 	  trans->put_bytes(trans->impl, dev, DL_TYPE_INT32, DL_FORMAT_SCALAR, 4, (void *) _sp_r);
2467:/home/dino/paparazzi/var/include/messages.h **** 	  trans->put_bytes(trans->impl, dev, DL_TYPE_INT32, DL_FORMAT_SCALAR, 4, (void *) _ref_p);
2468:/home/dino/paparazzi/var/include/messages.h **** 	  trans->put_bytes(trans->impl, dev, DL_TYPE_INT32, DL_FORMAT_SCALAR, 4, (void *) _ref_q);
2469:/home/dino/paparazzi/var/include/messages.h **** 	  trans->put_bytes(trans->impl, dev, DL_TYPE_INT32, DL_FORMAT_SCALAR, 4, (void *) _ref_r);
2470:/home/dino/paparazzi/var/include/messages.h **** 	  trans->put_bytes(trans->impl, dev, DL_TYPE_INT32, DL_FORMAT_SCALAR, 4, (void *) _refdot_p);
2471:/home/dino/paparazzi/var/include/messages.h **** 	  trans->put_bytes(trans->impl, dev, DL_TYPE_INT32, DL_FORMAT_SCALAR, 4, (void *) _refdot_q);
2472:/home/dino/paparazzi/var/include/messages.h **** 	  trans->put_bytes(trans->impl, dev, DL_TYPE_INT32, DL_FORMAT_SCALAR, 4, (void *) _refdot_r);
2473:/home/dino/paparazzi/var/include/messages.h **** 	  trans->put_bytes(trans->impl, dev, DL_TYPE_INT32, DL_FORMAT_SCALAR, 4, (void *) _sumerr_p);
2474:/home/dino/paparazzi/var/include/messages.h **** 	  trans->put_bytes(trans->impl, dev, DL_TYPE_INT32, DL_FORMAT_SCALAR, 4, (void *) _sumerr_q);
2475:/home/dino/paparazzi/var/include/messages.h **** 	  trans->put_bytes(trans->impl, dev, DL_TYPE_INT32, DL_FORMAT_SCALAR, 4, (void *) _sumerr_r);
2476:/home/dino/paparazzi/var/include/messages.h **** 	  trans->put_bytes(trans->impl, dev, DL_TYPE_INT32, DL_FORMAT_SCALAR, 4, (void *) _ff_p);
2477:/home/dino/paparazzi/var/include/messages.h **** 	  trans->put_bytes(trans->impl, dev, DL_TYPE_INT32, DL_FORMAT_SCALAR, 4, (void *) _ff_q);
2478:/home/dino/paparazzi/var/include/messages.h **** 	  trans->put_bytes(trans->impl, dev, DL_TYPE_INT32, DL_FORMAT_SCALAR, 4, (void *) _ff_r);
2479:/home/dino/paparazzi/var/include/messages.h **** 	  trans->put_bytes(trans->impl, dev, DL_TYPE_INT32, DL_FORMAT_SCALAR, 4, (void *) _fb_p);
2480:/home/dino/paparazzi/var/include/messages.h **** 	  trans->put_bytes(trans->impl, dev, DL_TYPE_INT32, DL_FORMAT_SCALAR, 4, (void *) _fb_q);
2481:/home/dino/paparazzi/var/include/messages.h **** 	  trans->put_bytes(trans->impl, dev, DL_TYPE_INT32, DL_FORMAT_SCALAR, 4, (void *) _fb_r);
2482:/home/dino/paparazzi/var/include/messages.h **** 	  trans->put_bytes(trans->impl, dev, DL_TYPE_INT32, DL_FORMAT_SCALAR, 4, (void *) _delta_t);
2483:/home/dino/paparazzi/var/include/messages.h **** 	  trans->end_message(trans->impl, dev);
2484:/home/dino/paparazzi/var/include/messages.h **** 	} else
2485:/home/dino/paparazzi/var/include/messages.h **** 	  trans->overrun(trans->impl, dev);
2486:/home/dino/paparazzi/var/include/messages.h **** }
2487:/home/dino/paparazzi/var/include/messages.h **** 
2488:/home/dino/paparazzi/var/include/messages.h **** #define DOWNLINK_SEND_FILTER_ALIGNER(_trans, _dev, lp_gp, lp_gq, lp_gr, gp, gq, gr, noise, cnt, sta
2489:/home/dino/paparazzi/var/include/messages.h **** static inline void pprz_msg_send_FILTER_ALIGNER(struct transport_tx *trans, struct link_device *dev
2490:/home/dino/paparazzi/var/include/messages.h **** 	if (trans->check_available_space(trans->impl, dev, trans->size_of(trans->impl, 0+4+4+4+4+4+4+4+4+1
2491:/home/dino/paparazzi/var/include/messages.h **** 	  trans->count_bytes(trans->impl, dev, trans->size_of(trans->impl, 0+4+4+4+4+4+4+4+4+1 +2 /* msg h
2492:/home/dino/paparazzi/var/include/messages.h **** 	  trans->start_message(trans->impl, dev, 0+4+4+4+4+4+4+4+4+1 +2 /* msg header overhead */);
2493:/home/dino/paparazzi/var/include/messages.h **** 	  trans->put_bytes(trans->impl, dev, DL_TYPE_UINT8, DL_FORMAT_SCALAR, 1, &ac_id);
2494:/home/dino/paparazzi/var/include/messages.h **** 	  trans->put_named_byte(trans->impl, dev, DL_TYPE_UINT8, DL_FORMAT_SCALAR, DL_FILTER_ALIGNER, "FIL
2495:/home/dino/paparazzi/var/include/messages.h **** 	  trans->put_bytes(trans->impl, dev, DL_TYPE_INT32, DL_FORMAT_SCALAR, 4, (void *) _lp_gp);
2496:/home/dino/paparazzi/var/include/messages.h **** 	  trans->put_bytes(trans->impl, dev, DL_TYPE_INT32, DL_FORMAT_SCALAR, 4, (void *) _lp_gq);
2497:/home/dino/paparazzi/var/include/messages.h **** 	  trans->put_bytes(trans->impl, dev, DL_TYPE_INT32, DL_FORMAT_SCALAR, 4, (void *) _lp_gr);
2498:/home/dino/paparazzi/var/include/messages.h **** 	  trans->put_bytes(trans->impl, dev, DL_TYPE_INT32, DL_FORMAT_SCALAR, 4, (void *) _gp);
2499:/home/dino/paparazzi/var/include/messages.h **** 	  trans->put_bytes(trans->impl, dev, DL_TYPE_INT32, DL_FORMAT_SCALAR, 4, (void *) _gq);
2500:/home/dino/paparazzi/var/include/messages.h **** 	  trans->put_bytes(trans->impl, dev, DL_TYPE_INT32, DL_FORMAT_SCALAR, 4, (void *) _gr);
2501:/home/dino/paparazzi/var/include/messages.h **** 	  trans->put_bytes(trans->impl, dev, DL_TYPE_INT32, DL_FORMAT_SCALAR, 4, (void *) _noise);
2502:/home/dino/paparazzi/var/include/messages.h **** 	  trans->put_bytes(trans->impl, dev, DL_TYPE_INT32, DL_FORMAT_SCALAR, 4, (void *) _cnt);
2503:/home/dino/paparazzi/var/include/messages.h **** 	  trans->put_bytes(trans->impl, dev, DL_TYPE_UINT8, DL_FORMAT_SCALAR, 1, (void *) _status);
2504:/home/dino/paparazzi/var/include/messages.h **** 	  trans->end_message(trans->impl, dev);
2505:/home/dino/paparazzi/var/include/messages.h **** 	} else
2506:/home/dino/paparazzi/var/include/messages.h **** 	  trans->overrun(trans->impl, dev);
2507:/home/dino/paparazzi/var/include/messages.h **** }
2508:/home/dino/paparazzi/var/include/messages.h **** 
2509:/home/dino/paparazzi/var/include/messages.h **** #define DOWNLINK_SEND_AIRSPEED_MS45XX(_trans, _dev, diffPress, temperature, airspeed) pprz_msg_send
2510:/home/dino/paparazzi/var/include/messages.h **** static inline void pprz_msg_send_AIRSPEED_MS45XX(struct transport_tx *trans, struct link_device *de
2511:/home/dino/paparazzi/var/include/messages.h **** 	if (trans->check_available_space(trans->impl, dev, trans->size_of(trans->impl, 0+4+2+4 +2 /* msg h
2512:/home/dino/paparazzi/var/include/messages.h **** 	  trans->count_bytes(trans->impl, dev, trans->size_of(trans->impl, 0+4+2+4 +2 /* msg header overhe
2513:/home/dino/paparazzi/var/include/messages.h **** 	  trans->start_message(trans->impl, dev, 0+4+2+4 +2 /* msg header overhead */);
2514:/home/dino/paparazzi/var/include/messages.h **** 	  trans->put_bytes(trans->impl, dev, DL_TYPE_UINT8, DL_FORMAT_SCALAR, 1, &ac_id);
2515:/home/dino/paparazzi/var/include/messages.h **** 	  trans->put_named_byte(trans->impl, dev, DL_TYPE_UINT8, DL_FORMAT_SCALAR, DL_AIRSPEED_MS45XX, "AI
2516:/home/dino/paparazzi/var/include/messages.h **** 	  trans->put_bytes(trans->impl, dev, DL_TYPE_FLOAT, DL_FORMAT_SCALAR, 4, (void *) _diffPress);
2517:/home/dino/paparazzi/var/include/messages.h **** 	  trans->put_bytes(trans->impl, dev, DL_TYPE_INT16, DL_FORMAT_SCALAR, 2, (void *) _temperature);
2518:/home/dino/paparazzi/var/include/messages.h **** 	  trans->put_bytes(trans->impl, dev, DL_TYPE_FLOAT, DL_FORMAT_SCALAR, 4, (void *) _airspeed);
2519:/home/dino/paparazzi/var/include/messages.h **** 	  trans->end_message(trans->impl, dev);
2520:/home/dino/paparazzi/var/include/messages.h **** 	} else
2521:/home/dino/paparazzi/var/include/messages.h **** 	  trans->overrun(trans->impl, dev);
2522:/home/dino/paparazzi/var/include/messages.h **** }
2523:/home/dino/paparazzi/var/include/messages.h **** 
2524:/home/dino/paparazzi/var/include/messages.h **** #define DOWNLINK_SEND_FILTER_COR(_trans, _dev, mphi, mtheta, mpsi, qi, qx, qy, qz) pprz_msg_send_FI
2525:/home/dino/paparazzi/var/include/messages.h **** static inline void pprz_msg_send_FILTER_COR(struct transport_tx *trans, struct link_device *dev, ui
2526:/home/dino/paparazzi/var/include/messages.h **** 	if (trans->check_available_space(trans->impl, dev, trans->size_of(trans->impl, 0+4+4+4+4+4+4+4 +2 
2527:/home/dino/paparazzi/var/include/messages.h **** 	  trans->count_bytes(trans->impl, dev, trans->size_of(trans->impl, 0+4+4+4+4+4+4+4 +2 /* msg heade
2528:/home/dino/paparazzi/var/include/messages.h **** 	  trans->start_message(trans->impl, dev, 0+4+4+4+4+4+4+4 +2 /* msg header overhead */);
2529:/home/dino/paparazzi/var/include/messages.h **** 	  trans->put_bytes(trans->impl, dev, DL_TYPE_UINT8, DL_FORMAT_SCALAR, 1, &ac_id);
2530:/home/dino/paparazzi/var/include/messages.h **** 	  trans->put_named_byte(trans->impl, dev, DL_TYPE_UINT8, DL_FORMAT_SCALAR, DL_FILTER_COR, "FILTER_
2531:/home/dino/paparazzi/var/include/messages.h **** 	  trans->put_bytes(trans->impl, dev, DL_TYPE_INT32, DL_FORMAT_SCALAR, 4, (void *) _mphi);
2532:/home/dino/paparazzi/var/include/messages.h **** 	  trans->put_bytes(trans->impl, dev, DL_TYPE_INT32, DL_FORMAT_SCALAR, 4, (void *) _mtheta);
2533:/home/dino/paparazzi/var/include/messages.h **** 	  trans->put_bytes(trans->impl, dev, DL_TYPE_INT32, DL_FORMAT_SCALAR, 4, (void *) _mpsi);
2534:/home/dino/paparazzi/var/include/messages.h **** 	  trans->put_bytes(trans->impl, dev, DL_TYPE_INT32, DL_FORMAT_SCALAR, 4, (void *) _qi);
2535:/home/dino/paparazzi/var/include/messages.h **** 	  trans->put_bytes(trans->impl, dev, DL_TYPE_INT32, DL_FORMAT_SCALAR, 4, (void *) _qx);
2536:/home/dino/paparazzi/var/include/messages.h **** 	  trans->put_bytes(trans->impl, dev, DL_TYPE_INT32, DL_FORMAT_SCALAR, 4, (void *) _qy);
2537:/home/dino/paparazzi/var/include/messages.h **** 	  trans->put_bytes(trans->impl, dev, DL_TYPE_INT32, DL_FORMAT_SCALAR, 4, (void *) _qz);
2538:/home/dino/paparazzi/var/include/messages.h **** 	  trans->end_message(trans->impl, dev);
2539:/home/dino/paparazzi/var/include/messages.h **** 	} else
2540:/home/dino/paparazzi/var/include/messages.h **** 	  trans->overrun(trans->impl, dev);
2541:/home/dino/paparazzi/var/include/messages.h **** }
2542:/home/dino/paparazzi/var/include/messages.h **** 
2543:/home/dino/paparazzi/var/include/messages.h **** #define DOWNLINK_SEND_STAB_ATTITUDE_INT(_trans, _dev, est_p, est_q, est_r, est_phi, est_theta, est_
2544:/home/dino/paparazzi/var/include/messages.h **** static inline void pprz_msg_send_STAB_ATTITUDE_INT(struct transport_tx *trans, struct link_device *
2545:/home/dino/paparazzi/var/include/messages.h **** 	if (trans->check_available_space(trans->impl, dev, trans->size_of(trans->impl, 0+4+4+4+4+4+4+4+4+4
2546:/home/dino/paparazzi/var/include/messages.h **** 	  trans->count_bytes(trans->impl, dev, trans->size_of(trans->impl, 0+4+4+4+4+4+4+4+4+4+4+4+4+4+4+4
2547:/home/dino/paparazzi/var/include/messages.h **** 	  trans->start_message(trans->impl, dev, 0+4+4+4+4+4+4+4+4+4+4+4+4+4+4+4+4+4+4+4+4+4 +2 /* msg hea
2548:/home/dino/paparazzi/var/include/messages.h **** 	  trans->put_bytes(trans->impl, dev, DL_TYPE_UINT8, DL_FORMAT_SCALAR, 1, &ac_id);
2549:/home/dino/paparazzi/var/include/messages.h **** 	  trans->put_named_byte(trans->impl, dev, DL_TYPE_UINT8, DL_FORMAT_SCALAR, DL_STAB_ATTITUDE_INT, "
2550:/home/dino/paparazzi/var/include/messages.h **** 	  trans->put_bytes(trans->impl, dev, DL_TYPE_INT32, DL_FORMAT_SCALAR, 4, (void *) _est_p);
2551:/home/dino/paparazzi/var/include/messages.h **** 	  trans->put_bytes(trans->impl, dev, DL_TYPE_INT32, DL_FORMAT_SCALAR, 4, (void *) _est_q);
2552:/home/dino/paparazzi/var/include/messages.h **** 	  trans->put_bytes(trans->impl, dev, DL_TYPE_INT32, DL_FORMAT_SCALAR, 4, (void *) _est_r);
2553:/home/dino/paparazzi/var/include/messages.h **** 	  trans->put_bytes(trans->impl, dev, DL_TYPE_INT32, DL_FORMAT_SCALAR, 4, (void *) _est_phi);
2554:/home/dino/paparazzi/var/include/messages.h **** 	  trans->put_bytes(trans->impl, dev, DL_TYPE_INT32, DL_FORMAT_SCALAR, 4, (void *) _est_theta);
2555:/home/dino/paparazzi/var/include/messages.h **** 	  trans->put_bytes(trans->impl, dev, DL_TYPE_INT32, DL_FORMAT_SCALAR, 4, (void *) _est_psi);
2556:/home/dino/paparazzi/var/include/messages.h **** 	  trans->put_bytes(trans->impl, dev, DL_TYPE_INT32, DL_FORMAT_SCALAR, 4, (void *) _sp_phi);
2557:/home/dino/paparazzi/var/include/messages.h **** 	  trans->put_bytes(trans->impl, dev, DL_TYPE_INT32, DL_FORMAT_SCALAR, 4, (void *) _sp_theta);
2558:/home/dino/paparazzi/var/include/messages.h **** 	  trans->put_bytes(trans->impl, dev, DL_TYPE_INT32, DL_FORMAT_SCALAR, 4, (void *) _sp_psi);
2559:/home/dino/paparazzi/var/include/messages.h **** 	  trans->put_bytes(trans->impl, dev, DL_TYPE_INT32, DL_FORMAT_SCALAR, 4, (void *) _sum_err_phi);
2560:/home/dino/paparazzi/var/include/messages.h **** 	  trans->put_bytes(trans->impl, dev, DL_TYPE_INT32, DL_FORMAT_SCALAR, 4, (void *) _sum_err_theta);
2561:/home/dino/paparazzi/var/include/messages.h **** 	  trans->put_bytes(trans->impl, dev, DL_TYPE_INT32, DL_FORMAT_SCALAR, 4, (void *) _sum_err_psi);
2562:/home/dino/paparazzi/var/include/messages.h **** 	  trans->put_bytes(trans->impl, dev, DL_TYPE_INT32, DL_FORMAT_SCALAR, 4, (void *) _delta_a_fb);
2563:/home/dino/paparazzi/var/include/messages.h **** 	  trans->put_bytes(trans->impl, dev, DL_TYPE_INT32, DL_FORMAT_SCALAR, 4, (void *) _delta_e_fb);
2564:/home/dino/paparazzi/var/include/messages.h **** 	  trans->put_bytes(trans->impl, dev, DL_TYPE_INT32, DL_FORMAT_SCALAR, 4, (void *) _delta_r_fb);
2565:/home/dino/paparazzi/var/include/messages.h **** 	  trans->put_bytes(trans->impl, dev, DL_TYPE_INT32, DL_FORMAT_SCALAR, 4, (void *) _delta_a_ff);
2566:/home/dino/paparazzi/var/include/messages.h **** 	  trans->put_bytes(trans->impl, dev, DL_TYPE_INT32, DL_FORMAT_SCALAR, 4, (void *) _delta_e_ff);
2567:/home/dino/paparazzi/var/include/messages.h **** 	  trans->put_bytes(trans->impl, dev, DL_TYPE_INT32, DL_FORMAT_SCALAR, 4, (void *) _delta_r_ff);
2568:/home/dino/paparazzi/var/include/messages.h **** 	  trans->put_bytes(trans->impl, dev, DL_TYPE_INT32, DL_FORMAT_SCALAR, 4, (void *) _delta_a);
2569:/home/dino/paparazzi/var/include/messages.h **** 	  trans->put_bytes(trans->impl, dev, DL_TYPE_INT32, DL_FORMAT_SCALAR, 4, (void *) _delta_e);
2570:/home/dino/paparazzi/var/include/messages.h **** 	  trans->put_bytes(trans->impl, dev, DL_TYPE_INT32, DL_FORMAT_SCALAR, 4, (void *) _delta_r);
2571:/home/dino/paparazzi/var/include/messages.h **** 	  trans->end_message(trans->impl, dev);
2572:/home/dino/paparazzi/var/include/messages.h **** 	} else
2573:/home/dino/paparazzi/var/include/messages.h **** 	  trans->overrun(trans->impl, dev);
2574:/home/dino/paparazzi/var/include/messages.h **** }
2575:/home/dino/paparazzi/var/include/messages.h **** 
2576:/home/dino/paparazzi/var/include/messages.h **** #define DOWNLINK_SEND_STAB_ATTITUDE_REF_INT(_trans, _dev, sp_phi, sp_theta, sp_psi, ref_phi, ref_th
2577:/home/dino/paparazzi/var/include/messages.h **** static inline void pprz_msg_send_STAB_ATTITUDE_REF_INT(struct transport_tx *trans, struct link_devi
2578:/home/dino/paparazzi/var/include/messages.h **** 	if (trans->check_available_space(trans->impl, dev, trans->size_of(trans->impl, 0+4+4+4+4+4+4+4+4+4
2579:/home/dino/paparazzi/var/include/messages.h **** 	  trans->count_bytes(trans->impl, dev, trans->size_of(trans->impl, 0+4+4+4+4+4+4+4+4+4+4+4+4 +2 /*
2580:/home/dino/paparazzi/var/include/messages.h **** 	  trans->start_message(trans->impl, dev, 0+4+4+4+4+4+4+4+4+4+4+4+4 +2 /* msg header overhead */);
2581:/home/dino/paparazzi/var/include/messages.h **** 	  trans->put_bytes(trans->impl, dev, DL_TYPE_UINT8, DL_FORMAT_SCALAR, 1, &ac_id);
2582:/home/dino/paparazzi/var/include/messages.h **** 	  trans->put_named_byte(trans->impl, dev, DL_TYPE_UINT8, DL_FORMAT_SCALAR, DL_STAB_ATTITUDE_REF_IN
2583:/home/dino/paparazzi/var/include/messages.h **** 	  trans->put_bytes(trans->impl, dev, DL_TYPE_INT32, DL_FORMAT_SCALAR, 4, (void *) _sp_phi);
2584:/home/dino/paparazzi/var/include/messages.h **** 	  trans->put_bytes(trans->impl, dev, DL_TYPE_INT32, DL_FORMAT_SCALAR, 4, (void *) _sp_theta);
2585:/home/dino/paparazzi/var/include/messages.h **** 	  trans->put_bytes(trans->impl, dev, DL_TYPE_INT32, DL_FORMAT_SCALAR, 4, (void *) _sp_psi);
2586:/home/dino/paparazzi/var/include/messages.h **** 	  trans->put_bytes(trans->impl, dev, DL_TYPE_INT32, DL_FORMAT_SCALAR, 4, (void *) _ref_phi);
2587:/home/dino/paparazzi/var/include/messages.h **** 	  trans->put_bytes(trans->impl, dev, DL_TYPE_INT32, DL_FORMAT_SCALAR, 4, (void *) _ref_theta);
2588:/home/dino/paparazzi/var/include/messages.h **** 	  trans->put_bytes(trans->impl, dev, DL_TYPE_INT32, DL_FORMAT_SCALAR, 4, (void *) _ref_psi);
2589:/home/dino/paparazzi/var/include/messages.h **** 	  trans->put_bytes(trans->impl, dev, DL_TYPE_INT32, DL_FORMAT_SCALAR, 4, (void *) _ref_p);
2590:/home/dino/paparazzi/var/include/messages.h **** 	  trans->put_bytes(trans->impl, dev, DL_TYPE_INT32, DL_FORMAT_SCALAR, 4, (void *) _ref_q);
2591:/home/dino/paparazzi/var/include/messages.h **** 	  trans->put_bytes(trans->impl, dev, DL_TYPE_INT32, DL_FORMAT_SCALAR, 4, (void *) _ref_r);
2592:/home/dino/paparazzi/var/include/messages.h **** 	  trans->put_bytes(trans->impl, dev, DL_TYPE_INT32, DL_FORMAT_SCALAR, 4, (void *) _ref_pd);
2593:/home/dino/paparazzi/var/include/messages.h **** 	  trans->put_bytes(trans->impl, dev, DL_TYPE_INT32, DL_FORMAT_SCALAR, 4, (void *) _ref_qd);
2594:/home/dino/paparazzi/var/include/messages.h **** 	  trans->put_bytes(trans->impl, dev, DL_TYPE_INT32, DL_FORMAT_SCALAR, 4, (void *) _ref_rd);
2595:/home/dino/paparazzi/var/include/messages.h **** 	  trans->end_message(trans->impl, dev);
2596:/home/dino/paparazzi/var/include/messages.h **** 	} else
2597:/home/dino/paparazzi/var/include/messages.h **** 	  trans->overrun(trans->impl, dev);
2598:/home/dino/paparazzi/var/include/messages.h **** }
2599:/home/dino/paparazzi/var/include/messages.h **** 
2600:/home/dino/paparazzi/var/include/messages.h **** #define DOWNLINK_SEND_STAB_ATTITUDE_REF_FLOAT(_trans, _dev, sp_phi, sp_theta, sp_psi, ref_phi, ref_
2601:/home/dino/paparazzi/var/include/messages.h **** static inline void pprz_msg_send_STAB_ATTITUDE_REF_FLOAT(struct transport_tx *trans, struct link_de
2602:/home/dino/paparazzi/var/include/messages.h **** 	if (trans->check_available_space(trans->impl, dev, trans->size_of(trans->impl, 0+4+4+4+4+4+4+4+4+4
2603:/home/dino/paparazzi/var/include/messages.h **** 	  trans->count_bytes(trans->impl, dev, trans->size_of(trans->impl, 0+4+4+4+4+4+4+4+4+4+4+4+4 +2 /*
2604:/home/dino/paparazzi/var/include/messages.h **** 	  trans->start_message(trans->impl, dev, 0+4+4+4+4+4+4+4+4+4+4+4+4 +2 /* msg header overhead */);
2605:/home/dino/paparazzi/var/include/messages.h **** 	  trans->put_bytes(trans->impl, dev, DL_TYPE_UINT8, DL_FORMAT_SCALAR, 1, &ac_id);
2606:/home/dino/paparazzi/var/include/messages.h **** 	  trans->put_named_byte(trans->impl, dev, DL_TYPE_UINT8, DL_FORMAT_SCALAR, DL_STAB_ATTITUDE_REF_FL
2607:/home/dino/paparazzi/var/include/messages.h **** 	  trans->put_bytes(trans->impl, dev, DL_TYPE_FLOAT, DL_FORMAT_SCALAR, 4, (void *) _sp_phi);
2608:/home/dino/paparazzi/var/include/messages.h **** 	  trans->put_bytes(trans->impl, dev, DL_TYPE_FLOAT, DL_FORMAT_SCALAR, 4, (void *) _sp_theta);
2609:/home/dino/paparazzi/var/include/messages.h **** 	  trans->put_bytes(trans->impl, dev, DL_TYPE_FLOAT, DL_FORMAT_SCALAR, 4, (void *) _sp_psi);
2610:/home/dino/paparazzi/var/include/messages.h **** 	  trans->put_bytes(trans->impl, dev, DL_TYPE_FLOAT, DL_FORMAT_SCALAR, 4, (void *) _ref_phi);
2611:/home/dino/paparazzi/var/include/messages.h **** 	  trans->put_bytes(trans->impl, dev, DL_TYPE_FLOAT, DL_FORMAT_SCALAR, 4, (void *) _ref_theta);
2612:/home/dino/paparazzi/var/include/messages.h **** 	  trans->put_bytes(trans->impl, dev, DL_TYPE_FLOAT, DL_FORMAT_SCALAR, 4, (void *) _ref_psi);
2613:/home/dino/paparazzi/var/include/messages.h **** 	  trans->put_bytes(trans->impl, dev, DL_TYPE_FLOAT, DL_FORMAT_SCALAR, 4, (void *) _ref_p);
2614:/home/dino/paparazzi/var/include/messages.h **** 	  trans->put_bytes(trans->impl, dev, DL_TYPE_FLOAT, DL_FORMAT_SCALAR, 4, (void *) _ref_q);
2615:/home/dino/paparazzi/var/include/messages.h **** 	  trans->put_bytes(trans->impl, dev, DL_TYPE_FLOAT, DL_FORMAT_SCALAR, 4, (void *) _ref_r);
2616:/home/dino/paparazzi/var/include/messages.h **** 	  trans->put_bytes(trans->impl, dev, DL_TYPE_FLOAT, DL_FORMAT_SCALAR, 4, (void *) _ref_pd);
2617:/home/dino/paparazzi/var/include/messages.h **** 	  trans->put_bytes(trans->impl, dev, DL_TYPE_FLOAT, DL_FORMAT_SCALAR, 4, (void *) _ref_qd);
2618:/home/dino/paparazzi/var/include/messages.h **** 	  trans->put_bytes(trans->impl, dev, DL_TYPE_FLOAT, DL_FORMAT_SCALAR, 4, (void *) _ref_rd);
2619:/home/dino/paparazzi/var/include/messages.h **** 	  trans->end_message(trans->impl, dev);
2620:/home/dino/paparazzi/var/include/messages.h **** 	} else
2621:/home/dino/paparazzi/var/include/messages.h **** 	  trans->overrun(trans->impl, dev);
2622:/home/dino/paparazzi/var/include/messages.h **** }
2623:/home/dino/paparazzi/var/include/messages.h **** 
2624:/home/dino/paparazzi/var/include/messages.h **** #define DOWNLINK_SEND_ROTORCRAFT_CMD(_trans, _dev, cmd_roll, cmd_pitch, cmd_yaw, cmd_thrust) pprz_m
2625:/home/dino/paparazzi/var/include/messages.h **** static inline void pprz_msg_send_ROTORCRAFT_CMD(struct transport_tx *trans, struct link_device *dev
2626:/home/dino/paparazzi/var/include/messages.h **** 	if (trans->check_available_space(trans->impl, dev, trans->size_of(trans->impl, 0+4+4+4+4 +2 /* msg
2627:/home/dino/paparazzi/var/include/messages.h **** 	  trans->count_bytes(trans->impl, dev, trans->size_of(trans->impl, 0+4+4+4+4 +2 /* msg header over
2628:/home/dino/paparazzi/var/include/messages.h **** 	  trans->start_message(trans->impl, dev, 0+4+4+4+4 +2 /* msg header overhead */);
2629:/home/dino/paparazzi/var/include/messages.h **** 	  trans->put_bytes(trans->impl, dev, DL_TYPE_UINT8, DL_FORMAT_SCALAR, 1, &ac_id);
2630:/home/dino/paparazzi/var/include/messages.h **** 	  trans->put_named_byte(trans->impl, dev, DL_TYPE_UINT8, DL_FORMAT_SCALAR, DL_ROTORCRAFT_CMD, "ROT
2631:/home/dino/paparazzi/var/include/messages.h **** 	  trans->put_bytes(trans->impl, dev, DL_TYPE_INT32, DL_FORMAT_SCALAR, 4, (void *) _cmd_roll);
2632:/home/dino/paparazzi/var/include/messages.h **** 	  trans->put_bytes(trans->impl, dev, DL_TYPE_INT32, DL_FORMAT_SCALAR, 4, (void *) _cmd_pitch);
2633:/home/dino/paparazzi/var/include/messages.h **** 	  trans->put_bytes(trans->impl, dev, DL_TYPE_INT32, DL_FORMAT_SCALAR, 4, (void *) _cmd_yaw);
2634:/home/dino/paparazzi/var/include/messages.h **** 	  trans->put_bytes(trans->impl, dev, DL_TYPE_INT32, DL_FORMAT_SCALAR, 4, (void *) _cmd_thrust);
2635:/home/dino/paparazzi/var/include/messages.h **** 	  trans->end_message(trans->impl, dev);
2636:/home/dino/paparazzi/var/include/messages.h **** 	} else
2637:/home/dino/paparazzi/var/include/messages.h **** 	  trans->overrun(trans->impl, dev);
2638:/home/dino/paparazzi/var/include/messages.h **** }
2639:/home/dino/paparazzi/var/include/messages.h **** 
2640:/home/dino/paparazzi/var/include/messages.h **** #define DOWNLINK_SEND_GUIDANCE_H_INT(_trans, _dev, sp_x, sp_y, ref_x, ref_y, est_x, est_y) pprz_msg
2641:/home/dino/paparazzi/var/include/messages.h **** static inline void pprz_msg_send_GUIDANCE_H_INT(struct transport_tx *trans, struct link_device *dev
2642:/home/dino/paparazzi/var/include/messages.h **** 	if (trans->check_available_space(trans->impl, dev, trans->size_of(trans->impl, 0+4+4+4+4+4+4 +2 /*
2643:/home/dino/paparazzi/var/include/messages.h **** 	  trans->count_bytes(trans->impl, dev, trans->size_of(trans->impl, 0+4+4+4+4+4+4 +2 /* msg header 
2644:/home/dino/paparazzi/var/include/messages.h **** 	  trans->start_message(trans->impl, dev, 0+4+4+4+4+4+4 +2 /* msg header overhead */);
2645:/home/dino/paparazzi/var/include/messages.h **** 	  trans->put_bytes(trans->impl, dev, DL_TYPE_UINT8, DL_FORMAT_SCALAR, 1, &ac_id);
2646:/home/dino/paparazzi/var/include/messages.h **** 	  trans->put_named_byte(trans->impl, dev, DL_TYPE_UINT8, DL_FORMAT_SCALAR, DL_GUIDANCE_H_INT, "GUI
2647:/home/dino/paparazzi/var/include/messages.h **** 	  trans->put_bytes(trans->impl, dev, DL_TYPE_INT32, DL_FORMAT_SCALAR, 4, (void *) _sp_x);
2648:/home/dino/paparazzi/var/include/messages.h **** 	  trans->put_bytes(trans->impl, dev, DL_TYPE_INT32, DL_FORMAT_SCALAR, 4, (void *) _sp_y);
2649:/home/dino/paparazzi/var/include/messages.h **** 	  trans->put_bytes(trans->impl, dev, DL_TYPE_INT32, DL_FORMAT_SCALAR, 4, (void *) _ref_x);
2650:/home/dino/paparazzi/var/include/messages.h **** 	  trans->put_bytes(trans->impl, dev, DL_TYPE_INT32, DL_FORMAT_SCALAR, 4, (void *) _ref_y);
2651:/home/dino/paparazzi/var/include/messages.h **** 	  trans->put_bytes(trans->impl, dev, DL_TYPE_INT32, DL_FORMAT_SCALAR, 4, (void *) _est_x);
2652:/home/dino/paparazzi/var/include/messages.h **** 	  trans->put_bytes(trans->impl, dev, DL_TYPE_INT32, DL_FORMAT_SCALAR, 4, (void *) _est_y);
2653:/home/dino/paparazzi/var/include/messages.h **** 	  trans->end_message(trans->impl, dev);
2654:/home/dino/paparazzi/var/include/messages.h **** 	} else
2655:/home/dino/paparazzi/var/include/messages.h **** 	  trans->overrun(trans->impl, dev);
2656:/home/dino/paparazzi/var/include/messages.h **** }
2657:/home/dino/paparazzi/var/include/messages.h **** 
2658:/home/dino/paparazzi/var/include/messages.h **** #define DOWNLINK_SEND_VERT_LOOP(_trans, _dev, z_sp, zd_sp, est_z, est_zd, est_zdd, ref_z, ref_zd, r
2659:/home/dino/paparazzi/var/include/messages.h **** static inline void pprz_msg_send_VERT_LOOP(struct transport_tx *trans, struct link_device *dev, uin
2660:/home/dino/paparazzi/var/include/messages.h **** 	if (trans->check_available_space(trans->impl, dev, trans->size_of(trans->impl, 0+4+4+4+4+4+4+4+4+4
2661:/home/dino/paparazzi/var/include/messages.h **** 	  trans->count_bytes(trans->impl, dev, trans->size_of(trans->impl, 0+4+4+4+4+4+4+4+4+4+4+4+4+4+4+4
2662:/home/dino/paparazzi/var/include/messages.h **** 	  trans->start_message(trans->impl, dev, 0+4+4+4+4+4+4+4+4+4+4+4+4+4+4+4 +2 /* msg header overhead
2663:/home/dino/paparazzi/var/include/messages.h **** 	  trans->put_bytes(trans->impl, dev, DL_TYPE_UINT8, DL_FORMAT_SCALAR, 1, &ac_id);
2664:/home/dino/paparazzi/var/include/messages.h **** 	  trans->put_named_byte(trans->impl, dev, DL_TYPE_UINT8, DL_FORMAT_SCALAR, DL_VERT_LOOP, "VERT_LOO
2665:/home/dino/paparazzi/var/include/messages.h **** 	  trans->put_bytes(trans->impl, dev, DL_TYPE_INT32, DL_FORMAT_SCALAR, 4, (void *) _z_sp);
2666:/home/dino/paparazzi/var/include/messages.h **** 	  trans->put_bytes(trans->impl, dev, DL_TYPE_INT32, DL_FORMAT_SCALAR, 4, (void *) _zd_sp);
2667:/home/dino/paparazzi/var/include/messages.h **** 	  trans->put_bytes(trans->impl, dev, DL_TYPE_INT32, DL_FORMAT_SCALAR, 4, (void *) _est_z);
2668:/home/dino/paparazzi/var/include/messages.h **** 	  trans->put_bytes(trans->impl, dev, DL_TYPE_INT32, DL_FORMAT_SCALAR, 4, (void *) _est_zd);
2669:/home/dino/paparazzi/var/include/messages.h **** 	  trans->put_bytes(trans->impl, dev, DL_TYPE_INT32, DL_FORMAT_SCALAR, 4, (void *) _est_zdd);
2670:/home/dino/paparazzi/var/include/messages.h **** 	  trans->put_bytes(trans->impl, dev, DL_TYPE_INT32, DL_FORMAT_SCALAR, 4, (void *) _ref_z);
2671:/home/dino/paparazzi/var/include/messages.h **** 	  trans->put_bytes(trans->impl, dev, DL_TYPE_INT32, DL_FORMAT_SCALAR, 4, (void *) _ref_zd);
2672:/home/dino/paparazzi/var/include/messages.h **** 	  trans->put_bytes(trans->impl, dev, DL_TYPE_INT32, DL_FORMAT_SCALAR, 4, (void *) _ref_zdd);
2673:/home/dino/paparazzi/var/include/messages.h **** 	  trans->put_bytes(trans->impl, dev, DL_TYPE_INT32, DL_FORMAT_SCALAR, 4, (void *) _adp_inv_m);
2674:/home/dino/paparazzi/var/include/messages.h **** 	  trans->put_bytes(trans->impl, dev, DL_TYPE_INT32, DL_FORMAT_SCALAR, 4, (void *) _adp_cov);
2675:/home/dino/paparazzi/var/include/messages.h **** 	  trans->put_bytes(trans->impl, dev, DL_TYPE_INT32, DL_FORMAT_SCALAR, 4, (void *) _adp_meas);
2676:/home/dino/paparazzi/var/include/messages.h **** 	  trans->put_bytes(trans->impl, dev, DL_TYPE_INT32, DL_FORMAT_SCALAR, 4, (void *) _sum_err);
2677:/home/dino/paparazzi/var/include/messages.h **** 	  trans->put_bytes(trans->impl, dev, DL_TYPE_INT32, DL_FORMAT_SCALAR, 4, (void *) _ff_cmd);
2678:/home/dino/paparazzi/var/include/messages.h **** 	  trans->put_bytes(trans->impl, dev, DL_TYPE_INT32, DL_FORMAT_SCALAR, 4, (void *) _fb_cmd);
2679:/home/dino/paparazzi/var/include/messages.h **** 	  trans->put_bytes(trans->impl, dev, DL_TYPE_INT32, DL_FORMAT_SCALAR, 4, (void *) _delta_t);
2680:/home/dino/paparazzi/var/include/messages.h **** 	  trans->end_message(trans->impl, dev);
2681:/home/dino/paparazzi/var/include/messages.h **** 	} else
2682:/home/dino/paparazzi/var/include/messages.h **** 	  trans->overrun(trans->impl, dev);
2683:/home/dino/paparazzi/var/include/messages.h **** }
2684:/home/dino/paparazzi/var/include/messages.h **** 
2685:/home/dino/paparazzi/var/include/messages.h **** #define DOWNLINK_SEND_HOVER_LOOP(_trans, _dev, sp_x, sp_y, est_x, est_y, est_xd, est_yd, est_xdd, e
2686:/home/dino/paparazzi/var/include/messages.h **** static inline void pprz_msg_send_HOVER_LOOP(struct transport_tx *trans, struct link_device *dev, ui
2687:/home/dino/paparazzi/var/include/messages.h **** 	if (trans->check_available_space(trans->impl, dev, trans->size_of(trans->impl, 0+4+4+4+4+4+4+4+4+4
2688:/home/dino/paparazzi/var/include/messages.h **** 	  trans->count_bytes(trans->impl, dev, trans->size_of(trans->impl, 0+4+4+4+4+4+4+4+4+4+4+4+4+4+4+4
2689:/home/dino/paparazzi/var/include/messages.h **** 	  trans->start_message(trans->impl, dev, 0+4+4+4+4+4+4+4+4+4+4+4+4+4+4+4+4+4 +2 /* msg header over
2690:/home/dino/paparazzi/var/include/messages.h **** 	  trans->put_bytes(trans->impl, dev, DL_TYPE_UINT8, DL_FORMAT_SCALAR, 1, &ac_id);
2691:/home/dino/paparazzi/var/include/messages.h **** 	  trans->put_named_byte(trans->impl, dev, DL_TYPE_UINT8, DL_FORMAT_SCALAR, DL_HOVER_LOOP, "HOVER_L
2692:/home/dino/paparazzi/var/include/messages.h **** 	  trans->put_bytes(trans->impl, dev, DL_TYPE_INT32, DL_FORMAT_SCALAR, 4, (void *) _sp_x);
2693:/home/dino/paparazzi/var/include/messages.h **** 	  trans->put_bytes(trans->impl, dev, DL_TYPE_INT32, DL_FORMAT_SCALAR, 4, (void *) _sp_y);
2694:/home/dino/paparazzi/var/include/messages.h **** 	  trans->put_bytes(trans->impl, dev, DL_TYPE_INT32, DL_FORMAT_SCALAR, 4, (void *) _est_x);
2695:/home/dino/paparazzi/var/include/messages.h **** 	  trans->put_bytes(trans->impl, dev, DL_TYPE_INT32, DL_FORMAT_SCALAR, 4, (void *) _est_y);
2696:/home/dino/paparazzi/var/include/messages.h **** 	  trans->put_bytes(trans->impl, dev, DL_TYPE_INT32, DL_FORMAT_SCALAR, 4, (void *) _est_xd);
2697:/home/dino/paparazzi/var/include/messages.h **** 	  trans->put_bytes(trans->impl, dev, DL_TYPE_INT32, DL_FORMAT_SCALAR, 4, (void *) _est_yd);
2698:/home/dino/paparazzi/var/include/messages.h **** 	  trans->put_bytes(trans->impl, dev, DL_TYPE_INT32, DL_FORMAT_SCALAR, 4, (void *) _est_xdd);
2699:/home/dino/paparazzi/var/include/messages.h **** 	  trans->put_bytes(trans->impl, dev, DL_TYPE_INT32, DL_FORMAT_SCALAR, 4, (void *) _est_ydd);
2700:/home/dino/paparazzi/var/include/messages.h **** 	  trans->put_bytes(trans->impl, dev, DL_TYPE_INT32, DL_FORMAT_SCALAR, 4, (void *) _err_x);
2701:/home/dino/paparazzi/var/include/messages.h **** 	  trans->put_bytes(trans->impl, dev, DL_TYPE_INT32, DL_FORMAT_SCALAR, 4, (void *) _err_y);
2702:/home/dino/paparazzi/var/include/messages.h **** 	  trans->put_bytes(trans->impl, dev, DL_TYPE_INT32, DL_FORMAT_SCALAR, 4, (void *) _err_xd);
2703:/home/dino/paparazzi/var/include/messages.h **** 	  trans->put_bytes(trans->impl, dev, DL_TYPE_INT32, DL_FORMAT_SCALAR, 4, (void *) _err_yd);
2704:/home/dino/paparazzi/var/include/messages.h **** 	  trans->put_bytes(trans->impl, dev, DL_TYPE_INT32, DL_FORMAT_SCALAR, 4, (void *) _err_sum_x);
2705:/home/dino/paparazzi/var/include/messages.h **** 	  trans->put_bytes(trans->impl, dev, DL_TYPE_INT32, DL_FORMAT_SCALAR, 4, (void *) _err_sum_y);
2706:/home/dino/paparazzi/var/include/messages.h **** 	  trans->put_bytes(trans->impl, dev, DL_TYPE_INT32, DL_FORMAT_SCALAR, 4, (void *) _cmd_x);
2707:/home/dino/paparazzi/var/include/messages.h **** 	  trans->put_bytes(trans->impl, dev, DL_TYPE_INT32, DL_FORMAT_SCALAR, 4, (void *) _cmd_y);
2708:/home/dino/paparazzi/var/include/messages.h **** 	  trans->put_bytes(trans->impl, dev, DL_TYPE_INT32, DL_FORMAT_SCALAR, 4, (void *) _cmd_heading);
2709:/home/dino/paparazzi/var/include/messages.h **** 	  trans->end_message(trans->impl, dev);
2710:/home/dino/paparazzi/var/include/messages.h **** 	} else
2711:/home/dino/paparazzi/var/include/messages.h **** 	  trans->overrun(trans->impl, dev);
2712:/home/dino/paparazzi/var/include/messages.h **** }
2713:/home/dino/paparazzi/var/include/messages.h **** 
2714:/home/dino/paparazzi/var/include/messages.h **** #define DOWNLINK_SEND_ROTORCRAFT_FP(_trans, _dev, east, north, up, veast, vnorth, vup, phi, theta, 
2715:/home/dino/paparazzi/var/include/messages.h **** static inline void pprz_msg_send_ROTORCRAFT_FP(struct transport_tx *trans, struct link_device *dev,
2716:/home/dino/paparazzi/var/include/messages.h **** 	if (trans->check_available_space(trans->impl, dev, trans->size_of(trans->impl, 0+4+4+4+4+4+4+4+4+4
2717:/home/dino/paparazzi/var/include/messages.h **** 	  trans->count_bytes(trans->impl, dev, trans->size_of(trans->impl, 0+4+4+4+4+4+4+4+4+4+4+4+4+4+4+2
2718:/home/dino/paparazzi/var/include/messages.h **** 	  trans->start_message(trans->impl, dev, 0+4+4+4+4+4+4+4+4+4+4+4+4+4+4+2 +2 /* msg header overhead
2719:/home/dino/paparazzi/var/include/messages.h **** 	  trans->put_bytes(trans->impl, dev, DL_TYPE_UINT8, DL_FORMAT_SCALAR, 1, &ac_id);
2720:/home/dino/paparazzi/var/include/messages.h **** 	  trans->put_named_byte(trans->impl, dev, DL_TYPE_UINT8, DL_FORMAT_SCALAR, DL_ROTORCRAFT_FP, "ROTO
2721:/home/dino/paparazzi/var/include/messages.h **** 	  trans->put_bytes(trans->impl, dev, DL_TYPE_INT32, DL_FORMAT_SCALAR, 4, (void *) _east);
2722:/home/dino/paparazzi/var/include/messages.h **** 	  trans->put_bytes(trans->impl, dev, DL_TYPE_INT32, DL_FORMAT_SCALAR, 4, (void *) _north);
2723:/home/dino/paparazzi/var/include/messages.h **** 	  trans->put_bytes(trans->impl, dev, DL_TYPE_INT32, DL_FORMAT_SCALAR, 4, (void *) _up);
2724:/home/dino/paparazzi/var/include/messages.h **** 	  trans->put_bytes(trans->impl, dev, DL_TYPE_INT32, DL_FORMAT_SCALAR, 4, (void *) _veast);
2725:/home/dino/paparazzi/var/include/messages.h **** 	  trans->put_bytes(trans->impl, dev, DL_TYPE_INT32, DL_FORMAT_SCALAR, 4, (void *) _vnorth);
2726:/home/dino/paparazzi/var/include/messages.h **** 	  trans->put_bytes(trans->impl, dev, DL_TYPE_INT32, DL_FORMAT_SCALAR, 4, (void *) _vup);
2727:/home/dino/paparazzi/var/include/messages.h **** 	  trans->put_bytes(trans->impl, dev, DL_TYPE_INT32, DL_FORMAT_SCALAR, 4, (void *) _phi);
2728:/home/dino/paparazzi/var/include/messages.h **** 	  trans->put_bytes(trans->impl, dev, DL_TYPE_INT32, DL_FORMAT_SCALAR, 4, (void *) _theta);
2729:/home/dino/paparazzi/var/include/messages.h **** 	  trans->put_bytes(trans->impl, dev, DL_TYPE_INT32, DL_FORMAT_SCALAR, 4, (void *) _psi);
2730:/home/dino/paparazzi/var/include/messages.h **** 	  trans->put_bytes(trans->impl, dev, DL_TYPE_INT32, DL_FORMAT_SCALAR, 4, (void *) _carrot_east);
2731:/home/dino/paparazzi/var/include/messages.h **** 	  trans->put_bytes(trans->impl, dev, DL_TYPE_INT32, DL_FORMAT_SCALAR, 4, (void *) _carrot_north);
2732:/home/dino/paparazzi/var/include/messages.h **** 	  trans->put_bytes(trans->impl, dev, DL_TYPE_INT32, DL_FORMAT_SCALAR, 4, (void *) _carrot_up);
2733:/home/dino/paparazzi/var/include/messages.h **** 	  trans->put_bytes(trans->impl, dev, DL_TYPE_INT32, DL_FORMAT_SCALAR, 4, (void *) _carrot_psi);
2734:/home/dino/paparazzi/var/include/messages.h **** 	  trans->put_bytes(trans->impl, dev, DL_TYPE_INT32, DL_FORMAT_SCALAR, 4, (void *) _thrust);
2735:/home/dino/paparazzi/var/include/messages.h **** 	  trans->put_bytes(trans->impl, dev, DL_TYPE_UINT16, DL_FORMAT_SCALAR, 2, (void *) _flight_time);
2736:/home/dino/paparazzi/var/include/messages.h **** 	  trans->end_message(trans->impl, dev);
2737:/home/dino/paparazzi/var/include/messages.h **** 	} else
2738:/home/dino/paparazzi/var/include/messages.h **** 	  trans->overrun(trans->impl, dev);
2739:/home/dino/paparazzi/var/include/messages.h **** }
2740:/home/dino/paparazzi/var/include/messages.h **** 
2741:/home/dino/paparazzi/var/include/messages.h **** #define DOWNLINK_SEND_TEMP_ADC(_trans, _dev, temp1, temp2, temp3) pprz_msg_send_TEMP_ADC(&((_trans)
2742:/home/dino/paparazzi/var/include/messages.h **** static inline void pprz_msg_send_TEMP_ADC(struct transport_tx *trans, struct link_device *dev, uint
2743:/home/dino/paparazzi/var/include/messages.h **** 	if (trans->check_available_space(trans->impl, dev, trans->size_of(trans->impl, 0+4+4+4 +2 /* msg h
2744:/home/dino/paparazzi/var/include/messages.h **** 	  trans->count_bytes(trans->impl, dev, trans->size_of(trans->impl, 0+4+4+4 +2 /* msg header overhe
2745:/home/dino/paparazzi/var/include/messages.h **** 	  trans->start_message(trans->impl, dev, 0+4+4+4 +2 /* msg header overhead */);
2746:/home/dino/paparazzi/var/include/messages.h **** 	  trans->put_bytes(trans->impl, dev, DL_TYPE_UINT8, DL_FORMAT_SCALAR, 1, &ac_id);
2747:/home/dino/paparazzi/var/include/messages.h **** 	  trans->put_named_byte(trans->impl, dev, DL_TYPE_UINT8, DL_FORMAT_SCALAR, DL_TEMP_ADC, "TEMP_ADC"
2748:/home/dino/paparazzi/var/include/messages.h **** 	  trans->put_bytes(trans->impl, dev, DL_TYPE_FLOAT, DL_FORMAT_SCALAR, 4, (void *) _temp1);
2749:/home/dino/paparazzi/var/include/messages.h **** 	  trans->put_bytes(trans->impl, dev, DL_TYPE_FLOAT, DL_FORMAT_SCALAR, 4, (void *) _temp2);
2750:/home/dino/paparazzi/var/include/messages.h **** 	  trans->put_bytes(trans->impl, dev, DL_TYPE_FLOAT, DL_FORMAT_SCALAR, 4, (void *) _temp3);
2751:/home/dino/paparazzi/var/include/messages.h **** 	  trans->end_message(trans->impl, dev);
2752:/home/dino/paparazzi/var/include/messages.h **** 	} else
2753:/home/dino/paparazzi/var/include/messages.h **** 	  trans->overrun(trans->impl, dev);
2754:/home/dino/paparazzi/var/include/messages.h **** }
2755:/home/dino/paparazzi/var/include/messages.h **** 
2756:/home/dino/paparazzi/var/include/messages.h **** #define DOWNLINK_SEND_GUIDANCE_H_REF_INT(_trans, _dev, sp_x, ref_x, sp_xd, ref_xd, ref_xdd, sp_y, r
2757:/home/dino/paparazzi/var/include/messages.h **** static inline void pprz_msg_send_GUIDANCE_H_REF_INT(struct transport_tx *trans, struct link_device 
2758:/home/dino/paparazzi/var/include/messages.h **** 	if (trans->check_available_space(trans->impl, dev, trans->size_of(trans->impl, 0+4+4+4+4+4+4+4+4+4
2759:/home/dino/paparazzi/var/include/messages.h **** 	  trans->count_bytes(trans->impl, dev, trans->size_of(trans->impl, 0+4+4+4+4+4+4+4+4+4+4 +2 /* msg
2760:/home/dino/paparazzi/var/include/messages.h **** 	  trans->start_message(trans->impl, dev, 0+4+4+4+4+4+4+4+4+4+4 +2 /* msg header overhead */);
2761:/home/dino/paparazzi/var/include/messages.h **** 	  trans->put_bytes(trans->impl, dev, DL_TYPE_UINT8, DL_FORMAT_SCALAR, 1, &ac_id);
2762:/home/dino/paparazzi/var/include/messages.h **** 	  trans->put_named_byte(trans->impl, dev, DL_TYPE_UINT8, DL_FORMAT_SCALAR, DL_GUIDANCE_H_REF_INT, 
2763:/home/dino/paparazzi/var/include/messages.h **** 	  trans->put_bytes(trans->impl, dev, DL_TYPE_INT32, DL_FORMAT_SCALAR, 4, (void *) _sp_x);
2764:/home/dino/paparazzi/var/include/messages.h **** 	  trans->put_bytes(trans->impl, dev, DL_TYPE_INT32, DL_FORMAT_SCALAR, 4, (void *) _ref_x);
2765:/home/dino/paparazzi/var/include/messages.h **** 	  trans->put_bytes(trans->impl, dev, DL_TYPE_INT32, DL_FORMAT_SCALAR, 4, (void *) _sp_xd);
2766:/home/dino/paparazzi/var/include/messages.h **** 	  trans->put_bytes(trans->impl, dev, DL_TYPE_INT32, DL_FORMAT_SCALAR, 4, (void *) _ref_xd);
2767:/home/dino/paparazzi/var/include/messages.h **** 	  trans->put_bytes(trans->impl, dev, DL_TYPE_INT32, DL_FORMAT_SCALAR, 4, (void *) _ref_xdd);
2768:/home/dino/paparazzi/var/include/messages.h **** 	  trans->put_bytes(trans->impl, dev, DL_TYPE_INT32, DL_FORMAT_SCALAR, 4, (void *) _sp_y);
2769:/home/dino/paparazzi/var/include/messages.h **** 	  trans->put_bytes(trans->impl, dev, DL_TYPE_INT32, DL_FORMAT_SCALAR, 4, (void *) _ref_y);
2770:/home/dino/paparazzi/var/include/messages.h **** 	  trans->put_bytes(trans->impl, dev, DL_TYPE_INT32, DL_FORMAT_SCALAR, 4, (void *) _sp_yd);
2771:/home/dino/paparazzi/var/include/messages.h **** 	  trans->put_bytes(trans->impl, dev, DL_TYPE_INT32, DL_FORMAT_SCALAR, 4, (void *) _ref_yd);
2772:/home/dino/paparazzi/var/include/messages.h **** 	  trans->put_bytes(trans->impl, dev, DL_TYPE_INT32, DL_FORMAT_SCALAR, 4, (void *) _ref_ydd);
2773:/home/dino/paparazzi/var/include/messages.h **** 	  trans->end_message(trans->impl, dev);
2774:/home/dino/paparazzi/var/include/messages.h **** 	} else
2775:/home/dino/paparazzi/var/include/messages.h **** 	  trans->overrun(trans->impl, dev);
2776:/home/dino/paparazzi/var/include/messages.h **** }
2777:/home/dino/paparazzi/var/include/messages.h **** 
2778:/home/dino/paparazzi/var/include/messages.h **** #define DOWNLINK_SEND_ROTORCRAFT_TUNE_HOVER(_trans, _dev, rc_roll, rc_pitch, rc_yaw, cmd_roll, cmd_
2779:/home/dino/paparazzi/var/include/messages.h **** static inline void pprz_msg_send_ROTORCRAFT_TUNE_HOVER(struct transport_tx *trans, struct link_devi
2780:/home/dino/paparazzi/var/include/messages.h **** 	if (trans->check_available_space(trans->impl, dev, trans->size_of(trans->impl, 0+2+2+2+4+4+4+4+4+4
2781:/home/dino/paparazzi/var/include/messages.h **** 	  trans->count_bytes(trans->impl, dev, trans->size_of(trans->impl, 0+2+2+2+4+4+4+4+4+4+4 +2 /* msg
2782:/home/dino/paparazzi/var/include/messages.h **** 	  trans->start_message(trans->impl, dev, 0+2+2+2+4+4+4+4+4+4+4 +2 /* msg header overhead */);
2783:/home/dino/paparazzi/var/include/messages.h **** 	  trans->put_bytes(trans->impl, dev, DL_TYPE_UINT8, DL_FORMAT_SCALAR, 1, &ac_id);
2784:/home/dino/paparazzi/var/include/messages.h **** 	  trans->put_named_byte(trans->impl, dev, DL_TYPE_UINT8, DL_FORMAT_SCALAR, DL_ROTORCRAFT_TUNE_HOVE
2785:/home/dino/paparazzi/var/include/messages.h **** 	  trans->put_bytes(trans->impl, dev, DL_TYPE_INT16, DL_FORMAT_SCALAR, 2, (void *) _rc_roll);
2786:/home/dino/paparazzi/var/include/messages.h **** 	  trans->put_bytes(trans->impl, dev, DL_TYPE_INT16, DL_FORMAT_SCALAR, 2, (void *) _rc_pitch);
2787:/home/dino/paparazzi/var/include/messages.h **** 	  trans->put_bytes(trans->impl, dev, DL_TYPE_INT16, DL_FORMAT_SCALAR, 2, (void *) _rc_yaw);
2788:/home/dino/paparazzi/var/include/messages.h **** 	  trans->put_bytes(trans->impl, dev, DL_TYPE_INT32, DL_FORMAT_SCALAR, 4, (void *) _cmd_roll);
2789:/home/dino/paparazzi/var/include/messages.h **** 	  trans->put_bytes(trans->impl, dev, DL_TYPE_INT32, DL_FORMAT_SCALAR, 4, (void *) _cmd_pitch);
2790:/home/dino/paparazzi/var/include/messages.h **** 	  trans->put_bytes(trans->impl, dev, DL_TYPE_INT32, DL_FORMAT_SCALAR, 4, (void *) _cmd_yaw);
2791:/home/dino/paparazzi/var/include/messages.h **** 	  trans->put_bytes(trans->impl, dev, DL_TYPE_INT32, DL_FORMAT_SCALAR, 4, (void *) _cmd_thrust);
2792:/home/dino/paparazzi/var/include/messages.h **** 	  trans->put_bytes(trans->impl, dev, DL_TYPE_INT32, DL_FORMAT_SCALAR, 4, (void *) _body_phi);
2793:/home/dino/paparazzi/var/include/messages.h **** 	  trans->put_bytes(trans->impl, dev, DL_TYPE_INT32, DL_FORMAT_SCALAR, 4, (void *) _body_theta);
2794:/home/dino/paparazzi/var/include/messages.h **** 	  trans->put_bytes(trans->impl, dev, DL_TYPE_INT32, DL_FORMAT_SCALAR, 4, (void *) _body_psi);
2795:/home/dino/paparazzi/var/include/messages.h **** 	  trans->end_message(trans->impl, dev);
2796:/home/dino/paparazzi/var/include/messages.h **** 	} else
2797:/home/dino/paparazzi/var/include/messages.h **** 	  trans->overrun(trans->impl, dev);
2798:/home/dino/paparazzi/var/include/messages.h **** }
2799:/home/dino/paparazzi/var/include/messages.h **** 
2800:/home/dino/paparazzi/var/include/messages.h **** #define DOWNLINK_SEND_INS_Z(_trans, _dev, baro_z, ins_z, ins_zd, ins_zdd) pprz_msg_send_INS_Z(&((_t
2801:/home/dino/paparazzi/var/include/messages.h **** static inline void pprz_msg_send_INS_Z(struct transport_tx *trans, struct link_device *dev, uint8_t
2802:/home/dino/paparazzi/var/include/messages.h **** 	if (trans->check_available_space(trans->impl, dev, trans->size_of(trans->impl, 0+4+4+4+4 +2 /* msg
2803:/home/dino/paparazzi/var/include/messages.h **** 	  trans->count_bytes(trans->impl, dev, trans->size_of(trans->impl, 0+4+4+4+4 +2 /* msg header over
2804:/home/dino/paparazzi/var/include/messages.h **** 	  trans->start_message(trans->impl, dev, 0+4+4+4+4 +2 /* msg header overhead */);
2805:/home/dino/paparazzi/var/include/messages.h **** 	  trans->put_bytes(trans->impl, dev, DL_TYPE_UINT8, DL_FORMAT_SCALAR, 1, &ac_id);
2806:/home/dino/paparazzi/var/include/messages.h **** 	  trans->put_named_byte(trans->impl, dev, DL_TYPE_UINT8, DL_FORMAT_SCALAR, DL_INS_Z, "INS_Z");
2807:/home/dino/paparazzi/var/include/messages.h **** 	  trans->put_bytes(trans->impl, dev, DL_TYPE_FLOAT, DL_FORMAT_SCALAR, 4, (void *) _baro_z);
2808:/home/dino/paparazzi/var/include/messages.h **** 	  trans->put_bytes(trans->impl, dev, DL_TYPE_INT32, DL_FORMAT_SCALAR, 4, (void *) _ins_z);
2809:/home/dino/paparazzi/var/include/messages.h **** 	  trans->put_bytes(trans->impl, dev, DL_TYPE_INT32, DL_FORMAT_SCALAR, 4, (void *) _ins_zd);
2810:/home/dino/paparazzi/var/include/messages.h **** 	  trans->put_bytes(trans->impl, dev, DL_TYPE_INT32, DL_FORMAT_SCALAR, 4, (void *) _ins_zdd);
2811:/home/dino/paparazzi/var/include/messages.h **** 	  trans->end_message(trans->impl, dev);
2812:/home/dino/paparazzi/var/include/messages.h **** 	} else
2813:/home/dino/paparazzi/var/include/messages.h **** 	  trans->overrun(trans->impl, dev);
2814:/home/dino/paparazzi/var/include/messages.h **** }
2815:/home/dino/paparazzi/var/include/messages.h **** 
2816:/home/dino/paparazzi/var/include/messages.h **** #define DOWNLINK_SEND_PCAP01_STATUS(_trans, _dev, ihumid, itemp, humid, temp) pprz_msg_send_PCAP01_
2817:/home/dino/paparazzi/var/include/messages.h **** static inline void pprz_msg_send_PCAP01_STATUS(struct transport_tx *trans, struct link_device *dev,
2818:/home/dino/paparazzi/var/include/messages.h **** 	if (trans->check_available_space(trans->impl, dev, trans->size_of(trans->impl, 0+4+4+4+4 +2 /* msg
2819:/home/dino/paparazzi/var/include/messages.h **** 	  trans->count_bytes(trans->impl, dev, trans->size_of(trans->impl, 0+4+4+4+4 +2 /* msg header over
2820:/home/dino/paparazzi/var/include/messages.h **** 	  trans->start_message(trans->impl, dev, 0+4+4+4+4 +2 /* msg header overhead */);
2821:/home/dino/paparazzi/var/include/messages.h **** 	  trans->put_bytes(trans->impl, dev, DL_TYPE_UINT8, DL_FORMAT_SCALAR, 1, &ac_id);
2822:/home/dino/paparazzi/var/include/messages.h **** 	  trans->put_named_byte(trans->impl, dev, DL_TYPE_UINT8, DL_FORMAT_SCALAR, DL_PCAP01_STATUS, "PCAP
2823:/home/dino/paparazzi/var/include/messages.h **** 	  trans->put_bytes(trans->impl, dev, DL_TYPE_UINT32, DL_FORMAT_SCALAR, 4, (void *) _ihumid);
2824:/home/dino/paparazzi/var/include/messages.h **** 	  trans->put_bytes(trans->impl, dev, DL_TYPE_UINT32, DL_FORMAT_SCALAR, 4, (void *) _itemp);
2825:/home/dino/paparazzi/var/include/messages.h **** 	  trans->put_bytes(trans->impl, dev, DL_TYPE_FLOAT, DL_FORMAT_SCALAR, 4, (void *) _humid);
2826:/home/dino/paparazzi/var/include/messages.h **** 	  trans->put_bytes(trans->impl, dev, DL_TYPE_FLOAT, DL_FORMAT_SCALAR, 4, (void *) _temp);
2827:/home/dino/paparazzi/var/include/messages.h **** 	  trans->end_message(trans->impl, dev);
2828:/home/dino/paparazzi/var/include/messages.h **** 	} else
2829:/home/dino/paparazzi/var/include/messages.h **** 	  trans->overrun(trans->impl, dev);
2830:/home/dino/paparazzi/var/include/messages.h **** }
2831:/home/dino/paparazzi/var/include/messages.h **** 
2832:/home/dino/paparazzi/var/include/messages.h **** #define DOWNLINK_SEND_GEIGER_COUNTER(_trans, _dev, tube1, tube2, vsupply) pprz_msg_send_GEIGER_COUN
2833:/home/dino/paparazzi/var/include/messages.h **** static inline void pprz_msg_send_GEIGER_COUNTER(struct transport_tx *trans, struct link_device *dev
2834:/home/dino/paparazzi/var/include/messages.h **** 	if (trans->check_available_space(trans->impl, dev, trans->size_of(trans->impl, 0+4+4+2 +2 /* msg h
2835:/home/dino/paparazzi/var/include/messages.h **** 	  trans->count_bytes(trans->impl, dev, trans->size_of(trans->impl, 0+4+4+2 +2 /* msg header overhe
2836:/home/dino/paparazzi/var/include/messages.h **** 	  trans->start_message(trans->impl, dev, 0+4+4+2 +2 /* msg header overhead */);
2837:/home/dino/paparazzi/var/include/messages.h **** 	  trans->put_bytes(trans->impl, dev, DL_TYPE_UINT8, DL_FORMAT_SCALAR, 1, &ac_id);
2838:/home/dino/paparazzi/var/include/messages.h **** 	  trans->put_named_byte(trans->impl, dev, DL_TYPE_UINT8, DL_FORMAT_SCALAR, DL_GEIGER_COUNTER, "GEI
2839:/home/dino/paparazzi/var/include/messages.h **** 	  trans->put_bytes(trans->impl, dev, DL_TYPE_UINT32, DL_FORMAT_SCALAR, 4, (void *) _tube1);
2840:/home/dino/paparazzi/var/include/messages.h **** 	  trans->put_bytes(trans->impl, dev, DL_TYPE_UINT32, DL_FORMAT_SCALAR, 4, (void *) _tube2);
2841:/home/dino/paparazzi/var/include/messages.h **** 	  trans->put_bytes(trans->impl, dev, DL_TYPE_UINT16, DL_FORMAT_SCALAR, 2, (void *) _vsupply);
2842:/home/dino/paparazzi/var/include/messages.h **** 	  trans->end_message(trans->impl, dev);
2843:/home/dino/paparazzi/var/include/messages.h **** 	} else
2844:/home/dino/paparazzi/var/include/messages.h **** 	  trans->overrun(trans->impl, dev);
2845:/home/dino/paparazzi/var/include/messages.h **** }
2846:/home/dino/paparazzi/var/include/messages.h **** 
2847:/home/dino/paparazzi/var/include/messages.h **** #define DOWNLINK_SEND_INS_REF(_trans, _dev, ecef_x0, ecef_y0, ecef_z0, lat0, lon0, alt0, hmsl0, bar
2848:/home/dino/paparazzi/var/include/messages.h **** static inline void pprz_msg_send_INS_REF(struct transport_tx *trans, struct link_device *dev, uint8
2849:/home/dino/paparazzi/var/include/messages.h **** 	if (trans->check_available_space(trans->impl, dev, trans->size_of(trans->impl, 0+4+4+4+4+4+4+4+4 +
2850:/home/dino/paparazzi/var/include/messages.h **** 	  trans->count_bytes(trans->impl, dev, trans->size_of(trans->impl, 0+4+4+4+4+4+4+4+4 +2 /* msg hea
2851:/home/dino/paparazzi/var/include/messages.h **** 	  trans->start_message(trans->impl, dev, 0+4+4+4+4+4+4+4+4 +2 /* msg header overhead */);
2852:/home/dino/paparazzi/var/include/messages.h **** 	  trans->put_bytes(trans->impl, dev, DL_TYPE_UINT8, DL_FORMAT_SCALAR, 1, &ac_id);
2853:/home/dino/paparazzi/var/include/messages.h **** 	  trans->put_named_byte(trans->impl, dev, DL_TYPE_UINT8, DL_FORMAT_SCALAR, DL_INS_REF, "INS_REF");
2854:/home/dino/paparazzi/var/include/messages.h **** 	  trans->put_bytes(trans->impl, dev, DL_TYPE_INT32, DL_FORMAT_SCALAR, 4, (void *) _ecef_x0);
2855:/home/dino/paparazzi/var/include/messages.h **** 	  trans->put_bytes(trans->impl, dev, DL_TYPE_INT32, DL_FORMAT_SCALAR, 4, (void *) _ecef_y0);
2856:/home/dino/paparazzi/var/include/messages.h **** 	  trans->put_bytes(trans->impl, dev, DL_TYPE_INT32, DL_FORMAT_SCALAR, 4, (void *) _ecef_z0);
2857:/home/dino/paparazzi/var/include/messages.h **** 	  trans->put_bytes(trans->impl, dev, DL_TYPE_INT32, DL_FORMAT_SCALAR, 4, (void *) _lat0);
2858:/home/dino/paparazzi/var/include/messages.h **** 	  trans->put_bytes(trans->impl, dev, DL_TYPE_INT32, DL_FORMAT_SCALAR, 4, (void *) _lon0);
2859:/home/dino/paparazzi/var/include/messages.h **** 	  trans->put_bytes(trans->impl, dev, DL_TYPE_INT32, DL_FORMAT_SCALAR, 4, (void *) _alt0);
2860:/home/dino/paparazzi/var/include/messages.h **** 	  trans->put_bytes(trans->impl, dev, DL_TYPE_INT32, DL_FORMAT_SCALAR, 4, (void *) _hmsl0);
2861:/home/dino/paparazzi/var/include/messages.h **** 	  trans->put_bytes(trans->impl, dev, DL_TYPE_FLOAT, DL_FORMAT_SCALAR, 4, (void *) _baro_qfe);
2862:/home/dino/paparazzi/var/include/messages.h **** 	  trans->end_message(trans->impl, dev);
2863:/home/dino/paparazzi/var/include/messages.h **** 	} else
2864:/home/dino/paparazzi/var/include/messages.h **** 	  trans->overrun(trans->impl, dev);
2865:/home/dino/paparazzi/var/include/messages.h **** }
2866:/home/dino/paparazzi/var/include/messages.h **** 
2867:/home/dino/paparazzi/var/include/messages.h **** #define DOWNLINK_SEND_GPS_INT(_trans, _dev, ecef_x, ecef_y, ecef_z, lat, lon, alt, hmsl, ecef_xd, e
2868:/home/dino/paparazzi/var/include/messages.h **** static inline void pprz_msg_send_GPS_INT(struct transport_tx *trans, struct link_device *dev, uint8
2869:/home/dino/paparazzi/var/include/messages.h **** 	if (trans->check_available_space(trans->impl, dev, trans->size_of(trans->impl, 0+4+4+4+4+4+4+4+4+4
 693              		.loc 2 2869 0
 694 0004 056A     		ldr	r5, [r0, #32]
 695 0006 4668     		ldr	r6, [r0, #4]
 696 0008 0368     		ldr	r3, [r0]
 697              	.LBE31:
 698              	.LBE30:
 102:subsystems/gps.c ****   pprz_msg_send_GPS_INT(trans, dev, AC_ID,
 699              		.loc 1 102 0
 700 000a 85B0     		sub	sp, sp, #20
 701              		.cfi_def_cfa_offset 48
 702 000c 4FF00108 		mov	r8, #1
 102:subsystems/gps.c ****   pprz_msg_send_GPS_INT(trans, dev, AC_ID,
 703              		.loc 1 102 0
 704 0010 0C46     		mov	r4, r1
 705              	.LVL66:
 706 0012 8146     		mov	r9, r0
 707              	.LBB33:
 708              	.LBB32:
 709              		.loc 2 2869 0
 710 0014 3A21     		movs	r1, #58
 711              	.LVL67:
 712 0016 8DF80F80 		strb	r8, [sp, #15]
 713              	.LVL68:
 714 001a 2846     		mov	r0, r5
 715              	.LVL69:
 716 001c 9847     		blx	r3
 717              	.LVL70:
 718 001e 2146     		mov	r1, r4
 719 0020 0246     		mov	r2, r0
 720 0022 2846     		mov	r0, r5
 721 0024 B047     		blx	r6
 722              	.LVL71:
 723 0026 0028     		cmp	r0, #0
 724 0028 00F0F180 		beq	.L25
2870:/home/dino/paparazzi/var/include/messages.h **** 	  trans->count_bytes(trans->impl, dev, trans->size_of(trans->impl, 0+4+4+4+4+4+4+4+4+4+4+4+4+4+2+1
 725              		.loc 2 2870 0
 726 002c D9F82050 		ldr	r5, [r9, #32]
 727 0030 D9F80030 		ldr	r3, [r9]
 728 0034 D9F81C60 		ldr	r6, [r9, #28]
 729 0038 2846     		mov	r0, r5
 730 003a 3A21     		movs	r1, #58
 731 003c 9847     		blx	r3
 732              	.LVL72:
 733 003e 2146     		mov	r1, r4
 734 0040 0246     		mov	r2, r0
 735 0042 2846     		mov	r0, r5
 736 0044 B047     		blx	r6
 737              	.LVL73:
2871:/home/dino/paparazzi/var/include/messages.h **** 	  trans->start_message(trans->impl, dev, 0+4+4+4+4+4+4+4+4+4+4+4+4+4+2+1+1 +2 /* msg header overhe
 738              		.loc 2 2871 0
 739 0046 D9F81030 		ldr	r3, [r9, #16]
 740 004a D9F82000 		ldr	r0, [r9, #32]
 741 004e 2146     		mov	r1, r4
 742 0050 3A22     		movs	r2, #58
 743 0052 9847     		blx	r3
 744              	.LVL74:
2872:/home/dino/paparazzi/var/include/messages.h **** 	  trans->put_bytes(trans->impl, dev, DL_TYPE_UINT8, DL_FORMAT_SCALAR, 1, &ac_id);
 745              		.loc 2 2872 0
 746 0054 0DF10F03 		add	r3, sp, #15
 747 0058 0193     		str	r3, [sp, #4]
 748 005a D9F80850 		ldr	r5, [r9, #8]
 749 005e D9F82000 		ldr	r0, [r9, #32]
 750 0062 CDF80080 		str	r8, [sp]
 751 0066 2146     		mov	r1, r4
 752 0068 0222     		movs	r2, #2
 753 006a 0023     		movs	r3, #0
 754 006c A847     		blx	r5
 755              	.LVL75:
2873:/home/dino/paparazzi/var/include/messages.h **** 	  trans->put_named_byte(trans->impl, dev, DL_TYPE_UINT8, DL_FORMAT_SCALAR, DL_GPS_INT, "GPS_INT");
 756              		.loc 2 2873 0
 757 006e 9B23     		movs	r3, #155
 758 0070 0093     		str	r3, [sp]
 759 0072 6D4B     		ldr	r3, .L28
 760 0074 0193     		str	r3, [sp, #4]
 761 0076 D9F80C50 		ldr	r5, [r9, #12]
 762 007a D9F82000 		ldr	r0, [r9, #32]
 763 007e 2146     		mov	r1, r4
 764 0080 0222     		movs	r2, #2
 765 0082 0023     		movs	r3, #0
2874:/home/dino/paparazzi/var/include/messages.h **** 	  trans->put_bytes(trans->impl, dev, DL_TYPE_INT32, DL_FORMAT_SCALAR, 4, (void *) _ecef_x);
 766              		.loc 2 2874 0
 767 0084 0426     		movs	r6, #4
2873:/home/dino/paparazzi/var/include/messages.h **** 	  trans->put_named_byte(trans->impl, dev, DL_TYPE_UINT8, DL_FORMAT_SCALAR, DL_GPS_INT, "GPS_INT");
 768              		.loc 2 2873 0
 769 0086 A847     		blx	r5
 770              	.LVL76:
 771              		.loc 2 2874 0
 772 0088 684D     		ldr	r5, .L28+4
 773 008a 0096     		str	r6, [sp]
 774 008c 0195     		str	r5, [sp, #4]
 775 008e D9F80870 		ldr	r7, [r9, #8]
 776 0092 D9F82000 		ldr	r0, [r9, #32]
 777 0096 2146     		mov	r1, r4
 778 0098 0722     		movs	r2, #7
 779 009a 0023     		movs	r3, #0
 780 009c B847     		blx	r7
 781              	.LVL77:
2875:/home/dino/paparazzi/var/include/messages.h **** 	  trans->put_bytes(trans->impl, dev, DL_TYPE_INT32, DL_FORMAT_SCALAR, 4, (void *) _ecef_y);
 782              		.loc 2 2875 0
 783 009e AB19     		adds	r3, r5, r6
 784 00a0 0096     		str	r6, [sp]
 785 00a2 0193     		str	r3, [sp, #4]
 786 00a4 D9F80870 		ldr	r7, [r9, #8]
 787 00a8 D9F82000 		ldr	r0, [r9, #32]
 788 00ac 2146     		mov	r1, r4
 789 00ae 0722     		movs	r2, #7
 790 00b0 0023     		movs	r3, #0
 791 00b2 B847     		blx	r7
 792              	.LVL78:
2876:/home/dino/paparazzi/var/include/messages.h **** 	  trans->put_bytes(trans->impl, dev, DL_TYPE_INT32, DL_FORMAT_SCALAR, 4, (void *) _ecef_z);
 793              		.loc 2 2876 0
 794 00b4 05F10803 		add	r3, r5, #8
 795 00b8 0096     		str	r6, [sp]
 796 00ba 0193     		str	r3, [sp, #4]
 797 00bc D9F80870 		ldr	r7, [r9, #8]
 798 00c0 D9F82000 		ldr	r0, [r9, #32]
 799 00c4 2146     		mov	r1, r4
 800 00c6 0722     		movs	r2, #7
 801 00c8 0023     		movs	r3, #0
 802 00ca B847     		blx	r7
 803              	.LVL79:
2877:/home/dino/paparazzi/var/include/messages.h **** 	  trans->put_bytes(trans->impl, dev, DL_TYPE_INT32, DL_FORMAT_SCALAR, 4, (void *) _lat);
 804              		.loc 2 2877 0
 805 00cc 05F10C03 		add	r3, r5, #12
 806 00d0 0096     		str	r6, [sp]
 807 00d2 0193     		str	r3, [sp, #4]
 808 00d4 D9F80870 		ldr	r7, [r9, #8]
 809 00d8 D9F82000 		ldr	r0, [r9, #32]
 810 00dc 2146     		mov	r1, r4
 811 00de 0722     		movs	r2, #7
 812 00e0 0023     		movs	r3, #0
 813 00e2 B847     		blx	r7
 814              	.LVL80:
2878:/home/dino/paparazzi/var/include/messages.h **** 	  trans->put_bytes(trans->impl, dev, DL_TYPE_INT32, DL_FORMAT_SCALAR, 4, (void *) _lon);
 815              		.loc 2 2878 0
 816 00e4 05F11003 		add	r3, r5, #16
 817 00e8 0096     		str	r6, [sp]
 818 00ea 0193     		str	r3, [sp, #4]
 819 00ec D9F80870 		ldr	r7, [r9, #8]
 820 00f0 D9F82000 		ldr	r0, [r9, #32]
 821 00f4 2146     		mov	r1, r4
 822 00f6 0722     		movs	r2, #7
 823 00f8 0023     		movs	r3, #0
 824 00fa B847     		blx	r7
 825              	.LVL81:
2879:/home/dino/paparazzi/var/include/messages.h **** 	  trans->put_bytes(trans->impl, dev, DL_TYPE_INT32, DL_FORMAT_SCALAR, 4, (void *) _alt);
 826              		.loc 2 2879 0
 827 00fc 05F11403 		add	r3, r5, #20
 828 0100 0096     		str	r6, [sp]
 829 0102 0193     		str	r3, [sp, #4]
 830 0104 D9F80870 		ldr	r7, [r9, #8]
 831 0108 D9F82000 		ldr	r0, [r9, #32]
 832 010c 2146     		mov	r1, r4
 833 010e 0722     		movs	r2, #7
 834 0110 0023     		movs	r3, #0
 835 0112 B847     		blx	r7
 836              	.LVL82:
2880:/home/dino/paparazzi/var/include/messages.h **** 	  trans->put_bytes(trans->impl, dev, DL_TYPE_INT32, DL_FORMAT_SCALAR, 4, (void *) _hmsl);
 837              		.loc 2 2880 0
 838 0114 05F12803 		add	r3, r5, #40
 839 0118 0096     		str	r6, [sp]
 840 011a 0193     		str	r3, [sp, #4]
 841 011c D9F80870 		ldr	r7, [r9, #8]
 842 0120 D9F82000 		ldr	r0, [r9, #32]
 843 0124 2146     		mov	r1, r4
 844 0126 0722     		movs	r2, #7
 845 0128 0023     		movs	r3, #0
 846 012a B847     		blx	r7
 847              	.LVL83:
2881:/home/dino/paparazzi/var/include/messages.h **** 	  trans->put_bytes(trans->impl, dev, DL_TYPE_INT32, DL_FORMAT_SCALAR, 4, (void *) _ecef_xd);
 848              		.loc 2 2881 0
 849 012c 05F12C03 		add	r3, r5, #44
 850 0130 0096     		str	r6, [sp]
 851 0132 0193     		str	r3, [sp, #4]
 852 0134 D9F80870 		ldr	r7, [r9, #8]
 853 0138 D9F82000 		ldr	r0, [r9, #32]
 854 013c 2146     		mov	r1, r4
 855 013e 0722     		movs	r2, #7
 856 0140 0023     		movs	r3, #0
 857 0142 B847     		blx	r7
 858              	.LVL84:
2882:/home/dino/paparazzi/var/include/messages.h **** 	  trans->put_bytes(trans->impl, dev, DL_TYPE_INT32, DL_FORMAT_SCALAR, 4, (void *) _ecef_yd);
 859              		.loc 2 2882 0
 860 0144 05F13003 		add	r3, r5, #48
 861 0148 0096     		str	r6, [sp]
 862 014a 0193     		str	r3, [sp, #4]
 863 014c D9F80870 		ldr	r7, [r9, #8]
 864 0150 D9F82000 		ldr	r0, [r9, #32]
 865 0154 2146     		mov	r1, r4
 866 0156 0722     		movs	r2, #7
 867 0158 0023     		movs	r3, #0
 868 015a B847     		blx	r7
 869              	.LVL85:
2883:/home/dino/paparazzi/var/include/messages.h **** 	  trans->put_bytes(trans->impl, dev, DL_TYPE_INT32, DL_FORMAT_SCALAR, 4, (void *) _ecef_zd);
 870              		.loc 2 2883 0
 871 015c 05F13403 		add	r3, r5, #52
 872 0160 0096     		str	r6, [sp]
 873 0162 0193     		str	r3, [sp, #4]
 874 0164 D9F80870 		ldr	r7, [r9, #8]
 875 0168 D9F82000 		ldr	r0, [r9, #32]
 876 016c 2146     		mov	r1, r4
 877 016e 0722     		movs	r2, #7
 878 0170 0023     		movs	r3, #0
 879 0172 B847     		blx	r7
 880              	.LVL86:
2884:/home/dino/paparazzi/var/include/messages.h **** 	  trans->put_bytes(trans->impl, dev, DL_TYPE_UINT32, DL_FORMAT_SCALAR, 4, (void *) _pacc);
 881              		.loc 2 2884 0
 882 0174 05F14C03 		add	r3, r5, #76
 883 0178 0096     		str	r6, [sp]
 884 017a 0193     		str	r3, [sp, #4]
 885 017c D9F80870 		ldr	r7, [r9, #8]
 886 0180 D9F82000 		ldr	r0, [r9, #32]
 887 0184 2146     		mov	r1, r4
 888 0186 0622     		movs	r2, #6
 889 0188 0023     		movs	r3, #0
 890 018a B847     		blx	r7
 891              	.LVL87:
2885:/home/dino/paparazzi/var/include/messages.h **** 	  trans->put_bytes(trans->impl, dev, DL_TYPE_UINT32, DL_FORMAT_SCALAR, 4, (void *) _sacc);
 892              		.loc 2 2885 0
 893 018c 05F15003 		add	r3, r5, #80
 894 0190 0096     		str	r6, [sp]
 895 0192 0193     		str	r3, [sp, #4]
 896 0194 D9F80870 		ldr	r7, [r9, #8]
 897 0198 D9F82000 		ldr	r0, [r9, #32]
 898 019c 2146     		mov	r1, r4
 899 019e 0622     		movs	r2, #6
 900 01a0 0023     		movs	r3, #0
 901 01a2 B847     		blx	r7
 902              	.LVL88:
2886:/home/dino/paparazzi/var/include/messages.h **** 	  trans->put_bytes(trans->impl, dev, DL_TYPE_UINT32, DL_FORMAT_SCALAR, 4, (void *) _tow);
 903              		.loc 2 2886 0
 904 01a4 05F16003 		add	r3, r5, #96
 905 01a8 0096     		str	r6, [sp]
 906 01aa 0193     		str	r3, [sp, #4]
 907 01ac D9F80870 		ldr	r7, [r9, #8]
 908 01b0 D9F82000 		ldr	r0, [r9, #32]
 909 01b4 2146     		mov	r1, r4
 910 01b6 0622     		movs	r2, #6
 911 01b8 0023     		movs	r3, #0
 912 01ba B847     		blx	r7
 913              	.LVL89:
2887:/home/dino/paparazzi/var/include/messages.h **** 	  trans->put_bytes(trans->impl, dev, DL_TYPE_UINT16, DL_FORMAT_SCALAR, 2, (void *) _pdop);
 914              		.loc 2 2887 0
 915 01bc 0227     		movs	r7, #2
 916 01be 05F15803 		add	r3, r5, #88
 917 01c2 3246     		mov	r2, r6
 918 01c4 0193     		str	r3, [sp, #4]
 919 01c6 D9F82000 		ldr	r0, [r9, #32]
 920 01ca D9F80860 		ldr	r6, [r9, #8]
 921 01ce 0097     		str	r7, [sp]
 922 01d0 2146     		mov	r1, r4
 923 01d2 0023     		movs	r3, #0
 924 01d4 B047     		blx	r6
 925              	.LVL90:
2888:/home/dino/paparazzi/var/include/messages.h **** 	  trans->put_bytes(trans->impl, dev, DL_TYPE_UINT8, DL_FORMAT_SCALAR, 1, (void *) _numsv);
 926              		.loc 2 2888 0
 927 01d6 05F15A03 		add	r3, r5, #90
 928 01da 0193     		str	r3, [sp, #4]
 929 01dc D9F82000 		ldr	r0, [r9, #32]
 930 01e0 CDF80080 		str	r8, [sp]
 931 01e4 2146     		mov	r1, r4
 932 01e6 3A46     		mov	r2, r7
 933 01e8 0023     		movs	r3, #0
2889:/home/dino/paparazzi/var/include/messages.h **** 	  trans->put_bytes(trans->impl, dev, DL_TYPE_UINT8, DL_FORMAT_SCALAR, 1, (void *) _fix);
 934              		.loc 2 2889 0
 935 01ea 5B35     		adds	r5, r5, #91
2888:/home/dino/paparazzi/var/include/messages.h **** 	  trans->put_bytes(trans->impl, dev, DL_TYPE_UINT8, DL_FORMAT_SCALAR, 1, (void *) _numsv);
 936              		.loc 2 2888 0
 937 01ec D9F80860 		ldr	r6, [r9, #8]
 938 01f0 B047     		blx	r6
 939              	.LVL91:
 940              		.loc 2 2889 0
 941 01f2 0195     		str	r5, [sp, #4]
 942 01f4 0023     		movs	r3, #0
 943 01f6 CDF80080 		str	r8, [sp]
 944 01fa D9F80850 		ldr	r5, [r9, #8]
 945 01fe D9F82000 		ldr	r0, [r9, #32]
 946 0202 2146     		mov	r1, r4
 947 0204 3A46     		mov	r2, r7
 948 0206 A847     		blx	r5
 949              	.LVL92:
2890:/home/dino/paparazzi/var/include/messages.h **** 	  trans->end_message(trans->impl, dev);
 950              		.loc 2 2890 0
 951 0208 D9F81430 		ldr	r3, [r9, #20]
 952 020c 01E0     		b	.L27
 953              	.L25:
2891:/home/dino/paparazzi/var/include/messages.h **** 	} else
2892:/home/dino/paparazzi/var/include/messages.h **** 	  trans->overrun(trans->impl, dev);
 954              		.loc 2 2892 0
 955 020e D9F81830 		ldr	r3, [r9, #24]
 956              	.L27:
 957 0212 D9F82000 		ldr	r0, [r9, #32]
 958 0216 2146     		mov	r1, r4
 959 0218 9847     		blx	r3
 960              	.LVL93:
 961              	.LBE32:
 962              	.LBE33:
 114:subsystems/gps.c **** }
 963              		.loc 1 114 0
 964 021a 4846     		mov	r0, r9
 965 021c 2146     		mov	r1, r4
 966 021e FFF7FEFF 		bl	send_svinfo_available
 967              	.LVL94:
 115:subsystems/gps.c **** 
 968              		.loc 1 115 0
 969 0222 05B0     		add	sp, sp, #20
 970              		.cfi_def_cfa_offset 28
 971              		@ sp needed
 972 0224 BDE8F083 		pop	{r4, r5, r6, r7, r8, r9, pc}
 973              	.LVL95:
 974              	.L29:
 975              		.align	2
 976              	.L28:
 977 0228 0F000000 		.word	.LC2
 978 022c 00000000 		.word	.LANCHOR0
 979              		.cfi_endproc
 980              	.LFE329:
 982              		.section	.text.send_gps_sol,"ax",%progbits
 983              		.align	1
 984              		.thumb
 985              		.thumb_func
 987              	send_gps_sol:
 988              	.LFB331:
 128:subsystems/gps.c **** 
 129:subsystems/gps.c **** static void send_gps_sol(struct transport_tx *trans, struct link_device *dev)
 130:subsystems/gps.c **** {
 989              		.loc 1 130 0
 990              		.cfi_startproc
 991              		@ args = 0, pretend = 0, frame = 8
 992              		@ frame_needed = 0, uses_anonymous_args = 0
 993              	.LVL96:
 994 0000 2DE9FF47 		push	{r0, r1, r2, r3, r4, r5, r6, r7, r8, r9, r10, lr}
 995              		.cfi_def_cfa_offset 48
 996              		.cfi_offset 4, -32
 997              		.cfi_offset 5, -28
 998              		.cfi_offset 6, -24
 999              		.cfi_offset 7, -20
 1000              		.cfi_offset 8, -16
 1001              		.cfi_offset 9, -12
 1002              		.cfi_offset 10, -8
 1003              		.cfi_offset 14, -4
 1004              	.LBB36:
 1005              	.LBB37:
 540:/home/dino/paparazzi/var/include/messages.h **** 	  trans->count_bytes(trans->impl, dev, trans->size_of(trans->impl, 0+4+4+2+1 +2 /* msg header over
 1006              		.loc 2 540 0
 1007 0004 066A     		ldr	r6, [r0, #32]
 1008 0006 4768     		ldr	r7, [r0, #4]
 1009 0008 0368     		ldr	r3, [r0]
 1010 000a 4FF00108 		mov	r8, #1
 1011              	.LBE37:
 1012              	.LBE36:
 1013              		.loc 1 130 0
 1014 000e 0D46     		mov	r5, r1
 1015              	.LVL97:
 1016 0010 0446     		mov	r4, r0
 1017              	.LBB39:
 1018              	.LBB38:
 540:/home/dino/paparazzi/var/include/messages.h **** 	  trans->count_bytes(trans->impl, dev, trans->size_of(trans->impl, 0+4+4+2+1 +2 /* msg header over
 1019              		.loc 2 540 0
 1020 0012 0D21     		movs	r1, #13
 1021              	.LVL98:
 1022 0014 8DF80F80 		strb	r8, [sp, #15]
 1023              	.LVL99:
 1024 0018 3046     		mov	r0, r6
 1025              	.LVL100:
 1026 001a 9847     		blx	r3
 1027              	.LVL101:
 1028 001c 2946     		mov	r1, r5
 1029 001e 0246     		mov	r2, r0
 1030 0020 3046     		mov	r0, r6
 1031 0022 B847     		blx	r7
 1032              	.LVL102:
 1033 0024 0028     		cmp	r0, #0
 1034 0026 53D0     		beq	.L31
 541:/home/dino/paparazzi/var/include/messages.h **** 	  trans->start_message(trans->impl, dev, 0+4+4+2+1 +2 /* msg header overhead */);
 1035              		.loc 2 541 0
 1036 0028 266A     		ldr	r6, [r4, #32]
 1037 002a 2368     		ldr	r3, [r4]
 1038 002c E769     		ldr	r7, [r4, #28]
 1039 002e 3046     		mov	r0, r6
 1040 0030 0D21     		movs	r1, #13
 1041 0032 9847     		blx	r3
 1042              	.LVL103:
 1043 0034 2946     		mov	r1, r5
 1044 0036 0246     		mov	r2, r0
 1045 0038 3046     		mov	r0, r6
 1046 003a B847     		blx	r7
 1047              	.LVL104:
 542:/home/dino/paparazzi/var/include/messages.h **** 	  trans->put_bytes(trans->impl, dev, DL_TYPE_UINT8, DL_FORMAT_SCALAR, 1, &ac_id);
 1048              		.loc 2 542 0
 1049 003c 2369     		ldr	r3, [r4, #16]
 1050 003e 206A     		ldr	r0, [r4, #32]
 1051 0040 2946     		mov	r1, r5
 1052 0042 0D22     		movs	r2, #13
 1053 0044 9847     		blx	r3
 1054              	.LVL105:
 543:/home/dino/paparazzi/var/include/messages.h **** 	  trans->put_named_byte(trans->impl, dev, DL_TYPE_UINT8, DL_FORMAT_SCALAR, DL_GPS_SOL, "GPS_SOL");
 1055              		.loc 2 543 0
 1056 0046 0DF10F03 		add	r3, sp, #15
 1057 004a 0193     		str	r3, [sp, #4]
 1058 004c A668     		ldr	r6, [r4, #8]
 1059 004e 206A     		ldr	r0, [r4, #32]
 1060 0050 CDF80080 		str	r8, [sp]
 1061 0054 2946     		mov	r1, r5
 1062 0056 0222     		movs	r2, #2
 1063 0058 0023     		movs	r3, #0
 1064 005a B047     		blx	r6
 1065              	.LVL106:
 544:/home/dino/paparazzi/var/include/messages.h **** 	  trans->put_bytes(trans->impl, dev, DL_TYPE_UINT32, DL_FORMAT_SCALAR, 4, (void *) _Pacc);
 1066              		.loc 2 544 0
 1067 005c 1123     		movs	r3, #17
 1068 005e 0093     		str	r3, [sp]
 1069 0060 1F4B     		ldr	r3, .L34
 1070 0062 0193     		str	r3, [sp, #4]
 1071 0064 E668     		ldr	r6, [r4, #12]
 1072 0066 206A     		ldr	r0, [r4, #32]
 1073 0068 2946     		mov	r1, r5
 1074 006a 0222     		movs	r2, #2
 1075 006c 0023     		movs	r3, #0
 1076 006e B047     		blx	r6
 1077              	.LVL107:
 545:/home/dino/paparazzi/var/include/messages.h **** 	  trans->put_bytes(trans->impl, dev, DL_TYPE_UINT32, DL_FORMAT_SCALAR, 4, (void *) _Sacc);
 1078              		.loc 2 545 0
 1079 0070 4FF00409 		mov	r9, #4
 1080 0074 1B4E     		ldr	r6, .L34+4
 1081 0076 0196     		str	r6, [sp, #4]
 1082 0078 A768     		ldr	r7, [r4, #8]
 1083 007a 206A     		ldr	r0, [r4, #32]
 1084 007c CDF80090 		str	r9, [sp]
 1085 0080 2946     		mov	r1, r5
 1086 0082 0622     		movs	r2, #6
 1087 0084 0023     		movs	r3, #0
 1088 0086 B847     		blx	r7
 1089              	.LVL108:
 546:/home/dino/paparazzi/var/include/messages.h **** 	  trans->put_bytes(trans->impl, dev, DL_TYPE_UINT16, DL_FORMAT_SCALAR, 2, (void *) _PDOP);
 1090              		.loc 2 546 0
 1091 0088 06EB0903 		add	r3, r6, r9
 1092 008c 0193     		str	r3, [sp, #4]
 1093 008e A768     		ldr	r7, [r4, #8]
 1094 0090 206A     		ldr	r0, [r4, #32]
 1095 0092 CDF80090 		str	r9, [sp]
 1096 0096 2946     		mov	r1, r5
 1097 0098 0622     		movs	r2, #6
 1098 009a 0023     		movs	r3, #0
 1099 009c B847     		blx	r7
 1100              	.LVL109:
 547:/home/dino/paparazzi/var/include/messages.h **** 	  trans->put_bytes(trans->impl, dev, DL_TYPE_UINT8, DL_FORMAT_SCALAR, 1, (void *) _numSV);
 1101              		.loc 2 547 0
 1102 009e 4FF0020A 		mov	r10, #2
 1103 00a2 06F10C03 		add	r3, r6, #12
 1104 00a6 0193     		str	r3, [sp, #4]
 1105 00a8 206A     		ldr	r0, [r4, #32]
 1106 00aa CDF800A0 		str	r10, [sp]
 1107 00ae 2946     		mov	r1, r5
 1108 00b0 4A46     		mov	r2, r9
 1109 00b2 0023     		movs	r3, #0
 548:/home/dino/paparazzi/var/include/messages.h **** 	  trans->end_message(trans->impl, dev);
 1110              		.loc 2 548 0
 1111 00b4 0E36     		adds	r6, r6, #14
 547:/home/dino/paparazzi/var/include/messages.h **** 	  trans->put_bytes(trans->impl, dev, DL_TYPE_UINT8, DL_FORMAT_SCALAR, 1, (void *) _numSV);
 1112              		.loc 2 547 0
 1113 00b6 A768     		ldr	r7, [r4, #8]
 1114 00b8 B847     		blx	r7
 1115              	.LVL110:
 548:/home/dino/paparazzi/var/include/messages.h **** 	  trans->end_message(trans->impl, dev);
 1116              		.loc 2 548 0
 1117 00ba 0196     		str	r6, [sp, #4]
 1118 00bc 0023     		movs	r3, #0
 1119 00be CDF80080 		str	r8, [sp]
 1120 00c2 A668     		ldr	r6, [r4, #8]
 1121 00c4 206A     		ldr	r0, [r4, #32]
 1122 00c6 2946     		mov	r1, r5
 1123 00c8 5246     		mov	r2, r10
 1124 00ca B047     		blx	r6
 1125              	.LVL111:
 549:/home/dino/paparazzi/var/include/messages.h **** 	} else
 1126              		.loc 2 549 0
 1127 00cc 6369     		ldr	r3, [r4, #20]
 1128 00ce 00E0     		b	.L33
 1129              	.L31:
 551:/home/dino/paparazzi/var/include/messages.h **** }
 1130              		.loc 2 551 0
 1131 00d0 A369     		ldr	r3, [r4, #24]
 1132              	.L33:
 1133 00d2 206A     		ldr	r0, [r4, #32]
 1134 00d4 2946     		mov	r1, r5
 1135 00d6 9847     		blx	r3
 1136              	.LVL112:
 1137              	.LBE38:
 1138              	.LBE39:
 131:subsystems/gps.c ****   pprz_msg_send_GPS_SOL(trans, dev, AC_ID, &gps.pacc, &gps.sacc, &gps.pdop, &gps.num_sv);
 132:subsystems/gps.c **** }
 1139              		.loc 1 132 0
 1140 00d8 04B0     		add	sp, sp, #16
 1141              		.cfi_def_cfa_offset 32
 1142              		@ sp needed
 1143 00da BDE8F087 		pop	{r4, r5, r6, r7, r8, r9, r10, pc}
 1144              	.LVL113:
 1145              	.L35:
 1146 00de 00BF     		.align	2
 1147              	.L34:
 1148 00e0 17000000 		.word	.LC3
 1149 00e4 4C000000 		.word	.LANCHOR0+76
 1150              		.cfi_endproc
 1151              	.LFE331:
 1153              		.section	.text.send_gps,"ax",%progbits
 1154              		.align	1
 1155              		.thumb
 1156              		.thumb_func
 1158              	send_gps:
 1159              	.LFB328:
  89:subsystems/gps.c ****   uint8_t zero = 0;
 1160              		.loc 1 89 0
 1161              		.cfi_startproc
 1162              		@ args = 0, pretend = 0, frame = 8
 1163              		@ frame_needed = 0, uses_anonymous_args = 0
 1164              	.LVL114:
 1165 0000 2DE9F04F 		push	{r4, r5, r6, r7, r8, r9, r10, fp, lr}
 1166              		.cfi_def_cfa_offset 36
 1167              		.cfi_offset 4, -36
 1168              		.cfi_offset 5, -32
 1169              		.cfi_offset 6, -28
 1170              		.cfi_offset 7, -24
 1171              		.cfi_offset 8, -20
 1172              		.cfi_offset 9, -16
 1173              		.cfi_offset 10, -12
 1174              		.cfi_offset 11, -8
 1175              		.cfi_offset 14, -4
  91:subsystems/gps.c ****   int16_t course = (DegOfRad(gps.course) / ((int32_t)1e6));
 1176              		.loc 1 91 0
 1177 0004 824E     		ldr	r6, .L40+16
 1178 0006 336C     		ldr	r3, [r6, #64]
  89:subsystems/gps.c ****   uint8_t zero = 0;
 1179              		.loc 1 89 0
 1180 0008 85B0     		sub	sp, sp, #20
 1181              		.cfi_def_cfa_offset 56
  89:subsystems/gps.c ****   uint8_t zero = 0;
 1182              		.loc 1 89 0
 1183 000a 8346     		mov	fp, r0
  91:subsystems/gps.c ****   int16_t course = (DegOfRad(gps.course) / ((int32_t)1e6));
 1184              		.loc 1 91 0
 1185 000c 5B42     		negs	r3, r3
  92:subsystems/gps.c ****   pprz_msg_send_GPS(trans, dev, AC_ID, &gps.fix,
 1186              		.loc 1 92 0
 1187 000e B06C     		ldr	r0, [r6, #72]
 1188              	.LVL115:
  91:subsystems/gps.c ****   int16_t course = (DegOfRad(gps.course) / ((int32_t)1e6));
 1189              		.loc 1 91 0
 1190 0010 ADF80C30 		strh	r3, [sp, #12]	@ movhi
  90:subsystems/gps.c ****   int16_t climb = -gps.ned_vel.z;
 1191              		.loc 1 90 0
 1192 0014 0025     		movs	r5, #0
  89:subsystems/gps.c ****   uint8_t zero = 0;
 1193              		.loc 1 89 0
 1194 0016 0C46     		mov	r4, r1
  90:subsystems/gps.c ****   int16_t climb = -gps.ned_vel.z;
 1195              		.loc 1 90 0
 1196 0018 8DF80A50 		strb	r5, [sp, #10]
  92:subsystems/gps.c ****   pprz_msg_send_GPS(trans, dev, AC_ID, &gps.fix,
 1197              		.loc 1 92 0
 1198 001c FFF7FEFF 		bl	__aeabi_i2d
 1199              	.LVL116:
 1200 0020 77A3     		adr	r3, .L40
 1201 0022 D3E90023 		ldrd	r2, [r3]
 1202 0026 FFF7FEFF 		bl	__aeabi_dmul
 1203              	.LVL117:
 1204 002a 77A3     		adr	r3, .L40+8
 1205 002c D3E90023 		ldrd	r2, [r3]
 1206 0030 FFF7FEFF 		bl	__aeabi_ddiv
 1207              	.LVL118:
 1208 0034 FFF7FEFF 		bl	__aeabi_d2iz
 1209              	.LVL119:
 1210              	.LBB42:
 1211              	.LBB43:
 380:/home/dino/paparazzi/var/include/messages.h **** 	  trans->count_bytes(trans->impl, dev, trans->size_of(trans->impl, 0+1+4+4+2+4+2+2+2+4+1+1 +2 /* m
 1212              		.loc 2 380 0
 1213 0038 DBF82070 		ldr	r7, [fp, #32]
 1214              	.LBE43:
 1215              	.LBE42:
  92:subsystems/gps.c ****   pprz_msg_send_GPS(trans, dev, AC_ID, &gps.fix,
 1216              		.loc 1 92 0
 1217 003c ADF80E00 		strh	r0, [sp, #14]	@ movhi
 1218              	.LVL120:
 1219 0040 4FF0010A 		mov	r10, #1
 1220              	.LBB45:
 1221              	.LBB44:
 380:/home/dino/paparazzi/var/include/messages.h **** 	  trans->count_bytes(trans->impl, dev, trans->size_of(trans->impl, 0+1+4+4+2+4+2+2+2+4+1+1 +2 /* m
 1222              		.loc 2 380 0
 1223 0044 1D21     		movs	r1, #29
 1224 0046 8DF80BA0 		strb	r10, [sp, #11]
 1225              	.LVL121:
 1226 004a DBF80030 		ldr	r3, [fp]
 1227 004e DBF80480 		ldr	r8, [fp, #4]
 1228 0052 3846     		mov	r0, r7
 1229 0054 9847     		blx	r3
 1230              	.LVL122:
 1231 0056 2146     		mov	r1, r4
 1232 0058 0246     		mov	r2, r0
 1233 005a 3846     		mov	r0, r7
 1234 005c C047     		blx	r8
 1235              	.LVL123:
 1236 005e 0028     		cmp	r0, #0
 1237 0060 00F0C180 		beq	.L37
 381:/home/dino/paparazzi/var/include/messages.h **** 	  trans->start_message(trans->impl, dev, 0+1+4+4+2+4+2+2+2+4+1+1 +2 /* msg header overhead */);
 1238              		.loc 2 381 0
 1239 0064 DBF82070 		ldr	r7, [fp, #32]
 1240 0068 DBF80030 		ldr	r3, [fp]
 1241 006c DBF81C80 		ldr	r8, [fp, #28]
 1242 0070 3846     		mov	r0, r7
 1243 0072 1D21     		movs	r1, #29
 1244 0074 9847     		blx	r3
 1245              	.LVL124:
 1246 0076 2146     		mov	r1, r4
 1247 0078 0246     		mov	r2, r0
 1248 007a 3846     		mov	r0, r7
 1249 007c C047     		blx	r8
 1250              	.LVL125:
 382:/home/dino/paparazzi/var/include/messages.h **** 	  trans->put_bytes(trans->impl, dev, DL_TYPE_UINT8, DL_FORMAT_SCALAR, 1, &ac_id);
 1251              		.loc 2 382 0
 1252 007e DBF81030 		ldr	r3, [fp, #16]
 1253 0082 DBF82000 		ldr	r0, [fp, #32]
 1254 0086 2146     		mov	r1, r4
 1255 0088 1D22     		movs	r2, #29
 1256 008a 9847     		blx	r3
 1257              	.LVL126:
 383:/home/dino/paparazzi/var/include/messages.h **** 	  trans->put_named_byte(trans->impl, dev, DL_TYPE_UINT8, DL_FORMAT_SCALAR, DL_GPS, "GPS");
 1258              		.loc 2 383 0
 1259 008c 0DF10B03 		add	r3, sp, #11
 1260 0090 0193     		str	r3, [sp, #4]
 1261 0092 DBF80870 		ldr	r7, [fp, #8]
 1262 0096 DBF82000 		ldr	r0, [fp, #32]
 1263 009a CDF800A0 		str	r10, [sp]
 1264 009e 2146     		mov	r1, r4
 1265 00a0 0222     		movs	r2, #2
 1266 00a2 2B46     		mov	r3, r5
 1267 00a4 B847     		blx	r7
 1268              	.LVL127:
 384:/home/dino/paparazzi/var/include/messages.h **** 	  trans->put_bytes(trans->impl, dev, DL_TYPE_UINT8, DL_FORMAT_SCALAR, 1, (void *) _mode);
 1269              		.loc 2 384 0
 1270 00a6 0823     		movs	r3, #8
 1271 00a8 0093     		str	r3, [sp]
 1272 00aa 5A4B     		ldr	r3, .L40+20
 1273 00ac 0193     		str	r3, [sp, #4]
 1274 00ae DBF80C70 		ldr	r7, [fp, #12]
 1275 00b2 DBF82000 		ldr	r0, [fp, #32]
 1276 00b6 2146     		mov	r1, r4
 1277 00b8 0222     		movs	r2, #2
 1278 00ba 2B46     		mov	r3, r5
 1279 00bc B847     		blx	r7
 1280              	.LVL128:
 385:/home/dino/paparazzi/var/include/messages.h **** 	  trans->put_bytes(trans->impl, dev, DL_TYPE_INT32, DL_FORMAT_SCALAR, 4, (void *) _utm_east);
 1281              		.loc 2 385 0
 1282 00be 06F15B03 		add	r3, r6, #91
 1283 00c2 0193     		str	r3, [sp, #4]
 1284 00c4 DBF80870 		ldr	r7, [fp, #8]
 1285 00c8 DBF82000 		ldr	r0, [fp, #32]
 1286 00cc CDF800A0 		str	r10, [sp]
 1287 00d0 2146     		mov	r1, r4
 1288 00d2 0222     		movs	r2, #2
 1289 00d4 2B46     		mov	r3, r5
 1290 00d6 B847     		blx	r7
 1291              	.LVL129:
 386:/home/dino/paparazzi/var/include/messages.h **** 	  trans->put_bytes(trans->impl, dev, DL_TYPE_INT32, DL_FORMAT_SCALAR, 4, (void *) _utm_north);
 1292              		.loc 2 386 0
 1293 00d8 4FF00409 		mov	r9, #4
 1294 00dc 06F11C03 		add	r3, r6, #28
 1295 00e0 0193     		str	r3, [sp, #4]
 1296 00e2 DBF80870 		ldr	r7, [fp, #8]
 1297 00e6 DBF82000 		ldr	r0, [fp, #32]
 1298 00ea CDF80090 		str	r9, [sp]
 1299 00ee 2146     		mov	r1, r4
 1300 00f0 0722     		movs	r2, #7
 1301 00f2 2B46     		mov	r3, r5
 1302 00f4 B847     		blx	r7
 1303              	.LVL130:
 387:/home/dino/paparazzi/var/include/messages.h **** 	  trans->put_bytes(trans->impl, dev, DL_TYPE_INT16, DL_FORMAT_SCALAR, 2, (void *) _course);
 1304              		.loc 2 387 0
 1305 00f6 06F11803 		add	r3, r6, #24
 1306 00fa 0193     		str	r3, [sp, #4]
 1307 00fc DBF80870 		ldr	r7, [fp, #8]
 1308 0100 DBF82000 		ldr	r0, [fp, #32]
 1309 0104 CDF80090 		str	r9, [sp]
 1310 0108 2146     		mov	r1, r4
 1311 010a 0722     		movs	r2, #7
 1312 010c 2B46     		mov	r3, r5
 1313 010e B847     		blx	r7
 1314              	.LVL131:
 388:/home/dino/paparazzi/var/include/messages.h **** 	  trans->put_bytes(trans->impl, dev, DL_TYPE_INT32, DL_FORMAT_SCALAR, 4, (void *) _alt);
 1315              		.loc 2 388 0
 1316 0110 4FF00208 		mov	r8, #2
 1317 0114 0DF10E03 		add	r3, sp, #14
 1318              	.LVL132:
 1319 0118 0193     		str	r3, [sp, #4]
 1320 011a DBF82000 		ldr	r0, [fp, #32]
 1321 011e DBF80870 		ldr	r7, [fp, #8]
 1322 0122 CDF80080 		str	r8, [sp]
 1323 0126 2146     		mov	r1, r4
 1324 0128 0522     		movs	r2, #5
 1325 012a 2B46     		mov	r3, r5
 1326              	.LVL133:
 1327 012c B847     		blx	r7
 1328              	.LVL134:
 389:/home/dino/paparazzi/var/include/messages.h **** 	  trans->put_bytes(trans->impl, dev, DL_TYPE_UINT16, DL_FORMAT_SCALAR, 2, (void *) _speed);
 1329              		.loc 2 389 0
 1330 012e 06F12803 		add	r3, r6, #40
 1331 0132 0193     		str	r3, [sp, #4]
 1332 0134 DBF82000 		ldr	r0, [fp, #32]
 1333 0138 DBF80870 		ldr	r7, [fp, #8]
 1334 013c CDF80090 		str	r9, [sp]
 1335 0140 2146     		mov	r1, r4
 1336 0142 0722     		movs	r2, #7
 1337 0144 2B46     		mov	r3, r5
 1338 0146 B847     		blx	r7
 1339              	.LVL135:
 390:/home/dino/paparazzi/var/include/messages.h **** 	  trans->put_bytes(trans->impl, dev, DL_TYPE_INT16, DL_FORMAT_SCALAR, 2, (void *) _climb);
 1340              		.loc 2 390 0
 1341 0148 06F14403 		add	r3, r6, #68
 1342 014c 0193     		str	r3, [sp, #4]
 1343 014e DBF82000 		ldr	r0, [fp, #32]
 1344 0152 DBF80870 		ldr	r7, [fp, #8]
 1345 0156 CDF80080 		str	r8, [sp]
 1346 015a 2146     		mov	r1, r4
 1347 015c 4A46     		mov	r2, r9
 1348 015e 2B46     		mov	r3, r5
 1349 0160 B847     		blx	r7
 1350              	.LVL136:
 391:/home/dino/paparazzi/var/include/messages.h **** 	  trans->put_bytes(trans->impl, dev, DL_TYPE_UINT16, DL_FORMAT_SCALAR, 2, (void *) _week);
 1351              		.loc 2 391 0
 1352 0162 03AB     		add	r3, sp, #12
 1353              	.LVL137:
 1354 0164 0193     		str	r3, [sp, #4]
 1355 0166 DBF82000 		ldr	r0, [fp, #32]
 1356 016a DBF80870 		ldr	r7, [fp, #8]
 1357 016e CDF80080 		str	r8, [sp]
 1358 0172 2146     		mov	r1, r4
 1359 0174 0522     		movs	r2, #5
 1360 0176 2B46     		mov	r3, r5
 1361              	.LVL138:
 1362 0178 B847     		blx	r7
 1363              	.LVL139:
 392:/home/dino/paparazzi/var/include/messages.h **** 	  trans->put_bytes(trans->impl, dev, DL_TYPE_UINT32, DL_FORMAT_SCALAR, 4, (void *) _itow);
 1364              		.loc 2 392 0
 1365 017a 06F15C03 		add	r3, r6, #92
 1366 017e 0193     		str	r3, [sp, #4]
 1367 0180 DBF82000 		ldr	r0, [fp, #32]
 1368 0184 DBF80870 		ldr	r7, [fp, #8]
 1369 0188 CDF80080 		str	r8, [sp]
 1370 018c 2146     		mov	r1, r4
 1371 018e 4A46     		mov	r2, r9
 1372 0190 2B46     		mov	r3, r5
 1373 0192 B847     		blx	r7
 1374              	.LVL140:
 393:/home/dino/paparazzi/var/include/messages.h **** 	  trans->put_bytes(trans->impl, dev, DL_TYPE_UINT8, DL_FORMAT_SCALAR, 1, (void *) _utm_zone);
 1375              		.loc 2 393 0
 1376 0194 06F16003 		add	r3, r6, #96
 1377 0198 0193     		str	r3, [sp, #4]
 1378 019a DBF82000 		ldr	r0, [fp, #32]
 1379 019e CDF80090 		str	r9, [sp]
 1380 01a2 2146     		mov	r1, r4
 1381 01a4 0622     		movs	r2, #6
 1382 01a6 2B46     		mov	r3, r5
 394:/home/dino/paparazzi/var/include/messages.h **** 	  trans->put_bytes(trans->impl, dev, DL_TYPE_UINT8, DL_FORMAT_SCALAR, 1, (void *) _gps_nb_err);
 1383              		.loc 2 394 0
 1384 01a8 2436     		adds	r6, r6, #36
 393:/home/dino/paparazzi/var/include/messages.h **** 	  trans->put_bytes(trans->impl, dev, DL_TYPE_UINT8, DL_FORMAT_SCALAR, 1, (void *) _utm_zone);
 1385              		.loc 2 393 0
 1386 01aa DBF80870 		ldr	r7, [fp, #8]
 1387 01ae B847     		blx	r7
 1388              	.LVL141:
 394:/home/dino/paparazzi/var/include/messages.h **** 	  trans->put_bytes(trans->impl, dev, DL_TYPE_UINT8, DL_FORMAT_SCALAR, 1, (void *) _gps_nb_err);
 1389              		.loc 2 394 0
 1390 01b0 0196     		str	r6, [sp, #4]
 1391 01b2 DBF82000 		ldr	r0, [fp, #32]
 1392 01b6 DBF80860 		ldr	r6, [fp, #8]
 1393 01ba CDF800A0 		str	r10, [sp]
 1394 01be 2146     		mov	r1, r4
 1395 01c0 4246     		mov	r2, r8
 1396 01c2 2B46     		mov	r3, r5
 1397 01c4 B047     		blx	r6
 1398              	.LVL142:
 395:/home/dino/paparazzi/var/include/messages.h **** 	  trans->end_message(trans->impl, dev);
 1399              		.loc 2 395 0
 1400 01c6 0DF10A03 		add	r3, sp, #10
 1401              	.LVL143:
 1402 01ca 0193     		str	r3, [sp, #4]
 1403 01cc CDF800A0 		str	r10, [sp]
 1404 01d0 2B46     		mov	r3, r5
 1405              	.LVL144:
 1406 01d2 DBF80860 		ldr	r6, [fp, #8]
 1407 01d6 DBF82000 		ldr	r0, [fp, #32]
 1408 01da 2146     		mov	r1, r4
 1409 01dc 4246     		mov	r2, r8
 1410 01de B047     		blx	r6
 1411              	.LVL145:
 396:/home/dino/paparazzi/var/include/messages.h **** 	} else
 1412              		.loc 2 396 0
 1413 01e0 DBF81430 		ldr	r3, [fp, #20]
 1414 01e4 01E0     		b	.L39
 1415              	.L37:
 398:/home/dino/paparazzi/var/include/messages.h **** }
 1416              		.loc 2 398 0
 1417 01e6 DBF81830 		ldr	r3, [fp, #24]
 1418              	.L39:
 1419 01ea DBF82000 		ldr	r0, [fp, #32]
 1420 01ee 2146     		mov	r1, r4
 1421 01f0 9847     		blx	r3
 1422              	.LVL146:
 1423              	.LBE44:
 1424              	.LBE45:
  98:subsystems/gps.c **** }
 1425              		.loc 1 98 0
 1426 01f2 5846     		mov	r0, fp
 1427 01f4 2146     		mov	r1, r4
 1428 01f6 FFF7FEFF 		bl	send_svinfo_available
 1429              	.LVL147:
  99:subsystems/gps.c **** 
 1430              		.loc 1 99 0
 1431 01fa 05B0     		add	sp, sp, #20
 1432              		.cfi_def_cfa_offset 36
 1433              		@ sp needed
 1434 01fc BDE8F08F 		pop	{r4, r5, r6, r7, r8, r9, r10, fp, pc}
 1435              	.LVL148:
 1436              	.L41:
 1437              		.align	3
 1438              	.L40:
 1439 0200 F8C1631A 		.word	442745336
 1440 0204 DCA54C40 		.word	1078765020
 1441 0208 00000000 		.word	0
 1442 020c 80842E41 		.word	1093567616
 1443 0210 00000000 		.word	.LANCHOR0
 1444 0214 1F000000 		.word	.LC4
 1445              		.cfi_endproc
 1446              	.LFE328:
 1448              		.section	.text.gps_init,"ax",%progbits
 1449              		.align	1
 1450              		.global	gps_init
 1451              		.thumb
 1452              		.thumb_func
 1454              	gps_init:
 1455              	.LFB332:
 133:subsystems/gps.c **** #endif
 134:subsystems/gps.c **** 
 135:subsystems/gps.c **** void gps_init(void)
 136:subsystems/gps.c **** {
 1456              		.loc 1 136 0
 1457              		.cfi_startproc
 1458              		@ args = 0, pretend = 0, frame = 0
 1459              		@ frame_needed = 0, uses_anonymous_args = 0
 1460 0000 10B5     		push	{r4, lr}
 1461              		.cfi_def_cfa_offset 8
 1462              		.cfi_offset 4, -8
 1463              		.cfi_offset 14, -4
 137:subsystems/gps.c ****   gps.fix = GPS_FIX_NONE;
 1464              		.loc 1 137 0
 1465 0002 194B     		ldr	r3, .L43
 138:subsystems/gps.c ****   gps.week = 0;
 139:subsystems/gps.c ****   gps.tow = 0;
 140:subsystems/gps.c ****   gps.cacc = 0;
 141:subsystems/gps.c **** 
 142:subsystems/gps.c ****   gps.last_3dfix_ticks = 0;
 143:subsystems/gps.c ****   gps.last_3dfix_time = 0;
 144:subsystems/gps.c ****   gps.last_msg_ticks = 0;
 145:subsystems/gps.c ****   gps.last_msg_time = 0;
 146:subsystems/gps.c **** #ifdef GPS_POWER_GPIO
 147:subsystems/gps.c ****   gpio_setup_output(GPS_POWER_GPIO);
 148:subsystems/gps.c ****   GPS_POWER_GPIO_ON(GPS_POWER_GPIO);
 149:subsystems/gps.c **** #endif
 150:subsystems/gps.c **** #ifdef GPS_LED
 151:subsystems/gps.c ****   LED_OFF(GPS_LED);
 152:subsystems/gps.c **** #endif
 153:subsystems/gps.c **** #ifdef GPS_TYPE_H
 154:subsystems/gps.c ****   gps_impl_init();
 155:subsystems/gps.c **** #endif
 156:subsystems/gps.c **** 
 157:subsystems/gps.c **** #if PERIODIC_TELEMETRY
 158:subsystems/gps.c ****   register_periodic_telemetry(DefaultPeriodic, "GPS", send_gps);
 1466              		.loc 1 158 0
 1467 0004 194C     		ldr	r4, .L43+4
 151:subsystems/gps.c **** #endif
 1468              		.loc 1 151 0
 1469 0006 1A48     		ldr	r0, .L43+8
 137:subsystems/gps.c ****   gps.fix = GPS_FIX_NONE;
 1470              		.loc 1 137 0
 1471 0008 0022     		movs	r2, #0
 151:subsystems/gps.c **** #endif
 1472              		.loc 1 151 0
 1473 000a 0221     		movs	r1, #2
 137:subsystems/gps.c ****   gps.fix = GPS_FIX_NONE;
 1474              		.loc 1 137 0
 1475 000c 83F85B20 		strb	r2, [r3, #91]
 138:subsystems/gps.c ****   gps.week = 0;
 1476              		.loc 1 138 0
 1477 0010 A3F85C20 		strh	r2, [r3, #92]	@ movhi
 139:subsystems/gps.c ****   gps.cacc = 0;
 1478              		.loc 1 139 0
 1479 0014 1A66     		str	r2, [r3, #96]
 140:subsystems/gps.c **** 
 1480              		.loc 1 140 0
 1481 0016 5A65     		str	r2, [r3, #84]
 142:subsystems/gps.c ****   gps.last_3dfix_time = 0;
 1482              		.loc 1 142 0
 1483 0018 C3F8E820 		str	r2, [r3, #232]
 143:subsystems/gps.c ****   gps.last_msg_ticks = 0;
 1484              		.loc 1 143 0
 1485 001c C3F8EC20 		str	r2, [r3, #236]
 144:subsystems/gps.c ****   gps.last_msg_time = 0;
 1486              		.loc 1 144 0
 1487 0020 C3F8F020 		str	r2, [r3, #240]
 145:subsystems/gps.c **** #ifdef GPS_POWER_GPIO
 1488              		.loc 1 145 0
 1489 0024 C3F8F420 		str	r2, [r3, #244]
 151:subsystems/gps.c **** #endif
 1490              		.loc 1 151 0
 1491 0028 FFF7FEFF 		bl	gpio_set
 1492              	.LVL149:
 154:subsystems/gps.c **** #endif
 1493              		.loc 1 154 0
 1494 002c FFF7FEFF 		bl	gps_impl_init
 1495              	.LVL150:
 1496              		.loc 1 158 0
 1497 0030 2046     		mov	r0, r4
 1498 0032 1049     		ldr	r1, .L43+12
 1499 0034 104A     		ldr	r2, .L43+16
 1500 0036 FFF7FEFF 		bl	register_periodic_telemetry
 1501              	.LVL151:
 159:subsystems/gps.c ****   register_periodic_telemetry(DefaultPeriodic, "GPS_INT", send_gps_int);
 1502              		.loc 1 159 0
 1503 003a 2046     		mov	r0, r4
 1504 003c 0F49     		ldr	r1, .L43+20
 1505 003e 104A     		ldr	r2, .L43+24
 1506 0040 FFF7FEFF 		bl	register_periodic_telemetry
 1507              	.LVL152:
 160:subsystems/gps.c ****   register_periodic_telemetry(DefaultPeriodic, "GPS_LLA", send_gps_lla);
 1508              		.loc 1 160 0
 1509 0044 2046     		mov	r0, r4
 1510 0046 0F49     		ldr	r1, .L43+28
 1511 0048 0F4A     		ldr	r2, .L43+32
 1512 004a FFF7FEFF 		bl	register_periodic_telemetry
 1513              	.LVL153:
 161:subsystems/gps.c ****   register_periodic_telemetry(DefaultPeriodic, "GPS_SOL", send_gps_sol);
 1514              		.loc 1 161 0
 1515 004e 2046     		mov	r0, r4
 1516 0050 0E49     		ldr	r1, .L43+36
 1517 0052 0F4A     		ldr	r2, .L43+40
 1518 0054 FFF7FEFF 		bl	register_periodic_telemetry
 1519              	.LVL154:
 162:subsystems/gps.c ****   register_periodic_telemetry(DefaultPeriodic, "SVINFO", send_svinfo);
 1520              		.loc 1 162 0
 1521 0058 2046     		mov	r0, r4
 1522 005a 0E49     		ldr	r1, .L43+44
 1523 005c 0E4A     		ldr	r2, .L43+48
 163:subsystems/gps.c **** #endif
 164:subsystems/gps.c **** }
 1524              		.loc 1 164 0
 1525 005e BDE81040 		pop	{r4, lr}
 1526              		.cfi_restore 14
 1527              		.cfi_restore 4
 1528              		.cfi_def_cfa_offset 0
 162:subsystems/gps.c ****   register_periodic_telemetry(DefaultPeriodic, "SVINFO", send_svinfo);
 1529              		.loc 1 162 0
 1530 0062 FFF7FEBF 		b	register_periodic_telemetry
 1531              	.LVL155:
 1532              	.L44:
 1533 0066 00BF     		.align	2
 1534              	.L43:
 1535 0068 00000000 		.word	.LANCHOR0
 1536 006c 00000000 		.word	pprz_telemetry
 1537 0070 00080240 		.word	1073874944
 1538 0074 1F000000 		.word	.LC4
 1539 0078 00000000 		.word	send_gps
 1540 007c 0F000000 		.word	.LC2
 1541 0080 00000000 		.word	send_gps_int
 1542 0084 00000000 		.word	.LC0
 1543 0088 00000000 		.word	send_gps_lla
 1544 008c 17000000 		.word	.LC3
 1545 0090 00000000 		.word	send_gps_sol
 1546 0094 08000000 		.word	.LC1
 1547 0098 00000000 		.word	send_svinfo
 1548              		.cfi_endproc
 1549              	.LFE332:
 1551              		.section	.text.gps_periodic_check,"ax",%progbits
 1552              		.align	1
 1553              		.global	gps_periodic_check
 1554              		.thumb
 1555              		.thumb_func
 1557              	gps_periodic_check:
 1558              	.LFB333:
 165:subsystems/gps.c **** 
 166:subsystems/gps.c **** void gps_periodic_check(void)
 167:subsystems/gps.c **** {
 1559              		.loc 1 167 0
 1560              		.cfi_startproc
 1561              		@ args = 0, pretend = 0, frame = 0
 1562              		@ frame_needed = 0, uses_anonymous_args = 0
 1563              		@ link register save eliminated.
 168:subsystems/gps.c ****   if (sys_time.nb_sec - gps.last_msg_time > GPS_TIMEOUT) {
 1564              		.loc 1 168 0
 1565 0000 054A     		ldr	r2, .L47
 1566 0002 064B     		ldr	r3, .L47+4
 1567 0004 D2F8F410 		ldr	r1, [r2, #244]
 1568 0008 1B68     		ldr	r3, [r3]
 1569 000a 5B1A     		subs	r3, r3, r1
 1570 000c 022B     		cmp	r3, #2
 169:subsystems/gps.c ****     gps.fix = GPS_FIX_NONE;
 1571              		.loc 1 169 0
 1572 000e 84BF     		itt	hi
 1573 0010 0023     		movhi	r3, #0
 1574 0012 82F85B30 		strbhi	r3, [r2, #91]
 1575 0016 7047     		bx	lr
 1576              	.L48:
 1577              		.align	2
 1578              	.L47:
 1579 0018 00000000 		.word	.LANCHOR0
 1580 001c 00000000 		.word	sys_time
 1581              		.cfi_endproc
 1582              	.LFE333:
 1584              		.section	.text.gps_tow_from_sys_ticks,"ax",%progbits
 1585              		.align	1
 1586              		.global	gps_tow_from_sys_ticks
 1587              		.thumb
 1588              		.thumb_func
 1590              	gps_tow_from_sys_ticks:
 1591              	.LFB334:
 170:subsystems/gps.c ****   }
 171:subsystems/gps.c **** }
 172:subsystems/gps.c **** 
 173:subsystems/gps.c **** uint32_t gps_tow_from_sys_ticks(uint32_t sys_ticks)
 174:subsystems/gps.c **** {
 1592              		.loc 1 174 0
 1593              		.cfi_startproc
 1594              		@ args = 0, pretend = 0, frame = 0
 1595              		@ frame_needed = 0, uses_anonymous_args = 0
 1596              		@ link register save eliminated.
 1597              	.LVL156:
 175:subsystems/gps.c ****   uint32_t clock_delta;
 176:subsystems/gps.c ****   uint32_t time_delta;
 177:subsystems/gps.c ****   uint32_t itow_now;
 178:subsystems/gps.c **** 
 179:subsystems/gps.c ****   if (sys_ticks < gps_time_sync.t0_ticks) {
 1598              		.loc 1 179 0
 1599 0000 0C4B     		ldr	r3, .L53
 1600 0002 9968     		ldr	r1, [r3, #8]
 1601 0004 8842     		cmp	r0, r1
 1602 0006 1A46     		mov	r2, r3
 180:subsystems/gps.c ****     clock_delta = (0xFFFFFFFF - sys_ticks) + gps_time_sync.t0_ticks + 1;
 1603              		.loc 1 180 0
 1604 0008 34BF     		ite	cc
 1605 000a 081A     		subcc	r0, r1, r0
 1606              	.LVL157:
 181:subsystems/gps.c ****   } else {
 182:subsystems/gps.c ****     clock_delta = sys_ticks - gps_time_sync.t0_ticks;
 1607              		.loc 1 182 0
 1608 000c 401A     		subcs	r0, r0, r1
 1609              	.LVL158:
 1610              	.LBB46:
 1611              	.LBB47:
 1612              		.file 3 "./mcu_periph/sys_time.h"
   1:./mcu_periph/sys_time.h **** /*
   2:./mcu_periph/sys_time.h ****  *
   3:./mcu_periph/sys_time.h ****  * Copyright (C) 2009-2011 The Paparazzi Team
   4:./mcu_periph/sys_time.h ****  *
   5:./mcu_periph/sys_time.h ****  * This file is part of paparazzi.
   6:./mcu_periph/sys_time.h ****  *
   7:./mcu_periph/sys_time.h ****  * paparazzi is free software; you can redistribute it and/or modify
   8:./mcu_periph/sys_time.h ****  * it under the terms of the GNU General Public License as published by
   9:./mcu_periph/sys_time.h ****  * the Free Software Foundation; either version 2, or (at your option)
  10:./mcu_periph/sys_time.h ****  * any later version.
  11:./mcu_periph/sys_time.h ****  *
  12:./mcu_periph/sys_time.h ****  * paparazzi is distributed in the hope that it will be useful,
  13:./mcu_periph/sys_time.h ****  * but WITHOUT ANY WARRANTY; without even the implied warranty of
  14:./mcu_periph/sys_time.h ****  * MERCHANTABILITY or FITNESS FOR A PARTICULAR PURPOSE.  See the
  15:./mcu_periph/sys_time.h ****  * GNU General Public License for more details.
  16:./mcu_periph/sys_time.h ****  *
  17:./mcu_periph/sys_time.h ****  * You should have received a copy of the GNU General Public License
  18:./mcu_periph/sys_time.h ****  * along with paparazzi; see the file COPYING.  If not, write to
  19:./mcu_periph/sys_time.h ****  * the Free Software Foundation, 59 Temple Place - Suite 330,
  20:./mcu_periph/sys_time.h ****  * Boston, MA 02111-1307, USA.
  21:./mcu_periph/sys_time.h ****  *
  22:./mcu_periph/sys_time.h ****  */
  23:./mcu_periph/sys_time.h **** 
  24:./mcu_periph/sys_time.h **** /**
  25:./mcu_periph/sys_time.h ****  * @file mcu_periph/sys_time.h
  26:./mcu_periph/sys_time.h ****  * @brief Architecture independent timing functions.
  27:./mcu_periph/sys_time.h ****  *
  28:./mcu_periph/sys_time.h ****  */
  29:./mcu_periph/sys_time.h **** 
  30:./mcu_periph/sys_time.h **** #ifndef SYS_TIME_H
  31:./mcu_periph/sys_time.h **** #define SYS_TIME_H
  32:./mcu_periph/sys_time.h **** 
  33:./mcu_periph/sys_time.h **** #include <inttypes.h>
  34:./mcu_periph/sys_time.h **** #include <stdlib.h>
  35:./mcu_periph/sys_time.h **** #include "std.h"
  36:./mcu_periph/sys_time.h **** 
  37:./mcu_periph/sys_time.h **** #include BOARD_CONFIG
  38:./mcu_periph/sys_time.h **** 
  39:./mcu_periph/sys_time.h **** #ifndef SYS_TIME_NB_TIMER
  40:./mcu_periph/sys_time.h **** #define SYS_TIME_NB_TIMER 16
  41:./mcu_periph/sys_time.h **** #endif
  42:./mcu_periph/sys_time.h **** 
  43:./mcu_periph/sys_time.h **** 
  44:./mcu_periph/sys_time.h **** /**
  45:./mcu_periph/sys_time.h ****  * (Default) sys_time timer frequency in Hz.
  46:./mcu_periph/sys_time.h ****  * sys_time.resolution is set from this define.
  47:./mcu_periph/sys_time.h ****  */
  48:./mcu_periph/sys_time.h **** #ifndef SYS_TIME_FREQUENCY
  49:./mcu_periph/sys_time.h **** #if defined PERIODIC_FREQUENCY
  50:./mcu_periph/sys_time.h **** #define SYS_TIME_FREQUENCY (2 * PERIODIC_FREQUENCY)
  51:./mcu_periph/sys_time.h **** #else
  52:./mcu_periph/sys_time.h **** #define SYS_TIME_FREQUENCY 1000
  53:./mcu_periph/sys_time.h **** #endif
  54:./mcu_periph/sys_time.h **** #endif
  55:./mcu_periph/sys_time.h **** 
  56:./mcu_periph/sys_time.h **** 
  57:./mcu_periph/sys_time.h **** typedef uint8_t tid_t; ///< sys_time timer id type
  58:./mcu_periph/sys_time.h **** typedef void (*sys_time_cb)(uint8_t id);
  59:./mcu_periph/sys_time.h **** 
  60:./mcu_periph/sys_time.h **** struct sys_time_timer {
  61:./mcu_periph/sys_time.h ****   bool_t          in_use;
  62:./mcu_periph/sys_time.h ****   sys_time_cb     cb;
  63:./mcu_periph/sys_time.h ****   volatile bool_t elapsed;
  64:./mcu_periph/sys_time.h ****   uint32_t        end_time; ///< in SYS_TIME_TICKS
  65:./mcu_periph/sys_time.h ****   uint32_t        duration; ///< in SYS_TIME_TICKS
  66:./mcu_periph/sys_time.h **** };
  67:./mcu_periph/sys_time.h **** 
  68:./mcu_periph/sys_time.h **** struct sys_time {
  69:./mcu_periph/sys_time.h ****   volatile uint32_t nb_sec;       ///< full seconds since startup
  70:./mcu_periph/sys_time.h ****   volatile uint32_t nb_sec_rem;   ///< remainder of seconds since startup in CPU_TICKS
  71:./mcu_periph/sys_time.h ****   volatile uint32_t nb_tick;      ///< SYS_TIME_TICKS since startup
  72:./mcu_periph/sys_time.h ****   struct sys_time_timer timer[SYS_TIME_NB_TIMER];
  73:./mcu_periph/sys_time.h **** 
  74:./mcu_periph/sys_time.h ****   float resolution;               ///< sys_time_timer resolution in seconds
  75:./mcu_periph/sys_time.h ****   uint32_t ticks_per_sec;         ///< sys_time ticks per second (SYS_TIME_FREQUENCY)
  76:./mcu_periph/sys_time.h ****   uint32_t resolution_cpu_ticks;  ///< sys_time_timer resolution in cpu ticks
  77:./mcu_periph/sys_time.h ****   uint32_t cpu_ticks_per_sec;     ///< cpu ticks per second
  78:./mcu_periph/sys_time.h **** };
  79:./mcu_periph/sys_time.h **** 
  80:./mcu_periph/sys_time.h **** extern struct sys_time sys_time;
  81:./mcu_periph/sys_time.h **** 
  82:./mcu_periph/sys_time.h **** 
  83:./mcu_periph/sys_time.h **** extern void sys_time_init(void);
  84:./mcu_periph/sys_time.h **** 
  85:./mcu_periph/sys_time.h **** /**
  86:./mcu_periph/sys_time.h ****  * Register a new system timer.
  87:./mcu_periph/sys_time.h ****  * @param duration Duration in seconds until the timer elapses.
  88:./mcu_periph/sys_time.h ****  * @param cb Callback function that is called from the ISR when timer elapses, or NULL
  89:./mcu_periph/sys_time.h ****  * @return -1 if it failed, the timer id otherwise
  90:./mcu_periph/sys_time.h ****  */
  91:./mcu_periph/sys_time.h **** extern int sys_time_register_timer(float duration, sys_time_cb cb);
  92:./mcu_periph/sys_time.h **** 
  93:./mcu_periph/sys_time.h **** /**
  94:./mcu_periph/sys_time.h ****  * Cancel a system timer by id.
  95:./mcu_periph/sys_time.h ****  * @param id Timer id.
  96:./mcu_periph/sys_time.h ****  */
  97:./mcu_periph/sys_time.h **** extern void sys_time_cancel_timer(tid_t id);
  98:./mcu_periph/sys_time.h **** 
  99:./mcu_periph/sys_time.h **** /**
 100:./mcu_periph/sys_time.h ****  * Update the duration until a timer elapses.
 101:./mcu_periph/sys_time.h ****  * @param id Timer id
 102:./mcu_periph/sys_time.h ****  * @param duration Duration in seconds until the timer elapses.
 103:./mcu_periph/sys_time.h ****  */
 104:./mcu_periph/sys_time.h **** extern void sys_time_update_timer(tid_t id, float duration);
 105:./mcu_periph/sys_time.h **** 
 106:./mcu_periph/sys_time.h **** /**
 107:./mcu_periph/sys_time.h ****  * Check if timer has elapsed.
 108:./mcu_periph/sys_time.h ****  * @param id Timer id
 109:./mcu_periph/sys_time.h ****  * @return TRUE if timer has elapsed
 110:./mcu_periph/sys_time.h ****  */
 111:./mcu_periph/sys_time.h **** static inline bool_t sys_time_check_and_ack_timer(tid_t id)
 112:./mcu_periph/sys_time.h **** {
 113:./mcu_periph/sys_time.h ****   if (sys_time.timer[id].elapsed) {
 114:./mcu_periph/sys_time.h ****     sys_time.timer[id].elapsed = FALSE;
 115:./mcu_periph/sys_time.h ****     return TRUE;
 116:./mcu_periph/sys_time.h ****   }
 117:./mcu_periph/sys_time.h ****   return FALSE;
 118:./mcu_periph/sys_time.h **** }
 119:./mcu_periph/sys_time.h **** 
 120:./mcu_periph/sys_time.h **** /**
 121:./mcu_periph/sys_time.h ****  * Get the time in seconds since startup.
 122:./mcu_periph/sys_time.h ****  * @return current system time as float with sys_time.resolution
 123:./mcu_periph/sys_time.h ****  */
 124:./mcu_periph/sys_time.h **** static inline float get_sys_time_float(void)
 125:./mcu_periph/sys_time.h **** {
 126:./mcu_periph/sys_time.h ****   return (float)(sys_time.nb_sec + (float)(sys_time.nb_sec_rem) / sys_time.cpu_ticks_per_sec);
 127:./mcu_periph/sys_time.h **** }
 128:./mcu_periph/sys_time.h **** 
 129:./mcu_periph/sys_time.h **** 
 130:./mcu_periph/sys_time.h **** /*
 131:./mcu_periph/sys_time.h ****  * Convenience functions to convert between seconds and sys_time ticks.
 132:./mcu_periph/sys_time.h ****  */
 133:./mcu_periph/sys_time.h **** static inline uint32_t sys_time_ticks_of_sec(float seconds)
 134:./mcu_periph/sys_time.h **** {
 135:./mcu_periph/sys_time.h ****   return (uint32_t)(seconds * sys_time.ticks_per_sec + 0.5);
 136:./mcu_periph/sys_time.h **** }
 137:./mcu_periph/sys_time.h **** 
 138:./mcu_periph/sys_time.h **** static inline uint32_t sys_time_ticks_of_msec(uint32_t msec)
 139:./mcu_periph/sys_time.h **** {
 140:./mcu_periph/sys_time.h ****   return msec * sys_time.ticks_per_sec / 1000;
 141:./mcu_periph/sys_time.h **** }
 142:./mcu_periph/sys_time.h **** 
 143:./mcu_periph/sys_time.h **** static inline uint32_t sys_time_ticks_of_usec(uint32_t usec)
 144:./mcu_periph/sys_time.h **** {
 145:./mcu_periph/sys_time.h ****   return usec * sys_time.ticks_per_sec / 1000000;
 146:./mcu_periph/sys_time.h **** }
 147:./mcu_periph/sys_time.h **** 
 148:./mcu_periph/sys_time.h **** static inline float sec_of_sys_time_ticks(uint32_t ticks)
 149:./mcu_periph/sys_time.h **** {
 150:./mcu_periph/sys_time.h ****   return (float)ticks * sys_time.resolution;
 151:./mcu_periph/sys_time.h **** }
 152:./mcu_periph/sys_time.h **** 
 153:./mcu_periph/sys_time.h **** static inline uint32_t msec_of_sys_time_ticks(uint32_t ticks)
 154:./mcu_periph/sys_time.h **** {
 155:./mcu_periph/sys_time.h ****   return ticks * 1000 / sys_time.ticks_per_sec;
 1613              		.loc 3 155 0
 1614 000e 4FF47A73 		mov	r3, #1000
 1615 0012 5843     		muls	r0, r3, r0
 1616              	.LVL159:
 1617 0014 084B     		ldr	r3, .L53+4
 1618 0016 D3F85031 		ldr	r3, [r3, #336]
 1619 001a B0FBF3F0 		udiv	r0, r0, r3
 1620              	.LBE47:
 1621              	.LBE46:
 183:subsystems/gps.c ****   }
 184:subsystems/gps.c **** 
 185:subsystems/gps.c ****   time_delta = msec_of_sys_time_ticks(clock_delta);
 186:subsystems/gps.c **** 
 187:subsystems/gps.c ****   itow_now = gps_time_sync.t0_tow + time_delta;
 1622              		.loc 1 187 0
 1623 001e 1368     		ldr	r3, [r2]
 1624 0020 1844     		add	r0, r0, r3
 1625              	.LVL160:
 188:subsystems/gps.c ****   if (itow_now > MSEC_PER_WEEK) {
 1626              		.loc 1 188 0
 1627 0022 064B     		ldr	r3, .L53+8
 1628 0024 9842     		cmp	r0, r3
 1629              	.LVL161:
 189:subsystems/gps.c ****     itow_now %= MSEC_PER_WEEK;
 1630              		.loc 1 189 0
 1631 0026 84BF     		itt	hi
 1632 0028 B0FBF3F2 		udivhi	r2, r0, r3
 1633 002c 03FB1200 		mlshi	r0, r3, r2, r0
 1634              	.LVL162:
 190:subsystems/gps.c ****   }
 191:subsystems/gps.c **** 
 192:subsystems/gps.c ****   return itow_now;
 193:subsystems/gps.c **** }
 1635              		.loc 1 193 0
 1636 0030 7047     		bx	lr
 1637              	.L54:
 1638 0032 00BF     		.align	2
 1639              	.L53:
 1640 0034 00000000 		.word	.LANCHOR4
 1641 0038 00000000 		.word	sys_time
 1642 003c 00840C24 		.word	604800000
 1643              		.cfi_endproc
 1644              	.LFE334:
 1646              		.global	gps_time_sync
 1647              		.global	gps
 1648              		.section	.bss.gps_time_sync,"aw",%nobits
 1649              		.align	2
 1650              		.set	.LANCHOR4,. + 0
 1653              	gps_time_sync:
 1654 0000 00000000 		.space	12
 1654      00000000 
 1654      00000000 
 1655              		.section	.bss.last_cnos.9790,"aw",%nobits
 1656              		.set	.LANCHOR3,. + 0
 1659              	last_cnos.9790:
 1660 0000 00000000 		.space	16
 1660      00000000 
 1660      00000000 
 1660      00000000 
 1661              		.section	.bss.gps,"aw",%nobits
 1662              		.align	2
 1663              		.set	.LANCHOR0,. + 0
 1666              	gps:
 1667 0000 00000000 		.space	252
 1667      00000000 
 1667      00000000 
 1667      00000000 
 1667      00000000 
 1668              		.section	.rodata.str1.1,"aMS",%progbits,1
 1669              	.LC0:
 1670 0000 4750535F 		.ascii	"GPS_LLA\000"
 1670      4C4C4100 
 1671              	.LC1:
 1672 0008 5356494E 		.ascii	"SVINFO\000"
 1672      464F00
 1673              	.LC2:
 1674 000f 4750535F 		.ascii	"GPS_INT\000"
 1674      494E5400 
 1675              	.LC3:
 1676 0017 4750535F 		.ascii	"GPS_SOL\000"
 1676      534F4C00 
 1677              	.LC4:
 1678 001f 47505300 		.ascii	"GPS\000"
 1679              		.section	.bss.i.9784,"aw",%nobits
 1680              		.set	.LANCHOR1,. + 0
 1683              	i.9784:
 1684 0000 00       		.space	1
 1685              		.section	.bss.i.9789,"aw",%nobits
 1686              		.set	.LANCHOR2,. + 0
 1689              	i.9789:
 1690 0000 00       		.space	1
 1691              		.text
 1692              	.Letext0:
 1693              		.file 4 "/usr/arm-none-eabi/include/machine/_default_types.h"
 1694              		.file 5 "/usr/arm-none-eabi/include/sys/_stdint.h"
 1695              		.file 6 "/home/dino/paparazzi/sw/include/std.h"
 1696              		.file 7 "./math/pprz_geodetic_int.h"
 1697              		.file 8 "./mcu_periph/link_device.h"
 1698              		.file 9 "./mcu_periph/uart.h"
 1699              		.file 10 "./subsystems/gps/gps_ubx.h"
 1700              		.file 11 "./subsystems/gps.h"
 1701              		.file 12 "./subsystems/datalink/transport.h"
 1702              		.file 13 "./subsystems/datalink/xbee.h"
 1703              		.file 14 "./subsystems/datalink/telemetry_common.h"
 1704              		.file 15 "./subsystems/datalink/datalink.h"
 1705              		.file 16 "./subsystems/datalink/w5100.h"
 1706              		.file 17 "/home/dino/paparazzi/var/aircrafts/MY_apogee/ap/generated/periodic_telemetry.h"
 1707              		.file 18 "./subsystems/datalink/telemetry.h"
 1708              		.file 19 "../ext/libopencm3/include/libopencm3/stm32/f4/rcc.h"
 1709              		.file 20 "../ext/libopencm3/include/libopencm3/stm32/common/gpio_common_all.h"
DEFINED SYMBOLS
                            *ABS*:00000000 gps.c
     /tmp/cc5YXkow.s:24     .text.send_gps_lla:00000000 $t
     /tmp/cc5YXkow.s:28     .text.send_gps_lla:00000000 send_gps_lla
     /tmp/cc5YXkow.s:295    .text.send_gps_lla:000001e0 $d
     /tmp/cc5YXkow.s:305    .text.send_svinfo_id:00000000 $t
     /tmp/cc5YXkow.s:309    .text.send_svinfo_id:00000000 send_svinfo_id
     /tmp/cc5YXkow.s:547    .text.send_svinfo_id:00000130 $d
     /tmp/cc5YXkow.s:553    .text.send_svinfo:00000000 $t
     /tmp/cc5YXkow.s:557    .text.send_svinfo:00000000 send_svinfo
     /tmp/cc5YXkow.s:589    .text.send_svinfo:00000024 $d
     /tmp/cc5YXkow.s:595    .text.send_svinfo_available:00000000 $t
     /tmp/cc5YXkow.s:599    .text.send_svinfo_available:00000000 send_svinfo_available
     /tmp/cc5YXkow.s:664    .text.send_svinfo_available:00000050 $d
     /tmp/cc5YXkow.s:671    .text.send_gps_int:00000000 $t
     /tmp/cc5YXkow.s:675    .text.send_gps_int:00000000 send_gps_int
     /tmp/cc5YXkow.s:977    .text.send_gps_int:00000228 $d
     /tmp/cc5YXkow.s:983    .text.send_gps_sol:00000000 $t
     /tmp/cc5YXkow.s:987    .text.send_gps_sol:00000000 send_gps_sol
     /tmp/cc5YXkow.s:1148   .text.send_gps_sol:000000e0 $d
     /tmp/cc5YXkow.s:1154   .text.send_gps:00000000 $t
     /tmp/cc5YXkow.s:1158   .text.send_gps:00000000 send_gps
     /tmp/cc5YXkow.s:1439   .text.send_gps:00000200 $d
     /tmp/cc5YXkow.s:1449   .text.gps_init:00000000 $t
     /tmp/cc5YXkow.s:1454   .text.gps_init:00000000 gps_init
     /tmp/cc5YXkow.s:1535   .text.gps_init:00000068 $d
     /tmp/cc5YXkow.s:1552   .text.gps_periodic_check:00000000 $t
     /tmp/cc5YXkow.s:1557   .text.gps_periodic_check:00000000 gps_periodic_check
     /tmp/cc5YXkow.s:1579   .text.gps_periodic_check:00000018 $d
     /tmp/cc5YXkow.s:1585   .text.gps_tow_from_sys_ticks:00000000 $t
     /tmp/cc5YXkow.s:1590   .text.gps_tow_from_sys_ticks:00000000 gps_tow_from_sys_ticks
     /tmp/cc5YXkow.s:1640   .text.gps_tow_from_sys_ticks:00000034 $d
     /tmp/cc5YXkow.s:1653   .bss.gps_time_sync:00000000 gps_time_sync
     /tmp/cc5YXkow.s:1666   .bss.gps:00000000 gps
     /tmp/cc5YXkow.s:1649   .bss.gps_time_sync:00000000 $d
     /tmp/cc5YXkow.s:1659   .bss.last_cnos.9790:00000000 last_cnos.9790
     /tmp/cc5YXkow.s:1660   .bss.last_cnos.9790:00000000 $d
     /tmp/cc5YXkow.s:1662   .bss.gps:00000000 $d
     /tmp/cc5YXkow.s:1683   .bss.i.9784:00000000 i.9784
     /tmp/cc5YXkow.s:1684   .bss.i.9784:00000000 $d
     /tmp/cc5YXkow.s:1689   .bss.i.9789:00000000 i.9789
     /tmp/cc5YXkow.s:1690   .bss.i.9789:00000000 $d
                     .debug_frame:00000010 $d
                           .group:00000000 wm4.0.7f506cdee5614e5fae524d20989ad8c8
                           .group:00000000 wm4.newlib.h.8.2702bca278809460f0af6fba1d84eb68
                           .group:00000000 wm4.features.h.22.2e382148a0560adabf236cddd4e880f4
                           .group:00000000 wm4.config.h.220.a09b0b0de3c25be3f39d71990e617bff
                           .group:00000000 wm4._intsup.h.10.b2832a532eae49c14d45880be6d4ca65
                           .group:00000000 wm4._default_types.h.6.35ee9e747940367bf2a634907d1c2382
                           .group:00000000 wm4._stdint.h.10.f76354baea1c7088202064e6f3d4f5e3
                           .group:00000000 wm4.stdint.h.23.373a9d32a9e4c2e88fd347156532d281
                           .group:00000000 wm4.stddef.h.263.49e44f5ee9cdd8820580fc4aa239e32a
                           .group:00000000 wm4.inttypes.h.23.a096771aacee9aba4b33c2d04aacc9b1
                           .group:00000000 wm4.stdbool.h.29.1c9ee6859ce8145f7838a4f2549ccec2
                           .group:00000000 wm4._ansi.h.13.1b5575dc7921a4c0cff7dbaa2f33e670
                           .group:00000000 wm4.stddef.h.39.2b75ea897b59bf67f50e970d678806e4
                           .group:00000000 wm4.lock.h.2.9bc98482741e5e2a9450b12934a684ea
                           .group:00000000 wm4._types.h.54.d3d34a3b7f3cc230cd159baf022b4b08
                           .group:00000000 wm4.stddef.h.158.61317cdbfb4026324507d123a50b0fd6
                           .group:00000000 wm4.reent.h.17.8bd9e4098e0428508c282cad794fae43
                           .group:00000000 wm4.math.h.35.ad242c9287d2217c7d2035216e5d04ca
                           .group:00000000 wm4.message_pragmas.h.2.a703592919ab94db061a475289156c21
                           .group:00000000 wm4.std.h.37.c94f17957e155d4dda789b7ad0549a32
                           .group:00000000 wm4.pprz_geodetic.h.35.f7fdb5d11659b92d11c7ce67b6317005
                           .group:00000000 wm4.float.h.29.1cf88a0527b6b1225d49fbee2b32acb7
                           .group:00000000 wm4.cdefs.h.47.3052445825803de6c3a3b68ec8193866
                           .group:00000000 wm4.string.h.15.dab3980bf35408a4c507182805e2de3a
                           .group:00000000 wm4.stddef.h.158.a7efb00f6cbc6f43213b50e183c9830c
                           .group:00000000 wm4.pprz_algebra.h.47.d249264ea6bacf2198e290d461cf6dbe
                           .group:00000000 wm4.pprz_trig_int.h.28.b756be608c9d9f3092a41321446e5fa2
                           .group:00000000 wm4.stdlib.h.13.4ed386f5c1a80d71e72172885d946ef2
                           .group:00000000 wm4.alloca.h.8.dfc0c703c47ec3e69746825b17d9e66d
                           .group:00000000 wm4.stdlib.h.54.cd3744e0b066087ec8fbb1bdc22d1043
                           .group:00000000 wm4.pprz_algebra_int.h.68.04ac162ae1e1d94f716d0bb402062624
                           .group:00000000 wm4.pprz_geodetic_int.h.127.8e737bed5ba4468e470311184b1fca7f
                           .group:00000000 wm4.apogee_1.0.h.2.34ab7bb688056eecb54e2e3ffff48ca6
                           .group:00000000 wm4.sys_time.h.40.92f532b5cea824e0ec5ea845e7275d34
                           .group:00000000 wm4.common.h.21.22efaac882611267214d0a36f6f15e74
                           .group:00000000 wm4.memorymap.h.21.0c01d18fc5814f65c6ceb1822d4030fa
                           .group:00000000 wm4.memorymap.h.28.85f6f5de65b1d4294c70f79052a0b8c0
                           .group:00000000 wm4.gpio_common_all.h.37.fedbbcb9179f773c905aa3c3e4b7dbdd
                           .group:00000000 wm4.gpio_common_f234.h.48.ee30692f386eaf6801df27cae93943b1
                           .group:00000000 wm4.gpio_common_f24.h.48.4e4be5e3ebe26aee10d604e2d0fecde8
                           .group:00000000 wm4.rcc.h.46.c4bbaa886b7ca1bd1829424ae12e70af
                           .group:00000000 wm4.systick.h.44.34e759e1f218a187b07e9a617cb1d556
                           .group:00000000 wm4.sys_time.h.213.4ee43452c5934214134db56488f53299
                           .group:00000000 wm4.uart_arch.h.30.cb8e70feae0b6afe250750f6c1439671
                           .group:00000000 wm4.uart.h.35.4345324d45fae43faace58e743d48e42
                           .group:00000000 wm4.gps_ubx.h.36.d4183b0b154441c99ce352aae50967b5
                           .group:00000000 wm4.gps.h.41.79d1c69e44dd427f855100ff8e932fbe
                           .group:00000000 wm4.led_hw.h.40.8014fb3594847a9d275099fc6ed94641
                           .group:00000000 wm4.led.h.99.0116146560b22524df8538874a4f60bf
                           .group:00000000 wm4.transport.h.27.9215bbc09b6a8d08d228c20740408d47
                           .group:00000000 wm4.messages.h.9.c7f125c5dbec47e7d7f58ef9afe50d8b
                           .group:00000000 wm4.modules.h.5.3647ee45f49511088e2f33d88288be64
                           .group:00000000 wm4.gps_ubx_ucenter.h.29.30a3f1ed020dbc7085e412c29746d829
                           .group:00000000 wm4.modules.h.23.3d04ad9f740a156fcd476d18714df592
                           .group:00000000 wm4.airframe.h.5.55ffe79377b235d0a97162ed16ec170d
                           .group:00000000 wm4.actuators_pwm_arch.h.27.5a737f85d71223e6481c4ba4068c062a
                           .group:00000000 wm4.airframe.h.14.814d9a421a57ec2d434c7b6efc262c4b
                           .group:00000000 wm4.datalink.h.28.0d234a7c203533b2ec538be3e18eddf4
                           .group:00000000 wm4.dl_protocol.h.5.a12fe27a4b4a3cbb46fbca8acf33e3dd
                           .group:00000000 wm4.datalink.h.46.36a5e0f36fb7d0784f1e7af767537c84
                           .group:00000000 wm4.pprz_transport.h.57.167db0ee96032e142f5d6e570b3339aa
                           .group:00000000 wm4.xbee24.h.29.a6677f8bcb71d3b07e11290a2de0e179
                           .group:00000000 wm4.xbee.h.41.f36be817f95b74f883aef9324b53817b
                           .group:00000000 wm4.w5100.h.29.d3529bed8de657ab3944b343be960f10
                           .group:00000000 wm4.downlink.h.76.41034157e32fc9012166fd95ec7418fc
                           .group:00000000 wm4.periodic_telemetry.h.11.f25aadf344a171d516cf4756f716329b

UNDEFINED SYMBOLS
__aeabi_i2d
__aeabi_dmul
__aeabi_ddiv
__aeabi_d2iz
gpio_set
gps_impl_init
register_periodic_telemetry
pprz_telemetry
sys_time
