   1              		.syntax unified
   2              		.cpu cortex-m4
   3              		.eabi_attribute 27, 1
   4              		.fpu fpv4-sp-d16
   5              		.eabi_attribute 20, 1
   6              		.eabi_attribute 21, 1
   7              		.eabi_attribute 23, 3
   8              		.eabi_attribute 24, 1
   9              		.eabi_attribute 25, 1
  10              		.eabi_attribute 26, 1
  11              		.eabi_attribute 30, 4
  12              		.eabi_attribute 34, 1
  13              		.eabi_attribute 18, 4
  14              		.thumb
  15              		.file	"imu.c"
  16              		.text
  17              	.Ltext0:
  18              		.cfi_sections	.debug_frame
  19              		.section	.text.orientationGetEulers_f,"ax",%progbits
  20              		.align	1
  21              		.thumb
  22              		.thumb_func
  24              	orientationGetEulers_f:
  25              	.LFB53:
  26              		.file 1 "./math/pprz_orientation_conversion.h"
   1:./math/pprz_orientation_conversion.h **** /*
   2:./math/pprz_orientation_conversion.h ****  * Copyright (C) 2011-2012 The Paparazzi Team
   3:./math/pprz_orientation_conversion.h ****  *
   4:./math/pprz_orientation_conversion.h ****  * This file is part of paparazzi.
   5:./math/pprz_orientation_conversion.h ****  *
   6:./math/pprz_orientation_conversion.h ****  * paparazzi is free software; you can redistribute it and/or modify
   7:./math/pprz_orientation_conversion.h ****  * it under the terms of the GNU General Public License as published by
   8:./math/pprz_orientation_conversion.h ****  * the Free Software Foundation; either version 2, or (at your option)
   9:./math/pprz_orientation_conversion.h ****  * any later version.
  10:./math/pprz_orientation_conversion.h ****  *
  11:./math/pprz_orientation_conversion.h ****  * paparazzi is distributed in the hope that it will be useful,
  12:./math/pprz_orientation_conversion.h ****  * but WITHOUT ANY WARRANTY; without even the implied warranty of
  13:./math/pprz_orientation_conversion.h ****  * MERCHANTABILITY or FITNESS FOR A PARTICULAR PURPOSE.  See the
  14:./math/pprz_orientation_conversion.h ****  * GNU General Public License for more details.
  15:./math/pprz_orientation_conversion.h ****  *
  16:./math/pprz_orientation_conversion.h ****  * You should have received a copy of the GNU General Public License
  17:./math/pprz_orientation_conversion.h ****  * along with paparazzi; see the file COPYING.  If not, see
  18:./math/pprz_orientation_conversion.h ****  * <http://www.gnu.org/licenses/>.
  19:./math/pprz_orientation_conversion.h ****  */
  20:./math/pprz_orientation_conversion.h **** 
  21:./math/pprz_orientation_conversion.h **** /**
  22:./math/pprz_orientation_conversion.h ****  * @file math/pprz_orientation_conversion.h
  23:./math/pprz_orientation_conversion.h ****  * Generic orientation representation and conversions.
  24:./math/pprz_orientation_conversion.h ****  *
  25:./math/pprz_orientation_conversion.h ****  * This file contains the functions to automatically convert between
  26:./math/pprz_orientation_conversion.h ****  * the different representations. They should normally not be used
  27:./math/pprz_orientation_conversion.h ****  * directly and instead the stateGet/Set interfaces used.
  28:./math/pprz_orientation_conversion.h ****  * Also see the @ref math_orientation_representation "Generic Orientation Representation" page.
  29:./math/pprz_orientation_conversion.h ****  *
  30:./math/pprz_orientation_conversion.h ****  * @author Felix Ruess <felix.ruess@gmail.com>
  31:./math/pprz_orientation_conversion.h ****  */
  32:./math/pprz_orientation_conversion.h **** 
  33:./math/pprz_orientation_conversion.h **** /**
  34:./math/pprz_orientation_conversion.h ****  * @addtogroup math
  35:./math/pprz_orientation_conversion.h ****  * @{
  36:./math/pprz_orientation_conversion.h ****  */
  37:./math/pprz_orientation_conversion.h **** 
  38:./math/pprz_orientation_conversion.h **** /**
  39:./math/pprz_orientation_conversion.h ****  * This generic orientation representation consists of a struct, containing the 6 orientation
  40:./math/pprz_orientation_conversion.h ****  * representations, and a status variable. The bits in the status variable indicate  which
  41:./math/pprz_orientation_conversion.h ****  * representations of the orientation are up-to-date.
  42:./math/pprz_orientation_conversion.h ****  *
  43:./math/pprz_orientation_conversion.h ****  * When a getter is used to get a certain representation, the status bit is checked to see if
  44:./math/pprz_orientation_conversion.h ****  * the current value is already available in the desired orientation representation.
  45:./math/pprz_orientation_conversion.h ****  * If the desired representation is not available, it will be calculated.
  46:./math/pprz_orientation_conversion.h ****  *
  47:./math/pprz_orientation_conversion.h ****  * When a setter is used to set a representation, all status bits are cleared, and only the
  48:./math/pprz_orientation_conversion.h ****  * status bit for the set representation is set to one.
  49:./math/pprz_orientation_conversion.h ****  */
  50:./math/pprz_orientation_conversion.h **** 
  51:./math/pprz_orientation_conversion.h **** /**
  52:./math/pprz_orientation_conversion.h ****  * @defgroup math_orientation_representation Generic Orientation Representations
  53:./math/pprz_orientation_conversion.h ****  * @{
  54:./math/pprz_orientation_conversion.h ****  */
  55:./math/pprz_orientation_conversion.h **** 
  56:./math/pprz_orientation_conversion.h **** #ifndef PPRZ_ORIENTATION_CONVERSION_H
  57:./math/pprz_orientation_conversion.h **** #define PPRZ_ORIENTATION_CONVERSION_H
  58:./math/pprz_orientation_conversion.h **** 
  59:./math/pprz_orientation_conversion.h **** #ifdef __cplusplus
  60:./math/pprz_orientation_conversion.h **** extern "C" {
  61:./math/pprz_orientation_conversion.h **** #endif
  62:./math/pprz_orientation_conversion.h **** 
  63:./math/pprz_orientation_conversion.h **** #include "math/pprz_algebra_int.h"
  64:./math/pprz_orientation_conversion.h **** #include "math/pprz_algebra_float.h"
  65:./math/pprz_orientation_conversion.h **** 
  66:./math/pprz_orientation_conversion.h **** #include "std.h"
  67:./math/pprz_orientation_conversion.h **** 
  68:./math/pprz_orientation_conversion.h **** 
  69:./math/pprz_orientation_conversion.h **** #define ORREP_QUAT_I  0  ///< Quaternion (BFP int)
  70:./math/pprz_orientation_conversion.h **** #define ORREP_EULER_I 1  ///< zyx Euler (BFP int)
  71:./math/pprz_orientation_conversion.h **** #define ORREP_RMAT_I  2  ///< Rotation Matrix (BFP int)
  72:./math/pprz_orientation_conversion.h **** #define ORREP_QUAT_F  3  ///< Quaternion (float)
  73:./math/pprz_orientation_conversion.h **** #define ORREP_EULER_F 4  ///< zyx Euler (float)
  74:./math/pprz_orientation_conversion.h **** #define ORREP_RMAT_F  5  ///< Rotation Matrix (float)
  75:./math/pprz_orientation_conversion.h **** 
  76:./math/pprz_orientation_conversion.h **** /*
  77:./math/pprz_orientation_conversion.h ****  * @brief Struct with euler/rmat/quaternion orientation representations in BFP int and float
  78:./math/pprz_orientation_conversion.h ****  */
  79:./math/pprz_orientation_conversion.h **** struct OrientationReps {
  80:./math/pprz_orientation_conversion.h ****   /**
  81:./math/pprz_orientation_conversion.h ****    * Holds the status bits for all orientation representations.
  82:./math/pprz_orientation_conversion.h ****    * When the corresponding bit is set, the representation
  83:./math/pprz_orientation_conversion.h ****    * is already computed.
  84:./math/pprz_orientation_conversion.h ****    */
  85:./math/pprz_orientation_conversion.h ****   uint8_t status;
  86:./math/pprz_orientation_conversion.h **** 
  87:./math/pprz_orientation_conversion.h ****   /**
  88:./math/pprz_orientation_conversion.h ****    * Orientation quaternion.
  89:./math/pprz_orientation_conversion.h ****    * Units: #INT32_QUAT_FRAC
  90:./math/pprz_orientation_conversion.h ****    */
  91:./math/pprz_orientation_conversion.h ****   struct Int32Quat quat_i;
  92:./math/pprz_orientation_conversion.h **** 
  93:./math/pprz_orientation_conversion.h ****   /**
  94:./math/pprz_orientation_conversion.h ****    * Orientation in zyx euler angles.
  95:./math/pprz_orientation_conversion.h ****    * Units: rad in BFP with #INT32_ANGLE_FRAC
  96:./math/pprz_orientation_conversion.h ****    */
  97:./math/pprz_orientation_conversion.h ****   struct Int32Eulers eulers_i;
  98:./math/pprz_orientation_conversion.h **** 
  99:./math/pprz_orientation_conversion.h ****   /**
 100:./math/pprz_orientation_conversion.h ****    * Orientation rotation matrix.
 101:./math/pprz_orientation_conversion.h ****    * Units: rad in BFP with #INT32_TRIG_FRAC
 102:./math/pprz_orientation_conversion.h ****    */
 103:./math/pprz_orientation_conversion.h ****   struct Int32RMat rmat_i;
 104:./math/pprz_orientation_conversion.h **** 
 105:./math/pprz_orientation_conversion.h ****   /**
 106:./math/pprz_orientation_conversion.h ****    * Orientation as quaternion.
 107:./math/pprz_orientation_conversion.h ****    * Units: unit length quaternion
 108:./math/pprz_orientation_conversion.h ****    */
 109:./math/pprz_orientation_conversion.h ****   struct FloatQuat quat_f;
 110:./math/pprz_orientation_conversion.h **** 
 111:./math/pprz_orientation_conversion.h ****   /**
 112:./math/pprz_orientation_conversion.h ****    * Orienation in zyx euler angles.
 113:./math/pprz_orientation_conversion.h ****    * Units: rad
 114:./math/pprz_orientation_conversion.h ****    */
 115:./math/pprz_orientation_conversion.h ****   struct FloatEulers eulers_f;
 116:./math/pprz_orientation_conversion.h **** 
 117:./math/pprz_orientation_conversion.h ****   /**
 118:./math/pprz_orientation_conversion.h ****    * Orientation rotation matrix.
 119:./math/pprz_orientation_conversion.h ****    * Units: rad
 120:./math/pprz_orientation_conversion.h ****    */
 121:./math/pprz_orientation_conversion.h ****   struct FloatRMat   rmat_f;
 122:./math/pprz_orientation_conversion.h **** };
 123:./math/pprz_orientation_conversion.h **** 
 124:./math/pprz_orientation_conversion.h **** /************* declaration of transformation functions ************/
 125:./math/pprz_orientation_conversion.h **** extern void orientationCalcQuat_i(struct OrientationReps *orientation);
 126:./math/pprz_orientation_conversion.h **** extern void orientationCalcRMat_i(struct OrientationReps *orientation);
 127:./math/pprz_orientation_conversion.h **** extern void orientationCalcEulers_i(struct OrientationReps *orientation);
 128:./math/pprz_orientation_conversion.h **** extern void orientationCalcQuat_f(struct OrientationReps *orientation);
 129:./math/pprz_orientation_conversion.h **** extern void orientationCalcRMat_f(struct OrientationReps *orientation);
 130:./math/pprz_orientation_conversion.h **** extern void orientationCalcEulers_f(struct OrientationReps *orientation);
 131:./math/pprz_orientation_conversion.h **** 
 132:./math/pprz_orientation_conversion.h **** 
 133:./math/pprz_orientation_conversion.h **** /*********************** validity test functions ******************/
 134:./math/pprz_orientation_conversion.h **** /// Test if orientations are valid.
 135:./math/pprz_orientation_conversion.h **** static inline bool_t orienationCheckValid(struct OrientationReps *orientation)
 136:./math/pprz_orientation_conversion.h **** {
 137:./math/pprz_orientation_conversion.h ****   return (orientation->status);
 138:./math/pprz_orientation_conversion.h **** }
 139:./math/pprz_orientation_conversion.h **** 
 140:./math/pprz_orientation_conversion.h **** /// Set vehicle body attitude from quaternion (int).
 141:./math/pprz_orientation_conversion.h **** static inline void orientationSetQuat_i(struct OrientationReps *orientation, struct Int32Quat *quat
 142:./math/pprz_orientation_conversion.h **** {
 143:./math/pprz_orientation_conversion.h ****   QUAT_COPY(orientation->quat_i, *quat);
 144:./math/pprz_orientation_conversion.h ****   /* clear bits for all attitude representations and only set the new one */
 145:./math/pprz_orientation_conversion.h ****   orientation->status = (1 << ORREP_QUAT_I);
 146:./math/pprz_orientation_conversion.h **** }
 147:./math/pprz_orientation_conversion.h **** 
 148:./math/pprz_orientation_conversion.h **** /// Set vehicle body attitude from rotation matrix (int).
 149:./math/pprz_orientation_conversion.h **** static inline void orientationSetRMat_i(struct OrientationReps *orientation, struct Int32RMat *rmat
 150:./math/pprz_orientation_conversion.h **** {
 151:./math/pprz_orientation_conversion.h ****   RMAT_COPY(orientation->rmat_i, *rmat);
 152:./math/pprz_orientation_conversion.h ****   /* clear bits for all attitude representations and only set the new one */
 153:./math/pprz_orientation_conversion.h ****   orientation->status = (1 << ORREP_RMAT_I);
 154:./math/pprz_orientation_conversion.h **** }
 155:./math/pprz_orientation_conversion.h **** 
 156:./math/pprz_orientation_conversion.h **** /// Set vehicle body attitude from euler angles (int).
 157:./math/pprz_orientation_conversion.h **** static inline void orientationSetEulers_i(struct OrientationReps *orientation, struct Int32Eulers *
 158:./math/pprz_orientation_conversion.h **** {
 159:./math/pprz_orientation_conversion.h ****   EULERS_COPY(orientation->eulers_i, *eulers);
 160:./math/pprz_orientation_conversion.h ****   /* clear bits for all attitude representations and only set the new one */
 161:./math/pprz_orientation_conversion.h ****   orientation->status = (1 << ORREP_EULER_I);
 162:./math/pprz_orientation_conversion.h **** }
 163:./math/pprz_orientation_conversion.h **** 
 164:./math/pprz_orientation_conversion.h **** /// Set vehicle body attitude from quaternion (float).
 165:./math/pprz_orientation_conversion.h **** static inline void orientationSetQuat_f(struct OrientationReps *orientation, struct FloatQuat *quat
 166:./math/pprz_orientation_conversion.h **** {
 167:./math/pprz_orientation_conversion.h ****   QUAT_COPY(orientation->quat_f, *quat);
 168:./math/pprz_orientation_conversion.h ****   /* clear bits for all attitude representations and only set the new one */
 169:./math/pprz_orientation_conversion.h ****   orientation->status = (1 << ORREP_QUAT_F);
 170:./math/pprz_orientation_conversion.h **** }
 171:./math/pprz_orientation_conversion.h **** 
 172:./math/pprz_orientation_conversion.h **** /// Set vehicle body attitude from rotation matrix (float).
 173:./math/pprz_orientation_conversion.h **** static inline void orientationSetRMat_f(struct OrientationReps *orientation, struct FloatRMat *rmat
 174:./math/pprz_orientation_conversion.h **** {
 175:./math/pprz_orientation_conversion.h ****   RMAT_COPY(orientation->rmat_f, *rmat);
 176:./math/pprz_orientation_conversion.h ****   /* clear bits for all attitude representations and only set the new one */
 177:./math/pprz_orientation_conversion.h ****   orientation->status = (1 << ORREP_RMAT_F);
 178:./math/pprz_orientation_conversion.h **** }
 179:./math/pprz_orientation_conversion.h **** 
 180:./math/pprz_orientation_conversion.h **** /// Set vehicle body attitude from euler angles (float).
 181:./math/pprz_orientation_conversion.h **** static inline void orientationSetEulers_f(struct OrientationReps *orientation, struct FloatEulers *
 182:./math/pprz_orientation_conversion.h **** {
 183:./math/pprz_orientation_conversion.h ****   EULERS_COPY(orientation->eulers_f, *eulers);
 184:./math/pprz_orientation_conversion.h ****   /* clear bits for all attitude representations and only set the new one */
 185:./math/pprz_orientation_conversion.h ****   orientation->status = (1 << ORREP_EULER_F);
 186:./math/pprz_orientation_conversion.h **** }
 187:./math/pprz_orientation_conversion.h **** 
 188:./math/pprz_orientation_conversion.h **** 
 189:./math/pprz_orientation_conversion.h **** /// Get vehicle body attitude quaternion (int).
 190:./math/pprz_orientation_conversion.h **** static inline struct Int32Quat *orientationGetQuat_i(struct OrientationReps *orientation)
 191:./math/pprz_orientation_conversion.h **** {
 192:./math/pprz_orientation_conversion.h ****   if (!bit_is_set(orientation->status, ORREP_QUAT_I)) {
 193:./math/pprz_orientation_conversion.h ****     orientationCalcQuat_i(orientation);
 194:./math/pprz_orientation_conversion.h ****   }
 195:./math/pprz_orientation_conversion.h ****   return &orientation->quat_i;
 196:./math/pprz_orientation_conversion.h **** }
 197:./math/pprz_orientation_conversion.h **** 
 198:./math/pprz_orientation_conversion.h **** /// Get vehicle body attitude rotation matrix (int).
 199:./math/pprz_orientation_conversion.h **** static inline struct Int32RMat *orientationGetRMat_i(struct OrientationReps *orientation)
 200:./math/pprz_orientation_conversion.h **** {
 201:./math/pprz_orientation_conversion.h ****   if (!bit_is_set(orientation->status, ORREP_RMAT_I)) {
 202:./math/pprz_orientation_conversion.h ****     orientationCalcRMat_i(orientation);
 203:./math/pprz_orientation_conversion.h ****   }
 204:./math/pprz_orientation_conversion.h ****   return &orientation->rmat_i;
 205:./math/pprz_orientation_conversion.h **** }
 206:./math/pprz_orientation_conversion.h **** 
 207:./math/pprz_orientation_conversion.h **** /// Get vehicle body attitude euler angles (int).
 208:./math/pprz_orientation_conversion.h **** static inline struct Int32Eulers *orientationGetEulers_i(struct OrientationReps *orientation)
 209:./math/pprz_orientation_conversion.h **** {
 210:./math/pprz_orientation_conversion.h ****   if (!bit_is_set(orientation->status, ORREP_EULER_I)) {
 211:./math/pprz_orientation_conversion.h ****     orientationCalcEulers_i(orientation);
 212:./math/pprz_orientation_conversion.h ****   }
 213:./math/pprz_orientation_conversion.h ****   return &orientation->eulers_i;
 214:./math/pprz_orientation_conversion.h **** }
 215:./math/pprz_orientation_conversion.h **** 
 216:./math/pprz_orientation_conversion.h **** /// Get vehicle body attitude quaternion (float).
 217:./math/pprz_orientation_conversion.h **** static inline struct FloatQuat *orientationGetQuat_f(struct OrientationReps *orientation)
 218:./math/pprz_orientation_conversion.h **** {
 219:./math/pprz_orientation_conversion.h ****   if (!bit_is_set(orientation->status, ORREP_QUAT_F)) {
 220:./math/pprz_orientation_conversion.h ****     orientationCalcQuat_f(orientation);
 221:./math/pprz_orientation_conversion.h ****   }
 222:./math/pprz_orientation_conversion.h ****   return &orientation->quat_f;
 223:./math/pprz_orientation_conversion.h **** }
 224:./math/pprz_orientation_conversion.h **** 
 225:./math/pprz_orientation_conversion.h **** /// Get vehicle body attitude rotation matrix (float).
 226:./math/pprz_orientation_conversion.h **** static inline struct FloatRMat *orientationGetRMat_f(struct OrientationReps *orientation)
 227:./math/pprz_orientation_conversion.h **** {
 228:./math/pprz_orientation_conversion.h ****   if (!bit_is_set(orientation->status, ORREP_RMAT_F)) {
 229:./math/pprz_orientation_conversion.h ****     orientationCalcRMat_f(orientation);
 230:./math/pprz_orientation_conversion.h ****   }
 231:./math/pprz_orientation_conversion.h ****   return &orientation->rmat_f;
 232:./math/pprz_orientation_conversion.h **** }
 233:./math/pprz_orientation_conversion.h **** 
 234:./math/pprz_orientation_conversion.h **** /// Get vehicle body attitude euler angles (float).
 235:./math/pprz_orientation_conversion.h **** static inline struct FloatEulers *orientationGetEulers_f(struct OrientationReps *orientation)
 236:./math/pprz_orientation_conversion.h **** {
  27              		.loc 1 236 0
  28              		.cfi_startproc
  29              		@ args = 0, pretend = 0, frame = 0
  30              		@ frame_needed = 0, uses_anonymous_args = 0
  31              	.LVL0:
  32 0000 10B5     		push	{r4, lr}
  33              		.cfi_def_cfa_offset 8
  34              		.cfi_offset 4, -8
  35              		.cfi_offset 14, -4
 237:./math/pprz_orientation_conversion.h ****   if (!bit_is_set(orientation->status, ORREP_EULER_F)) {
  36              		.loc 1 237 0
  37 0002 0378     		ldrb	r3, [r0]	@ zero_extendqisi2
  38 0004 DB06     		lsls	r3, r3, #27
 236:./math/pprz_orientation_conversion.h ****   if (!bit_is_set(orientation->status, ORREP_EULER_F)) {
  39              		.loc 1 236 0
  40 0006 0446     		mov	r4, r0
  41              		.loc 1 237 0
  42 0008 01D4     		bmi	.L2
 238:./math/pprz_orientation_conversion.h ****     orientationCalcEulers_f(orientation);
  43              		.loc 1 238 0
  44 000a FFF7FEFF 		bl	orientationCalcEulers_f
  45              	.LVL1:
  46              	.L2:
 239:./math/pprz_orientation_conversion.h ****   }
 240:./math/pprz_orientation_conversion.h ****   return &orientation->eulers_f;
 241:./math/pprz_orientation_conversion.h **** }
  47              		.loc 1 241 0
  48 000e 04F15400 		add	r0, r4, #84
  49 0012 10BD     		pop	{r4, pc}
  50              		.cfi_endproc
  51              	.LFE53:
  53              		.section	.text.send_mag_raw,"ax",%progbits
  54              		.align	1
  55              		.thumb
  56              		.thumb_func
  58              	send_mag_raw:
  59              	.LFB483:
  60              		.file 2 "subsystems/imu.c"
   1:subsystems/imu.c **** /*
   2:subsystems/imu.c ****  * Copyright (C) 2008-2010 The Paparazzi Team
   3:subsystems/imu.c ****  *
   4:subsystems/imu.c ****  * This file is part of paparazzi.
   5:subsystems/imu.c ****  *
   6:subsystems/imu.c ****  * paparazzi is free software; you can redistribute it and/or modify
   7:subsystems/imu.c ****  * it under the terms of the GNU General Public License as published by
   8:subsystems/imu.c ****  * the Free Software Foundation; either version 2, or (at your option)
   9:subsystems/imu.c ****  * any later version.
  10:subsystems/imu.c ****  *
  11:subsystems/imu.c ****  * paparazzi is distributed in the hope that it will be useful,
  12:subsystems/imu.c ****  * but WITHOUT ANY WARRANTY; without even the implied warranty of
  13:subsystems/imu.c ****  * MERCHANTABILITY or FITNESS FOR A PARTICULAR PURPOSE.  See the
  14:subsystems/imu.c ****  * GNU General Public License for more details.
  15:subsystems/imu.c ****  *
  16:subsystems/imu.c ****  * You should have received a copy of the GNU General Public License
  17:subsystems/imu.c ****  * along with paparazzi; see the file COPYING.  If not, write to
  18:subsystems/imu.c ****  * the Free Software Foundation, 59 Temple Place - Suite 330,
  19:subsystems/imu.c ****  * Boston, MA 02111-1307, USA.
  20:subsystems/imu.c ****  */
  21:subsystems/imu.c **** 
  22:subsystems/imu.c **** /**
  23:subsystems/imu.c ****  * @file subsystems/imu.c
  24:subsystems/imu.c ****  * Inertial Measurement Unit interface.
  25:subsystems/imu.c ****  */
  26:subsystems/imu.c **** 
  27:subsystems/imu.c **** #ifdef BOARD_CONFIG
  28:subsystems/imu.c **** #include BOARD_CONFIG
  29:subsystems/imu.c **** #endif
  30:subsystems/imu.c **** 
  31:subsystems/imu.c **** #include "subsystems/imu.h"
  32:subsystems/imu.c **** #include "state.h"
  33:subsystems/imu.c **** #include "subsystems/abi.h"
  34:subsystems/imu.c **** 
  35:subsystems/imu.c **** #ifdef IMU_POWER_GPIO
  36:subsystems/imu.c **** #include "mcu_periph/gpio.h"
  37:subsystems/imu.c **** 
  38:subsystems/imu.c **** #ifndef IMU_POWER_GPIO_ON
  39:subsystems/imu.c **** #define IMU_POWER_GPIO_ON gpio_set
  40:subsystems/imu.c **** #endif
  41:subsystems/imu.c **** #endif
  42:subsystems/imu.c **** 
  43:subsystems/imu.c **** #if PERIODIC_TELEMETRY
  44:subsystems/imu.c **** #include "subsystems/datalink/telemetry.h"
  45:subsystems/imu.c **** 
  46:subsystems/imu.c **** static void send_accel_raw(struct transport_tx *trans, struct link_device *dev)
  47:subsystems/imu.c **** {
  48:subsystems/imu.c ****   pprz_msg_send_IMU_ACCEL_RAW(trans, dev, AC_ID,
  49:subsystems/imu.c ****                               &imu.accel_unscaled.x, &imu.accel_unscaled.y, &imu.accel_unscaled.z);
  50:subsystems/imu.c **** }
  51:subsystems/imu.c **** 
  52:subsystems/imu.c **** static void send_accel_scaled(struct transport_tx *trans, struct link_device *dev)
  53:subsystems/imu.c **** {
  54:subsystems/imu.c ****   pprz_msg_send_IMU_ACCEL_SCALED(trans, dev, AC_ID,
  55:subsystems/imu.c ****                                  &imu.accel.x, &imu.accel.y, &imu.accel.z);
  56:subsystems/imu.c **** }
  57:subsystems/imu.c **** 
  58:subsystems/imu.c **** static void send_accel(struct transport_tx *trans, struct link_device *dev)
  59:subsystems/imu.c **** {
  60:subsystems/imu.c ****   struct FloatVect3 accel_float;
  61:subsystems/imu.c ****   ACCELS_FLOAT_OF_BFP(accel_float, imu.accel);
  62:subsystems/imu.c ****   pprz_msg_send_IMU_ACCEL(trans, dev, AC_ID,
  63:subsystems/imu.c ****                           &accel_float.x, &accel_float.y, &accel_float.z);
  64:subsystems/imu.c **** }
  65:subsystems/imu.c **** 
  66:subsystems/imu.c **** static void send_gyro_raw(struct transport_tx *trans, struct link_device *dev)
  67:subsystems/imu.c **** {
  68:subsystems/imu.c ****   pprz_msg_send_IMU_GYRO_RAW(trans, dev, AC_ID,
  69:subsystems/imu.c ****                              &imu.gyro_unscaled.p, &imu.gyro_unscaled.q, &imu.gyro_unscaled.r);
  70:subsystems/imu.c **** }
  71:subsystems/imu.c **** 
  72:subsystems/imu.c **** static void send_gyro_scaled(struct transport_tx *trans, struct link_device *dev)
  73:subsystems/imu.c **** {
  74:subsystems/imu.c ****   pprz_msg_send_IMU_GYRO_SCALED(trans, dev, AC_ID,
  75:subsystems/imu.c ****                                 &imu.gyro.p, &imu.gyro.q, &imu.gyro.r);
  76:subsystems/imu.c **** }
  77:subsystems/imu.c **** 
  78:subsystems/imu.c **** static void send_gyro(struct transport_tx *trans, struct link_device *dev)
  79:subsystems/imu.c **** {
  80:subsystems/imu.c ****   struct FloatRates gyro_float;
  81:subsystems/imu.c ****   RATES_FLOAT_OF_BFP(gyro_float, imu.gyro);
  82:subsystems/imu.c ****   pprz_msg_send_IMU_GYRO(trans, dev, AC_ID,
  83:subsystems/imu.c ****                          &gyro_float.p, &gyro_float.q, &gyro_float.r);
  84:subsystems/imu.c **** }
  85:subsystems/imu.c **** 
  86:subsystems/imu.c **** static void send_mag_raw(struct transport_tx *trans, struct link_device *dev)
  87:subsystems/imu.c **** {
  61              		.loc 2 87 0
  62              		.cfi_startproc
  63              		@ args = 0, pretend = 0, frame = 8
  64              		@ frame_needed = 0, uses_anonymous_args = 0
  65              	.LVL2:
  66 0000 2DE9FF41 		push	{r0, r1, r2, r3, r4, r5, r6, r7, r8, lr}
  67              		.cfi_def_cfa_offset 40
  68              		.cfi_offset 4, -24
  69              		.cfi_offset 5, -20
  70              		.cfi_offset 6, -16
  71              		.cfi_offset 7, -12
  72              		.cfi_offset 8, -8
  73              		.cfi_offset 14, -4
  74              	.LBB11:
  75              	.LBB12:
  76              		.file 3 "/home/dino/paparazzi/var/include/messages.h"
   1:/home/dino/paparazzi/var/include/messages.h **** /* Automatically generated by gen_messages from /home/dino/paparazzi/conf/messages.xml */
   2:/home/dino/paparazzi/var/include/messages.h **** /* Please DO NOT EDIT */
   3:/home/dino/paparazzi/var/include/messages.h **** /* Macros to send and receive messages of class telemetry */
   4:/home/dino/paparazzi/var/include/messages.h **** #ifndef _VAR_MESSAGES_telemetry_H_
   5:/home/dino/paparazzi/var/include/messages.h **** #define _VAR_MESSAGES_telemetry_H_
   6:/home/dino/paparazzi/var/include/messages.h **** #include "subsystems/datalink/transport.h"
   7:/home/dino/paparazzi/var/include/messages.h **** #include "mcu_periph/link_device.h"
   8:/home/dino/paparazzi/var/include/messages.h **** #if DOWNLINK
   9:/home/dino/paparazzi/var/include/messages.h **** #define DL_AUTOPILOT_VERSION 1
  10:/home/dino/paparazzi/var/include/messages.h **** #define DL_ALIVE 2
  11:/home/dino/paparazzi/var/include/messages.h **** #define DL_PONG 3
  12:/home/dino/paparazzi/var/include/messages.h **** #define DL_TAKEOFF 4
  13:/home/dino/paparazzi/var/include/messages.h **** #define DL_ARDRONE_NAVDATA 5
  14:/home/dino/paparazzi/var/include/messages.h **** #define DL_ATTITUDE 6
  15:/home/dino/paparazzi/var/include/messages.h **** #define DL_IR_SENSORS 7
  16:/home/dino/paparazzi/var/include/messages.h **** #define DL_GPS 8
  17:/home/dino/paparazzi/var/include/messages.h **** #define DL_NAVIGATION_REF 9
  18:/home/dino/paparazzi/var/include/messages.h **** #define DL_NAVIGATION 10
  19:/home/dino/paparazzi/var/include/messages.h **** #define DL_PPRZ_MODE 11
  20:/home/dino/paparazzi/var/include/messages.h **** #define DL_BAT 12
  21:/home/dino/paparazzi/var/include/messages.h **** #define DL_DEBUG_MCU_LINK 13
  22:/home/dino/paparazzi/var/include/messages.h **** #define DL_CALIBRATION 14
  23:/home/dino/paparazzi/var/include/messages.h **** #define DL_SETTINGS 15
  24:/home/dino/paparazzi/var/include/messages.h **** #define DL_DESIRED 16
  25:/home/dino/paparazzi/var/include/messages.h **** #define DL_GPS_SOL 17
  26:/home/dino/paparazzi/var/include/messages.h **** #define DL_ADC_GENERIC 18
  27:/home/dino/paparazzi/var/include/messages.h **** #define DL_TEST_FORMAT 19
  28:/home/dino/paparazzi/var/include/messages.h **** #define DL_CAM 20
  29:/home/dino/paparazzi/var/include/messages.h **** #define DL_CIRCLE 21
  30:/home/dino/paparazzi/var/include/messages.h **** #define DL_SEGMENT 22
  31:/home/dino/paparazzi/var/include/messages.h **** #define DL_SVINFO 25
  32:/home/dino/paparazzi/var/include/messages.h **** #define DL_DEBUG 26
  33:/home/dino/paparazzi/var/include/messages.h **** #define DL_SURVEY 27
  34:/home/dino/paparazzi/var/include/messages.h **** #define DL_WC_RSSI 28
  35:/home/dino/paparazzi/var/include/messages.h **** #define DL_RANGEFINDER 29
  36:/home/dino/paparazzi/var/include/messages.h **** #define DL_DATALINK_REPORT 30
  37:/home/dino/paparazzi/var/include/messages.h **** #define DL_DL_VALUE 31
  38:/home/dino/paparazzi/var/include/messages.h **** #define DL_MARK 32
  39:/home/dino/paparazzi/var/include/messages.h **** #define DL_SYS_MON 33
  40:/home/dino/paparazzi/var/include/messages.h **** #define DL_MOTOR 34
  41:/home/dino/paparazzi/var/include/messages.h **** #define DL_WP_MOVED 35
  42:/home/dino/paparazzi/var/include/messages.h **** #define DL_MKK 36
  43:/home/dino/paparazzi/var/include/messages.h **** #define DL_ENERGY 37
  44:/home/dino/paparazzi/var/include/messages.h **** #define DL_BARO_BMP85_CALIB 38
  45:/home/dino/paparazzi/var/include/messages.h **** #define DL_BARO_BMP85 39
  46:/home/dino/paparazzi/var/include/messages.h **** #define DL_SPEED_LOOP 40
  47:/home/dino/paparazzi/var/include/messages.h **** #define DL_ALT_KALMAN 41
  48:/home/dino/paparazzi/var/include/messages.h **** #define DL_ESTIMATOR 42
  49:/home/dino/paparazzi/var/include/messages.h **** #define DL_TUNE_ROLL 43
  50:/home/dino/paparazzi/var/include/messages.h **** #define DL_BARO_MS5534A 44
  51:/home/dino/paparazzi/var/include/messages.h **** #define DL_PRESSURE 45
  52:/home/dino/paparazzi/var/include/messages.h **** #define DL_BARO_WORDS 46
  53:/home/dino/paparazzi/var/include/messages.h **** #define DL_WP_MOVED_LLA 47
  54:/home/dino/paparazzi/var/include/messages.h **** #define DL_CHRONO 48
  55:/home/dino/paparazzi/var/include/messages.h **** #define DL_WP_MOVED_ENU 49
  56:/home/dino/paparazzi/var/include/messages.h **** #define DL_WINDTURBINE_STATUS_ 50
  57:/home/dino/paparazzi/var/include/messages.h **** #define DL_RC_3CH_ 51
  58:/home/dino/paparazzi/var/include/messages.h **** #define DL_MPPT 52
  59:/home/dino/paparazzi/var/include/messages.h **** #define DL_DEBUG_IR_I2C 53
  60:/home/dino/paparazzi/var/include/messages.h **** #define DL_AIRSPEED 54
  61:/home/dino/paparazzi/var/include/messages.h **** #define DL_XSENS 55
  62:/home/dino/paparazzi/var/include/messages.h **** #define DL_BARO_ETS 56
  63:/home/dino/paparazzi/var/include/messages.h **** #define DL_AIRSPEED_ETS 57
  64:/home/dino/paparazzi/var/include/messages.h **** #define DL_PBN 58
  65:/home/dino/paparazzi/var/include/messages.h **** #define DL_GPS_LLA 59
  66:/home/dino/paparazzi/var/include/messages.h **** #define DL_H_CTL_A 60
  67:/home/dino/paparazzi/var/include/messages.h **** #define DL_TURB_PRESSURE_RAW 61
  68:/home/dino/paparazzi/var/include/messages.h **** #define DL_TURB_PRESSURE_VOLTAGE 62
  69:/home/dino/paparazzi/var/include/messages.h **** #define DL_CAM_POINT 63
  70:/home/dino/paparazzi/var/include/messages.h **** #define DL_DC_INFO 64
  71:/home/dino/paparazzi/var/include/messages.h **** #define DL_AMSYS_BARO 65
  72:/home/dino/paparazzi/var/include/messages.h **** #define DL_AMSYS_AIRSPEED 66
  73:/home/dino/paparazzi/var/include/messages.h **** #define DL_FLIGHT_BENCHMARK 67
  74:/home/dino/paparazzi/var/include/messages.h **** #define DL_MPL3115_BARO 68
  75:/home/dino/paparazzi/var/include/messages.h **** #define DL_AOA_ADC 69
  76:/home/dino/paparazzi/var/include/messages.h **** #define DL_XTEND_RSSI 70
  77:/home/dino/paparazzi/var/include/messages.h **** #define DL_SUPERBITRF 72
  78:/home/dino/paparazzi/var/include/messages.h **** #define DL_GX3_INFO 73
  79:/home/dino/paparazzi/var/include/messages.h **** #define DL_EXPLAIN 74
  80:/home/dino/paparazzi/var/include/messages.h **** #define DL_VIDEO_TELEMETRY 75
  81:/home/dino/paparazzi/var/include/messages.h **** #define DL_VF_UPDATE 76
  82:/home/dino/paparazzi/var/include/messages.h **** #define DL_VF_PREDICT 77
  83:/home/dino/paparazzi/var/include/messages.h **** #define DL_INV_FILTER 78
  84:/home/dino/paparazzi/var/include/messages.h **** #define DL_MISSION_STATUS 79
  85:/home/dino/paparazzi/var/include/messages.h **** #define DL_CROSS_TRACK_ERROR 80
  86:/home/dino/paparazzi/var/include/messages.h **** #define DL_GENERIC_COM 81
  87:/home/dino/paparazzi/var/include/messages.h **** #define DL_FORMATION_SLOT_TM 82
  88:/home/dino/paparazzi/var/include/messages.h **** #define DL_FORMATION_STATUS_TM 83
  89:/home/dino/paparazzi/var/include/messages.h **** #define DL_BMP_STATUS 84
  90:/home/dino/paparazzi/var/include/messages.h **** #define DL_MLX_STATUS 85
  91:/home/dino/paparazzi/var/include/messages.h **** #define DL_TMP_STATUS 86
  92:/home/dino/paparazzi/var/include/messages.h **** #define DL_WIND_INFO_RET 87
  93:/home/dino/paparazzi/var/include/messages.h **** #define DL_SCP_STATUS 88
  94:/home/dino/paparazzi/var/include/messages.h **** #define DL_SHT_STATUS 89
  95:/home/dino/paparazzi/var/include/messages.h **** #define DL_ENOSE_STATUS 90
  96:/home/dino/paparazzi/var/include/messages.h **** #define DL_DPICCO_STATUS 91
  97:/home/dino/paparazzi/var/include/messages.h **** #define DL_ANTENNA_DEBUG 92
  98:/home/dino/paparazzi/var/include/messages.h **** #define DL_ANTENNA_STATUS 93
  99:/home/dino/paparazzi/var/include/messages.h **** #define DL_MOTOR_BENCH_STATUS 94
 100:/home/dino/paparazzi/var/include/messages.h **** #define DL_MOTOR_BENCH_STATIC 95
 101:/home/dino/paparazzi/var/include/messages.h **** #define DL_HIH_STATUS 96
 102:/home/dino/paparazzi/var/include/messages.h **** #define DL_TEMT_STATUS 97
 103:/home/dino/paparazzi/var/include/messages.h **** #define DL_GP2Y_STATUS 98
 104:/home/dino/paparazzi/var/include/messages.h **** #define DL_SHT_I2C_SERIAL 99
 105:/home/dino/paparazzi/var/include/messages.h **** #define DL_PPM 100
 106:/home/dino/paparazzi/var/include/messages.h **** #define DL_RC 101
 107:/home/dino/paparazzi/var/include/messages.h **** #define DL_COMMANDS 102
 108:/home/dino/paparazzi/var/include/messages.h **** #define DL_FBW_STATUS 103
 109:/home/dino/paparazzi/var/include/messages.h **** #define DL_ADC 104
 110:/home/dino/paparazzi/var/include/messages.h **** #define DL_ACTUATORS 105
 111:/home/dino/paparazzi/var/include/messages.h **** #define DL_DC_SHOT 110
 112:/home/dino/paparazzi/var/include/messages.h **** #define DL_TEST_BOARD_RESULTS 111
 113:/home/dino/paparazzi/var/include/messages.h **** #define DL_MLX_SERIAL 113
 114:/home/dino/paparazzi/var/include/messages.h **** #define DL_PAYLOAD 114
 115:/home/dino/paparazzi/var/include/messages.h **** #define DL_HTM_STATUS 115
 116:/home/dino/paparazzi/var/include/messages.h **** #define DL_BARO_MS5611 116
 117:/home/dino/paparazzi/var/include/messages.h **** #define DL_MS5611_COEFF 117
 118:/home/dino/paparazzi/var/include/messages.h **** #define DL_ATMOSPHERE_CHARGE 118
 119:/home/dino/paparazzi/var/include/messages.h **** #define DL_SOLAR_RADIATION 119
 120:/home/dino/paparazzi/var/include/messages.h **** #define DL_TCAS_TA 120
 121:/home/dino/paparazzi/var/include/messages.h **** #define DL_TCAS_RA 121
 122:/home/dino/paparazzi/var/include/messages.h **** #define DL_TCAS_RESOLVED 122
 123:/home/dino/paparazzi/var/include/messages.h **** #define DL_TCAS_DEBUG 123
 124:/home/dino/paparazzi/var/include/messages.h **** #define DL_POTENTIAL 124
 125:/home/dino/paparazzi/var/include/messages.h **** #define DL_VERTICAL_ENERGY 125
 126:/home/dino/paparazzi/var/include/messages.h **** #define DL_TEMP_TCOUPLE 126
 127:/home/dino/paparazzi/var/include/messages.h **** #define DL_SHT_I2C_STATUS 127
 128:/home/dino/paparazzi/var/include/messages.h **** #define DL_CAMERA_SNAPSHOT 128
 129:/home/dino/paparazzi/var/include/messages.h **** #define DL_TIMESTAMP 129
 130:/home/dino/paparazzi/var/include/messages.h **** #define DL_STAB_ATTITUDE_FLOAT 130
 131:/home/dino/paparazzi/var/include/messages.h **** #define DL_IMU_GYRO_SCALED 131
 132:/home/dino/paparazzi/var/include/messages.h **** #define DL_IMU_ACCEL_SCALED 132
 133:/home/dino/paparazzi/var/include/messages.h **** #define DL_IMU_MAG_SCALED 133
 134:/home/dino/paparazzi/var/include/messages.h **** #define DL_FILTER 134
 135:/home/dino/paparazzi/var/include/messages.h **** #define DL_FILTER2 135
 136:/home/dino/paparazzi/var/include/messages.h **** #define DL_RATE_LOOP 136
 137:/home/dino/paparazzi/var/include/messages.h **** #define DL_FILTER_ALIGNER 137
 138:/home/dino/paparazzi/var/include/messages.h **** #define DL_AIRSPEED_MS45XX 138
 139:/home/dino/paparazzi/var/include/messages.h **** #define DL_FILTER_COR 139
 140:/home/dino/paparazzi/var/include/messages.h **** #define DL_STAB_ATTITUDE_INT 140
 141:/home/dino/paparazzi/var/include/messages.h **** #define DL_STAB_ATTITUDE_REF_INT 141
 142:/home/dino/paparazzi/var/include/messages.h **** #define DL_STAB_ATTITUDE_REF_FLOAT 142
 143:/home/dino/paparazzi/var/include/messages.h **** #define DL_ROTORCRAFT_CMD 143
 144:/home/dino/paparazzi/var/include/messages.h **** #define DL_GUIDANCE_H_INT 144
 145:/home/dino/paparazzi/var/include/messages.h **** #define DL_VERT_LOOP 145
 146:/home/dino/paparazzi/var/include/messages.h **** #define DL_HOVER_LOOP 146
 147:/home/dino/paparazzi/var/include/messages.h **** #define DL_ROTORCRAFT_FP 147
 148:/home/dino/paparazzi/var/include/messages.h **** #define DL_TEMP_ADC 148
 149:/home/dino/paparazzi/var/include/messages.h **** #define DL_GUIDANCE_H_REF_INT 149
 150:/home/dino/paparazzi/var/include/messages.h **** #define DL_ROTORCRAFT_TUNE_HOVER 150
 151:/home/dino/paparazzi/var/include/messages.h **** #define DL_INS_Z 151
 152:/home/dino/paparazzi/var/include/messages.h **** #define DL_PCAP01_STATUS 152
 153:/home/dino/paparazzi/var/include/messages.h **** #define DL_GEIGER_COUNTER 153
 154:/home/dino/paparazzi/var/include/messages.h **** #define DL_INS_REF 154
 155:/home/dino/paparazzi/var/include/messages.h **** #define DL_GPS_INT 155
 156:/home/dino/paparazzi/var/include/messages.h **** #define DL_AHRS_EULER_INT 156
 157:/home/dino/paparazzi/var/include/messages.h **** #define DL_AHRS_QUAT_INT 157
 158:/home/dino/paparazzi/var/include/messages.h **** #define DL_AHRS_RMAT_INT 158
 159:/home/dino/paparazzi/var/include/messages.h **** #define DL_ROTORCRAFT_NAV_STATUS 159
 160:/home/dino/paparazzi/var/include/messages.h **** #define DL_ROTORCRAFT_RADIO_CONTROL 160
 161:/home/dino/paparazzi/var/include/messages.h **** #define DL_VFF_EXTENDED 161
 162:/home/dino/paparazzi/var/include/messages.h **** #define DL_VFF 162
 163:/home/dino/paparazzi/var/include/messages.h **** #define DL_GEO_MAG 163
 164:/home/dino/paparazzi/var/include/messages.h **** #define DL_HFF 164
 165:/home/dino/paparazzi/var/include/messages.h **** #define DL_HFF_DBG 165
 166:/home/dino/paparazzi/var/include/messages.h **** #define DL_HFF_GPS 166
 167:/home/dino/paparazzi/var/include/messages.h **** #define DL_INS_SONAR 167
 168:/home/dino/paparazzi/var/include/messages.h **** #define DL_ROTORCRAFT_CAM 168
 169:/home/dino/paparazzi/var/include/messages.h **** #define DL_AHRS_REF_QUAT 169
 170:/home/dino/paparazzi/var/include/messages.h **** #define DL_EKF7_XHAT 170
 171:/home/dino/paparazzi/var/include/messages.h **** #define DL_EKF7_Y 171
 172:/home/dino/paparazzi/var/include/messages.h **** #define DL_EKF7_P_DIAG 172
 173:/home/dino/paparazzi/var/include/messages.h **** #define DL_AHRS_EULER 173
 174:/home/dino/paparazzi/var/include/messages.h **** #define DL_AHRS_MEASUREMENT_EULER 174
 175:/home/dino/paparazzi/var/include/messages.h **** #define DL_WT 175
 176:/home/dino/paparazzi/var/include/messages.h **** #define DL_CSC_CAN_DEBUG 176
 177:/home/dino/paparazzi/var/include/messages.h **** #define DL_CSC_CAN_MSG 177
 178:/home/dino/paparazzi/var/include/messages.h **** #define DL_AHRS_GYRO_BIAS_INT 178
 179:/home/dino/paparazzi/var/include/messages.h **** #define DL_FLOW_AP_OTF 179
 180:/home/dino/paparazzi/var/include/messages.h **** #define DL_FMS_TIME 180
 181:/home/dino/paparazzi/var/include/messages.h **** #define DL_LOADCELL 181
 182:/home/dino/paparazzi/var/include/messages.h **** #define DL_FLA_DEBUG 182
 183:/home/dino/paparazzi/var/include/messages.h **** #define DL_BLMC_FAULT_STATUS 183
 184:/home/dino/paparazzi/var/include/messages.h **** #define DL_BLMC_SPEEDS 184
 185:/home/dino/paparazzi/var/include/messages.h **** #define DL_AHRS_DEBUG_QUAT 185
 186:/home/dino/paparazzi/var/include/messages.h **** #define DL_BLMC_BUSVOLTS 186
 187:/home/dino/paparazzi/var/include/messages.h **** #define DL_SYSTEM_STATUS 187
 188:/home/dino/paparazzi/var/include/messages.h **** #define DL_DYNAMIXEL 188
 189:/home/dino/paparazzi/var/include/messages.h **** #define DL_RMAT_DEBUG 189
 190:/home/dino/paparazzi/var/include/messages.h **** #define DL_SIMPLE_COMMANDS 190
 191:/home/dino/paparazzi/var/include/messages.h **** #define DL_VANE_SENSOR 191
 192:/home/dino/paparazzi/var/include/messages.h **** #define DL_CONTROLLER_GAINS 192
 193:/home/dino/paparazzi/var/include/messages.h **** #define DL_AHRS_LKF 193
 194:/home/dino/paparazzi/var/include/messages.h **** #define DL_AHRS_LKF_DEBUG 194
 195:/home/dino/paparazzi/var/include/messages.h **** #define DL_AHRS_LKF_ACC_DBG 195
 196:/home/dino/paparazzi/var/include/messages.h **** #define DL_AHRS_LKF_MAG_DBG 196
 197:/home/dino/paparazzi/var/include/messages.h **** #define DL_NPS_SENSORS_SCALED 197
 198:/home/dino/paparazzi/var/include/messages.h **** #define DL_INS 198
 199:/home/dino/paparazzi/var/include/messages.h **** #define DL_GPS_ERROR 199
 200:/home/dino/paparazzi/var/include/messages.h **** #define DL_IMU_GYRO 200
 201:/home/dino/paparazzi/var/include/messages.h **** #define DL_IMU_MAG 201
 202:/home/dino/paparazzi/var/include/messages.h **** #define DL_IMU_ACCEL 202
 203:/home/dino/paparazzi/var/include/messages.h **** #define DL_IMU_GYRO_RAW 203
 204:/home/dino/paparazzi/var/include/messages.h **** #define DL_IMU_ACCEL_RAW 204
 205:/home/dino/paparazzi/var/include/messages.h **** #define DL_IMU_MAG_RAW 205
 206:/home/dino/paparazzi/var/include/messages.h **** #define DL_IMU_MAG_SETTINGS 206
 207:/home/dino/paparazzi/var/include/messages.h **** #define DL_IMU_MAG_CURRENT_CALIBRATION 207
 208:/home/dino/paparazzi/var/include/messages.h **** #define DL_UART_ERRORS 208
 209:/home/dino/paparazzi/var/include/messages.h **** #define DL_IMU_GYRO_LP 209
 210:/home/dino/paparazzi/var/include/messages.h **** #define DL_IMU_PRESSURE 210
 211:/home/dino/paparazzi/var/include/messages.h **** #define DL_IMU_HS_GYRO 211
 212:/home/dino/paparazzi/var/include/messages.h **** #define DL_TEST_PASSTHROUGH_STATUS 212
 213:/home/dino/paparazzi/var/include/messages.h **** #define DL_TUNE_VERT 213
 214:/home/dino/paparazzi/var/include/messages.h **** #define DL_MF_DAQ_STATE 214
 215:/home/dino/paparazzi/var/include/messages.h **** #define DL_INFO_MSG 215
 216:/home/dino/paparazzi/var/include/messages.h **** #define DL_STAB_ATTITUDE_INDI 216
 217:/home/dino/paparazzi/var/include/messages.h **** #define DL_BEBOP_ACTUATORS 218
 218:/home/dino/paparazzi/var/include/messages.h **** #define DL_WEATHER 219
 219:/home/dino/paparazzi/var/include/messages.h **** #define DL_IMU_TURNTABLE 220
 220:/home/dino/paparazzi/var/include/messages.h **** #define DL_BARO_RAW 221
 221:/home/dino/paparazzi/var/include/messages.h **** #define DL_AIR_DATA 222
 222:/home/dino/paparazzi/var/include/messages.h **** #define DL_AMSL 223
 223:/home/dino/paparazzi/var/include/messages.h **** #define DL_VIDEO_SYNC 225
 224:/home/dino/paparazzi/var/include/messages.h **** #define DL_PERIODIC_TELEMETRY_ERR 226
 225:/home/dino/paparazzi/var/include/messages.h **** #define DL_TIME 227
 226:/home/dino/paparazzi/var/include/messages.h **** #define DL_OPTIC_FLOW_EST 228
 227:/home/dino/paparazzi/var/include/messages.h **** #define DL_AHRS_ARDRONE2 230
 228:/home/dino/paparazzi/var/include/messages.h **** #define DL_ROTORCRAFT_STATUS 231
 229:/home/dino/paparazzi/var/include/messages.h **** #define DL_STATE_FILTER_STATUS 232
 230:/home/dino/paparazzi/var/include/messages.h **** #define DL_PX4FLOW 233
 231:/home/dino/paparazzi/var/include/messages.h **** #define DL_OPTICFLOW 234
 232:/home/dino/paparazzi/var/include/messages.h **** #define DL_VISUALTARGET 235
 233:/home/dino/paparazzi/var/include/messages.h **** #define DL_SONAR 236
 234:/home/dino/paparazzi/var/include/messages.h **** #define DL_PAYLOAD_FLOAT 237
 235:/home/dino/paparazzi/var/include/messages.h **** #define DL_NPS_POS_LLH 238
 236:/home/dino/paparazzi/var/include/messages.h **** #define DL_NPS_RPMS 239
 237:/home/dino/paparazzi/var/include/messages.h **** #define DL_NPS_SPEED_POS 240
 238:/home/dino/paparazzi/var/include/messages.h **** #define DL_NPS_RATE_ATTITUDE 241
 239:/home/dino/paparazzi/var/include/messages.h **** #define DL_NPS_GYRO_BIAS 242
 240:/home/dino/paparazzi/var/include/messages.h **** #define DL_NPS_RANGE_METER 243
 241:/home/dino/paparazzi/var/include/messages.h **** #define DL_NPS_WIND 244
 242:/home/dino/paparazzi/var/include/messages.h **** #define DL_PPRZ_DEBUG 247
 243:/home/dino/paparazzi/var/include/messages.h **** #define DL_NPS_ACCEL_LTP 248
 244:/home/dino/paparazzi/var/include/messages.h **** #define DL_LOOSE_INS_GPS 249
 245:/home/dino/paparazzi/var/include/messages.h **** #define DL_AFL_COEFFS 250
 246:/home/dino/paparazzi/var/include/messages.h **** #define DL_I2C_ERRORS 253
 247:/home/dino/paparazzi/var/include/messages.h **** #define DL_RDYB_TRAJECTORY 254
 248:/home/dino/paparazzi/var/include/messages.h **** #define DL_HENRY_GNSS 255
 249:/home/dino/paparazzi/var/include/messages.h **** #define DL_MSG_telemetry_NB 240
 250:/home/dino/paparazzi/var/include/messages.h **** 
 251:/home/dino/paparazzi/var/include/messages.h **** #define DOWNLINK_SEND_AUTOPILOT_VERSION(_trans, _dev, version, nb_desc, desc) pprz_msg_send_AUTOPIL
 252:/home/dino/paparazzi/var/include/messages.h **** static inline void pprz_msg_send_AUTOPILOT_VERSION(struct transport_tx *trans, struct link_device *
 253:/home/dino/paparazzi/var/include/messages.h **** 	if (trans->check_available_space(trans->impl, dev, trans->size_of(trans->impl, 0+4+1+nb_desc*1 +2 
 254:/home/dino/paparazzi/var/include/messages.h **** 	  trans->count_bytes(trans->impl, dev, trans->size_of(trans->impl, 0+4+1+nb_desc*1 +2 /* msg heade
 255:/home/dino/paparazzi/var/include/messages.h **** 	  trans->start_message(trans->impl, dev, 0+4+1+nb_desc*1 +2 /* msg header overhead */);
 256:/home/dino/paparazzi/var/include/messages.h **** 	  trans->put_bytes(trans->impl, dev, DL_TYPE_UINT8, DL_FORMAT_SCALAR, 1, &ac_id);
 257:/home/dino/paparazzi/var/include/messages.h **** 	  trans->put_named_byte(trans->impl, dev, DL_TYPE_UINT8, DL_FORMAT_SCALAR, DL_AUTOPILOT_VERSION, "
 258:/home/dino/paparazzi/var/include/messages.h **** 	  trans->put_bytes(trans->impl, dev, DL_TYPE_UINT32, DL_FORMAT_SCALAR, 4, (void *) _version);
 259:/home/dino/paparazzi/var/include/messages.h **** 	  trans->put_bytes(trans->impl, dev, DL_TYPE_ARRAY_LENGTH, DL_FORMAT_SCALAR, 1, (void *) &nb_desc)
 260:/home/dino/paparazzi/var/include/messages.h **** 	  trans->put_bytes(trans->impl, dev, DL_TYPE_CHAR, DL_FORMAT_ARRAY, 1 * nb_desc, (void *) _desc);
 261:/home/dino/paparazzi/var/include/messages.h **** 	  trans->end_message(trans->impl, dev);
 262:/home/dino/paparazzi/var/include/messages.h **** 	} else
 263:/home/dino/paparazzi/var/include/messages.h **** 	  trans->overrun(trans->impl, dev);
 264:/home/dino/paparazzi/var/include/messages.h **** }
 265:/home/dino/paparazzi/var/include/messages.h **** 
 266:/home/dino/paparazzi/var/include/messages.h **** #define DOWNLINK_SEND_ALIVE(_trans, _dev, nb_md5sum, md5sum) pprz_msg_send_ALIVE(&((_trans).trans_t
 267:/home/dino/paparazzi/var/include/messages.h **** static inline void pprz_msg_send_ALIVE(struct transport_tx *trans, struct link_device *dev, uint8_t
 268:/home/dino/paparazzi/var/include/messages.h **** 	if (trans->check_available_space(trans->impl, dev, trans->size_of(trans->impl, 0+1+nb_md5sum*1 +2 
 269:/home/dino/paparazzi/var/include/messages.h **** 	  trans->count_bytes(trans->impl, dev, trans->size_of(trans->impl, 0+1+nb_md5sum*1 +2 /* msg heade
 270:/home/dino/paparazzi/var/include/messages.h **** 	  trans->start_message(trans->impl, dev, 0+1+nb_md5sum*1 +2 /* msg header overhead */);
 271:/home/dino/paparazzi/var/include/messages.h **** 	  trans->put_bytes(trans->impl, dev, DL_TYPE_UINT8, DL_FORMAT_SCALAR, 1, &ac_id);
 272:/home/dino/paparazzi/var/include/messages.h **** 	  trans->put_named_byte(trans->impl, dev, DL_TYPE_UINT8, DL_FORMAT_SCALAR, DL_ALIVE, "ALIVE");
 273:/home/dino/paparazzi/var/include/messages.h **** 	  trans->put_bytes(trans->impl, dev, DL_TYPE_ARRAY_LENGTH, DL_FORMAT_SCALAR, 1, (void *) &nb_md5su
 274:/home/dino/paparazzi/var/include/messages.h **** 	  trans->put_bytes(trans->impl, dev, DL_TYPE_UINT8, DL_FORMAT_ARRAY, 1 * nb_md5sum, (void *) _md5s
 275:/home/dino/paparazzi/var/include/messages.h **** 	  trans->end_message(trans->impl, dev);
 276:/home/dino/paparazzi/var/include/messages.h **** 	} else
 277:/home/dino/paparazzi/var/include/messages.h **** 	  trans->overrun(trans->impl, dev);
 278:/home/dino/paparazzi/var/include/messages.h **** }
 279:/home/dino/paparazzi/var/include/messages.h **** 
 280:/home/dino/paparazzi/var/include/messages.h **** #define DOWNLINK_SEND_PONG(_trans, _dev) pprz_msg_send_PONG(&((_trans).trans_tx), &((_dev).device),
 281:/home/dino/paparazzi/var/include/messages.h **** static inline void pprz_msg_send_PONG(struct transport_tx *trans, struct link_device *dev, uint8_t 
 282:/home/dino/paparazzi/var/include/messages.h **** 	if (trans->check_available_space(trans->impl, dev, trans->size_of(trans->impl, 0 +2 /* msg header 
 283:/home/dino/paparazzi/var/include/messages.h **** 	  trans->count_bytes(trans->impl, dev, trans->size_of(trans->impl, 0 +2 /* msg header overhead */)
 284:/home/dino/paparazzi/var/include/messages.h **** 	  trans->start_message(trans->impl, dev, 0 +2 /* msg header overhead */);
 285:/home/dino/paparazzi/var/include/messages.h **** 	  trans->put_bytes(trans->impl, dev, DL_TYPE_UINT8, DL_FORMAT_SCALAR, 1, &ac_id);
 286:/home/dino/paparazzi/var/include/messages.h **** 	  trans->put_named_byte(trans->impl, dev, DL_TYPE_UINT8, DL_FORMAT_SCALAR, DL_PONG, "PONG");
 287:/home/dino/paparazzi/var/include/messages.h **** 	  trans->end_message(trans->impl, dev);
 288:/home/dino/paparazzi/var/include/messages.h **** 	} else
 289:/home/dino/paparazzi/var/include/messages.h **** 	  trans->overrun(trans->impl, dev);
 290:/home/dino/paparazzi/var/include/messages.h **** }
 291:/home/dino/paparazzi/var/include/messages.h **** 
 292:/home/dino/paparazzi/var/include/messages.h **** #define DOWNLINK_SEND_TAKEOFF(_trans, _dev, cpu_time) pprz_msg_send_TAKEOFF(&((_trans).trans_tx), &
 293:/home/dino/paparazzi/var/include/messages.h **** static inline void pprz_msg_send_TAKEOFF(struct transport_tx *trans, struct link_device *dev, uint8
 294:/home/dino/paparazzi/var/include/messages.h **** 	if (trans->check_available_space(trans->impl, dev, trans->size_of(trans->impl, 0+2 +2 /* msg heade
 295:/home/dino/paparazzi/var/include/messages.h **** 	  trans->count_bytes(trans->impl, dev, trans->size_of(trans->impl, 0+2 +2 /* msg header overhead *
 296:/home/dino/paparazzi/var/include/messages.h **** 	  trans->start_message(trans->impl, dev, 0+2 +2 /* msg header overhead */);
 297:/home/dino/paparazzi/var/include/messages.h **** 	  trans->put_bytes(trans->impl, dev, DL_TYPE_UINT8, DL_FORMAT_SCALAR, 1, &ac_id);
 298:/home/dino/paparazzi/var/include/messages.h **** 	  trans->put_named_byte(trans->impl, dev, DL_TYPE_UINT8, DL_FORMAT_SCALAR, DL_TAKEOFF, "TAKEOFF");
 299:/home/dino/paparazzi/var/include/messages.h **** 	  trans->put_bytes(trans->impl, dev, DL_TYPE_UINT16, DL_FORMAT_SCALAR, 2, (void *) _cpu_time);
 300:/home/dino/paparazzi/var/include/messages.h **** 	  trans->end_message(trans->impl, dev);
 301:/home/dino/paparazzi/var/include/messages.h **** 	} else
 302:/home/dino/paparazzi/var/include/messages.h **** 	  trans->overrun(trans->impl, dev);
 303:/home/dino/paparazzi/var/include/messages.h **** }
 304:/home/dino/paparazzi/var/include/messages.h **** 
 305:/home/dino/paparazzi/var/include/messages.h **** #define DOWNLINK_SEND_ARDRONE_NAVDATA(_trans, _dev, taille, nu_trame, ax, ay, az, vx, vy, vz, tempe
 306:/home/dino/paparazzi/var/include/messages.h **** static inline void pprz_msg_send_ARDRONE_NAVDATA(struct transport_tx *trans, struct link_device *de
 307:/home/dino/paparazzi/var/include/messages.h **** 	if (trans->check_available_space(trans->impl, dev, trans->size_of(trans->impl, 0+2+2+2+2+2+2+2+2+2
 308:/home/dino/paparazzi/var/include/messages.h **** 	  trans->count_bytes(trans->impl, dev, trans->size_of(trans->impl, 0+2+2+2+2+2+2+2+2+2+2+2+2+2+2+2
 309:/home/dino/paparazzi/var/include/messages.h **** 	  trans->start_message(trans->impl, dev, 0+2+2+2+2+2+2+2+2+2+2+2+2+2+2+2+2+2+2+2+4+2+2+4+2+2+2+2+2
 310:/home/dino/paparazzi/var/include/messages.h **** 	  trans->put_bytes(trans->impl, dev, DL_TYPE_UINT8, DL_FORMAT_SCALAR, 1, &ac_id);
 311:/home/dino/paparazzi/var/include/messages.h **** 	  trans->put_named_byte(trans->impl, dev, DL_TYPE_UINT8, DL_FORMAT_SCALAR, DL_ARDRONE_NAVDATA, "AR
 312:/home/dino/paparazzi/var/include/messages.h **** 	  trans->put_bytes(trans->impl, dev, DL_TYPE_UINT16, DL_FORMAT_SCALAR, 2, (void *) _taille);
 313:/home/dino/paparazzi/var/include/messages.h **** 	  trans->put_bytes(trans->impl, dev, DL_TYPE_UINT16, DL_FORMAT_SCALAR, 2, (void *) _nu_trame);
 314:/home/dino/paparazzi/var/include/messages.h **** 	  trans->put_bytes(trans->impl, dev, DL_TYPE_UINT16, DL_FORMAT_SCALAR, 2, (void *) _ax);
 315:/home/dino/paparazzi/var/include/messages.h **** 	  trans->put_bytes(trans->impl, dev, DL_TYPE_UINT16, DL_FORMAT_SCALAR, 2, (void *) _ay);
 316:/home/dino/paparazzi/var/include/messages.h **** 	  trans->put_bytes(trans->impl, dev, DL_TYPE_UINT16, DL_FORMAT_SCALAR, 2, (void *) _az);
 317:/home/dino/paparazzi/var/include/messages.h **** 	  trans->put_bytes(trans->impl, dev, DL_TYPE_INT16, DL_FORMAT_SCALAR, 2, (void *) _vx);
 318:/home/dino/paparazzi/var/include/messages.h **** 	  trans->put_bytes(trans->impl, dev, DL_TYPE_INT16, DL_FORMAT_SCALAR, 2, (void *) _vy);
 319:/home/dino/paparazzi/var/include/messages.h **** 	  trans->put_bytes(trans->impl, dev, DL_TYPE_INT16, DL_FORMAT_SCALAR, 2, (void *) _vz);
 320:/home/dino/paparazzi/var/include/messages.h **** 	  trans->put_bytes(trans->impl, dev, DL_TYPE_UINT16, DL_FORMAT_SCALAR, 2, (void *) _temperature_ac
 321:/home/dino/paparazzi/var/include/messages.h **** 	  trans->put_bytes(trans->impl, dev, DL_TYPE_UINT16, DL_FORMAT_SCALAR, 2, (void *) _temperature_gy
 322:/home/dino/paparazzi/var/include/messages.h **** 	  trans->put_bytes(trans->impl, dev, DL_TYPE_UINT16, DL_FORMAT_SCALAR, 2, (void *) _ultrasound);
 323:/home/dino/paparazzi/var/include/messages.h **** 	  trans->put_bytes(trans->impl, dev, DL_TYPE_UINT16, DL_FORMAT_SCALAR, 2, (void *) _us_debut_echo)
 324:/home/dino/paparazzi/var/include/messages.h **** 	  trans->put_bytes(trans->impl, dev, DL_TYPE_UINT16, DL_FORMAT_SCALAR, 2, (void *) _us_fin_echo);
 325:/home/dino/paparazzi/var/include/messages.h **** 	  trans->put_bytes(trans->impl, dev, DL_TYPE_UINT16, DL_FORMAT_SCALAR, 2, (void *) _us_association
 326:/home/dino/paparazzi/var/include/messages.h **** 	  trans->put_bytes(trans->impl, dev, DL_TYPE_UINT16, DL_FORMAT_SCALAR, 2, (void *) _us_distance_ec
 327:/home/dino/paparazzi/var/include/messages.h **** 	  trans->put_bytes(trans->impl, dev, DL_TYPE_UINT16, DL_FORMAT_SCALAR, 2, (void *) _us_curve_time)
 328:/home/dino/paparazzi/var/include/messages.h **** 	  trans->put_bytes(trans->impl, dev, DL_TYPE_UINT16, DL_FORMAT_SCALAR, 2, (void *) _us_curve_value
 329:/home/dino/paparazzi/var/include/messages.h **** 	  trans->put_bytes(trans->impl, dev, DL_TYPE_UINT16, DL_FORMAT_SCALAR, 2, (void *) _us_curve_ref);
 330:/home/dino/paparazzi/var/include/messages.h **** 	  trans->put_bytes(trans->impl, dev, DL_TYPE_UINT16, DL_FORMAT_SCALAR, 2, (void *) _nb_echo);
 331:/home/dino/paparazzi/var/include/messages.h **** 	  trans->put_bytes(trans->impl, dev, DL_TYPE_UINT32, DL_FORMAT_SCALAR, 4, (void *) _sum_echo);
 332:/home/dino/paparazzi/var/include/messages.h **** 	  trans->put_bytes(trans->impl, dev, DL_TYPE_INT16, DL_FORMAT_SCALAR, 2, (void *) _gradient);
 333:/home/dino/paparazzi/var/include/messages.h **** 	  trans->put_bytes(trans->impl, dev, DL_TYPE_UINT16, DL_FORMAT_SCALAR, 2, (void *) _flag_echo_ini)
 334:/home/dino/paparazzi/var/include/messages.h **** 	  trans->put_bytes(trans->impl, dev, DL_TYPE_INT32, DL_FORMAT_SCALAR, 4, (void *) _pressure);
 335:/home/dino/paparazzi/var/include/messages.h **** 	  trans->put_bytes(trans->impl, dev, DL_TYPE_UINT16, DL_FORMAT_SCALAR, 2, (void *) _temperature_pr
 336:/home/dino/paparazzi/var/include/messages.h **** 	  trans->put_bytes(trans->impl, dev, DL_TYPE_INT16, DL_FORMAT_SCALAR, 2, (void *) _mx);
 337:/home/dino/paparazzi/var/include/messages.h **** 	  trans->put_bytes(trans->impl, dev, DL_TYPE_INT16, DL_FORMAT_SCALAR, 2, (void *) _my);
 338:/home/dino/paparazzi/var/include/messages.h **** 	  trans->put_bytes(trans->impl, dev, DL_TYPE_INT16, DL_FORMAT_SCALAR, 2, (void *) _mz);
 339:/home/dino/paparazzi/var/include/messages.h **** 	  trans->put_bytes(trans->impl, dev, DL_TYPE_UINT16, DL_FORMAT_SCALAR, 2, (void *) _chksum);
 340:/home/dino/paparazzi/var/include/messages.h **** 	  trans->put_bytes(trans->impl, dev, DL_TYPE_UINT32, DL_FORMAT_SCALAR, 4, (void *) _checksum_error
 341:/home/dino/paparazzi/var/include/messages.h **** 	  trans->end_message(trans->impl, dev);
 342:/home/dino/paparazzi/var/include/messages.h **** 	} else
 343:/home/dino/paparazzi/var/include/messages.h **** 	  trans->overrun(trans->impl, dev);
 344:/home/dino/paparazzi/var/include/messages.h **** }
 345:/home/dino/paparazzi/var/include/messages.h **** 
 346:/home/dino/paparazzi/var/include/messages.h **** #define DOWNLINK_SEND_ATTITUDE(_trans, _dev, phi, psi, theta) pprz_msg_send_ATTITUDE(&((_trans).tra
 347:/home/dino/paparazzi/var/include/messages.h **** static inline void pprz_msg_send_ATTITUDE(struct transport_tx *trans, struct link_device *dev, uint
 348:/home/dino/paparazzi/var/include/messages.h **** 	if (trans->check_available_space(trans->impl, dev, trans->size_of(trans->impl, 0+4+4+4 +2 /* msg h
 349:/home/dino/paparazzi/var/include/messages.h **** 	  trans->count_bytes(trans->impl, dev, trans->size_of(trans->impl, 0+4+4+4 +2 /* msg header overhe
 350:/home/dino/paparazzi/var/include/messages.h **** 	  trans->start_message(trans->impl, dev, 0+4+4+4 +2 /* msg header overhead */);
 351:/home/dino/paparazzi/var/include/messages.h **** 	  trans->put_bytes(trans->impl, dev, DL_TYPE_UINT8, DL_FORMAT_SCALAR, 1, &ac_id);
 352:/home/dino/paparazzi/var/include/messages.h **** 	  trans->put_named_byte(trans->impl, dev, DL_TYPE_UINT8, DL_FORMAT_SCALAR, DL_ATTITUDE, "ATTITUDE"
 353:/home/dino/paparazzi/var/include/messages.h **** 	  trans->put_bytes(trans->impl, dev, DL_TYPE_FLOAT, DL_FORMAT_SCALAR, 4, (void *) _phi);
 354:/home/dino/paparazzi/var/include/messages.h **** 	  trans->put_bytes(trans->impl, dev, DL_TYPE_FLOAT, DL_FORMAT_SCALAR, 4, (void *) _psi);
 355:/home/dino/paparazzi/var/include/messages.h **** 	  trans->put_bytes(trans->impl, dev, DL_TYPE_FLOAT, DL_FORMAT_SCALAR, 4, (void *) _theta);
 356:/home/dino/paparazzi/var/include/messages.h **** 	  trans->end_message(trans->impl, dev);
 357:/home/dino/paparazzi/var/include/messages.h **** 	} else
 358:/home/dino/paparazzi/var/include/messages.h **** 	  trans->overrun(trans->impl, dev);
 359:/home/dino/paparazzi/var/include/messages.h **** }
 360:/home/dino/paparazzi/var/include/messages.h **** 
 361:/home/dino/paparazzi/var/include/messages.h **** #define DOWNLINK_SEND_IR_SENSORS(_trans, _dev, ir1, ir2, longitudinal, lateral, vertical) pprz_msg_
 362:/home/dino/paparazzi/var/include/messages.h **** static inline void pprz_msg_send_IR_SENSORS(struct transport_tx *trans, struct link_device *dev, ui
 363:/home/dino/paparazzi/var/include/messages.h **** 	if (trans->check_available_space(trans->impl, dev, trans->size_of(trans->impl, 0+2+2+2+2+2 +2 /* m
 364:/home/dino/paparazzi/var/include/messages.h **** 	  trans->count_bytes(trans->impl, dev, trans->size_of(trans->impl, 0+2+2+2+2+2 +2 /* msg header ov
 365:/home/dino/paparazzi/var/include/messages.h **** 	  trans->start_message(trans->impl, dev, 0+2+2+2+2+2 +2 /* msg header overhead */);
 366:/home/dino/paparazzi/var/include/messages.h **** 	  trans->put_bytes(trans->impl, dev, DL_TYPE_UINT8, DL_FORMAT_SCALAR, 1, &ac_id);
 367:/home/dino/paparazzi/var/include/messages.h **** 	  trans->put_named_byte(trans->impl, dev, DL_TYPE_UINT8, DL_FORMAT_SCALAR, DL_IR_SENSORS, "IR_SENS
 368:/home/dino/paparazzi/var/include/messages.h **** 	  trans->put_bytes(trans->impl, dev, DL_TYPE_INT16, DL_FORMAT_SCALAR, 2, (void *) _ir1);
 369:/home/dino/paparazzi/var/include/messages.h **** 	  trans->put_bytes(trans->impl, dev, DL_TYPE_INT16, DL_FORMAT_SCALAR, 2, (void *) _ir2);
 370:/home/dino/paparazzi/var/include/messages.h **** 	  trans->put_bytes(trans->impl, dev, DL_TYPE_INT16, DL_FORMAT_SCALAR, 2, (void *) _longitudinal);
 371:/home/dino/paparazzi/var/include/messages.h **** 	  trans->put_bytes(trans->impl, dev, DL_TYPE_INT16, DL_FORMAT_SCALAR, 2, (void *) _lateral);
 372:/home/dino/paparazzi/var/include/messages.h **** 	  trans->put_bytes(trans->impl, dev, DL_TYPE_INT16, DL_FORMAT_SCALAR, 2, (void *) _vertical);
 373:/home/dino/paparazzi/var/include/messages.h **** 	  trans->end_message(trans->impl, dev);
 374:/home/dino/paparazzi/var/include/messages.h **** 	} else
 375:/home/dino/paparazzi/var/include/messages.h **** 	  trans->overrun(trans->impl, dev);
 376:/home/dino/paparazzi/var/include/messages.h **** }
 377:/home/dino/paparazzi/var/include/messages.h **** 
 378:/home/dino/paparazzi/var/include/messages.h **** #define DOWNLINK_SEND_GPS(_trans, _dev, mode, utm_east, utm_north, course, alt, speed, climb, week,
 379:/home/dino/paparazzi/var/include/messages.h **** static inline void pprz_msg_send_GPS(struct transport_tx *trans, struct link_device *dev, uint8_t a
 380:/home/dino/paparazzi/var/include/messages.h **** 	if (trans->check_available_space(trans->impl, dev, trans->size_of(trans->impl, 0+1+4+4+2+4+2+2+2+4
 381:/home/dino/paparazzi/var/include/messages.h **** 	  trans->count_bytes(trans->impl, dev, trans->size_of(trans->impl, 0+1+4+4+2+4+2+2+2+4+1+1 +2 /* m
 382:/home/dino/paparazzi/var/include/messages.h **** 	  trans->start_message(trans->impl, dev, 0+1+4+4+2+4+2+2+2+4+1+1 +2 /* msg header overhead */);
 383:/home/dino/paparazzi/var/include/messages.h **** 	  trans->put_bytes(trans->impl, dev, DL_TYPE_UINT8, DL_FORMAT_SCALAR, 1, &ac_id);
 384:/home/dino/paparazzi/var/include/messages.h **** 	  trans->put_named_byte(trans->impl, dev, DL_TYPE_UINT8, DL_FORMAT_SCALAR, DL_GPS, "GPS");
 385:/home/dino/paparazzi/var/include/messages.h **** 	  trans->put_bytes(trans->impl, dev, DL_TYPE_UINT8, DL_FORMAT_SCALAR, 1, (void *) _mode);
 386:/home/dino/paparazzi/var/include/messages.h **** 	  trans->put_bytes(trans->impl, dev, DL_TYPE_INT32, DL_FORMAT_SCALAR, 4, (void *) _utm_east);
 387:/home/dino/paparazzi/var/include/messages.h **** 	  trans->put_bytes(trans->impl, dev, DL_TYPE_INT32, DL_FORMAT_SCALAR, 4, (void *) _utm_north);
 388:/home/dino/paparazzi/var/include/messages.h **** 	  trans->put_bytes(trans->impl, dev, DL_TYPE_INT16, DL_FORMAT_SCALAR, 2, (void *) _course);
 389:/home/dino/paparazzi/var/include/messages.h **** 	  trans->put_bytes(trans->impl, dev, DL_TYPE_INT32, DL_FORMAT_SCALAR, 4, (void *) _alt);
 390:/home/dino/paparazzi/var/include/messages.h **** 	  trans->put_bytes(trans->impl, dev, DL_TYPE_UINT16, DL_FORMAT_SCALAR, 2, (void *) _speed);
 391:/home/dino/paparazzi/var/include/messages.h **** 	  trans->put_bytes(trans->impl, dev, DL_TYPE_INT16, DL_FORMAT_SCALAR, 2, (void *) _climb);
 392:/home/dino/paparazzi/var/include/messages.h **** 	  trans->put_bytes(trans->impl, dev, DL_TYPE_UINT16, DL_FORMAT_SCALAR, 2, (void *) _week);
 393:/home/dino/paparazzi/var/include/messages.h **** 	  trans->put_bytes(trans->impl, dev, DL_TYPE_UINT32, DL_FORMAT_SCALAR, 4, (void *) _itow);
 394:/home/dino/paparazzi/var/include/messages.h **** 	  trans->put_bytes(trans->impl, dev, DL_TYPE_UINT8, DL_FORMAT_SCALAR, 1, (void *) _utm_zone);
 395:/home/dino/paparazzi/var/include/messages.h **** 	  trans->put_bytes(trans->impl, dev, DL_TYPE_UINT8, DL_FORMAT_SCALAR, 1, (void *) _gps_nb_err);
 396:/home/dino/paparazzi/var/include/messages.h **** 	  trans->end_message(trans->impl, dev);
 397:/home/dino/paparazzi/var/include/messages.h **** 	} else
 398:/home/dino/paparazzi/var/include/messages.h **** 	  trans->overrun(trans->impl, dev);
 399:/home/dino/paparazzi/var/include/messages.h **** }
 400:/home/dino/paparazzi/var/include/messages.h **** 
 401:/home/dino/paparazzi/var/include/messages.h **** #define DOWNLINK_SEND_NAVIGATION_REF(_trans, _dev, utm_east, utm_north, utm_zone, ground_alt) pprz_
 402:/home/dino/paparazzi/var/include/messages.h **** static inline void pprz_msg_send_NAVIGATION_REF(struct transport_tx *trans, struct link_device *dev
 403:/home/dino/paparazzi/var/include/messages.h **** 	if (trans->check_available_space(trans->impl, dev, trans->size_of(trans->impl, 0+4+4+1+4 +2 /* msg
 404:/home/dino/paparazzi/var/include/messages.h **** 	  trans->count_bytes(trans->impl, dev, trans->size_of(trans->impl, 0+4+4+1+4 +2 /* msg header over
 405:/home/dino/paparazzi/var/include/messages.h **** 	  trans->start_message(trans->impl, dev, 0+4+4+1+4 +2 /* msg header overhead */);
 406:/home/dino/paparazzi/var/include/messages.h **** 	  trans->put_bytes(trans->impl, dev, DL_TYPE_UINT8, DL_FORMAT_SCALAR, 1, &ac_id);
 407:/home/dino/paparazzi/var/include/messages.h **** 	  trans->put_named_byte(trans->impl, dev, DL_TYPE_UINT8, DL_FORMAT_SCALAR, DL_NAVIGATION_REF, "NAV
 408:/home/dino/paparazzi/var/include/messages.h **** 	  trans->put_bytes(trans->impl, dev, DL_TYPE_INT32, DL_FORMAT_SCALAR, 4, (void *) _utm_east);
 409:/home/dino/paparazzi/var/include/messages.h **** 	  trans->put_bytes(trans->impl, dev, DL_TYPE_INT32, DL_FORMAT_SCALAR, 4, (void *) _utm_north);
 410:/home/dino/paparazzi/var/include/messages.h **** 	  trans->put_bytes(trans->impl, dev, DL_TYPE_UINT8, DL_FORMAT_SCALAR, 1, (void *) _utm_zone);
 411:/home/dino/paparazzi/var/include/messages.h **** 	  trans->put_bytes(trans->impl, dev, DL_TYPE_FLOAT, DL_FORMAT_SCALAR, 4, (void *) _ground_alt);
 412:/home/dino/paparazzi/var/include/messages.h **** 	  trans->end_message(trans->impl, dev);
 413:/home/dino/paparazzi/var/include/messages.h **** 	} else
 414:/home/dino/paparazzi/var/include/messages.h **** 	  trans->overrun(trans->impl, dev);
 415:/home/dino/paparazzi/var/include/messages.h **** }
 416:/home/dino/paparazzi/var/include/messages.h **** 
 417:/home/dino/paparazzi/var/include/messages.h **** #define DOWNLINK_SEND_NAVIGATION(_trans, _dev, cur_block, cur_stage, pos_x, pos_y, dist_wp, dist_ho
 418:/home/dino/paparazzi/var/include/messages.h **** static inline void pprz_msg_send_NAVIGATION(struct transport_tx *trans, struct link_device *dev, ui
 419:/home/dino/paparazzi/var/include/messages.h **** 	if (trans->check_available_space(trans->impl, dev, trans->size_of(trans->impl, 0+1+1+4+4+4+4+1+1 +
 420:/home/dino/paparazzi/var/include/messages.h **** 	  trans->count_bytes(trans->impl, dev, trans->size_of(trans->impl, 0+1+1+4+4+4+4+1+1 +2 /* msg hea
 421:/home/dino/paparazzi/var/include/messages.h **** 	  trans->start_message(trans->impl, dev, 0+1+1+4+4+4+4+1+1 +2 /* msg header overhead */);
 422:/home/dino/paparazzi/var/include/messages.h **** 	  trans->put_bytes(trans->impl, dev, DL_TYPE_UINT8, DL_FORMAT_SCALAR, 1, &ac_id);
 423:/home/dino/paparazzi/var/include/messages.h **** 	  trans->put_named_byte(trans->impl, dev, DL_TYPE_UINT8, DL_FORMAT_SCALAR, DL_NAVIGATION, "NAVIGAT
 424:/home/dino/paparazzi/var/include/messages.h **** 	  trans->put_bytes(trans->impl, dev, DL_TYPE_UINT8, DL_FORMAT_SCALAR, 1, (void *) _cur_block);
 425:/home/dino/paparazzi/var/include/messages.h **** 	  trans->put_bytes(trans->impl, dev, DL_TYPE_UINT8, DL_FORMAT_SCALAR, 1, (void *) _cur_stage);
 426:/home/dino/paparazzi/var/include/messages.h **** 	  trans->put_bytes(trans->impl, dev, DL_TYPE_FLOAT, DL_FORMAT_SCALAR, 4, (void *) _pos_x);
 427:/home/dino/paparazzi/var/include/messages.h **** 	  trans->put_bytes(trans->impl, dev, DL_TYPE_FLOAT, DL_FORMAT_SCALAR, 4, (void *) _pos_y);
 428:/home/dino/paparazzi/var/include/messages.h **** 	  trans->put_bytes(trans->impl, dev, DL_TYPE_FLOAT, DL_FORMAT_SCALAR, 4, (void *) _dist_wp);
 429:/home/dino/paparazzi/var/include/messages.h **** 	  trans->put_bytes(trans->impl, dev, DL_TYPE_FLOAT, DL_FORMAT_SCALAR, 4, (void *) _dist_home);
 430:/home/dino/paparazzi/var/include/messages.h **** 	  trans->put_bytes(trans->impl, dev, DL_TYPE_UINT8, DL_FORMAT_SCALAR, 1, (void *) _circle_count);
 431:/home/dino/paparazzi/var/include/messages.h **** 	  trans->put_bytes(trans->impl, dev, DL_TYPE_UINT8, DL_FORMAT_SCALAR, 1, (void *) _oval_count);
 432:/home/dino/paparazzi/var/include/messages.h **** 	  trans->end_message(trans->impl, dev);
 433:/home/dino/paparazzi/var/include/messages.h **** 	} else
 434:/home/dino/paparazzi/var/include/messages.h **** 	  trans->overrun(trans->impl, dev);
 435:/home/dino/paparazzi/var/include/messages.h **** }
 436:/home/dino/paparazzi/var/include/messages.h **** 
 437:/home/dino/paparazzi/var/include/messages.h **** #define DOWNLINK_SEND_PPRZ_MODE(_trans, _dev, ap_mode, ap_gaz, ap_lateral, ap_horizontal, if_calib_
 438:/home/dino/paparazzi/var/include/messages.h **** static inline void pprz_msg_send_PPRZ_MODE(struct transport_tx *trans, struct link_device *dev, uin
 439:/home/dino/paparazzi/var/include/messages.h **** 	if (trans->check_available_space(trans->impl, dev, trans->size_of(trans->impl, 0+1+1+1+1+1+1 +2 /*
 440:/home/dino/paparazzi/var/include/messages.h **** 	  trans->count_bytes(trans->impl, dev, trans->size_of(trans->impl, 0+1+1+1+1+1+1 +2 /* msg header 
 441:/home/dino/paparazzi/var/include/messages.h **** 	  trans->start_message(trans->impl, dev, 0+1+1+1+1+1+1 +2 /* msg header overhead */);
 442:/home/dino/paparazzi/var/include/messages.h **** 	  trans->put_bytes(trans->impl, dev, DL_TYPE_UINT8, DL_FORMAT_SCALAR, 1, &ac_id);
 443:/home/dino/paparazzi/var/include/messages.h **** 	  trans->put_named_byte(trans->impl, dev, DL_TYPE_UINT8, DL_FORMAT_SCALAR, DL_PPRZ_MODE, "PPRZ_MOD
 444:/home/dino/paparazzi/var/include/messages.h **** 	  trans->put_bytes(trans->impl, dev, DL_TYPE_UINT8, DL_FORMAT_SCALAR, 1, (void *) _ap_mode);
 445:/home/dino/paparazzi/var/include/messages.h **** 	  trans->put_bytes(trans->impl, dev, DL_TYPE_UINT8, DL_FORMAT_SCALAR, 1, (void *) _ap_gaz);
 446:/home/dino/paparazzi/var/include/messages.h **** 	  trans->put_bytes(trans->impl, dev, DL_TYPE_UINT8, DL_FORMAT_SCALAR, 1, (void *) _ap_lateral);
 447:/home/dino/paparazzi/var/include/messages.h **** 	  trans->put_bytes(trans->impl, dev, DL_TYPE_UINT8, DL_FORMAT_SCALAR, 1, (void *) _ap_horizontal);
 448:/home/dino/paparazzi/var/include/messages.h **** 	  trans->put_bytes(trans->impl, dev, DL_TYPE_UINT8, DL_FORMAT_SCALAR, 1, (void *) _if_calib_mode);
 449:/home/dino/paparazzi/var/include/messages.h **** 	  trans->put_bytes(trans->impl, dev, DL_TYPE_UINT8, DL_FORMAT_SCALAR, 1, (void *) _mcu1_status);
 450:/home/dino/paparazzi/var/include/messages.h **** 	  trans->end_message(trans->impl, dev);
 451:/home/dino/paparazzi/var/include/messages.h **** 	} else
 452:/home/dino/paparazzi/var/include/messages.h **** 	  trans->overrun(trans->impl, dev);
 453:/home/dino/paparazzi/var/include/messages.h **** }
 454:/home/dino/paparazzi/var/include/messages.h **** 
 455:/home/dino/paparazzi/var/include/messages.h **** #define DOWNLINK_SEND_BAT(_trans, _dev, throttle, voltage, amps, flight_time, kill_auto_throttle, b
 456:/home/dino/paparazzi/var/include/messages.h **** static inline void pprz_msg_send_BAT(struct transport_tx *trans, struct link_device *dev, uint8_t a
 457:/home/dino/paparazzi/var/include/messages.h **** 	if (trans->check_available_space(trans->impl, dev, trans->size_of(trans->impl, 0+2+2+2+2+1+2+2+2 +
 458:/home/dino/paparazzi/var/include/messages.h **** 	  trans->count_bytes(trans->impl, dev, trans->size_of(trans->impl, 0+2+2+2+2+1+2+2+2 +2 /* msg hea
 459:/home/dino/paparazzi/var/include/messages.h **** 	  trans->start_message(trans->impl, dev, 0+2+2+2+2+1+2+2+2 +2 /* msg header overhead */);
 460:/home/dino/paparazzi/var/include/messages.h **** 	  trans->put_bytes(trans->impl, dev, DL_TYPE_UINT8, DL_FORMAT_SCALAR, 1, &ac_id);
 461:/home/dino/paparazzi/var/include/messages.h **** 	  trans->put_named_byte(trans->impl, dev, DL_TYPE_UINT8, DL_FORMAT_SCALAR, DL_BAT, "BAT");
 462:/home/dino/paparazzi/var/include/messages.h **** 	  trans->put_bytes(trans->impl, dev, DL_TYPE_INT16, DL_FORMAT_SCALAR, 2, (void *) _throttle);
 463:/home/dino/paparazzi/var/include/messages.h **** 	  trans->put_bytes(trans->impl, dev, DL_TYPE_UINT16, DL_FORMAT_SCALAR, 2, (void *) _voltage);
 464:/home/dino/paparazzi/var/include/messages.h **** 	  trans->put_bytes(trans->impl, dev, DL_TYPE_INT16, DL_FORMAT_SCALAR, 2, (void *) _amps);
 465:/home/dino/paparazzi/var/include/messages.h **** 	  trans->put_bytes(trans->impl, dev, DL_TYPE_UINT16, DL_FORMAT_SCALAR, 2, (void *) _flight_time);
 466:/home/dino/paparazzi/var/include/messages.h **** 	  trans->put_bytes(trans->impl, dev, DL_TYPE_UINT8, DL_FORMAT_SCALAR, 1, (void *) _kill_auto_throt
 467:/home/dino/paparazzi/var/include/messages.h **** 	  trans->put_bytes(trans->impl, dev, DL_TYPE_UINT16, DL_FORMAT_SCALAR, 2, (void *) _block_time);
 468:/home/dino/paparazzi/var/include/messages.h **** 	  trans->put_bytes(trans->impl, dev, DL_TYPE_UINT16, DL_FORMAT_SCALAR, 2, (void *) _stage_time);
 469:/home/dino/paparazzi/var/include/messages.h **** 	  trans->put_bytes(trans->impl, dev, DL_TYPE_INT16, DL_FORMAT_SCALAR, 2, (void *) _energy);
 470:/home/dino/paparazzi/var/include/messages.h **** 	  trans->end_message(trans->impl, dev);
 471:/home/dino/paparazzi/var/include/messages.h **** 	} else
 472:/home/dino/paparazzi/var/include/messages.h **** 	  trans->overrun(trans->impl, dev);
 473:/home/dino/paparazzi/var/include/messages.h **** }
 474:/home/dino/paparazzi/var/include/messages.h **** 
 475:/home/dino/paparazzi/var/include/messages.h **** #define DOWNLINK_SEND_DEBUG_MCU_LINK(_trans, _dev, i2c_nb_err, i2c_mcu1_nb_err, ppm_rate) pprz_msg_
 476:/home/dino/paparazzi/var/include/messages.h **** static inline void pprz_msg_send_DEBUG_MCU_LINK(struct transport_tx *trans, struct link_device *dev
 477:/home/dino/paparazzi/var/include/messages.h **** 	if (trans->check_available_space(trans->impl, dev, trans->size_of(trans->impl, 0+1+1+1 +2 /* msg h
 478:/home/dino/paparazzi/var/include/messages.h **** 	  trans->count_bytes(trans->impl, dev, trans->size_of(trans->impl, 0+1+1+1 +2 /* msg header overhe
 479:/home/dino/paparazzi/var/include/messages.h **** 	  trans->start_message(trans->impl, dev, 0+1+1+1 +2 /* msg header overhead */);
 480:/home/dino/paparazzi/var/include/messages.h **** 	  trans->put_bytes(trans->impl, dev, DL_TYPE_UINT8, DL_FORMAT_SCALAR, 1, &ac_id);
 481:/home/dino/paparazzi/var/include/messages.h **** 	  trans->put_named_byte(trans->impl, dev, DL_TYPE_UINT8, DL_FORMAT_SCALAR, DL_DEBUG_MCU_LINK, "DEB
 482:/home/dino/paparazzi/var/include/messages.h **** 	  trans->put_bytes(trans->impl, dev, DL_TYPE_UINT8, DL_FORMAT_SCALAR, 1, (void *) _i2c_nb_err);
 483:/home/dino/paparazzi/var/include/messages.h **** 	  trans->put_bytes(trans->impl, dev, DL_TYPE_UINT8, DL_FORMAT_SCALAR, 1, (void *) _i2c_mcu1_nb_err
 484:/home/dino/paparazzi/var/include/messages.h **** 	  trans->put_bytes(trans->impl, dev, DL_TYPE_UINT8, DL_FORMAT_SCALAR, 1, (void *) _ppm_rate);
 485:/home/dino/paparazzi/var/include/messages.h **** 	  trans->end_message(trans->impl, dev);
 486:/home/dino/paparazzi/var/include/messages.h **** 	} else
 487:/home/dino/paparazzi/var/include/messages.h **** 	  trans->overrun(trans->impl, dev);
 488:/home/dino/paparazzi/var/include/messages.h **** }
 489:/home/dino/paparazzi/var/include/messages.h **** 
 490:/home/dino/paparazzi/var/include/messages.h **** #define DOWNLINK_SEND_CALIBRATION(_trans, _dev, climb_sum_err, climb_gaz_submode) pprz_msg_send_CAL
 491:/home/dino/paparazzi/var/include/messages.h **** static inline void pprz_msg_send_CALIBRATION(struct transport_tx *trans, struct link_device *dev, u
 492:/home/dino/paparazzi/var/include/messages.h **** 	if (trans->check_available_space(trans->impl, dev, trans->size_of(trans->impl, 0+4+1 +2 /* msg hea
 493:/home/dino/paparazzi/var/include/messages.h **** 	  trans->count_bytes(trans->impl, dev, trans->size_of(trans->impl, 0+4+1 +2 /* msg header overhead
 494:/home/dino/paparazzi/var/include/messages.h **** 	  trans->start_message(trans->impl, dev, 0+4+1 +2 /* msg header overhead */);
 495:/home/dino/paparazzi/var/include/messages.h **** 	  trans->put_bytes(trans->impl, dev, DL_TYPE_UINT8, DL_FORMAT_SCALAR, 1, &ac_id);
 496:/home/dino/paparazzi/var/include/messages.h **** 	  trans->put_named_byte(trans->impl, dev, DL_TYPE_UINT8, DL_FORMAT_SCALAR, DL_CALIBRATION, "CALIBR
 497:/home/dino/paparazzi/var/include/messages.h **** 	  trans->put_bytes(trans->impl, dev, DL_TYPE_FLOAT, DL_FORMAT_SCALAR, 4, (void *) _climb_sum_err);
 498:/home/dino/paparazzi/var/include/messages.h **** 	  trans->put_bytes(trans->impl, dev, DL_TYPE_UINT8, DL_FORMAT_SCALAR, 1, (void *) _climb_gaz_submo
 499:/home/dino/paparazzi/var/include/messages.h **** 	  trans->end_message(trans->impl, dev);
 500:/home/dino/paparazzi/var/include/messages.h **** 	} else
 501:/home/dino/paparazzi/var/include/messages.h **** 	  trans->overrun(trans->impl, dev);
 502:/home/dino/paparazzi/var/include/messages.h **** }
 503:/home/dino/paparazzi/var/include/messages.h **** 
 504:/home/dino/paparazzi/var/include/messages.h **** #define DOWNLINK_SEND_SETTINGS(_trans, _dev, slider_1_val, slider_2_val) pprz_msg_send_SETTINGS(&((
 505:/home/dino/paparazzi/var/include/messages.h **** static inline void pprz_msg_send_SETTINGS(struct transport_tx *trans, struct link_device *dev, uint
 506:/home/dino/paparazzi/var/include/messages.h **** 	if (trans->check_available_space(trans->impl, dev, trans->size_of(trans->impl, 0+4+4 +2 /* msg hea
 507:/home/dino/paparazzi/var/include/messages.h **** 	  trans->count_bytes(trans->impl, dev, trans->size_of(trans->impl, 0+4+4 +2 /* msg header overhead
 508:/home/dino/paparazzi/var/include/messages.h **** 	  trans->start_message(trans->impl, dev, 0+4+4 +2 /* msg header overhead */);
 509:/home/dino/paparazzi/var/include/messages.h **** 	  trans->put_bytes(trans->impl, dev, DL_TYPE_UINT8, DL_FORMAT_SCALAR, 1, &ac_id);
 510:/home/dino/paparazzi/var/include/messages.h **** 	  trans->put_named_byte(trans->impl, dev, DL_TYPE_UINT8, DL_FORMAT_SCALAR, DL_SETTINGS, "SETTINGS"
 511:/home/dino/paparazzi/var/include/messages.h **** 	  trans->put_bytes(trans->impl, dev, DL_TYPE_FLOAT, DL_FORMAT_SCALAR, 4, (void *) _slider_1_val);
 512:/home/dino/paparazzi/var/include/messages.h **** 	  trans->put_bytes(trans->impl, dev, DL_TYPE_FLOAT, DL_FORMAT_SCALAR, 4, (void *) _slider_2_val);
 513:/home/dino/paparazzi/var/include/messages.h **** 	  trans->end_message(trans->impl, dev);
 514:/home/dino/paparazzi/var/include/messages.h **** 	} else
 515:/home/dino/paparazzi/var/include/messages.h **** 	  trans->overrun(trans->impl, dev);
 516:/home/dino/paparazzi/var/include/messages.h **** }
 517:/home/dino/paparazzi/var/include/messages.h **** 
 518:/home/dino/paparazzi/var/include/messages.h **** #define DOWNLINK_SEND_DESIRED(_trans, _dev, roll, pitch, course, x, y, altitude, climb, airspeed) p
 519:/home/dino/paparazzi/var/include/messages.h **** static inline void pprz_msg_send_DESIRED(struct transport_tx *trans, struct link_device *dev, uint8
 520:/home/dino/paparazzi/var/include/messages.h **** 	if (trans->check_available_space(trans->impl, dev, trans->size_of(trans->impl, 0+4+4+4+4+4+4+4+4 +
 521:/home/dino/paparazzi/var/include/messages.h **** 	  trans->count_bytes(trans->impl, dev, trans->size_of(trans->impl, 0+4+4+4+4+4+4+4+4 +2 /* msg hea
 522:/home/dino/paparazzi/var/include/messages.h **** 	  trans->start_message(trans->impl, dev, 0+4+4+4+4+4+4+4+4 +2 /* msg header overhead */);
 523:/home/dino/paparazzi/var/include/messages.h **** 	  trans->put_bytes(trans->impl, dev, DL_TYPE_UINT8, DL_FORMAT_SCALAR, 1, &ac_id);
 524:/home/dino/paparazzi/var/include/messages.h **** 	  trans->put_named_byte(trans->impl, dev, DL_TYPE_UINT8, DL_FORMAT_SCALAR, DL_DESIRED, "DESIRED");
 525:/home/dino/paparazzi/var/include/messages.h **** 	  trans->put_bytes(trans->impl, dev, DL_TYPE_FLOAT, DL_FORMAT_SCALAR, 4, (void *) _roll);
 526:/home/dino/paparazzi/var/include/messages.h **** 	  trans->put_bytes(trans->impl, dev, DL_TYPE_FLOAT, DL_FORMAT_SCALAR, 4, (void *) _pitch);
 527:/home/dino/paparazzi/var/include/messages.h **** 	  trans->put_bytes(trans->impl, dev, DL_TYPE_FLOAT, DL_FORMAT_SCALAR, 4, (void *) _course);
 528:/home/dino/paparazzi/var/include/messages.h **** 	  trans->put_bytes(trans->impl, dev, DL_TYPE_FLOAT, DL_FORMAT_SCALAR, 4, (void *) _x);
 529:/home/dino/paparazzi/var/include/messages.h **** 	  trans->put_bytes(trans->impl, dev, DL_TYPE_FLOAT, DL_FORMAT_SCALAR, 4, (void *) _y);
 530:/home/dino/paparazzi/var/include/messages.h **** 	  trans->put_bytes(trans->impl, dev, DL_TYPE_FLOAT, DL_FORMAT_SCALAR, 4, (void *) _altitude);
 531:/home/dino/paparazzi/var/include/messages.h **** 	  trans->put_bytes(trans->impl, dev, DL_TYPE_FLOAT, DL_FORMAT_SCALAR, 4, (void *) _climb);
 532:/home/dino/paparazzi/var/include/messages.h **** 	  trans->put_bytes(trans->impl, dev, DL_TYPE_FLOAT, DL_FORMAT_SCALAR, 4, (void *) _airspeed);
 533:/home/dino/paparazzi/var/include/messages.h **** 	  trans->end_message(trans->impl, dev);
 534:/home/dino/paparazzi/var/include/messages.h **** 	} else
 535:/home/dino/paparazzi/var/include/messages.h **** 	  trans->overrun(trans->impl, dev);
 536:/home/dino/paparazzi/var/include/messages.h **** }
 537:/home/dino/paparazzi/var/include/messages.h **** 
 538:/home/dino/paparazzi/var/include/messages.h **** #define DOWNLINK_SEND_GPS_SOL(_trans, _dev, Pacc, Sacc, PDOP, numSV) pprz_msg_send_GPS_SOL(&((_tran
 539:/home/dino/paparazzi/var/include/messages.h **** static inline void pprz_msg_send_GPS_SOL(struct transport_tx *trans, struct link_device *dev, uint8
 540:/home/dino/paparazzi/var/include/messages.h **** 	if (trans->check_available_space(trans->impl, dev, trans->size_of(trans->impl, 0+4+4+2+1 +2 /* msg
 541:/home/dino/paparazzi/var/include/messages.h **** 	  trans->count_bytes(trans->impl, dev, trans->size_of(trans->impl, 0+4+4+2+1 +2 /* msg header over
 542:/home/dino/paparazzi/var/include/messages.h **** 	  trans->start_message(trans->impl, dev, 0+4+4+2+1 +2 /* msg header overhead */);
 543:/home/dino/paparazzi/var/include/messages.h **** 	  trans->put_bytes(trans->impl, dev, DL_TYPE_UINT8, DL_FORMAT_SCALAR, 1, &ac_id);
 544:/home/dino/paparazzi/var/include/messages.h **** 	  trans->put_named_byte(trans->impl, dev, DL_TYPE_UINT8, DL_FORMAT_SCALAR, DL_GPS_SOL, "GPS_SOL");
 545:/home/dino/paparazzi/var/include/messages.h **** 	  trans->put_bytes(trans->impl, dev, DL_TYPE_UINT32, DL_FORMAT_SCALAR, 4, (void *) _Pacc);
 546:/home/dino/paparazzi/var/include/messages.h **** 	  trans->put_bytes(trans->impl, dev, DL_TYPE_UINT32, DL_FORMAT_SCALAR, 4, (void *) _Sacc);
 547:/home/dino/paparazzi/var/include/messages.h **** 	  trans->put_bytes(trans->impl, dev, DL_TYPE_UINT16, DL_FORMAT_SCALAR, 2, (void *) _PDOP);
 548:/home/dino/paparazzi/var/include/messages.h **** 	  trans->put_bytes(trans->impl, dev, DL_TYPE_UINT8, DL_FORMAT_SCALAR, 1, (void *) _numSV);
 549:/home/dino/paparazzi/var/include/messages.h **** 	  trans->end_message(trans->impl, dev);
 550:/home/dino/paparazzi/var/include/messages.h **** 	} else
 551:/home/dino/paparazzi/var/include/messages.h **** 	  trans->overrun(trans->impl, dev);
 552:/home/dino/paparazzi/var/include/messages.h **** }
 553:/home/dino/paparazzi/var/include/messages.h **** 
 554:/home/dino/paparazzi/var/include/messages.h **** #define DOWNLINK_SEND_ADC_GENERIC(_trans, _dev, val1, val2) pprz_msg_send_ADC_GENERIC(&((_trans).tr
 555:/home/dino/paparazzi/var/include/messages.h **** static inline void pprz_msg_send_ADC_GENERIC(struct transport_tx *trans, struct link_device *dev, u
 556:/home/dino/paparazzi/var/include/messages.h **** 	if (trans->check_available_space(trans->impl, dev, trans->size_of(trans->impl, 0+2+2 +2 /* msg hea
 557:/home/dino/paparazzi/var/include/messages.h **** 	  trans->count_bytes(trans->impl, dev, trans->size_of(trans->impl, 0+2+2 +2 /* msg header overhead
 558:/home/dino/paparazzi/var/include/messages.h **** 	  trans->start_message(trans->impl, dev, 0+2+2 +2 /* msg header overhead */);
 559:/home/dino/paparazzi/var/include/messages.h **** 	  trans->put_bytes(trans->impl, dev, DL_TYPE_UINT8, DL_FORMAT_SCALAR, 1, &ac_id);
 560:/home/dino/paparazzi/var/include/messages.h **** 	  trans->put_named_byte(trans->impl, dev, DL_TYPE_UINT8, DL_FORMAT_SCALAR, DL_ADC_GENERIC, "ADC_GE
 561:/home/dino/paparazzi/var/include/messages.h **** 	  trans->put_bytes(trans->impl, dev, DL_TYPE_UINT16, DL_FORMAT_SCALAR, 2, (void *) _val1);
 562:/home/dino/paparazzi/var/include/messages.h **** 	  trans->put_bytes(trans->impl, dev, DL_TYPE_UINT16, DL_FORMAT_SCALAR, 2, (void *) _val2);
 563:/home/dino/paparazzi/var/include/messages.h **** 	  trans->end_message(trans->impl, dev);
 564:/home/dino/paparazzi/var/include/messages.h **** 	} else
 565:/home/dino/paparazzi/var/include/messages.h **** 	  trans->overrun(trans->impl, dev);
 566:/home/dino/paparazzi/var/include/messages.h **** }
 567:/home/dino/paparazzi/var/include/messages.h **** 
 568:/home/dino/paparazzi/var/include/messages.h **** #define DOWNLINK_SEND_TEST_FORMAT(_trans, _dev, val1, val2) pprz_msg_send_TEST_FORMAT(&((_trans).tr
 569:/home/dino/paparazzi/var/include/messages.h **** static inline void pprz_msg_send_TEST_FORMAT(struct transport_tx *trans, struct link_device *dev, u
 570:/home/dino/paparazzi/var/include/messages.h **** 	if (trans->check_available_space(trans->impl, dev, trans->size_of(trans->impl, 0+8+4 +2 /* msg hea
 571:/home/dino/paparazzi/var/include/messages.h **** 	  trans->count_bytes(trans->impl, dev, trans->size_of(trans->impl, 0+8+4 +2 /* msg header overhead
 572:/home/dino/paparazzi/var/include/messages.h **** 	  trans->start_message(trans->impl, dev, 0+8+4 +2 /* msg header overhead */);
 573:/home/dino/paparazzi/var/include/messages.h **** 	  trans->put_bytes(trans->impl, dev, DL_TYPE_UINT8, DL_FORMAT_SCALAR, 1, &ac_id);
 574:/home/dino/paparazzi/var/include/messages.h **** 	  trans->put_named_byte(trans->impl, dev, DL_TYPE_UINT8, DL_FORMAT_SCALAR, DL_TEST_FORMAT, "TEST_F
 575:/home/dino/paparazzi/var/include/messages.h **** 	  trans->put_bytes(trans->impl, dev, DL_TYPE_DOUBLE, DL_FORMAT_SCALAR, 8, (void *) _val1);
 576:/home/dino/paparazzi/var/include/messages.h **** 	  trans->put_bytes(trans->impl, dev, DL_TYPE_FLOAT, DL_FORMAT_SCALAR, 4, (void *) _val2);
 577:/home/dino/paparazzi/var/include/messages.h **** 	  trans->end_message(trans->impl, dev);
 578:/home/dino/paparazzi/var/include/messages.h **** 	} else
 579:/home/dino/paparazzi/var/include/messages.h **** 	  trans->overrun(trans->impl, dev);
 580:/home/dino/paparazzi/var/include/messages.h **** }
 581:/home/dino/paparazzi/var/include/messages.h **** 
 582:/home/dino/paparazzi/var/include/messages.h **** #define DOWNLINK_SEND_CAM(_trans, _dev, phi, theta, target_x, target_y) pprz_msg_send_CAM(&((_trans
 583:/home/dino/paparazzi/var/include/messages.h **** static inline void pprz_msg_send_CAM(struct transport_tx *trans, struct link_device *dev, uint8_t a
 584:/home/dino/paparazzi/var/include/messages.h **** 	if (trans->check_available_space(trans->impl, dev, trans->size_of(trans->impl, 0+2+2+2+2 +2 /* msg
 585:/home/dino/paparazzi/var/include/messages.h **** 	  trans->count_bytes(trans->impl, dev, trans->size_of(trans->impl, 0+2+2+2+2 +2 /* msg header over
 586:/home/dino/paparazzi/var/include/messages.h **** 	  trans->start_message(trans->impl, dev, 0+2+2+2+2 +2 /* msg header overhead */);
 587:/home/dino/paparazzi/var/include/messages.h **** 	  trans->put_bytes(trans->impl, dev, DL_TYPE_UINT8, DL_FORMAT_SCALAR, 1, &ac_id);
 588:/home/dino/paparazzi/var/include/messages.h **** 	  trans->put_named_byte(trans->impl, dev, DL_TYPE_UINT8, DL_FORMAT_SCALAR, DL_CAM, "CAM");
 589:/home/dino/paparazzi/var/include/messages.h **** 	  trans->put_bytes(trans->impl, dev, DL_TYPE_INT16, DL_FORMAT_SCALAR, 2, (void *) _phi);
 590:/home/dino/paparazzi/var/include/messages.h **** 	  trans->put_bytes(trans->impl, dev, DL_TYPE_INT16, DL_FORMAT_SCALAR, 2, (void *) _theta);
 591:/home/dino/paparazzi/var/include/messages.h **** 	  trans->put_bytes(trans->impl, dev, DL_TYPE_INT16, DL_FORMAT_SCALAR, 2, (void *) _target_x);
 592:/home/dino/paparazzi/var/include/messages.h **** 	  trans->put_bytes(trans->impl, dev, DL_TYPE_INT16, DL_FORMAT_SCALAR, 2, (void *) _target_y);
 593:/home/dino/paparazzi/var/include/messages.h **** 	  trans->end_message(trans->impl, dev);
 594:/home/dino/paparazzi/var/include/messages.h **** 	} else
 595:/home/dino/paparazzi/var/include/messages.h **** 	  trans->overrun(trans->impl, dev);
 596:/home/dino/paparazzi/var/include/messages.h **** }
 597:/home/dino/paparazzi/var/include/messages.h **** 
 598:/home/dino/paparazzi/var/include/messages.h **** #define DOWNLINK_SEND_CIRCLE(_trans, _dev, center_east, center_north, radius) pprz_msg_send_CIRCLE(
 599:/home/dino/paparazzi/var/include/messages.h **** static inline void pprz_msg_send_CIRCLE(struct transport_tx *trans, struct link_device *dev, uint8_
 600:/home/dino/paparazzi/var/include/messages.h **** 	if (trans->check_available_space(trans->impl, dev, trans->size_of(trans->impl, 0+4+4+4 +2 /* msg h
 601:/home/dino/paparazzi/var/include/messages.h **** 	  trans->count_bytes(trans->impl, dev, trans->size_of(trans->impl, 0+4+4+4 +2 /* msg header overhe
 602:/home/dino/paparazzi/var/include/messages.h **** 	  trans->start_message(trans->impl, dev, 0+4+4+4 +2 /* msg header overhead */);
 603:/home/dino/paparazzi/var/include/messages.h **** 	  trans->put_bytes(trans->impl, dev, DL_TYPE_UINT8, DL_FORMAT_SCALAR, 1, &ac_id);
 604:/home/dino/paparazzi/var/include/messages.h **** 	  trans->put_named_byte(trans->impl, dev, DL_TYPE_UINT8, DL_FORMAT_SCALAR, DL_CIRCLE, "CIRCLE");
 605:/home/dino/paparazzi/var/include/messages.h **** 	  trans->put_bytes(trans->impl, dev, DL_TYPE_FLOAT, DL_FORMAT_SCALAR, 4, (void *) _center_east);
 606:/home/dino/paparazzi/var/include/messages.h **** 	  trans->put_bytes(trans->impl, dev, DL_TYPE_FLOAT, DL_FORMAT_SCALAR, 4, (void *) _center_north);
 607:/home/dino/paparazzi/var/include/messages.h **** 	  trans->put_bytes(trans->impl, dev, DL_TYPE_FLOAT, DL_FORMAT_SCALAR, 4, (void *) _radius);
 608:/home/dino/paparazzi/var/include/messages.h **** 	  trans->end_message(trans->impl, dev);
 609:/home/dino/paparazzi/var/include/messages.h **** 	} else
 610:/home/dino/paparazzi/var/include/messages.h **** 	  trans->overrun(trans->impl, dev);
 611:/home/dino/paparazzi/var/include/messages.h **** }
 612:/home/dino/paparazzi/var/include/messages.h **** 
 613:/home/dino/paparazzi/var/include/messages.h **** #define DOWNLINK_SEND_SEGMENT(_trans, _dev, segment_east_1, segment_north_1, segment_east_2, segmen
 614:/home/dino/paparazzi/var/include/messages.h **** static inline void pprz_msg_send_SEGMENT(struct transport_tx *trans, struct link_device *dev, uint8
 615:/home/dino/paparazzi/var/include/messages.h **** 	if (trans->check_available_space(trans->impl, dev, trans->size_of(trans->impl, 0+4+4+4+4 +2 /* msg
 616:/home/dino/paparazzi/var/include/messages.h **** 	  trans->count_bytes(trans->impl, dev, trans->size_of(trans->impl, 0+4+4+4+4 +2 /* msg header over
 617:/home/dino/paparazzi/var/include/messages.h **** 	  trans->start_message(trans->impl, dev, 0+4+4+4+4 +2 /* msg header overhead */);
 618:/home/dino/paparazzi/var/include/messages.h **** 	  trans->put_bytes(trans->impl, dev, DL_TYPE_UINT8, DL_FORMAT_SCALAR, 1, &ac_id);
 619:/home/dino/paparazzi/var/include/messages.h **** 	  trans->put_named_byte(trans->impl, dev, DL_TYPE_UINT8, DL_FORMAT_SCALAR, DL_SEGMENT, "SEGMENT");
 620:/home/dino/paparazzi/var/include/messages.h **** 	  trans->put_bytes(trans->impl, dev, DL_TYPE_FLOAT, DL_FORMAT_SCALAR, 4, (void *) _segment_east_1)
 621:/home/dino/paparazzi/var/include/messages.h **** 	  trans->put_bytes(trans->impl, dev, DL_TYPE_FLOAT, DL_FORMAT_SCALAR, 4, (void *) _segment_north_1
 622:/home/dino/paparazzi/var/include/messages.h **** 	  trans->put_bytes(trans->impl, dev, DL_TYPE_FLOAT, DL_FORMAT_SCALAR, 4, (void *) _segment_east_2)
 623:/home/dino/paparazzi/var/include/messages.h **** 	  trans->put_bytes(trans->impl, dev, DL_TYPE_FLOAT, DL_FORMAT_SCALAR, 4, (void *) _segment_north_2
 624:/home/dino/paparazzi/var/include/messages.h **** 	  trans->end_message(trans->impl, dev);
 625:/home/dino/paparazzi/var/include/messages.h **** 	} else
 626:/home/dino/paparazzi/var/include/messages.h **** 	  trans->overrun(trans->impl, dev);
 627:/home/dino/paparazzi/var/include/messages.h **** }
 628:/home/dino/paparazzi/var/include/messages.h **** 
 629:/home/dino/paparazzi/var/include/messages.h **** #define DOWNLINK_SEND_SVINFO(_trans, _dev, chn, SVID, Flags, QI, CNO, Elev, Azim) pprz_msg_send_SVI
 630:/home/dino/paparazzi/var/include/messages.h **** static inline void pprz_msg_send_SVINFO(struct transport_tx *trans, struct link_device *dev, uint8_
 631:/home/dino/paparazzi/var/include/messages.h **** 	if (trans->check_available_space(trans->impl, dev, trans->size_of(trans->impl, 0+1+1+1+1+1+1+2 +2 
 632:/home/dino/paparazzi/var/include/messages.h **** 	  trans->count_bytes(trans->impl, dev, trans->size_of(trans->impl, 0+1+1+1+1+1+1+2 +2 /* msg heade
 633:/home/dino/paparazzi/var/include/messages.h **** 	  trans->start_message(trans->impl, dev, 0+1+1+1+1+1+1+2 +2 /* msg header overhead */);
 634:/home/dino/paparazzi/var/include/messages.h **** 	  trans->put_bytes(trans->impl, dev, DL_TYPE_UINT8, DL_FORMAT_SCALAR, 1, &ac_id);
 635:/home/dino/paparazzi/var/include/messages.h **** 	  trans->put_named_byte(trans->impl, dev, DL_TYPE_UINT8, DL_FORMAT_SCALAR, DL_SVINFO, "SVINFO");
 636:/home/dino/paparazzi/var/include/messages.h **** 	  trans->put_bytes(trans->impl, dev, DL_TYPE_UINT8, DL_FORMAT_SCALAR, 1, (void *) _chn);
 637:/home/dino/paparazzi/var/include/messages.h **** 	  trans->put_bytes(trans->impl, dev, DL_TYPE_UINT8, DL_FORMAT_SCALAR, 1, (void *) _SVID);
 638:/home/dino/paparazzi/var/include/messages.h **** 	  trans->put_bytes(trans->impl, dev, DL_TYPE_UINT8, DL_FORMAT_SCALAR, 1, (void *) _Flags);
 639:/home/dino/paparazzi/var/include/messages.h **** 	  trans->put_bytes(trans->impl, dev, DL_TYPE_UINT8, DL_FORMAT_SCALAR, 1, (void *) _QI);
 640:/home/dino/paparazzi/var/include/messages.h **** 	  trans->put_bytes(trans->impl, dev, DL_TYPE_UINT8, DL_FORMAT_SCALAR, 1, (void *) _CNO);
 641:/home/dino/paparazzi/var/include/messages.h **** 	  trans->put_bytes(trans->impl, dev, DL_TYPE_INT8, DL_FORMAT_SCALAR, 1, (void *) _Elev);
 642:/home/dino/paparazzi/var/include/messages.h **** 	  trans->put_bytes(trans->impl, dev, DL_TYPE_INT16, DL_FORMAT_SCALAR, 2, (void *) _Azim);
 643:/home/dino/paparazzi/var/include/messages.h **** 	  trans->end_message(trans->impl, dev);
 644:/home/dino/paparazzi/var/include/messages.h **** 	} else
 645:/home/dino/paparazzi/var/include/messages.h **** 	  trans->overrun(trans->impl, dev);
 646:/home/dino/paparazzi/var/include/messages.h **** }
 647:/home/dino/paparazzi/var/include/messages.h **** 
 648:/home/dino/paparazzi/var/include/messages.h **** #define DOWNLINK_SEND_DEBUG(_trans, _dev, nb_msg, msg) pprz_msg_send_DEBUG(&((_trans).trans_tx), &(
 649:/home/dino/paparazzi/var/include/messages.h **** static inline void pprz_msg_send_DEBUG(struct transport_tx *trans, struct link_device *dev, uint8_t
 650:/home/dino/paparazzi/var/include/messages.h **** 	if (trans->check_available_space(trans->impl, dev, trans->size_of(trans->impl, 0+1+nb_msg*1 +2 /* 
 651:/home/dino/paparazzi/var/include/messages.h **** 	  trans->count_bytes(trans->impl, dev, trans->size_of(trans->impl, 0+1+nb_msg*1 +2 /* msg header o
 652:/home/dino/paparazzi/var/include/messages.h **** 	  trans->start_message(trans->impl, dev, 0+1+nb_msg*1 +2 /* msg header overhead */);
 653:/home/dino/paparazzi/var/include/messages.h **** 	  trans->put_bytes(trans->impl, dev, DL_TYPE_UINT8, DL_FORMAT_SCALAR, 1, &ac_id);
 654:/home/dino/paparazzi/var/include/messages.h **** 	  trans->put_named_byte(trans->impl, dev, DL_TYPE_UINT8, DL_FORMAT_SCALAR, DL_DEBUG, "DEBUG");
 655:/home/dino/paparazzi/var/include/messages.h **** 	  trans->put_bytes(trans->impl, dev, DL_TYPE_ARRAY_LENGTH, DL_FORMAT_SCALAR, 1, (void *) &nb_msg);
 656:/home/dino/paparazzi/var/include/messages.h **** 	  trans->put_bytes(trans->impl, dev, DL_TYPE_UINT8, DL_FORMAT_ARRAY, 1 * nb_msg, (void *) _msg);
 657:/home/dino/paparazzi/var/include/messages.h **** 	  trans->end_message(trans->impl, dev);
 658:/home/dino/paparazzi/var/include/messages.h **** 	} else
 659:/home/dino/paparazzi/var/include/messages.h **** 	  trans->overrun(trans->impl, dev);
 660:/home/dino/paparazzi/var/include/messages.h **** }
 661:/home/dino/paparazzi/var/include/messages.h **** 
 662:/home/dino/paparazzi/var/include/messages.h **** #define DOWNLINK_SEND_SURVEY(_trans, _dev, east, north, west, south) pprz_msg_send_SURVEY(&((_trans
 663:/home/dino/paparazzi/var/include/messages.h **** static inline void pprz_msg_send_SURVEY(struct transport_tx *trans, struct link_device *dev, uint8_
 664:/home/dino/paparazzi/var/include/messages.h **** 	if (trans->check_available_space(trans->impl, dev, trans->size_of(trans->impl, 0+4+4+4+4 +2 /* msg
 665:/home/dino/paparazzi/var/include/messages.h **** 	  trans->count_bytes(trans->impl, dev, trans->size_of(trans->impl, 0+4+4+4+4 +2 /* msg header over
 666:/home/dino/paparazzi/var/include/messages.h **** 	  trans->start_message(trans->impl, dev, 0+4+4+4+4 +2 /* msg header overhead */);
 667:/home/dino/paparazzi/var/include/messages.h **** 	  trans->put_bytes(trans->impl, dev, DL_TYPE_UINT8, DL_FORMAT_SCALAR, 1, &ac_id);
 668:/home/dino/paparazzi/var/include/messages.h **** 	  trans->put_named_byte(trans->impl, dev, DL_TYPE_UINT8, DL_FORMAT_SCALAR, DL_SURVEY, "SURVEY");
 669:/home/dino/paparazzi/var/include/messages.h **** 	  trans->put_bytes(trans->impl, dev, DL_TYPE_FLOAT, DL_FORMAT_SCALAR, 4, (void *) _east);
 670:/home/dino/paparazzi/var/include/messages.h **** 	  trans->put_bytes(trans->impl, dev, DL_TYPE_FLOAT, DL_FORMAT_SCALAR, 4, (void *) _north);
 671:/home/dino/paparazzi/var/include/messages.h **** 	  trans->put_bytes(trans->impl, dev, DL_TYPE_FLOAT, DL_FORMAT_SCALAR, 4, (void *) _west);
 672:/home/dino/paparazzi/var/include/messages.h **** 	  trans->put_bytes(trans->impl, dev, DL_TYPE_FLOAT, DL_FORMAT_SCALAR, 4, (void *) _south);
 673:/home/dino/paparazzi/var/include/messages.h **** 	  trans->end_message(trans->impl, dev);
 674:/home/dino/paparazzi/var/include/messages.h **** 	} else
 675:/home/dino/paparazzi/var/include/messages.h **** 	  trans->overrun(trans->impl, dev);
 676:/home/dino/paparazzi/var/include/messages.h **** }
 677:/home/dino/paparazzi/var/include/messages.h **** 
 678:/home/dino/paparazzi/var/include/messages.h **** #define DOWNLINK_SEND_WC_RSSI(_trans, _dev, raw_level) pprz_msg_send_WC_RSSI(&((_trans).trans_tx), 
 679:/home/dino/paparazzi/var/include/messages.h **** static inline void pprz_msg_send_WC_RSSI(struct transport_tx *trans, struct link_device *dev, uint8
 680:/home/dino/paparazzi/var/include/messages.h **** 	if (trans->check_available_space(trans->impl, dev, trans->size_of(trans->impl, 0+1 +2 /* msg heade
 681:/home/dino/paparazzi/var/include/messages.h **** 	  trans->count_bytes(trans->impl, dev, trans->size_of(trans->impl, 0+1 +2 /* msg header overhead *
 682:/home/dino/paparazzi/var/include/messages.h **** 	  trans->start_message(trans->impl, dev, 0+1 +2 /* msg header overhead */);
 683:/home/dino/paparazzi/var/include/messages.h **** 	  trans->put_bytes(trans->impl, dev, DL_TYPE_UINT8, DL_FORMAT_SCALAR, 1, &ac_id);
 684:/home/dino/paparazzi/var/include/messages.h **** 	  trans->put_named_byte(trans->impl, dev, DL_TYPE_UINT8, DL_FORMAT_SCALAR, DL_WC_RSSI, "WC_RSSI");
 685:/home/dino/paparazzi/var/include/messages.h **** 	  trans->put_bytes(trans->impl, dev, DL_TYPE_UINT8, DL_FORMAT_SCALAR, 1, (void *) _raw_level);
 686:/home/dino/paparazzi/var/include/messages.h **** 	  trans->end_message(trans->impl, dev);
 687:/home/dino/paparazzi/var/include/messages.h **** 	} else
 688:/home/dino/paparazzi/var/include/messages.h **** 	  trans->overrun(trans->impl, dev);
 689:/home/dino/paparazzi/var/include/messages.h **** }
 690:/home/dino/paparazzi/var/include/messages.h **** 
 691:/home/dino/paparazzi/var/include/messages.h **** #define DOWNLINK_SEND_RANGEFINDER(_trans, _dev, range, z_dot, z_dot_sum_err, z_dot_setpoint, z_sum_
 692:/home/dino/paparazzi/var/include/messages.h **** static inline void pprz_msg_send_RANGEFINDER(struct transport_tx *trans, struct link_device *dev, u
 693:/home/dino/paparazzi/var/include/messages.h **** 	if (trans->check_available_space(trans->impl, dev, trans->size_of(trans->impl, 0+2+4+4+4+4+4+1 +2 
 694:/home/dino/paparazzi/var/include/messages.h **** 	  trans->count_bytes(trans->impl, dev, trans->size_of(trans->impl, 0+2+4+4+4+4+4+1 +2 /* msg heade
 695:/home/dino/paparazzi/var/include/messages.h **** 	  trans->start_message(trans->impl, dev, 0+2+4+4+4+4+4+1 +2 /* msg header overhead */);
 696:/home/dino/paparazzi/var/include/messages.h **** 	  trans->put_bytes(trans->impl, dev, DL_TYPE_UINT8, DL_FORMAT_SCALAR, 1, &ac_id);
 697:/home/dino/paparazzi/var/include/messages.h **** 	  trans->put_named_byte(trans->impl, dev, DL_TYPE_UINT8, DL_FORMAT_SCALAR, DL_RANGEFINDER, "RANGEF
 698:/home/dino/paparazzi/var/include/messages.h **** 	  trans->put_bytes(trans->impl, dev, DL_TYPE_UINT16, DL_FORMAT_SCALAR, 2, (void *) _range);
 699:/home/dino/paparazzi/var/include/messages.h **** 	  trans->put_bytes(trans->impl, dev, DL_TYPE_FLOAT, DL_FORMAT_SCALAR, 4, (void *) _z_dot);
 700:/home/dino/paparazzi/var/include/messages.h **** 	  trans->put_bytes(trans->impl, dev, DL_TYPE_FLOAT, DL_FORMAT_SCALAR, 4, (void *) _z_dot_sum_err);
 701:/home/dino/paparazzi/var/include/messages.h **** 	  trans->put_bytes(trans->impl, dev, DL_TYPE_FLOAT, DL_FORMAT_SCALAR, 4, (void *) _z_dot_setpoint)
 702:/home/dino/paparazzi/var/include/messages.h **** 	  trans->put_bytes(trans->impl, dev, DL_TYPE_FLOAT, DL_FORMAT_SCALAR, 4, (void *) _z_sum_err);
 703:/home/dino/paparazzi/var/include/messages.h **** 	  trans->put_bytes(trans->impl, dev, DL_TYPE_FLOAT, DL_FORMAT_SCALAR, 4, (void *) _z_setpoint);
 704:/home/dino/paparazzi/var/include/messages.h **** 	  trans->put_bytes(trans->impl, dev, DL_TYPE_UINT8, DL_FORMAT_SCALAR, 1, (void *) _flying);
 705:/home/dino/paparazzi/var/include/messages.h **** 	  trans->end_message(trans->impl, dev);
 706:/home/dino/paparazzi/var/include/messages.h **** 	} else
 707:/home/dino/paparazzi/var/include/messages.h **** 	  trans->overrun(trans->impl, dev);
 708:/home/dino/paparazzi/var/include/messages.h **** }
 709:/home/dino/paparazzi/var/include/messages.h **** 
 710:/home/dino/paparazzi/var/include/messages.h **** #define DOWNLINK_SEND_DATALINK_REPORT(_trans, _dev, uplink_lost_time, uplink_nb_msgs, downlink_nb_m
 711:/home/dino/paparazzi/var/include/messages.h **** static inline void pprz_msg_send_DATALINK_REPORT(struct transport_tx *trans, struct link_device *de
 712:/home/dino/paparazzi/var/include/messages.h **** 	if (trans->check_available_space(trans->impl, dev, trans->size_of(trans->impl, 0+2+2+2+2+1 +2 /* m
 713:/home/dino/paparazzi/var/include/messages.h **** 	  trans->count_bytes(trans->impl, dev, trans->size_of(trans->impl, 0+2+2+2+2+1 +2 /* msg header ov
 714:/home/dino/paparazzi/var/include/messages.h **** 	  trans->start_message(trans->impl, dev, 0+2+2+2+2+1 +2 /* msg header overhead */);
 715:/home/dino/paparazzi/var/include/messages.h **** 	  trans->put_bytes(trans->impl, dev, DL_TYPE_UINT8, DL_FORMAT_SCALAR, 1, &ac_id);
 716:/home/dino/paparazzi/var/include/messages.h **** 	  trans->put_named_byte(trans->impl, dev, DL_TYPE_UINT8, DL_FORMAT_SCALAR, DL_DATALINK_REPORT, "DA
 717:/home/dino/paparazzi/var/include/messages.h **** 	  trans->put_bytes(trans->impl, dev, DL_TYPE_UINT16, DL_FORMAT_SCALAR, 2, (void *) _uplink_lost_ti
 718:/home/dino/paparazzi/var/include/messages.h **** 	  trans->put_bytes(trans->impl, dev, DL_TYPE_UINT16, DL_FORMAT_SCALAR, 2, (void *) _uplink_nb_msgs
 719:/home/dino/paparazzi/var/include/messages.h **** 	  trans->put_bytes(trans->impl, dev, DL_TYPE_UINT16, DL_FORMAT_SCALAR, 2, (void *) _downlink_nb_ms
 720:/home/dino/paparazzi/var/include/messages.h **** 	  trans->put_bytes(trans->impl, dev, DL_TYPE_UINT16, DL_FORMAT_SCALAR, 2, (void *) _downlink_rate)
 721:/home/dino/paparazzi/var/include/messages.h **** 	  trans->put_bytes(trans->impl, dev, DL_TYPE_UINT8, DL_FORMAT_SCALAR, 1, (void *) _downlink_ovrn);
 722:/home/dino/paparazzi/var/include/messages.h **** 	  trans->end_message(trans->impl, dev);
 723:/home/dino/paparazzi/var/include/messages.h **** 	} else
 724:/home/dino/paparazzi/var/include/messages.h **** 	  trans->overrun(trans->impl, dev);
 725:/home/dino/paparazzi/var/include/messages.h **** }
 726:/home/dino/paparazzi/var/include/messages.h **** 
 727:/home/dino/paparazzi/var/include/messages.h **** #define DOWNLINK_SEND_DL_VALUE(_trans, _dev, index, value) pprz_msg_send_DL_VALUE(&((_trans).trans_
 728:/home/dino/paparazzi/var/include/messages.h **** static inline void pprz_msg_send_DL_VALUE(struct transport_tx *trans, struct link_device *dev, uint
 729:/home/dino/paparazzi/var/include/messages.h **** 	if (trans->check_available_space(trans->impl, dev, trans->size_of(trans->impl, 0+1+4 +2 /* msg hea
 730:/home/dino/paparazzi/var/include/messages.h **** 	  trans->count_bytes(trans->impl, dev, trans->size_of(trans->impl, 0+1+4 +2 /* msg header overhead
 731:/home/dino/paparazzi/var/include/messages.h **** 	  trans->start_message(trans->impl, dev, 0+1+4 +2 /* msg header overhead */);
 732:/home/dino/paparazzi/var/include/messages.h **** 	  trans->put_bytes(trans->impl, dev, DL_TYPE_UINT8, DL_FORMAT_SCALAR, 1, &ac_id);
 733:/home/dino/paparazzi/var/include/messages.h **** 	  trans->put_named_byte(trans->impl, dev, DL_TYPE_UINT8, DL_FORMAT_SCALAR, DL_DL_VALUE, "DL_VALUE"
 734:/home/dino/paparazzi/var/include/messages.h **** 	  trans->put_bytes(trans->impl, dev, DL_TYPE_UINT8, DL_FORMAT_SCALAR, 1, (void *) _index);
 735:/home/dino/paparazzi/var/include/messages.h **** 	  trans->put_bytes(trans->impl, dev, DL_TYPE_FLOAT, DL_FORMAT_SCALAR, 4, (void *) _value);
 736:/home/dino/paparazzi/var/include/messages.h **** 	  trans->end_message(trans->impl, dev);
 737:/home/dino/paparazzi/var/include/messages.h **** 	} else
 738:/home/dino/paparazzi/var/include/messages.h **** 	  trans->overrun(trans->impl, dev);
 739:/home/dino/paparazzi/var/include/messages.h **** }
 740:/home/dino/paparazzi/var/include/messages.h **** 
 741:/home/dino/paparazzi/var/include/messages.h **** #define DOWNLINK_SEND_MARK(_trans, _dev, ac_id, lat, long) pprz_msg_send_MARK(&((_trans).trans_tx),
 742:/home/dino/paparazzi/var/include/messages.h **** static inline void pprz_msg_send_MARK(struct transport_tx *trans, struct link_device *dev, uint8_t 
 743:/home/dino/paparazzi/var/include/messages.h **** 	if (trans->check_available_space(trans->impl, dev, trans->size_of(trans->impl, 0+1+4+4 +2 /* msg h
 744:/home/dino/paparazzi/var/include/messages.h **** 	  trans->count_bytes(trans->impl, dev, trans->size_of(trans->impl, 0+1+4+4 +2 /* msg header overhe
 745:/home/dino/paparazzi/var/include/messages.h **** 	  trans->start_message(trans->impl, dev, 0+1+4+4 +2 /* msg header overhead */);
 746:/home/dino/paparazzi/var/include/messages.h **** 	  trans->put_bytes(trans->impl, dev, DL_TYPE_UINT8, DL_FORMAT_SCALAR, 1, &ac_id);
 747:/home/dino/paparazzi/var/include/messages.h **** 	  trans->put_named_byte(trans->impl, dev, DL_TYPE_UINT8, DL_FORMAT_SCALAR, DL_MARK, "MARK");
 748:/home/dino/paparazzi/var/include/messages.h **** 	  trans->put_bytes(trans->impl, dev, DL_TYPE_UINT8, DL_FORMAT_SCALAR, 1, (void *) _ac_id);
 749:/home/dino/paparazzi/var/include/messages.h **** 	  trans->put_bytes(trans->impl, dev, DL_TYPE_FLOAT, DL_FORMAT_SCALAR, 4, (void *) _lat);
 750:/home/dino/paparazzi/var/include/messages.h **** 	  trans->put_bytes(trans->impl, dev, DL_TYPE_FLOAT, DL_FORMAT_SCALAR, 4, (void *) _long);
 751:/home/dino/paparazzi/var/include/messages.h **** 	  trans->end_message(trans->impl, dev);
 752:/home/dino/paparazzi/var/include/messages.h **** 	} else
 753:/home/dino/paparazzi/var/include/messages.h **** 	  trans->overrun(trans->impl, dev);
 754:/home/dino/paparazzi/var/include/messages.h **** }
 755:/home/dino/paparazzi/var/include/messages.h **** 
 756:/home/dino/paparazzi/var/include/messages.h **** #define DOWNLINK_SEND_SYS_MON(_trans, _dev, periodic_time, periodic_time_min, periodic_time_max, pe
 757:/home/dino/paparazzi/var/include/messages.h **** static inline void pprz_msg_send_SYS_MON(struct transport_tx *trans, struct link_device *dev, uint8
 758:/home/dino/paparazzi/var/include/messages.h **** 	if (trans->check_available_space(trans->impl, dev, trans->size_of(trans->impl, 0+2+2+2+2+2+2+2+1 +
 759:/home/dino/paparazzi/var/include/messages.h **** 	  trans->count_bytes(trans->impl, dev, trans->size_of(trans->impl, 0+2+2+2+2+2+2+2+1 +2 /* msg hea
 760:/home/dino/paparazzi/var/include/messages.h **** 	  trans->start_message(trans->impl, dev, 0+2+2+2+2+2+2+2+1 +2 /* msg header overhead */);
 761:/home/dino/paparazzi/var/include/messages.h **** 	  trans->put_bytes(trans->impl, dev, DL_TYPE_UINT8, DL_FORMAT_SCALAR, 1, &ac_id);
 762:/home/dino/paparazzi/var/include/messages.h **** 	  trans->put_named_byte(trans->impl, dev, DL_TYPE_UINT8, DL_FORMAT_SCALAR, DL_SYS_MON, "SYS_MON");
 763:/home/dino/paparazzi/var/include/messages.h **** 	  trans->put_bytes(trans->impl, dev, DL_TYPE_UINT16, DL_FORMAT_SCALAR, 2, (void *) _periodic_time)
 764:/home/dino/paparazzi/var/include/messages.h **** 	  trans->put_bytes(trans->impl, dev, DL_TYPE_UINT16, DL_FORMAT_SCALAR, 2, (void *) _periodic_time_
 765:/home/dino/paparazzi/var/include/messages.h **** 	  trans->put_bytes(trans->impl, dev, DL_TYPE_UINT16, DL_FORMAT_SCALAR, 2, (void *) _periodic_time_
 766:/home/dino/paparazzi/var/include/messages.h **** 	  trans->put_bytes(trans->impl, dev, DL_TYPE_UINT16, DL_FORMAT_SCALAR, 2, (void *) _periodic_cycle
 767:/home/dino/paparazzi/var/include/messages.h **** 	  trans->put_bytes(trans->impl, dev, DL_TYPE_UINT16, DL_FORMAT_SCALAR, 2, (void *) _periodic_cycle
 768:/home/dino/paparazzi/var/include/messages.h **** 	  trans->put_bytes(trans->impl, dev, DL_TYPE_UINT16, DL_FORMAT_SCALAR, 2, (void *) _periodic_cycle
 769:/home/dino/paparazzi/var/include/messages.h **** 	  trans->put_bytes(trans->impl, dev, DL_TYPE_UINT16, DL_FORMAT_SCALAR, 2, (void *) _event_number);
 770:/home/dino/paparazzi/var/include/messages.h **** 	  trans->put_bytes(trans->impl, dev, DL_TYPE_UINT8, DL_FORMAT_SCALAR, 1, (void *) _cpu_load);
 771:/home/dino/paparazzi/var/include/messages.h **** 	  trans->end_message(trans->impl, dev);
 772:/home/dino/paparazzi/var/include/messages.h **** 	} else
 773:/home/dino/paparazzi/var/include/messages.h **** 	  trans->overrun(trans->impl, dev);
 774:/home/dino/paparazzi/var/include/messages.h **** }
 775:/home/dino/paparazzi/var/include/messages.h **** 
 776:/home/dino/paparazzi/var/include/messages.h **** #define DOWNLINK_SEND_MOTOR(_trans, _dev, rpm, current) pprz_msg_send_MOTOR(&((_trans).trans_tx), &
 777:/home/dino/paparazzi/var/include/messages.h **** static inline void pprz_msg_send_MOTOR(struct transport_tx *trans, struct link_device *dev, uint8_t
 778:/home/dino/paparazzi/var/include/messages.h **** 	if (trans->check_available_space(trans->impl, dev, trans->size_of(trans->impl, 0+2+4 +2 /* msg hea
 779:/home/dino/paparazzi/var/include/messages.h **** 	  trans->count_bytes(trans->impl, dev, trans->size_of(trans->impl, 0+2+4 +2 /* msg header overhead
 780:/home/dino/paparazzi/var/include/messages.h **** 	  trans->start_message(trans->impl, dev, 0+2+4 +2 /* msg header overhead */);
 781:/home/dino/paparazzi/var/include/messages.h **** 	  trans->put_bytes(trans->impl, dev, DL_TYPE_UINT8, DL_FORMAT_SCALAR, 1, &ac_id);
 782:/home/dino/paparazzi/var/include/messages.h **** 	  trans->put_named_byte(trans->impl, dev, DL_TYPE_UINT8, DL_FORMAT_SCALAR, DL_MOTOR, "MOTOR");
 783:/home/dino/paparazzi/var/include/messages.h **** 	  trans->put_bytes(trans->impl, dev, DL_TYPE_UINT16, DL_FORMAT_SCALAR, 2, (void *) _rpm);
 784:/home/dino/paparazzi/var/include/messages.h **** 	  trans->put_bytes(trans->impl, dev, DL_TYPE_INT32, DL_FORMAT_SCALAR, 4, (void *) _current);
 785:/home/dino/paparazzi/var/include/messages.h **** 	  trans->end_message(trans->impl, dev);
 786:/home/dino/paparazzi/var/include/messages.h **** 	} else
 787:/home/dino/paparazzi/var/include/messages.h **** 	  trans->overrun(trans->impl, dev);
 788:/home/dino/paparazzi/var/include/messages.h **** }
 789:/home/dino/paparazzi/var/include/messages.h **** 
 790:/home/dino/paparazzi/var/include/messages.h **** #define DOWNLINK_SEND_WP_MOVED(_trans, _dev, wp_id, utm_east, utm_north, alt, utm_zone) pprz_msg_se
 791:/home/dino/paparazzi/var/include/messages.h **** static inline void pprz_msg_send_WP_MOVED(struct transport_tx *trans, struct link_device *dev, uint
 792:/home/dino/paparazzi/var/include/messages.h **** 	if (trans->check_available_space(trans->impl, dev, trans->size_of(trans->impl, 0+1+4+4+4+1 +2 /* m
 793:/home/dino/paparazzi/var/include/messages.h **** 	  trans->count_bytes(trans->impl, dev, trans->size_of(trans->impl, 0+1+4+4+4+1 +2 /* msg header ov
 794:/home/dino/paparazzi/var/include/messages.h **** 	  trans->start_message(trans->impl, dev, 0+1+4+4+4+1 +2 /* msg header overhead */);
 795:/home/dino/paparazzi/var/include/messages.h **** 	  trans->put_bytes(trans->impl, dev, DL_TYPE_UINT8, DL_FORMAT_SCALAR, 1, &ac_id);
 796:/home/dino/paparazzi/var/include/messages.h **** 	  trans->put_named_byte(trans->impl, dev, DL_TYPE_UINT8, DL_FORMAT_SCALAR, DL_WP_MOVED, "WP_MOVED"
 797:/home/dino/paparazzi/var/include/messages.h **** 	  trans->put_bytes(trans->impl, dev, DL_TYPE_UINT8, DL_FORMAT_SCALAR, 1, (void *) _wp_id);
 798:/home/dino/paparazzi/var/include/messages.h **** 	  trans->put_bytes(trans->impl, dev, DL_TYPE_FLOAT, DL_FORMAT_SCALAR, 4, (void *) _utm_east);
 799:/home/dino/paparazzi/var/include/messages.h **** 	  trans->put_bytes(trans->impl, dev, DL_TYPE_FLOAT, DL_FORMAT_SCALAR, 4, (void *) _utm_north);
 800:/home/dino/paparazzi/var/include/messages.h **** 	  trans->put_bytes(trans->impl, dev, DL_TYPE_FLOAT, DL_FORMAT_SCALAR, 4, (void *) _alt);
 801:/home/dino/paparazzi/var/include/messages.h **** 	  trans->put_bytes(trans->impl, dev, DL_TYPE_UINT8, DL_FORMAT_SCALAR, 1, (void *) _utm_zone);
 802:/home/dino/paparazzi/var/include/messages.h **** 	  trans->end_message(trans->impl, dev);
 803:/home/dino/paparazzi/var/include/messages.h **** 	} else
 804:/home/dino/paparazzi/var/include/messages.h **** 	  trans->overrun(trans->impl, dev);
 805:/home/dino/paparazzi/var/include/messages.h **** }
 806:/home/dino/paparazzi/var/include/messages.h **** 
 807:/home/dino/paparazzi/var/include/messages.h **** #define DOWNLINK_SEND_MKK(_trans, _dev, nr, rpm, current, temp) pprz_msg_send_MKK(&((_trans).trans_
 808:/home/dino/paparazzi/var/include/messages.h **** static inline void pprz_msg_send_MKK(struct transport_tx *trans, struct link_device *dev, uint8_t a
 809:/home/dino/paparazzi/var/include/messages.h **** 	if (trans->check_available_space(trans->impl, dev, trans->size_of(trans->impl, 0+1+1+1+1 +2 /* msg
 810:/home/dino/paparazzi/var/include/messages.h **** 	  trans->count_bytes(trans->impl, dev, trans->size_of(trans->impl, 0+1+1+1+1 +2 /* msg header over
 811:/home/dino/paparazzi/var/include/messages.h **** 	  trans->start_message(trans->impl, dev, 0+1+1+1+1 +2 /* msg header overhead */);
 812:/home/dino/paparazzi/var/include/messages.h **** 	  trans->put_bytes(trans->impl, dev, DL_TYPE_UINT8, DL_FORMAT_SCALAR, 1, &ac_id);
 813:/home/dino/paparazzi/var/include/messages.h **** 	  trans->put_named_byte(trans->impl, dev, DL_TYPE_UINT8, DL_FORMAT_SCALAR, DL_MKK, "MKK");
 814:/home/dino/paparazzi/var/include/messages.h **** 	  trans->put_bytes(trans->impl, dev, DL_TYPE_UINT8, DL_FORMAT_SCALAR, 1, (void *) _nr);
 815:/home/dino/paparazzi/var/include/messages.h **** 	  trans->put_bytes(trans->impl, dev, DL_TYPE_UINT8, DL_FORMAT_SCALAR, 1, (void *) _rpm);
 816:/home/dino/paparazzi/var/include/messages.h **** 	  trans->put_bytes(trans->impl, dev, DL_TYPE_UINT8, DL_FORMAT_SCALAR, 1, (void *) _current);
 817:/home/dino/paparazzi/var/include/messages.h **** 	  trans->put_bytes(trans->impl, dev, DL_TYPE_INT8, DL_FORMAT_SCALAR, 1, (void *) _temp);
 818:/home/dino/paparazzi/var/include/messages.h **** 	  trans->end_message(trans->impl, dev);
 819:/home/dino/paparazzi/var/include/messages.h **** 	} else
 820:/home/dino/paparazzi/var/include/messages.h **** 	  trans->overrun(trans->impl, dev);
 821:/home/dino/paparazzi/var/include/messages.h **** }
 822:/home/dino/paparazzi/var/include/messages.h **** 
 823:/home/dino/paparazzi/var/include/messages.h **** #define DOWNLINK_SEND_ENERGY(_trans, _dev, bat, amp, energy, power) pprz_msg_send_ENERGY(&((_trans)
 824:/home/dino/paparazzi/var/include/messages.h **** static inline void pprz_msg_send_ENERGY(struct transport_tx *trans, struct link_device *dev, uint8_
 825:/home/dino/paparazzi/var/include/messages.h **** 	if (trans->check_available_space(trans->impl, dev, trans->size_of(trans->impl, 0+4+4+2+4 +2 /* msg
 826:/home/dino/paparazzi/var/include/messages.h **** 	  trans->count_bytes(trans->impl, dev, trans->size_of(trans->impl, 0+4+4+2+4 +2 /* msg header over
 827:/home/dino/paparazzi/var/include/messages.h **** 	  trans->start_message(trans->impl, dev, 0+4+4+2+4 +2 /* msg header overhead */);
 828:/home/dino/paparazzi/var/include/messages.h **** 	  trans->put_bytes(trans->impl, dev, DL_TYPE_UINT8, DL_FORMAT_SCALAR, 1, &ac_id);
 829:/home/dino/paparazzi/var/include/messages.h **** 	  trans->put_named_byte(trans->impl, dev, DL_TYPE_UINT8, DL_FORMAT_SCALAR, DL_ENERGY, "ENERGY");
 830:/home/dino/paparazzi/var/include/messages.h **** 	  trans->put_bytes(trans->impl, dev, DL_TYPE_FLOAT, DL_FORMAT_SCALAR, 4, (void *) _bat);
 831:/home/dino/paparazzi/var/include/messages.h **** 	  trans->put_bytes(trans->impl, dev, DL_TYPE_FLOAT, DL_FORMAT_SCALAR, 4, (void *) _amp);
 832:/home/dino/paparazzi/var/include/messages.h **** 	  trans->put_bytes(trans->impl, dev, DL_TYPE_UINT16, DL_FORMAT_SCALAR, 2, (void *) _energy);
 833:/home/dino/paparazzi/var/include/messages.h **** 	  trans->put_bytes(trans->impl, dev, DL_TYPE_FLOAT, DL_FORMAT_SCALAR, 4, (void *) _power);
 834:/home/dino/paparazzi/var/include/messages.h **** 	  trans->end_message(trans->impl, dev);
 835:/home/dino/paparazzi/var/include/messages.h **** 	} else
 836:/home/dino/paparazzi/var/include/messages.h **** 	  trans->overrun(trans->impl, dev);
 837:/home/dino/paparazzi/var/include/messages.h **** }
 838:/home/dino/paparazzi/var/include/messages.h **** 
 839:/home/dino/paparazzi/var/include/messages.h **** #define DOWNLINK_SEND_BARO_BMP85_CALIB(_trans, _dev, a1, a2, a3, a4, a5, a6, b1, b2, mb, mc, md) pp
 840:/home/dino/paparazzi/var/include/messages.h **** static inline void pprz_msg_send_BARO_BMP85_CALIB(struct transport_tx *trans, struct link_device *d
 841:/home/dino/paparazzi/var/include/messages.h **** 	if (trans->check_available_space(trans->impl, dev, trans->size_of(trans->impl, 0+2+2+2+2+2+2+2+2+2
 842:/home/dino/paparazzi/var/include/messages.h **** 	  trans->count_bytes(trans->impl, dev, trans->size_of(trans->impl, 0+2+2+2+2+2+2+2+2+2+2+2 +2 /* m
 843:/home/dino/paparazzi/var/include/messages.h **** 	  trans->start_message(trans->impl, dev, 0+2+2+2+2+2+2+2+2+2+2+2 +2 /* msg header overhead */);
 844:/home/dino/paparazzi/var/include/messages.h **** 	  trans->put_bytes(trans->impl, dev, DL_TYPE_UINT8, DL_FORMAT_SCALAR, 1, &ac_id);
 845:/home/dino/paparazzi/var/include/messages.h **** 	  trans->put_named_byte(trans->impl, dev, DL_TYPE_UINT8, DL_FORMAT_SCALAR, DL_BARO_BMP85_CALIB, "B
 846:/home/dino/paparazzi/var/include/messages.h **** 	  trans->put_bytes(trans->impl, dev, DL_TYPE_INT16, DL_FORMAT_SCALAR, 2, (void *) _a1);
 847:/home/dino/paparazzi/var/include/messages.h **** 	  trans->put_bytes(trans->impl, dev, DL_TYPE_INT16, DL_FORMAT_SCALAR, 2, (void *) _a2);
 848:/home/dino/paparazzi/var/include/messages.h **** 	  trans->put_bytes(trans->impl, dev, DL_TYPE_INT16, DL_FORMAT_SCALAR, 2, (void *) _a3);
 849:/home/dino/paparazzi/var/include/messages.h **** 	  trans->put_bytes(trans->impl, dev, DL_TYPE_UINT16, DL_FORMAT_SCALAR, 2, (void *) _a4);
 850:/home/dino/paparazzi/var/include/messages.h **** 	  trans->put_bytes(trans->impl, dev, DL_TYPE_UINT16, DL_FORMAT_SCALAR, 2, (void *) _a5);
 851:/home/dino/paparazzi/var/include/messages.h **** 	  trans->put_bytes(trans->impl, dev, DL_TYPE_UINT16, DL_FORMAT_SCALAR, 2, (void *) _a6);
 852:/home/dino/paparazzi/var/include/messages.h **** 	  trans->put_bytes(trans->impl, dev, DL_TYPE_INT16, DL_FORMAT_SCALAR, 2, (void *) _b1);
 853:/home/dino/paparazzi/var/include/messages.h **** 	  trans->put_bytes(trans->impl, dev, DL_TYPE_INT16, DL_FORMAT_SCALAR, 2, (void *) _b2);
 854:/home/dino/paparazzi/var/include/messages.h **** 	  trans->put_bytes(trans->impl, dev, DL_TYPE_INT16, DL_FORMAT_SCALAR, 2, (void *) _mb);
 855:/home/dino/paparazzi/var/include/messages.h **** 	  trans->put_bytes(trans->impl, dev, DL_TYPE_INT16, DL_FORMAT_SCALAR, 2, (void *) _mc);
 856:/home/dino/paparazzi/var/include/messages.h **** 	  trans->put_bytes(trans->impl, dev, DL_TYPE_INT16, DL_FORMAT_SCALAR, 2, (void *) _md);
 857:/home/dino/paparazzi/var/include/messages.h **** 	  trans->end_message(trans->impl, dev);
 858:/home/dino/paparazzi/var/include/messages.h **** 	} else
 859:/home/dino/paparazzi/var/include/messages.h **** 	  trans->overrun(trans->impl, dev);
 860:/home/dino/paparazzi/var/include/messages.h **** }
 861:/home/dino/paparazzi/var/include/messages.h **** 
 862:/home/dino/paparazzi/var/include/messages.h **** #define DOWNLINK_SEND_BARO_BMP85(_trans, _dev, UT, UP, P, T, MSL) pprz_msg_send_BARO_BMP85(&((_tran
 863:/home/dino/paparazzi/var/include/messages.h **** static inline void pprz_msg_send_BARO_BMP85(struct transport_tx *trans, struct link_device *dev, ui
 864:/home/dino/paparazzi/var/include/messages.h **** 	if (trans->check_available_space(trans->impl, dev, trans->size_of(trans->impl, 0+4+4+4+4+4 +2 /* m
 865:/home/dino/paparazzi/var/include/messages.h **** 	  trans->count_bytes(trans->impl, dev, trans->size_of(trans->impl, 0+4+4+4+4+4 +2 /* msg header ov
 866:/home/dino/paparazzi/var/include/messages.h **** 	  trans->start_message(trans->impl, dev, 0+4+4+4+4+4 +2 /* msg header overhead */);
 867:/home/dino/paparazzi/var/include/messages.h **** 	  trans->put_bytes(trans->impl, dev, DL_TYPE_UINT8, DL_FORMAT_SCALAR, 1, &ac_id);
 868:/home/dino/paparazzi/var/include/messages.h **** 	  trans->put_named_byte(trans->impl, dev, DL_TYPE_UINT8, DL_FORMAT_SCALAR, DL_BARO_BMP85, "BARO_BM
 869:/home/dino/paparazzi/var/include/messages.h **** 	  trans->put_bytes(trans->impl, dev, DL_TYPE_INT32, DL_FORMAT_SCALAR, 4, (void *) _UT);
 870:/home/dino/paparazzi/var/include/messages.h **** 	  trans->put_bytes(trans->impl, dev, DL_TYPE_INT32, DL_FORMAT_SCALAR, 4, (void *) _UP);
 871:/home/dino/paparazzi/var/include/messages.h **** 	  trans->put_bytes(trans->impl, dev, DL_TYPE_UINT32, DL_FORMAT_SCALAR, 4, (void *) _P);
 872:/home/dino/paparazzi/var/include/messages.h **** 	  trans->put_bytes(trans->impl, dev, DL_TYPE_FLOAT, DL_FORMAT_SCALAR, 4, (void *) _T);
 873:/home/dino/paparazzi/var/include/messages.h **** 	  trans->put_bytes(trans->impl, dev, DL_TYPE_FLOAT, DL_FORMAT_SCALAR, 4, (void *) _MSL);
 874:/home/dino/paparazzi/var/include/messages.h **** 	  trans->end_message(trans->impl, dev);
 875:/home/dino/paparazzi/var/include/messages.h **** 	} else
 876:/home/dino/paparazzi/var/include/messages.h **** 	  trans->overrun(trans->impl, dev);
 877:/home/dino/paparazzi/var/include/messages.h **** }
 878:/home/dino/paparazzi/var/include/messages.h **** 
 879:/home/dino/paparazzi/var/include/messages.h **** #define DOWNLINK_SEND_SPEED_LOOP(_trans, _dev, ve_set_point, ve, vn_set_point, vn, north_sp, east_s
 880:/home/dino/paparazzi/var/include/messages.h **** static inline void pprz_msg_send_SPEED_LOOP(struct transport_tx *trans, struct link_device *dev, ui
 881:/home/dino/paparazzi/var/include/messages.h **** 	if (trans->check_available_space(trans->impl, dev, trans->size_of(trans->impl, 0+4+4+4+4+4+4 +2 /*
 882:/home/dino/paparazzi/var/include/messages.h **** 	  trans->count_bytes(trans->impl, dev, trans->size_of(trans->impl, 0+4+4+4+4+4+4 +2 /* msg header 
 883:/home/dino/paparazzi/var/include/messages.h **** 	  trans->start_message(trans->impl, dev, 0+4+4+4+4+4+4 +2 /* msg header overhead */);
 884:/home/dino/paparazzi/var/include/messages.h **** 	  trans->put_bytes(trans->impl, dev, DL_TYPE_UINT8, DL_FORMAT_SCALAR, 1, &ac_id);
 885:/home/dino/paparazzi/var/include/messages.h **** 	  trans->put_named_byte(trans->impl, dev, DL_TYPE_UINT8, DL_FORMAT_SCALAR, DL_SPEED_LOOP, "SPEED_L
 886:/home/dino/paparazzi/var/include/messages.h **** 	  trans->put_bytes(trans->impl, dev, DL_TYPE_FLOAT, DL_FORMAT_SCALAR, 4, (void *) _ve_set_point);
 887:/home/dino/paparazzi/var/include/messages.h **** 	  trans->put_bytes(trans->impl, dev, DL_TYPE_FLOAT, DL_FORMAT_SCALAR, 4, (void *) _ve);
 888:/home/dino/paparazzi/var/include/messages.h **** 	  trans->put_bytes(trans->impl, dev, DL_TYPE_FLOAT, DL_FORMAT_SCALAR, 4, (void *) _vn_set_point);
 889:/home/dino/paparazzi/var/include/messages.h **** 	  trans->put_bytes(trans->impl, dev, DL_TYPE_FLOAT, DL_FORMAT_SCALAR, 4, (void *) _vn);
 890:/home/dino/paparazzi/var/include/messages.h **** 	  trans->put_bytes(trans->impl, dev, DL_TYPE_FLOAT, DL_FORMAT_SCALAR, 4, (void *) _north_sp);
 891:/home/dino/paparazzi/var/include/messages.h **** 	  trans->put_bytes(trans->impl, dev, DL_TYPE_FLOAT, DL_FORMAT_SCALAR, 4, (void *) _east_sp);
 892:/home/dino/paparazzi/var/include/messages.h **** 	  trans->end_message(trans->impl, dev);
 893:/home/dino/paparazzi/var/include/messages.h **** 	} else
 894:/home/dino/paparazzi/var/include/messages.h **** 	  trans->overrun(trans->impl, dev);
 895:/home/dino/paparazzi/var/include/messages.h **** }
 896:/home/dino/paparazzi/var/include/messages.h **** 
 897:/home/dino/paparazzi/var/include/messages.h **** #define DOWNLINK_SEND_ALT_KALMAN(_trans, _dev, p00, p01, p10, p11) pprz_msg_send_ALT_KALMAN(&((_tra
 898:/home/dino/paparazzi/var/include/messages.h **** static inline void pprz_msg_send_ALT_KALMAN(struct transport_tx *trans, struct link_device *dev, ui
 899:/home/dino/paparazzi/var/include/messages.h **** 	if (trans->check_available_space(trans->impl, dev, trans->size_of(trans->impl, 0+4+4+4+4 +2 /* msg
 900:/home/dino/paparazzi/var/include/messages.h **** 	  trans->count_bytes(trans->impl, dev, trans->size_of(trans->impl, 0+4+4+4+4 +2 /* msg header over
 901:/home/dino/paparazzi/var/include/messages.h **** 	  trans->start_message(trans->impl, dev, 0+4+4+4+4 +2 /* msg header overhead */);
 902:/home/dino/paparazzi/var/include/messages.h **** 	  trans->put_bytes(trans->impl, dev, DL_TYPE_UINT8, DL_FORMAT_SCALAR, 1, &ac_id);
 903:/home/dino/paparazzi/var/include/messages.h **** 	  trans->put_named_byte(trans->impl, dev, DL_TYPE_UINT8, DL_FORMAT_SCALAR, DL_ALT_KALMAN, "ALT_KAL
 904:/home/dino/paparazzi/var/include/messages.h **** 	  trans->put_bytes(trans->impl, dev, DL_TYPE_FLOAT, DL_FORMAT_SCALAR, 4, (void *) _p00);
 905:/home/dino/paparazzi/var/include/messages.h **** 	  trans->put_bytes(trans->impl, dev, DL_TYPE_FLOAT, DL_FORMAT_SCALAR, 4, (void *) _p01);
 906:/home/dino/paparazzi/var/include/messages.h **** 	  trans->put_bytes(trans->impl, dev, DL_TYPE_FLOAT, DL_FORMAT_SCALAR, 4, (void *) _p10);
 907:/home/dino/paparazzi/var/include/messages.h **** 	  trans->put_bytes(trans->impl, dev, DL_TYPE_FLOAT, DL_FORMAT_SCALAR, 4, (void *) _p11);
 908:/home/dino/paparazzi/var/include/messages.h **** 	  trans->end_message(trans->impl, dev);
 909:/home/dino/paparazzi/var/include/messages.h **** 	} else
 910:/home/dino/paparazzi/var/include/messages.h **** 	  trans->overrun(trans->impl, dev);
 911:/home/dino/paparazzi/var/include/messages.h **** }
 912:/home/dino/paparazzi/var/include/messages.h **** 
 913:/home/dino/paparazzi/var/include/messages.h **** #define DOWNLINK_SEND_ESTIMATOR(_trans, _dev, z, z_dot) pprz_msg_send_ESTIMATOR(&((_trans).trans_tx
 914:/home/dino/paparazzi/var/include/messages.h **** static inline void pprz_msg_send_ESTIMATOR(struct transport_tx *trans, struct link_device *dev, uin
 915:/home/dino/paparazzi/var/include/messages.h **** 	if (trans->check_available_space(trans->impl, dev, trans->size_of(trans->impl, 0+4+4 +2 /* msg hea
 916:/home/dino/paparazzi/var/include/messages.h **** 	  trans->count_bytes(trans->impl, dev, trans->size_of(trans->impl, 0+4+4 +2 /* msg header overhead
 917:/home/dino/paparazzi/var/include/messages.h **** 	  trans->start_message(trans->impl, dev, 0+4+4 +2 /* msg header overhead */);
 918:/home/dino/paparazzi/var/include/messages.h **** 	  trans->put_bytes(trans->impl, dev, DL_TYPE_UINT8, DL_FORMAT_SCALAR, 1, &ac_id);
 919:/home/dino/paparazzi/var/include/messages.h **** 	  trans->put_named_byte(trans->impl, dev, DL_TYPE_UINT8, DL_FORMAT_SCALAR, DL_ESTIMATOR, "ESTIMATO
 920:/home/dino/paparazzi/var/include/messages.h **** 	  trans->put_bytes(trans->impl, dev, DL_TYPE_FLOAT, DL_FORMAT_SCALAR, 4, (void *) _z);
 921:/home/dino/paparazzi/var/include/messages.h **** 	  trans->put_bytes(trans->impl, dev, DL_TYPE_FLOAT, DL_FORMAT_SCALAR, 4, (void *) _z_dot);
 922:/home/dino/paparazzi/var/include/messages.h **** 	  trans->end_message(trans->impl, dev);
 923:/home/dino/paparazzi/var/include/messages.h **** 	} else
 924:/home/dino/paparazzi/var/include/messages.h **** 	  trans->overrun(trans->impl, dev);
 925:/home/dino/paparazzi/var/include/messages.h **** }
 926:/home/dino/paparazzi/var/include/messages.h **** 
 927:/home/dino/paparazzi/var/include/messages.h **** #define DOWNLINK_SEND_TUNE_ROLL(_trans, _dev, p, phi, phi_sp) pprz_msg_send_TUNE_ROLL(&((_trans).tr
 928:/home/dino/paparazzi/var/include/messages.h **** static inline void pprz_msg_send_TUNE_ROLL(struct transport_tx *trans, struct link_device *dev, uin
 929:/home/dino/paparazzi/var/include/messages.h **** 	if (trans->check_available_space(trans->impl, dev, trans->size_of(trans->impl, 0+4+4+4 +2 /* msg h
 930:/home/dino/paparazzi/var/include/messages.h **** 	  trans->count_bytes(trans->impl, dev, trans->size_of(trans->impl, 0+4+4+4 +2 /* msg header overhe
 931:/home/dino/paparazzi/var/include/messages.h **** 	  trans->start_message(trans->impl, dev, 0+4+4+4 +2 /* msg header overhead */);
 932:/home/dino/paparazzi/var/include/messages.h **** 	  trans->put_bytes(trans->impl, dev, DL_TYPE_UINT8, DL_FORMAT_SCALAR, 1, &ac_id);
 933:/home/dino/paparazzi/var/include/messages.h **** 	  trans->put_named_byte(trans->impl, dev, DL_TYPE_UINT8, DL_FORMAT_SCALAR, DL_TUNE_ROLL, "TUNE_ROL
 934:/home/dino/paparazzi/var/include/messages.h **** 	  trans->put_bytes(trans->impl, dev, DL_TYPE_FLOAT, DL_FORMAT_SCALAR, 4, (void *) _p);
 935:/home/dino/paparazzi/var/include/messages.h **** 	  trans->put_bytes(trans->impl, dev, DL_TYPE_FLOAT, DL_FORMAT_SCALAR, 4, (void *) _phi);
 936:/home/dino/paparazzi/var/include/messages.h **** 	  trans->put_bytes(trans->impl, dev, DL_TYPE_FLOAT, DL_FORMAT_SCALAR, 4, (void *) _phi_sp);
 937:/home/dino/paparazzi/var/include/messages.h **** 	  trans->end_message(trans->impl, dev);
 938:/home/dino/paparazzi/var/include/messages.h **** 	} else
 939:/home/dino/paparazzi/var/include/messages.h **** 	  trans->overrun(trans->impl, dev);
 940:/home/dino/paparazzi/var/include/messages.h **** }
 941:/home/dino/paparazzi/var/include/messages.h **** 
 942:/home/dino/paparazzi/var/include/messages.h **** #define DOWNLINK_SEND_BARO_MS5534A(_trans, _dev, pressure, temp, alt) pprz_msg_send_BARO_MS5534A(&(
 943:/home/dino/paparazzi/var/include/messages.h **** static inline void pprz_msg_send_BARO_MS5534A(struct transport_tx *trans, struct link_device *dev, 
 944:/home/dino/paparazzi/var/include/messages.h **** 	if (trans->check_available_space(trans->impl, dev, trans->size_of(trans->impl, 0+4+2+4 +2 /* msg h
 945:/home/dino/paparazzi/var/include/messages.h **** 	  trans->count_bytes(trans->impl, dev, trans->size_of(trans->impl, 0+4+2+4 +2 /* msg header overhe
 946:/home/dino/paparazzi/var/include/messages.h **** 	  trans->start_message(trans->impl, dev, 0+4+2+4 +2 /* msg header overhead */);
 947:/home/dino/paparazzi/var/include/messages.h **** 	  trans->put_bytes(trans->impl, dev, DL_TYPE_UINT8, DL_FORMAT_SCALAR, 1, &ac_id);
 948:/home/dino/paparazzi/var/include/messages.h **** 	  trans->put_named_byte(trans->impl, dev, DL_TYPE_UINT8, DL_FORMAT_SCALAR, DL_BARO_MS5534A, "BARO_
 949:/home/dino/paparazzi/var/include/messages.h **** 	  trans->put_bytes(trans->impl, dev, DL_TYPE_UINT32, DL_FORMAT_SCALAR, 4, (void *) _pressure);
 950:/home/dino/paparazzi/var/include/messages.h **** 	  trans->put_bytes(trans->impl, dev, DL_TYPE_UINT16, DL_FORMAT_SCALAR, 2, (void *) _temp);
 951:/home/dino/paparazzi/var/include/messages.h **** 	  trans->put_bytes(trans->impl, dev, DL_TYPE_FLOAT, DL_FORMAT_SCALAR, 4, (void *) _alt);
 952:/home/dino/paparazzi/var/include/messages.h **** 	  trans->end_message(trans->impl, dev);
 953:/home/dino/paparazzi/var/include/messages.h **** 	} else
 954:/home/dino/paparazzi/var/include/messages.h **** 	  trans->overrun(trans->impl, dev);
 955:/home/dino/paparazzi/var/include/messages.h **** }
 956:/home/dino/paparazzi/var/include/messages.h **** 
 957:/home/dino/paparazzi/var/include/messages.h **** #define DOWNLINK_SEND_PRESSURE(_trans, _dev, airspeed_adc, airspeed, altitude_adc, altitude) pprz_m
 958:/home/dino/paparazzi/var/include/messages.h **** static inline void pprz_msg_send_PRESSURE(struct transport_tx *trans, struct link_device *dev, uint
 959:/home/dino/paparazzi/var/include/messages.h **** 	if (trans->check_available_space(trans->impl, dev, trans->size_of(trans->impl, 0+4+4+4+4 +2 /* msg
 960:/home/dino/paparazzi/var/include/messages.h **** 	  trans->count_bytes(trans->impl, dev, trans->size_of(trans->impl, 0+4+4+4+4 +2 /* msg header over
 961:/home/dino/paparazzi/var/include/messages.h **** 	  trans->start_message(trans->impl, dev, 0+4+4+4+4 +2 /* msg header overhead */);
 962:/home/dino/paparazzi/var/include/messages.h **** 	  trans->put_bytes(trans->impl, dev, DL_TYPE_UINT8, DL_FORMAT_SCALAR, 1, &ac_id);
 963:/home/dino/paparazzi/var/include/messages.h **** 	  trans->put_named_byte(trans->impl, dev, DL_TYPE_UINT8, DL_FORMAT_SCALAR, DL_PRESSURE, "PRESSURE"
 964:/home/dino/paparazzi/var/include/messages.h **** 	  trans->put_bytes(trans->impl, dev, DL_TYPE_FLOAT, DL_FORMAT_SCALAR, 4, (void *) _airspeed_adc);
 965:/home/dino/paparazzi/var/include/messages.h **** 	  trans->put_bytes(trans->impl, dev, DL_TYPE_FLOAT, DL_FORMAT_SCALAR, 4, (void *) _airspeed);
 966:/home/dino/paparazzi/var/include/messages.h **** 	  trans->put_bytes(trans->impl, dev, DL_TYPE_FLOAT, DL_FORMAT_SCALAR, 4, (void *) _altitude_adc);
 967:/home/dino/paparazzi/var/include/messages.h **** 	  trans->put_bytes(trans->impl, dev, DL_TYPE_FLOAT, DL_FORMAT_SCALAR, 4, (void *) _altitude);
 968:/home/dino/paparazzi/var/include/messages.h **** 	  trans->end_message(trans->impl, dev);
 969:/home/dino/paparazzi/var/include/messages.h **** 	} else
 970:/home/dino/paparazzi/var/include/messages.h **** 	  trans->overrun(trans->impl, dev);
 971:/home/dino/paparazzi/var/include/messages.h **** }
 972:/home/dino/paparazzi/var/include/messages.h **** 
 973:/home/dino/paparazzi/var/include/messages.h **** #define DOWNLINK_SEND_BARO_WORDS(_trans, _dev, w1, w2, w3, w4) pprz_msg_send_BARO_WORDS(&((_trans).
 974:/home/dino/paparazzi/var/include/messages.h **** static inline void pprz_msg_send_BARO_WORDS(struct transport_tx *trans, struct link_device *dev, ui
 975:/home/dino/paparazzi/var/include/messages.h **** 	if (trans->check_available_space(trans->impl, dev, trans->size_of(trans->impl, 0+2+2+2+2 +2 /* msg
 976:/home/dino/paparazzi/var/include/messages.h **** 	  trans->count_bytes(trans->impl, dev, trans->size_of(trans->impl, 0+2+2+2+2 +2 /* msg header over
 977:/home/dino/paparazzi/var/include/messages.h **** 	  trans->start_message(trans->impl, dev, 0+2+2+2+2 +2 /* msg header overhead */);
 978:/home/dino/paparazzi/var/include/messages.h **** 	  trans->put_bytes(trans->impl, dev, DL_TYPE_UINT8, DL_FORMAT_SCALAR, 1, &ac_id);
 979:/home/dino/paparazzi/var/include/messages.h **** 	  trans->put_named_byte(trans->impl, dev, DL_TYPE_UINT8, DL_FORMAT_SCALAR, DL_BARO_WORDS, "BARO_WO
 980:/home/dino/paparazzi/var/include/messages.h **** 	  trans->put_bytes(trans->impl, dev, DL_TYPE_UINT16, DL_FORMAT_SCALAR, 2, (void *) _w1);
 981:/home/dino/paparazzi/var/include/messages.h **** 	  trans->put_bytes(trans->impl, dev, DL_TYPE_UINT16, DL_FORMAT_SCALAR, 2, (void *) _w2);
 982:/home/dino/paparazzi/var/include/messages.h **** 	  trans->put_bytes(trans->impl, dev, DL_TYPE_UINT16, DL_FORMAT_SCALAR, 2, (void *) _w3);
 983:/home/dino/paparazzi/var/include/messages.h **** 	  trans->put_bytes(trans->impl, dev, DL_TYPE_UINT16, DL_FORMAT_SCALAR, 2, (void *) _w4);
 984:/home/dino/paparazzi/var/include/messages.h **** 	  trans->end_message(trans->impl, dev);
 985:/home/dino/paparazzi/var/include/messages.h **** 	} else
 986:/home/dino/paparazzi/var/include/messages.h **** 	  trans->overrun(trans->impl, dev);
 987:/home/dino/paparazzi/var/include/messages.h **** }
 988:/home/dino/paparazzi/var/include/messages.h **** 
 989:/home/dino/paparazzi/var/include/messages.h **** #define DOWNLINK_SEND_WP_MOVED_LLA(_trans, _dev, wp_id, lat, lon, alt) pprz_msg_send_WP_MOVED_LLA(&
 990:/home/dino/paparazzi/var/include/messages.h **** static inline void pprz_msg_send_WP_MOVED_LLA(struct transport_tx *trans, struct link_device *dev, 
 991:/home/dino/paparazzi/var/include/messages.h **** 	if (trans->check_available_space(trans->impl, dev, trans->size_of(trans->impl, 0+1+4+4+4 +2 /* msg
 992:/home/dino/paparazzi/var/include/messages.h **** 	  trans->count_bytes(trans->impl, dev, trans->size_of(trans->impl, 0+1+4+4+4 +2 /* msg header over
 993:/home/dino/paparazzi/var/include/messages.h **** 	  trans->start_message(trans->impl, dev, 0+1+4+4+4 +2 /* msg header overhead */);
 994:/home/dino/paparazzi/var/include/messages.h **** 	  trans->put_bytes(trans->impl, dev, DL_TYPE_UINT8, DL_FORMAT_SCALAR, 1, &ac_id);
 995:/home/dino/paparazzi/var/include/messages.h **** 	  trans->put_named_byte(trans->impl, dev, DL_TYPE_UINT8, DL_FORMAT_SCALAR, DL_WP_MOVED_LLA, "WP_MO
 996:/home/dino/paparazzi/var/include/messages.h **** 	  trans->put_bytes(trans->impl, dev, DL_TYPE_UINT8, DL_FORMAT_SCALAR, 1, (void *) _wp_id);
 997:/home/dino/paparazzi/var/include/messages.h **** 	  trans->put_bytes(trans->impl, dev, DL_TYPE_INT32, DL_FORMAT_SCALAR, 4, (void *) _lat);
 998:/home/dino/paparazzi/var/include/messages.h **** 	  trans->put_bytes(trans->impl, dev, DL_TYPE_INT32, DL_FORMAT_SCALAR, 4, (void *) _lon);
 999:/home/dino/paparazzi/var/include/messages.h **** 	  trans->put_bytes(trans->impl, dev, DL_TYPE_INT32, DL_FORMAT_SCALAR, 4, (void *) _alt);
1000:/home/dino/paparazzi/var/include/messages.h **** 	  trans->end_message(trans->impl, dev);
1001:/home/dino/paparazzi/var/include/messages.h **** 	} else
1002:/home/dino/paparazzi/var/include/messages.h **** 	  trans->overrun(trans->impl, dev);
1003:/home/dino/paparazzi/var/include/messages.h **** }
1004:/home/dino/paparazzi/var/include/messages.h **** 
1005:/home/dino/paparazzi/var/include/messages.h **** #define DOWNLINK_SEND_CHRONO(_trans, _dev, tag, time) pprz_msg_send_CHRONO(&((_trans).trans_tx), &(
1006:/home/dino/paparazzi/var/include/messages.h **** static inline void pprz_msg_send_CHRONO(struct transport_tx *trans, struct link_device *dev, uint8_
1007:/home/dino/paparazzi/var/include/messages.h **** 	if (trans->check_available_space(trans->impl, dev, trans->size_of(trans->impl, 0+1+4 +2 /* msg hea
1008:/home/dino/paparazzi/var/include/messages.h **** 	  trans->count_bytes(trans->impl, dev, trans->size_of(trans->impl, 0+1+4 +2 /* msg header overhead
1009:/home/dino/paparazzi/var/include/messages.h **** 	  trans->start_message(trans->impl, dev, 0+1+4 +2 /* msg header overhead */);
1010:/home/dino/paparazzi/var/include/messages.h **** 	  trans->put_bytes(trans->impl, dev, DL_TYPE_UINT8, DL_FORMAT_SCALAR, 1, &ac_id);
1011:/home/dino/paparazzi/var/include/messages.h **** 	  trans->put_named_byte(trans->impl, dev, DL_TYPE_UINT8, DL_FORMAT_SCALAR, DL_CHRONO, "CHRONO");
1012:/home/dino/paparazzi/var/include/messages.h **** 	  trans->put_bytes(trans->impl, dev, DL_TYPE_UINT8, DL_FORMAT_SCALAR, 1, (void *) _tag);
1013:/home/dino/paparazzi/var/include/messages.h **** 	  trans->put_bytes(trans->impl, dev, DL_TYPE_UINT32, DL_FORMAT_SCALAR, 4, (void *) _time);
1014:/home/dino/paparazzi/var/include/messages.h **** 	  trans->end_message(trans->impl, dev);
1015:/home/dino/paparazzi/var/include/messages.h **** 	} else
1016:/home/dino/paparazzi/var/include/messages.h **** 	  trans->overrun(trans->impl, dev);
1017:/home/dino/paparazzi/var/include/messages.h **** }
1018:/home/dino/paparazzi/var/include/messages.h **** 
1019:/home/dino/paparazzi/var/include/messages.h **** #define DOWNLINK_SEND_WP_MOVED_ENU(_trans, _dev, wp_id, east, north, up) pprz_msg_send_WP_MOVED_ENU
1020:/home/dino/paparazzi/var/include/messages.h **** static inline void pprz_msg_send_WP_MOVED_ENU(struct transport_tx *trans, struct link_device *dev, 
1021:/home/dino/paparazzi/var/include/messages.h **** 	if (trans->check_available_space(trans->impl, dev, trans->size_of(trans->impl, 0+1+4+4+4 +2 /* msg
1022:/home/dino/paparazzi/var/include/messages.h **** 	  trans->count_bytes(trans->impl, dev, trans->size_of(trans->impl, 0+1+4+4+4 +2 /* msg header over
1023:/home/dino/paparazzi/var/include/messages.h **** 	  trans->start_message(trans->impl, dev, 0+1+4+4+4 +2 /* msg header overhead */);
1024:/home/dino/paparazzi/var/include/messages.h **** 	  trans->put_bytes(trans->impl, dev, DL_TYPE_UINT8, DL_FORMAT_SCALAR, 1, &ac_id);
1025:/home/dino/paparazzi/var/include/messages.h **** 	  trans->put_named_byte(trans->impl, dev, DL_TYPE_UINT8, DL_FORMAT_SCALAR, DL_WP_MOVED_ENU, "WP_MO
1026:/home/dino/paparazzi/var/include/messages.h **** 	  trans->put_bytes(trans->impl, dev, DL_TYPE_UINT8, DL_FORMAT_SCALAR, 1, (void *) _wp_id);
1027:/home/dino/paparazzi/var/include/messages.h **** 	  trans->put_bytes(trans->impl, dev, DL_TYPE_INT32, DL_FORMAT_SCALAR, 4, (void *) _east);
1028:/home/dino/paparazzi/var/include/messages.h **** 	  trans->put_bytes(trans->impl, dev, DL_TYPE_INT32, DL_FORMAT_SCALAR, 4, (void *) _north);
1029:/home/dino/paparazzi/var/include/messages.h **** 	  trans->put_bytes(trans->impl, dev, DL_TYPE_INT32, DL_FORMAT_SCALAR, 4, (void *) _up);
1030:/home/dino/paparazzi/var/include/messages.h **** 	  trans->end_message(trans->impl, dev);
1031:/home/dino/paparazzi/var/include/messages.h **** 	} else
1032:/home/dino/paparazzi/var/include/messages.h **** 	  trans->overrun(trans->impl, dev);
1033:/home/dino/paparazzi/var/include/messages.h **** }
1034:/home/dino/paparazzi/var/include/messages.h **** 
1035:/home/dino/paparazzi/var/include/messages.h **** #define DOWNLINK_SEND_WINDTURBINE_STATUS_(_trans, _dev, ac_id, tb_id, sync_itow, cycle_time) pprz_m
1036:/home/dino/paparazzi/var/include/messages.h **** static inline void pprz_msg_send_WINDTURBINE_STATUS_(struct transport_tx *trans, struct link_device
1037:/home/dino/paparazzi/var/include/messages.h **** 	if (trans->check_available_space(trans->impl, dev, trans->size_of(trans->impl, 0+1+1+4+4 +2 /* msg
1038:/home/dino/paparazzi/var/include/messages.h **** 	  trans->count_bytes(trans->impl, dev, trans->size_of(trans->impl, 0+1+1+4+4 +2 /* msg header over
1039:/home/dino/paparazzi/var/include/messages.h **** 	  trans->start_message(trans->impl, dev, 0+1+1+4+4 +2 /* msg header overhead */);
1040:/home/dino/paparazzi/var/include/messages.h **** 	  trans->put_bytes(trans->impl, dev, DL_TYPE_UINT8, DL_FORMAT_SCALAR, 1, &ac_id);
1041:/home/dino/paparazzi/var/include/messages.h **** 	  trans->put_named_byte(trans->impl, dev, DL_TYPE_UINT8, DL_FORMAT_SCALAR, DL_WINDTURBINE_STATUS_,
1042:/home/dino/paparazzi/var/include/messages.h **** 	  trans->put_bytes(trans->impl, dev, DL_TYPE_UINT8, DL_FORMAT_SCALAR, 1, (void *) _ac_id);
1043:/home/dino/paparazzi/var/include/messages.h **** 	  trans->put_bytes(trans->impl, dev, DL_TYPE_UINT8, DL_FORMAT_SCALAR, 1, (void *) _tb_id);
1044:/home/dino/paparazzi/var/include/messages.h **** 	  trans->put_bytes(trans->impl, dev, DL_TYPE_UINT32, DL_FORMAT_SCALAR, 4, (void *) _sync_itow);
1045:/home/dino/paparazzi/var/include/messages.h **** 	  trans->put_bytes(trans->impl, dev, DL_TYPE_UINT32, DL_FORMAT_SCALAR, 4, (void *) _cycle_time);
1046:/home/dino/paparazzi/var/include/messages.h **** 	  trans->end_message(trans->impl, dev);
1047:/home/dino/paparazzi/var/include/messages.h **** 	} else
1048:/home/dino/paparazzi/var/include/messages.h **** 	  trans->overrun(trans->impl, dev);
1049:/home/dino/paparazzi/var/include/messages.h **** }
1050:/home/dino/paparazzi/var/include/messages.h **** 
1051:/home/dino/paparazzi/var/include/messages.h **** #define DOWNLINK_SEND_RC_3CH_(_trans, _dev, throttle_mode, roll, pitch) pprz_msg_send_RC_3CH_(&((_t
1052:/home/dino/paparazzi/var/include/messages.h **** static inline void pprz_msg_send_RC_3CH_(struct transport_tx *trans, struct link_device *dev, uint8
1053:/home/dino/paparazzi/var/include/messages.h **** 	if (trans->check_available_space(trans->impl, dev, trans->size_of(trans->impl, 0+1+1+1 +2 /* msg h
1054:/home/dino/paparazzi/var/include/messages.h **** 	  trans->count_bytes(trans->impl, dev, trans->size_of(trans->impl, 0+1+1+1 +2 /* msg header overhe
1055:/home/dino/paparazzi/var/include/messages.h **** 	  trans->start_message(trans->impl, dev, 0+1+1+1 +2 /* msg header overhead */);
1056:/home/dino/paparazzi/var/include/messages.h **** 	  trans->put_bytes(trans->impl, dev, DL_TYPE_UINT8, DL_FORMAT_SCALAR, 1, &ac_id);
1057:/home/dino/paparazzi/var/include/messages.h **** 	  trans->put_named_byte(trans->impl, dev, DL_TYPE_UINT8, DL_FORMAT_SCALAR, DL_RC_3CH_, "RC_3CH_");
1058:/home/dino/paparazzi/var/include/messages.h **** 	  trans->put_bytes(trans->impl, dev, DL_TYPE_UINT8, DL_FORMAT_SCALAR, 1, (void *) _throttle_mode);
1059:/home/dino/paparazzi/var/include/messages.h **** 	  trans->put_bytes(trans->impl, dev, DL_TYPE_INT8, DL_FORMAT_SCALAR, 1, (void *) _roll);
1060:/home/dino/paparazzi/var/include/messages.h **** 	  trans->put_bytes(trans->impl, dev, DL_TYPE_INT8, DL_FORMAT_SCALAR, 1, (void *) _pitch);
1061:/home/dino/paparazzi/var/include/messages.h **** 	  trans->end_message(trans->impl, dev);
1062:/home/dino/paparazzi/var/include/messages.h **** 	} else
1063:/home/dino/paparazzi/var/include/messages.h **** 	  trans->overrun(trans->impl, dev);
1064:/home/dino/paparazzi/var/include/messages.h **** }
1065:/home/dino/paparazzi/var/include/messages.h **** 
1066:/home/dino/paparazzi/var/include/messages.h **** #define DOWNLINK_SEND_MPPT(_trans, _dev, nb_values, values) pprz_msg_send_MPPT(&((_trans).trans_tx)
1067:/home/dino/paparazzi/var/include/messages.h **** static inline void pprz_msg_send_MPPT(struct transport_tx *trans, struct link_device *dev, uint8_t 
1068:/home/dino/paparazzi/var/include/messages.h **** 	if (trans->check_available_space(trans->impl, dev, trans->size_of(trans->impl, 0+1+nb_values*2 +2 
1069:/home/dino/paparazzi/var/include/messages.h **** 	  trans->count_bytes(trans->impl, dev, trans->size_of(trans->impl, 0+1+nb_values*2 +2 /* msg heade
1070:/home/dino/paparazzi/var/include/messages.h **** 	  trans->start_message(trans->impl, dev, 0+1+nb_values*2 +2 /* msg header overhead */);
1071:/home/dino/paparazzi/var/include/messages.h **** 	  trans->put_bytes(trans->impl, dev, DL_TYPE_UINT8, DL_FORMAT_SCALAR, 1, &ac_id);
1072:/home/dino/paparazzi/var/include/messages.h **** 	  trans->put_named_byte(trans->impl, dev, DL_TYPE_UINT8, DL_FORMAT_SCALAR, DL_MPPT, "MPPT");
1073:/home/dino/paparazzi/var/include/messages.h **** 	  trans->put_bytes(trans->impl, dev, DL_TYPE_ARRAY_LENGTH, DL_FORMAT_SCALAR, 1, (void *) &nb_value
1074:/home/dino/paparazzi/var/include/messages.h **** 	  trans->put_bytes(trans->impl, dev, DL_TYPE_INT16, DL_FORMAT_ARRAY, 2 * nb_values, (void *) _valu
1075:/home/dino/paparazzi/var/include/messages.h **** 	  trans->end_message(trans->impl, dev);
1076:/home/dino/paparazzi/var/include/messages.h **** 	} else
1077:/home/dino/paparazzi/var/include/messages.h **** 	  trans->overrun(trans->impl, dev);
1078:/home/dino/paparazzi/var/include/messages.h **** }
1079:/home/dino/paparazzi/var/include/messages.h **** 
1080:/home/dino/paparazzi/var/include/messages.h **** #define DOWNLINK_SEND_DEBUG_IR_I2C(_trans, _dev, ir1, ir2, top) pprz_msg_send_DEBUG_IR_I2C(&((_tran
1081:/home/dino/paparazzi/var/include/messages.h **** static inline void pprz_msg_send_DEBUG_IR_I2C(struct transport_tx *trans, struct link_device *dev, 
1082:/home/dino/paparazzi/var/include/messages.h **** 	if (trans->check_available_space(trans->impl, dev, trans->size_of(trans->impl, 0+2+2+2 +2 /* msg h
1083:/home/dino/paparazzi/var/include/messages.h **** 	  trans->count_bytes(trans->impl, dev, trans->size_of(trans->impl, 0+2+2+2 +2 /* msg header overhe
1084:/home/dino/paparazzi/var/include/messages.h **** 	  trans->start_message(trans->impl, dev, 0+2+2+2 +2 /* msg header overhead */);
1085:/home/dino/paparazzi/var/include/messages.h **** 	  trans->put_bytes(trans->impl, dev, DL_TYPE_UINT8, DL_FORMAT_SCALAR, 1, &ac_id);
1086:/home/dino/paparazzi/var/include/messages.h **** 	  trans->put_named_byte(trans->impl, dev, DL_TYPE_UINT8, DL_FORMAT_SCALAR, DL_DEBUG_IR_I2C, "DEBUG
1087:/home/dino/paparazzi/var/include/messages.h **** 	  trans->put_bytes(trans->impl, dev, DL_TYPE_INT16, DL_FORMAT_SCALAR, 2, (void *) _ir1);
1088:/home/dino/paparazzi/var/include/messages.h **** 	  trans->put_bytes(trans->impl, dev, DL_TYPE_INT16, DL_FORMAT_SCALAR, 2, (void *) _ir2);
1089:/home/dino/paparazzi/var/include/messages.h **** 	  trans->put_bytes(trans->impl, dev, DL_TYPE_INT16, DL_FORMAT_SCALAR, 2, (void *) _top);
1090:/home/dino/paparazzi/var/include/messages.h **** 	  trans->end_message(trans->impl, dev);
1091:/home/dino/paparazzi/var/include/messages.h **** 	} else
1092:/home/dino/paparazzi/var/include/messages.h **** 	  trans->overrun(trans->impl, dev);
1093:/home/dino/paparazzi/var/include/messages.h **** }
1094:/home/dino/paparazzi/var/include/messages.h **** 
1095:/home/dino/paparazzi/var/include/messages.h **** #define DOWNLINK_SEND_AIRSPEED(_trans, _dev, airspeed, airspeed_sp, airspeed_cnt, groundspeed_sp) p
1096:/home/dino/paparazzi/var/include/messages.h **** static inline void pprz_msg_send_AIRSPEED(struct transport_tx *trans, struct link_device *dev, uint
1097:/home/dino/paparazzi/var/include/messages.h **** 	if (trans->check_available_space(trans->impl, dev, trans->size_of(trans->impl, 0+4+4+4+4 +2 /* msg
1098:/home/dino/paparazzi/var/include/messages.h **** 	  trans->count_bytes(trans->impl, dev, trans->size_of(trans->impl, 0+4+4+4+4 +2 /* msg header over
1099:/home/dino/paparazzi/var/include/messages.h **** 	  trans->start_message(trans->impl, dev, 0+4+4+4+4 +2 /* msg header overhead */);
1100:/home/dino/paparazzi/var/include/messages.h **** 	  trans->put_bytes(trans->impl, dev, DL_TYPE_UINT8, DL_FORMAT_SCALAR, 1, &ac_id);
1101:/home/dino/paparazzi/var/include/messages.h **** 	  trans->put_named_byte(trans->impl, dev, DL_TYPE_UINT8, DL_FORMAT_SCALAR, DL_AIRSPEED, "AIRSPEED"
1102:/home/dino/paparazzi/var/include/messages.h **** 	  trans->put_bytes(trans->impl, dev, DL_TYPE_FLOAT, DL_FORMAT_SCALAR, 4, (void *) _airspeed);
1103:/home/dino/paparazzi/var/include/messages.h **** 	  trans->put_bytes(trans->impl, dev, DL_TYPE_FLOAT, DL_FORMAT_SCALAR, 4, (void *) _airspeed_sp);
1104:/home/dino/paparazzi/var/include/messages.h **** 	  trans->put_bytes(trans->impl, dev, DL_TYPE_FLOAT, DL_FORMAT_SCALAR, 4, (void *) _airspeed_cnt);
1105:/home/dino/paparazzi/var/include/messages.h **** 	  trans->put_bytes(trans->impl, dev, DL_TYPE_FLOAT, DL_FORMAT_SCALAR, 4, (void *) _groundspeed_sp)
1106:/home/dino/paparazzi/var/include/messages.h **** 	  trans->end_message(trans->impl, dev);
1107:/home/dino/paparazzi/var/include/messages.h **** 	} else
1108:/home/dino/paparazzi/var/include/messages.h **** 	  trans->overrun(trans->impl, dev);
1109:/home/dino/paparazzi/var/include/messages.h **** }
1110:/home/dino/paparazzi/var/include/messages.h **** 
1111:/home/dino/paparazzi/var/include/messages.h **** #define DOWNLINK_SEND_XSENS(_trans, _dev, counter, p, q, r, phi, theta, psi, ax, ay, az, vx, vy, vz
1112:/home/dino/paparazzi/var/include/messages.h **** static inline void pprz_msg_send_XSENS(struct transport_tx *trans, struct link_device *dev, uint8_t
1113:/home/dino/paparazzi/var/include/messages.h **** 	if (trans->check_available_space(trans->impl, dev, trans->size_of(trans->impl, 0+2+4+4+4+4+4+4+4+4
1114:/home/dino/paparazzi/var/include/messages.h **** 	  trans->count_bytes(trans->impl, dev, trans->size_of(trans->impl, 0+2+4+4+4+4+4+4+4+4+4+4+4+4+4+4
1115:/home/dino/paparazzi/var/include/messages.h **** 	  trans->start_message(trans->impl, dev, 0+2+4+4+4+4+4+4+4+4+4+4+4+4+4+4+4+1+1+1+1+4+2+1+1 +2 /* m
1116:/home/dino/paparazzi/var/include/messages.h **** 	  trans->put_bytes(trans->impl, dev, DL_TYPE_UINT8, DL_FORMAT_SCALAR, 1, &ac_id);
1117:/home/dino/paparazzi/var/include/messages.h **** 	  trans->put_named_byte(trans->impl, dev, DL_TYPE_UINT8, DL_FORMAT_SCALAR, DL_XSENS, "XSENS");
1118:/home/dino/paparazzi/var/include/messages.h **** 	  trans->put_bytes(trans->impl, dev, DL_TYPE_INT16, DL_FORMAT_SCALAR, 2, (void *) _counter);
1119:/home/dino/paparazzi/var/include/messages.h **** 	  trans->put_bytes(trans->impl, dev, DL_TYPE_FLOAT, DL_FORMAT_SCALAR, 4, (void *) _p);
1120:/home/dino/paparazzi/var/include/messages.h **** 	  trans->put_bytes(trans->impl, dev, DL_TYPE_FLOAT, DL_FORMAT_SCALAR, 4, (void *) _q);
1121:/home/dino/paparazzi/var/include/messages.h **** 	  trans->put_bytes(trans->impl, dev, DL_TYPE_FLOAT, DL_FORMAT_SCALAR, 4, (void *) _r);
1122:/home/dino/paparazzi/var/include/messages.h **** 	  trans->put_bytes(trans->impl, dev, DL_TYPE_FLOAT, DL_FORMAT_SCALAR, 4, (void *) _phi);
1123:/home/dino/paparazzi/var/include/messages.h **** 	  trans->put_bytes(trans->impl, dev, DL_TYPE_FLOAT, DL_FORMAT_SCALAR, 4, (void *) _theta);
1124:/home/dino/paparazzi/var/include/messages.h **** 	  trans->put_bytes(trans->impl, dev, DL_TYPE_FLOAT, DL_FORMAT_SCALAR, 4, (void *) _psi);
1125:/home/dino/paparazzi/var/include/messages.h **** 	  trans->put_bytes(trans->impl, dev, DL_TYPE_FLOAT, DL_FORMAT_SCALAR, 4, (void *) _ax);
1126:/home/dino/paparazzi/var/include/messages.h **** 	  trans->put_bytes(trans->impl, dev, DL_TYPE_FLOAT, DL_FORMAT_SCALAR, 4, (void *) _ay);
1127:/home/dino/paparazzi/var/include/messages.h **** 	  trans->put_bytes(trans->impl, dev, DL_TYPE_FLOAT, DL_FORMAT_SCALAR, 4, (void *) _az);
1128:/home/dino/paparazzi/var/include/messages.h **** 	  trans->put_bytes(trans->impl, dev, DL_TYPE_FLOAT, DL_FORMAT_SCALAR, 4, (void *) _vx);
1129:/home/dino/paparazzi/var/include/messages.h **** 	  trans->put_bytes(trans->impl, dev, DL_TYPE_FLOAT, DL_FORMAT_SCALAR, 4, (void *) _vy);
1130:/home/dino/paparazzi/var/include/messages.h **** 	  trans->put_bytes(trans->impl, dev, DL_TYPE_FLOAT, DL_FORMAT_SCALAR, 4, (void *) _vz);
1131:/home/dino/paparazzi/var/include/messages.h **** 	  trans->put_bytes(trans->impl, dev, DL_TYPE_FLOAT, DL_FORMAT_SCALAR, 4, (void *) _lat);
1132:/home/dino/paparazzi/var/include/messages.h **** 	  trans->put_bytes(trans->impl, dev, DL_TYPE_FLOAT, DL_FORMAT_SCALAR, 4, (void *) _lon);
1133:/home/dino/paparazzi/var/include/messages.h **** 	  trans->put_bytes(trans->impl, dev, DL_TYPE_FLOAT, DL_FORMAT_SCALAR, 4, (void *) _alt);
1134:/home/dino/paparazzi/var/include/messages.h **** 	  trans->put_bytes(trans->impl, dev, DL_TYPE_UINT8, DL_FORMAT_SCALAR, 1, (void *) _status);
1135:/home/dino/paparazzi/var/include/messages.h **** 	  trans->put_bytes(trans->impl, dev, DL_TYPE_UINT8, DL_FORMAT_SCALAR, 1, (void *) _hour);
1136:/home/dino/paparazzi/var/include/messages.h **** 	  trans->put_bytes(trans->impl, dev, DL_TYPE_UINT8, DL_FORMAT_SCALAR, 1, (void *) _min);
1137:/home/dino/paparazzi/var/include/messages.h **** 	  trans->put_bytes(trans->impl, dev, DL_TYPE_UINT8, DL_FORMAT_SCALAR, 1, (void *) _sec);
1138:/home/dino/paparazzi/var/include/messages.h **** 	  trans->put_bytes(trans->impl, dev, DL_TYPE_UINT32, DL_FORMAT_SCALAR, 4, (void *) _nanosec);
1139:/home/dino/paparazzi/var/include/messages.h **** 	  trans->put_bytes(trans->impl, dev, DL_TYPE_UINT16, DL_FORMAT_SCALAR, 2, (void *) _year);
1140:/home/dino/paparazzi/var/include/messages.h **** 	  trans->put_bytes(trans->impl, dev, DL_TYPE_UINT8, DL_FORMAT_SCALAR, 1, (void *) _month);
1141:/home/dino/paparazzi/var/include/messages.h **** 	  trans->put_bytes(trans->impl, dev, DL_TYPE_UINT8, DL_FORMAT_SCALAR, 1, (void *) _day);
1142:/home/dino/paparazzi/var/include/messages.h **** 	  trans->end_message(trans->impl, dev);
1143:/home/dino/paparazzi/var/include/messages.h **** 	} else
1144:/home/dino/paparazzi/var/include/messages.h **** 	  trans->overrun(trans->impl, dev);
1145:/home/dino/paparazzi/var/include/messages.h **** }
1146:/home/dino/paparazzi/var/include/messages.h **** 
1147:/home/dino/paparazzi/var/include/messages.h **** #define DOWNLINK_SEND_BARO_ETS(_trans, _dev, adc, offset, scaled) pprz_msg_send_BARO_ETS(&((_trans)
1148:/home/dino/paparazzi/var/include/messages.h **** static inline void pprz_msg_send_BARO_ETS(struct transport_tx *trans, struct link_device *dev, uint
1149:/home/dino/paparazzi/var/include/messages.h **** 	if (trans->check_available_space(trans->impl, dev, trans->size_of(trans->impl, 0+2+2+4 +2 /* msg h
1150:/home/dino/paparazzi/var/include/messages.h **** 	  trans->count_bytes(trans->impl, dev, trans->size_of(trans->impl, 0+2+2+4 +2 /* msg header overhe
1151:/home/dino/paparazzi/var/include/messages.h **** 	  trans->start_message(trans->impl, dev, 0+2+2+4 +2 /* msg header overhead */);
1152:/home/dino/paparazzi/var/include/messages.h **** 	  trans->put_bytes(trans->impl, dev, DL_TYPE_UINT8, DL_FORMAT_SCALAR, 1, &ac_id);
1153:/home/dino/paparazzi/var/include/messages.h **** 	  trans->put_named_byte(trans->impl, dev, DL_TYPE_UINT8, DL_FORMAT_SCALAR, DL_BARO_ETS, "BARO_ETS"
1154:/home/dino/paparazzi/var/include/messages.h **** 	  trans->put_bytes(trans->impl, dev, DL_TYPE_UINT16, DL_FORMAT_SCALAR, 2, (void *) _adc);
1155:/home/dino/paparazzi/var/include/messages.h **** 	  trans->put_bytes(trans->impl, dev, DL_TYPE_UINT16, DL_FORMAT_SCALAR, 2, (void *) _offset);
1156:/home/dino/paparazzi/var/include/messages.h **** 	  trans->put_bytes(trans->impl, dev, DL_TYPE_FLOAT, DL_FORMAT_SCALAR, 4, (void *) _scaled);
1157:/home/dino/paparazzi/var/include/messages.h **** 	  trans->end_message(trans->impl, dev);
1158:/home/dino/paparazzi/var/include/messages.h **** 	} else
1159:/home/dino/paparazzi/var/include/messages.h **** 	  trans->overrun(trans->impl, dev);
1160:/home/dino/paparazzi/var/include/messages.h **** }
1161:/home/dino/paparazzi/var/include/messages.h **** 
1162:/home/dino/paparazzi/var/include/messages.h **** #define DOWNLINK_SEND_AIRSPEED_ETS(_trans, _dev, adc, offset, scaled) pprz_msg_send_AIRSPEED_ETS(&(
1163:/home/dino/paparazzi/var/include/messages.h **** static inline void pprz_msg_send_AIRSPEED_ETS(struct transport_tx *trans, struct link_device *dev, 
1164:/home/dino/paparazzi/var/include/messages.h **** 	if (trans->check_available_space(trans->impl, dev, trans->size_of(trans->impl, 0+2+2+4 +2 /* msg h
1165:/home/dino/paparazzi/var/include/messages.h **** 	  trans->count_bytes(trans->impl, dev, trans->size_of(trans->impl, 0+2+2+4 +2 /* msg header overhe
1166:/home/dino/paparazzi/var/include/messages.h **** 	  trans->start_message(trans->impl, dev, 0+2+2+4 +2 /* msg header overhead */);
1167:/home/dino/paparazzi/var/include/messages.h **** 	  trans->put_bytes(trans->impl, dev, DL_TYPE_UINT8, DL_FORMAT_SCALAR, 1, &ac_id);
1168:/home/dino/paparazzi/var/include/messages.h **** 	  trans->put_named_byte(trans->impl, dev, DL_TYPE_UINT8, DL_FORMAT_SCALAR, DL_AIRSPEED_ETS, "AIRSP
1169:/home/dino/paparazzi/var/include/messages.h **** 	  trans->put_bytes(trans->impl, dev, DL_TYPE_UINT16, DL_FORMAT_SCALAR, 2, (void *) _adc);
1170:/home/dino/paparazzi/var/include/messages.h **** 	  trans->put_bytes(trans->impl, dev, DL_TYPE_UINT16, DL_FORMAT_SCALAR, 2, (void *) _offset);
1171:/home/dino/paparazzi/var/include/messages.h **** 	  trans->put_bytes(trans->impl, dev, DL_TYPE_FLOAT, DL_FORMAT_SCALAR, 4, (void *) _scaled);
1172:/home/dino/paparazzi/var/include/messages.h **** 	  trans->end_message(trans->impl, dev);
1173:/home/dino/paparazzi/var/include/messages.h **** 	} else
1174:/home/dino/paparazzi/var/include/messages.h **** 	  trans->overrun(trans->impl, dev);
1175:/home/dino/paparazzi/var/include/messages.h **** }
1176:/home/dino/paparazzi/var/include/messages.h **** 
1177:/home/dino/paparazzi/var/include/messages.h **** #define DOWNLINK_SEND_PBN(_trans, _dev, airspeed_adc, altitude_adc, airspeed, altitude, airspeed_of
1178:/home/dino/paparazzi/var/include/messages.h **** static inline void pprz_msg_send_PBN(struct transport_tx *trans, struct link_device *dev, uint8_t a
1179:/home/dino/paparazzi/var/include/messages.h **** 	if (trans->check_available_space(trans->impl, dev, trans->size_of(trans->impl, 0+2+2+4+4+2+2 +2 /*
1180:/home/dino/paparazzi/var/include/messages.h **** 	  trans->count_bytes(trans->impl, dev, trans->size_of(trans->impl, 0+2+2+4+4+2+2 +2 /* msg header 
1181:/home/dino/paparazzi/var/include/messages.h **** 	  trans->start_message(trans->impl, dev, 0+2+2+4+4+2+2 +2 /* msg header overhead */);
1182:/home/dino/paparazzi/var/include/messages.h **** 	  trans->put_bytes(trans->impl, dev, DL_TYPE_UINT8, DL_FORMAT_SCALAR, 1, &ac_id);
1183:/home/dino/paparazzi/var/include/messages.h **** 	  trans->put_named_byte(trans->impl, dev, DL_TYPE_UINT8, DL_FORMAT_SCALAR, DL_PBN, "PBN");
1184:/home/dino/paparazzi/var/include/messages.h **** 	  trans->put_bytes(trans->impl, dev, DL_TYPE_UINT16, DL_FORMAT_SCALAR, 2, (void *) _airspeed_adc);
1185:/home/dino/paparazzi/var/include/messages.h **** 	  trans->put_bytes(trans->impl, dev, DL_TYPE_UINT16, DL_FORMAT_SCALAR, 2, (void *) _altitude_adc);
1186:/home/dino/paparazzi/var/include/messages.h **** 	  trans->put_bytes(trans->impl, dev, DL_TYPE_FLOAT, DL_FORMAT_SCALAR, 4, (void *) _airspeed);
1187:/home/dino/paparazzi/var/include/messages.h **** 	  trans->put_bytes(trans->impl, dev, DL_TYPE_FLOAT, DL_FORMAT_SCALAR, 4, (void *) _altitude);
1188:/home/dino/paparazzi/var/include/messages.h **** 	  trans->put_bytes(trans->impl, dev, DL_TYPE_UINT16, DL_FORMAT_SCALAR, 2, (void *) _airspeed_offse
1189:/home/dino/paparazzi/var/include/messages.h **** 	  trans->put_bytes(trans->impl, dev, DL_TYPE_UINT16, DL_FORMAT_SCALAR, 2, (void *) _altitude_offse
1190:/home/dino/paparazzi/var/include/messages.h **** 	  trans->end_message(trans->impl, dev);
1191:/home/dino/paparazzi/var/include/messages.h **** 	} else
1192:/home/dino/paparazzi/var/include/messages.h **** 	  trans->overrun(trans->impl, dev);
1193:/home/dino/paparazzi/var/include/messages.h **** }
1194:/home/dino/paparazzi/var/include/messages.h **** 
1195:/home/dino/paparazzi/var/include/messages.h **** #define DOWNLINK_SEND_GPS_LLA(_trans, _dev, lat, lon, alt, course, speed, climb, week, itow, mode, 
1196:/home/dino/paparazzi/var/include/messages.h **** static inline void pprz_msg_send_GPS_LLA(struct transport_tx *trans, struct link_device *dev, uint8
1197:/home/dino/paparazzi/var/include/messages.h **** 	if (trans->check_available_space(trans->impl, dev, trans->size_of(trans->impl, 0+4+4+4+2+2+2+2+4+1
1198:/home/dino/paparazzi/var/include/messages.h **** 	  trans->count_bytes(trans->impl, dev, trans->size_of(trans->impl, 0+4+4+4+2+2+2+2+4+1+1 +2 /* msg
1199:/home/dino/paparazzi/var/include/messages.h **** 	  trans->start_message(trans->impl, dev, 0+4+4+4+2+2+2+2+4+1+1 +2 /* msg header overhead */);
1200:/home/dino/paparazzi/var/include/messages.h **** 	  trans->put_bytes(trans->impl, dev, DL_TYPE_UINT8, DL_FORMAT_SCALAR, 1, &ac_id);
1201:/home/dino/paparazzi/var/include/messages.h **** 	  trans->put_named_byte(trans->impl, dev, DL_TYPE_UINT8, DL_FORMAT_SCALAR, DL_GPS_LLA, "GPS_LLA");
1202:/home/dino/paparazzi/var/include/messages.h **** 	  trans->put_bytes(trans->impl, dev, DL_TYPE_INT32, DL_FORMAT_SCALAR, 4, (void *) _lat);
1203:/home/dino/paparazzi/var/include/messages.h **** 	  trans->put_bytes(trans->impl, dev, DL_TYPE_INT32, DL_FORMAT_SCALAR, 4, (void *) _lon);
1204:/home/dino/paparazzi/var/include/messages.h **** 	  trans->put_bytes(trans->impl, dev, DL_TYPE_INT32, DL_FORMAT_SCALAR, 4, (void *) _alt);
1205:/home/dino/paparazzi/var/include/messages.h **** 	  trans->put_bytes(trans->impl, dev, DL_TYPE_INT16, DL_FORMAT_SCALAR, 2, (void *) _course);
1206:/home/dino/paparazzi/var/include/messages.h **** 	  trans->put_bytes(trans->impl, dev, DL_TYPE_UINT16, DL_FORMAT_SCALAR, 2, (void *) _speed);
1207:/home/dino/paparazzi/var/include/messages.h **** 	  trans->put_bytes(trans->impl, dev, DL_TYPE_INT16, DL_FORMAT_SCALAR, 2, (void *) _climb);
1208:/home/dino/paparazzi/var/include/messages.h **** 	  trans->put_bytes(trans->impl, dev, DL_TYPE_UINT16, DL_FORMAT_SCALAR, 2, (void *) _week);
1209:/home/dino/paparazzi/var/include/messages.h **** 	  trans->put_bytes(trans->impl, dev, DL_TYPE_UINT32, DL_FORMAT_SCALAR, 4, (void *) _itow);
1210:/home/dino/paparazzi/var/include/messages.h **** 	  trans->put_bytes(trans->impl, dev, DL_TYPE_UINT8, DL_FORMAT_SCALAR, 1, (void *) _mode);
1211:/home/dino/paparazzi/var/include/messages.h **** 	  trans->put_bytes(trans->impl, dev, DL_TYPE_UINT8, DL_FORMAT_SCALAR, 1, (void *) _gps_nb_err);
1212:/home/dino/paparazzi/var/include/messages.h **** 	  trans->end_message(trans->impl, dev);
1213:/home/dino/paparazzi/var/include/messages.h **** 	} else
1214:/home/dino/paparazzi/var/include/messages.h **** 	  trans->overrun(trans->impl, dev);
1215:/home/dino/paparazzi/var/include/messages.h **** }
1216:/home/dino/paparazzi/var/include/messages.h **** 
1217:/home/dino/paparazzi/var/include/messages.h **** #define DOWNLINK_SEND_H_CTL_A(_trans, _dev, roll_sum_err, roll_sp, roll_ref, phi, aileron_sp, pitch
1218:/home/dino/paparazzi/var/include/messages.h **** static inline void pprz_msg_send_H_CTL_A(struct transport_tx *trans, struct link_device *dev, uint8
1219:/home/dino/paparazzi/var/include/messages.h **** 	if (trans->check_available_space(trans->impl, dev, trans->size_of(trans->impl, 0+4+4+4+4+2+4+4+4+4
1220:/home/dino/paparazzi/var/include/messages.h **** 	  trans->count_bytes(trans->impl, dev, trans->size_of(trans->impl, 0+4+4+4+4+2+4+4+4+4+2 +2 /* msg
1221:/home/dino/paparazzi/var/include/messages.h **** 	  trans->start_message(trans->impl, dev, 0+4+4+4+4+2+4+4+4+4+2 +2 /* msg header overhead */);
1222:/home/dino/paparazzi/var/include/messages.h **** 	  trans->put_bytes(trans->impl, dev, DL_TYPE_UINT8, DL_FORMAT_SCALAR, 1, &ac_id);
1223:/home/dino/paparazzi/var/include/messages.h **** 	  trans->put_named_byte(trans->impl, dev, DL_TYPE_UINT8, DL_FORMAT_SCALAR, DL_H_CTL_A, "H_CTL_A");
1224:/home/dino/paparazzi/var/include/messages.h **** 	  trans->put_bytes(trans->impl, dev, DL_TYPE_FLOAT, DL_FORMAT_SCALAR, 4, (void *) _roll_sum_err);
1225:/home/dino/paparazzi/var/include/messages.h **** 	  trans->put_bytes(trans->impl, dev, DL_TYPE_FLOAT, DL_FORMAT_SCALAR, 4, (void *) _roll_sp);
1226:/home/dino/paparazzi/var/include/messages.h **** 	  trans->put_bytes(trans->impl, dev, DL_TYPE_FLOAT, DL_FORMAT_SCALAR, 4, (void *) _roll_ref);
1227:/home/dino/paparazzi/var/include/messages.h **** 	  trans->put_bytes(trans->impl, dev, DL_TYPE_FLOAT, DL_FORMAT_SCALAR, 4, (void *) _phi);
1228:/home/dino/paparazzi/var/include/messages.h **** 	  trans->put_bytes(trans->impl, dev, DL_TYPE_INT16, DL_FORMAT_SCALAR, 2, (void *) _aileron_sp);
1229:/home/dino/paparazzi/var/include/messages.h **** 	  trans->put_bytes(trans->impl, dev, DL_TYPE_FLOAT, DL_FORMAT_SCALAR, 4, (void *) _pitch_sum_err);
1230:/home/dino/paparazzi/var/include/messages.h **** 	  trans->put_bytes(trans->impl, dev, DL_TYPE_FLOAT, DL_FORMAT_SCALAR, 4, (void *) _pitch_sp);
1231:/home/dino/paparazzi/var/include/messages.h **** 	  trans->put_bytes(trans->impl, dev, DL_TYPE_FLOAT, DL_FORMAT_SCALAR, 4, (void *) _pitch_ref);
1232:/home/dino/paparazzi/var/include/messages.h **** 	  trans->put_bytes(trans->impl, dev, DL_TYPE_FLOAT, DL_FORMAT_SCALAR, 4, (void *) _theta);
1233:/home/dino/paparazzi/var/include/messages.h **** 	  trans->put_bytes(trans->impl, dev, DL_TYPE_INT16, DL_FORMAT_SCALAR, 2, (void *) _elevator_sp);
1234:/home/dino/paparazzi/var/include/messages.h **** 	  trans->end_message(trans->impl, dev);
1235:/home/dino/paparazzi/var/include/messages.h **** 	} else
1236:/home/dino/paparazzi/var/include/messages.h **** 	  trans->overrun(trans->impl, dev);
1237:/home/dino/paparazzi/var/include/messages.h **** }
1238:/home/dino/paparazzi/var/include/messages.h **** 
1239:/home/dino/paparazzi/var/include/messages.h **** #define DOWNLINK_SEND_TURB_PRESSURE_RAW(_trans, _dev, ch_0, ch_1, ch_2, ch_3, ch_4, ch_5, ch_6, ch_
1240:/home/dino/paparazzi/var/include/messages.h **** static inline void pprz_msg_send_TURB_PRESSURE_RAW(struct transport_tx *trans, struct link_device *
1241:/home/dino/paparazzi/var/include/messages.h **** 	if (trans->check_available_space(trans->impl, dev, trans->size_of(trans->impl, 0+4+4+4+4+4+4+4+4+4
1242:/home/dino/paparazzi/var/include/messages.h **** 	  trans->count_bytes(trans->impl, dev, trans->size_of(trans->impl, 0+4+4+4+4+4+4+4+4+4+4+4+4+4+4+4
1243:/home/dino/paparazzi/var/include/messages.h **** 	  trans->start_message(trans->impl, dev, 0+4+4+4+4+4+4+4+4+4+4+4+4+4+4+4+4 +2 /* msg header overhe
1244:/home/dino/paparazzi/var/include/messages.h **** 	  trans->put_bytes(trans->impl, dev, DL_TYPE_UINT8, DL_FORMAT_SCALAR, 1, &ac_id);
1245:/home/dino/paparazzi/var/include/messages.h **** 	  trans->put_named_byte(trans->impl, dev, DL_TYPE_UINT8, DL_FORMAT_SCALAR, DL_TURB_PRESSURE_RAW, "
1246:/home/dino/paparazzi/var/include/messages.h **** 	  trans->put_bytes(trans->impl, dev, DL_TYPE_INT32, DL_FORMAT_SCALAR, 4, (void *) _ch_0);
1247:/home/dino/paparazzi/var/include/messages.h **** 	  trans->put_bytes(trans->impl, dev, DL_TYPE_INT32, DL_FORMAT_SCALAR, 4, (void *) _ch_1);
1248:/home/dino/paparazzi/var/include/messages.h **** 	  trans->put_bytes(trans->impl, dev, DL_TYPE_INT32, DL_FORMAT_SCALAR, 4, (void *) _ch_2);
1249:/home/dino/paparazzi/var/include/messages.h **** 	  trans->put_bytes(trans->impl, dev, DL_TYPE_INT32, DL_FORMAT_SCALAR, 4, (void *) _ch_3);
1250:/home/dino/paparazzi/var/include/messages.h **** 	  trans->put_bytes(trans->impl, dev, DL_TYPE_INT32, DL_FORMAT_SCALAR, 4, (void *) _ch_4);
1251:/home/dino/paparazzi/var/include/messages.h **** 	  trans->put_bytes(trans->impl, dev, DL_TYPE_INT32, DL_FORMAT_SCALAR, 4, (void *) _ch_5);
1252:/home/dino/paparazzi/var/include/messages.h **** 	  trans->put_bytes(trans->impl, dev, DL_TYPE_INT32, DL_FORMAT_SCALAR, 4, (void *) _ch_6);
1253:/home/dino/paparazzi/var/include/messages.h **** 	  trans->put_bytes(trans->impl, dev, DL_TYPE_INT32, DL_FORMAT_SCALAR, 4, (void *) _ch_7);
1254:/home/dino/paparazzi/var/include/messages.h **** 	  trans->put_bytes(trans->impl, dev, DL_TYPE_INT32, DL_FORMAT_SCALAR, 4, (void *) _ch_8);
1255:/home/dino/paparazzi/var/include/messages.h **** 	  trans->put_bytes(trans->impl, dev, DL_TYPE_INT32, DL_FORMAT_SCALAR, 4, (void *) _ch_9);
1256:/home/dino/paparazzi/var/include/messages.h **** 	  trans->put_bytes(trans->impl, dev, DL_TYPE_INT32, DL_FORMAT_SCALAR, 4, (void *) _ch_10);
1257:/home/dino/paparazzi/var/include/messages.h **** 	  trans->put_bytes(trans->impl, dev, DL_TYPE_INT32, DL_FORMAT_SCALAR, 4, (void *) _ch_11);
1258:/home/dino/paparazzi/var/include/messages.h **** 	  trans->put_bytes(trans->impl, dev, DL_TYPE_INT32, DL_FORMAT_SCALAR, 4, (void *) _ch_12);
1259:/home/dino/paparazzi/var/include/messages.h **** 	  trans->put_bytes(trans->impl, dev, DL_TYPE_INT32, DL_FORMAT_SCALAR, 4, (void *) _ch_13);
1260:/home/dino/paparazzi/var/include/messages.h **** 	  trans->put_bytes(trans->impl, dev, DL_TYPE_INT32, DL_FORMAT_SCALAR, 4, (void *) _ch_14);
1261:/home/dino/paparazzi/var/include/messages.h **** 	  trans->put_bytes(trans->impl, dev, DL_TYPE_INT32, DL_FORMAT_SCALAR, 4, (void *) _ch_15);
1262:/home/dino/paparazzi/var/include/messages.h **** 	  trans->end_message(trans->impl, dev);
1263:/home/dino/paparazzi/var/include/messages.h **** 	} else
1264:/home/dino/paparazzi/var/include/messages.h **** 	  trans->overrun(trans->impl, dev);
1265:/home/dino/paparazzi/var/include/messages.h **** }
1266:/home/dino/paparazzi/var/include/messages.h **** 
1267:/home/dino/paparazzi/var/include/messages.h **** #define DOWNLINK_SEND_TURB_PRESSURE_VOLTAGE(_trans, _dev, ch_1_p, ch_1_t, ch_2_p, ch_2_t, ch_3_p, c
1268:/home/dino/paparazzi/var/include/messages.h **** static inline void pprz_msg_send_TURB_PRESSURE_VOLTAGE(struct transport_tx *trans, struct link_devi
1269:/home/dino/paparazzi/var/include/messages.h **** 	if (trans->check_available_space(trans->impl, dev, trans->size_of(trans->impl, 0+4+4+4+4+4+4+4+4+4
1270:/home/dino/paparazzi/var/include/messages.h **** 	  trans->count_bytes(trans->impl, dev, trans->size_of(trans->impl, 0+4+4+4+4+4+4+4+4+4+4+4+4+4+4+4
1271:/home/dino/paparazzi/var/include/messages.h **** 	  trans->start_message(trans->impl, dev, 0+4+4+4+4+4+4+4+4+4+4+4+4+4+4+4+4 +2 /* msg header overhe
1272:/home/dino/paparazzi/var/include/messages.h **** 	  trans->put_bytes(trans->impl, dev, DL_TYPE_UINT8, DL_FORMAT_SCALAR, 1, &ac_id);
1273:/home/dino/paparazzi/var/include/messages.h **** 	  trans->put_named_byte(trans->impl, dev, DL_TYPE_UINT8, DL_FORMAT_SCALAR, DL_TURB_PRESSURE_VOLTAG
1274:/home/dino/paparazzi/var/include/messages.h **** 	  trans->put_bytes(trans->impl, dev, DL_TYPE_FLOAT, DL_FORMAT_SCALAR, 4, (void *) _ch_1_p);
1275:/home/dino/paparazzi/var/include/messages.h **** 	  trans->put_bytes(trans->impl, dev, DL_TYPE_FLOAT, DL_FORMAT_SCALAR, 4, (void *) _ch_1_t);
1276:/home/dino/paparazzi/var/include/messages.h **** 	  trans->put_bytes(trans->impl, dev, DL_TYPE_FLOAT, DL_FORMAT_SCALAR, 4, (void *) _ch_2_p);
1277:/home/dino/paparazzi/var/include/messages.h **** 	  trans->put_bytes(trans->impl, dev, DL_TYPE_FLOAT, DL_FORMAT_SCALAR, 4, (void *) _ch_2_t);
1278:/home/dino/paparazzi/var/include/messages.h **** 	  trans->put_bytes(trans->impl, dev, DL_TYPE_FLOAT, DL_FORMAT_SCALAR, 4, (void *) _ch_3_p);
1279:/home/dino/paparazzi/var/include/messages.h **** 	  trans->put_bytes(trans->impl, dev, DL_TYPE_FLOAT, DL_FORMAT_SCALAR, 4, (void *) _ch_3_t);
1280:/home/dino/paparazzi/var/include/messages.h **** 	  trans->put_bytes(trans->impl, dev, DL_TYPE_FLOAT, DL_FORMAT_SCALAR, 4, (void *) _ch_4_p);
1281:/home/dino/paparazzi/var/include/messages.h **** 	  trans->put_bytes(trans->impl, dev, DL_TYPE_FLOAT, DL_FORMAT_SCALAR, 4, (void *) _ch_4_t);
1282:/home/dino/paparazzi/var/include/messages.h **** 	  trans->put_bytes(trans->impl, dev, DL_TYPE_FLOAT, DL_FORMAT_SCALAR, 4, (void *) _ch_5_p);
1283:/home/dino/paparazzi/var/include/messages.h **** 	  trans->put_bytes(trans->impl, dev, DL_TYPE_FLOAT, DL_FORMAT_SCALAR, 4, (void *) _ch_5_t);
1284:/home/dino/paparazzi/var/include/messages.h **** 	  trans->put_bytes(trans->impl, dev, DL_TYPE_FLOAT, DL_FORMAT_SCALAR, 4, (void *) _ch_6_p);
1285:/home/dino/paparazzi/var/include/messages.h **** 	  trans->put_bytes(trans->impl, dev, DL_TYPE_FLOAT, DL_FORMAT_SCALAR, 4, (void *) _ch_6_t);
1286:/home/dino/paparazzi/var/include/messages.h **** 	  trans->put_bytes(trans->impl, dev, DL_TYPE_FLOAT, DL_FORMAT_SCALAR, 4, (void *) _ch_7_p);
1287:/home/dino/paparazzi/var/include/messages.h **** 	  trans->put_bytes(trans->impl, dev, DL_TYPE_FLOAT, DL_FORMAT_SCALAR, 4, (void *) _ch_7_t);
1288:/home/dino/paparazzi/var/include/messages.h **** 	  trans->put_bytes(trans->impl, dev, DL_TYPE_FLOAT, DL_FORMAT_SCALAR, 4, (void *) _gnd1);
1289:/home/dino/paparazzi/var/include/messages.h **** 	  trans->put_bytes(trans->impl, dev, DL_TYPE_FLOAT, DL_FORMAT_SCALAR, 4, (void *) _gnd2);
1290:/home/dino/paparazzi/var/include/messages.h **** 	  trans->end_message(trans->impl, dev);
1291:/home/dino/paparazzi/var/include/messages.h **** 	} else
1292:/home/dino/paparazzi/var/include/messages.h **** 	  trans->overrun(trans->impl, dev);
1293:/home/dino/paparazzi/var/include/messages.h **** }
1294:/home/dino/paparazzi/var/include/messages.h **** 
1295:/home/dino/paparazzi/var/include/messages.h **** #define DOWNLINK_SEND_CAM_POINT(_trans, _dev, cam_point_distance_from_home, cam_point_lat, cam_poin
1296:/home/dino/paparazzi/var/include/messages.h **** static inline void pprz_msg_send_CAM_POINT(struct transport_tx *trans, struct link_device *dev, uin
1297:/home/dino/paparazzi/var/include/messages.h **** 	if (trans->check_available_space(trans->impl, dev, trans->size_of(trans->impl, 0+2+4+4 +2 /* msg h
1298:/home/dino/paparazzi/var/include/messages.h **** 	  trans->count_bytes(trans->impl, dev, trans->size_of(trans->impl, 0+2+4+4 +2 /* msg header overhe
1299:/home/dino/paparazzi/var/include/messages.h **** 	  trans->start_message(trans->impl, dev, 0+2+4+4 +2 /* msg header overhead */);
1300:/home/dino/paparazzi/var/include/messages.h **** 	  trans->put_bytes(trans->impl, dev, DL_TYPE_UINT8, DL_FORMAT_SCALAR, 1, &ac_id);
1301:/home/dino/paparazzi/var/include/messages.h **** 	  trans->put_named_byte(trans->impl, dev, DL_TYPE_UINT8, DL_FORMAT_SCALAR, DL_CAM_POINT, "CAM_POIN
1302:/home/dino/paparazzi/var/include/messages.h **** 	  trans->put_bytes(trans->impl, dev, DL_TYPE_UINT16, DL_FORMAT_SCALAR, 2, (void *) _cam_point_dist
1303:/home/dino/paparazzi/var/include/messages.h **** 	  trans->put_bytes(trans->impl, dev, DL_TYPE_FLOAT, DL_FORMAT_SCALAR, 4, (void *) _cam_point_lat);
1304:/home/dino/paparazzi/var/include/messages.h **** 	  trans->put_bytes(trans->impl, dev, DL_TYPE_FLOAT, DL_FORMAT_SCALAR, 4, (void *) _cam_point_lon);
1305:/home/dino/paparazzi/var/include/messages.h **** 	  trans->end_message(trans->impl, dev);
1306:/home/dino/paparazzi/var/include/messages.h **** 	} else
1307:/home/dino/paparazzi/var/include/messages.h **** 	  trans->overrun(trans->impl, dev);
1308:/home/dino/paparazzi/var/include/messages.h **** }
1309:/home/dino/paparazzi/var/include/messages.h **** 
1310:/home/dino/paparazzi/var/include/messages.h **** #define DOWNLINK_SEND_DC_INFO(_trans, _dev, mode, lat, lon, alt, course, photo_nr, dist, next_dist,
1311:/home/dino/paparazzi/var/include/messages.h **** static inline void pprz_msg_send_DC_INFO(struct transport_tx *trans, struct link_device *dev, uint8
1312:/home/dino/paparazzi/var/include/messages.h **** 	if (trans->check_available_space(trans->impl, dev, trans->size_of(trans->impl, 0+2+4+4+4+4+2+4+4+4
1313:/home/dino/paparazzi/var/include/messages.h **** 	  trans->count_bytes(trans->impl, dev, trans->size_of(trans->impl, 0+2+4+4+4+4+2+4+4+4+4+4+4+4+2+1
1314:/home/dino/paparazzi/var/include/messages.h **** 	  trans->start_message(trans->impl, dev, 0+2+4+4+4+4+2+4+4+4+4+4+4+4+2+1 +2 /* msg header overhead
1315:/home/dino/paparazzi/var/include/messages.h **** 	  trans->put_bytes(trans->impl, dev, DL_TYPE_UINT8, DL_FORMAT_SCALAR, 1, &ac_id);
1316:/home/dino/paparazzi/var/include/messages.h **** 	  trans->put_named_byte(trans->impl, dev, DL_TYPE_UINT8, DL_FORMAT_SCALAR, DL_DC_INFO, "DC_INFO");
1317:/home/dino/paparazzi/var/include/messages.h **** 	  trans->put_bytes(trans->impl, dev, DL_TYPE_INT16, DL_FORMAT_SCALAR, 2, (void *) _mode);
1318:/home/dino/paparazzi/var/include/messages.h **** 	  trans->put_bytes(trans->impl, dev, DL_TYPE_INT32, DL_FORMAT_SCALAR, 4, (void *) _lat);
1319:/home/dino/paparazzi/var/include/messages.h **** 	  trans->put_bytes(trans->impl, dev, DL_TYPE_INT32, DL_FORMAT_SCALAR, 4, (void *) _lon);
1320:/home/dino/paparazzi/var/include/messages.h **** 	  trans->put_bytes(trans->impl, dev, DL_TYPE_INT32, DL_FORMAT_SCALAR, 4, (void *) _alt);
1321:/home/dino/paparazzi/var/include/messages.h **** 	  trans->put_bytes(trans->impl, dev, DL_TYPE_FLOAT, DL_FORMAT_SCALAR, 4, (void *) _course);
1322:/home/dino/paparazzi/var/include/messages.h **** 	  trans->put_bytes(trans->impl, dev, DL_TYPE_UINT16, DL_FORMAT_SCALAR, 2, (void *) _photo_nr);
1323:/home/dino/paparazzi/var/include/messages.h **** 	  trans->put_bytes(trans->impl, dev, DL_TYPE_FLOAT, DL_FORMAT_SCALAR, 4, (void *) _dist);
1324:/home/dino/paparazzi/var/include/messages.h **** 	  trans->put_bytes(trans->impl, dev, DL_TYPE_FLOAT, DL_FORMAT_SCALAR, 4, (void *) _next_dist);
1325:/home/dino/paparazzi/var/include/messages.h **** 	  trans->put_bytes(trans->impl, dev, DL_TYPE_FLOAT, DL_FORMAT_SCALAR, 4, (void *) _start_x);
1326:/home/dino/paparazzi/var/include/messages.h **** 	  trans->put_bytes(trans->impl, dev, DL_TYPE_FLOAT, DL_FORMAT_SCALAR, 4, (void *) _start_y);
1327:/home/dino/paparazzi/var/include/messages.h **** 	  trans->put_bytes(trans->impl, dev, DL_TYPE_FLOAT, DL_FORMAT_SCALAR, 4, (void *) _start_angle);
1328:/home/dino/paparazzi/var/include/messages.h **** 	  trans->put_bytes(trans->impl, dev, DL_TYPE_FLOAT, DL_FORMAT_SCALAR, 4, (void *) _angle);
1329:/home/dino/paparazzi/var/include/messages.h **** 	  trans->put_bytes(trans->impl, dev, DL_TYPE_FLOAT, DL_FORMAT_SCALAR, 4, (void *) _last_block);
1330:/home/dino/paparazzi/var/include/messages.h **** 	  trans->put_bytes(trans->impl, dev, DL_TYPE_UINT16, DL_FORMAT_SCALAR, 2, (void *) _count);
1331:/home/dino/paparazzi/var/include/messages.h **** 	  trans->put_bytes(trans->impl, dev, DL_TYPE_UINT8, DL_FORMAT_SCALAR, 1, (void *) _shutter);
1332:/home/dino/paparazzi/var/include/messages.h **** 	  trans->end_message(trans->impl, dev);
1333:/home/dino/paparazzi/var/include/messages.h **** 	} else
1334:/home/dino/paparazzi/var/include/messages.h **** 	  trans->overrun(trans->impl, dev);
1335:/home/dino/paparazzi/var/include/messages.h **** }
1336:/home/dino/paparazzi/var/include/messages.h **** 
1337:/home/dino/paparazzi/var/include/messages.h **** #define DOWNLINK_SEND_AMSYS_BARO(_trans, _dev, pBaroRaw, pBaro, pHomePressure, AltOffset, aktuell, 
1338:/home/dino/paparazzi/var/include/messages.h **** static inline void pprz_msg_send_AMSYS_BARO(struct transport_tx *trans, struct link_device *dev, ui
1339:/home/dino/paparazzi/var/include/messages.h **** 	if (trans->check_available_space(trans->impl, dev, trans->size_of(trans->impl, 0+2+4+4+4+4+4+4 +2 
1340:/home/dino/paparazzi/var/include/messages.h **** 	  trans->count_bytes(trans->impl, dev, trans->size_of(trans->impl, 0+2+4+4+4+4+4+4 +2 /* msg heade
1341:/home/dino/paparazzi/var/include/messages.h **** 	  trans->start_message(trans->impl, dev, 0+2+4+4+4+4+4+4 +2 /* msg header overhead */);
1342:/home/dino/paparazzi/var/include/messages.h **** 	  trans->put_bytes(trans->impl, dev, DL_TYPE_UINT8, DL_FORMAT_SCALAR, 1, &ac_id);
1343:/home/dino/paparazzi/var/include/messages.h **** 	  trans->put_named_byte(trans->impl, dev, DL_TYPE_UINT8, DL_FORMAT_SCALAR, DL_AMSYS_BARO, "AMSYS_B
1344:/home/dino/paparazzi/var/include/messages.h **** 	  trans->put_bytes(trans->impl, dev, DL_TYPE_UINT16, DL_FORMAT_SCALAR, 2, (void *) _pBaroRaw);
1345:/home/dino/paparazzi/var/include/messages.h **** 	  trans->put_bytes(trans->impl, dev, DL_TYPE_FLOAT, DL_FORMAT_SCALAR, 4, (void *) _pBaro);
1346:/home/dino/paparazzi/var/include/messages.h **** 	  trans->put_bytes(trans->impl, dev, DL_TYPE_FLOAT, DL_FORMAT_SCALAR, 4, (void *) _pHomePressure);
1347:/home/dino/paparazzi/var/include/messages.h **** 	  trans->put_bytes(trans->impl, dev, DL_TYPE_FLOAT, DL_FORMAT_SCALAR, 4, (void *) _AltOffset);
1348:/home/dino/paparazzi/var/include/messages.h **** 	  trans->put_bytes(trans->impl, dev, DL_TYPE_FLOAT, DL_FORMAT_SCALAR, 4, (void *) _aktuell);
1349:/home/dino/paparazzi/var/include/messages.h **** 	  trans->put_bytes(trans->impl, dev, DL_TYPE_FLOAT, DL_FORMAT_SCALAR, 4, (void *) _Over_Ground);
1350:/home/dino/paparazzi/var/include/messages.h **** 	  trans->put_bytes(trans->impl, dev, DL_TYPE_FLOAT, DL_FORMAT_SCALAR, 4, (void *) _tempBaro);
1351:/home/dino/paparazzi/var/include/messages.h **** 	  trans->end_message(trans->impl, dev);
1352:/home/dino/paparazzi/var/include/messages.h **** 	} else
1353:/home/dino/paparazzi/var/include/messages.h **** 	  trans->overrun(trans->impl, dev);
1354:/home/dino/paparazzi/var/include/messages.h **** }
1355:/home/dino/paparazzi/var/include/messages.h **** 
1356:/home/dino/paparazzi/var/include/messages.h **** #define DOWNLINK_SEND_AMSYS_AIRSPEED(_trans, _dev, asRaw, asPresure, asAirspeed, asAirsFilt, asTemp
1357:/home/dino/paparazzi/var/include/messages.h **** static inline void pprz_msg_send_AMSYS_AIRSPEED(struct transport_tx *trans, struct link_device *dev
1358:/home/dino/paparazzi/var/include/messages.h **** 	if (trans->check_available_space(trans->impl, dev, trans->size_of(trans->impl, 0+2+4+4+4+4 +2 /* m
1359:/home/dino/paparazzi/var/include/messages.h **** 	  trans->count_bytes(trans->impl, dev, trans->size_of(trans->impl, 0+2+4+4+4+4 +2 /* msg header ov
1360:/home/dino/paparazzi/var/include/messages.h **** 	  trans->start_message(trans->impl, dev, 0+2+4+4+4+4 +2 /* msg header overhead */);
1361:/home/dino/paparazzi/var/include/messages.h **** 	  trans->put_bytes(trans->impl, dev, DL_TYPE_UINT8, DL_FORMAT_SCALAR, 1, &ac_id);
1362:/home/dino/paparazzi/var/include/messages.h **** 	  trans->put_named_byte(trans->impl, dev, DL_TYPE_UINT8, DL_FORMAT_SCALAR, DL_AMSYS_AIRSPEED, "AMS
1363:/home/dino/paparazzi/var/include/messages.h **** 	  trans->put_bytes(trans->impl, dev, DL_TYPE_UINT16, DL_FORMAT_SCALAR, 2, (void *) _asRaw);
1364:/home/dino/paparazzi/var/include/messages.h **** 	  trans->put_bytes(trans->impl, dev, DL_TYPE_FLOAT, DL_FORMAT_SCALAR, 4, (void *) _asPresure);
1365:/home/dino/paparazzi/var/include/messages.h **** 	  trans->put_bytes(trans->impl, dev, DL_TYPE_FLOAT, DL_FORMAT_SCALAR, 4, (void *) _asAirspeed);
1366:/home/dino/paparazzi/var/include/messages.h **** 	  trans->put_bytes(trans->impl, dev, DL_TYPE_FLOAT, DL_FORMAT_SCALAR, 4, (void *) _asAirsFilt);
1367:/home/dino/paparazzi/var/include/messages.h **** 	  trans->put_bytes(trans->impl, dev, DL_TYPE_FLOAT, DL_FORMAT_SCALAR, 4, (void *) _asTemp);
1368:/home/dino/paparazzi/var/include/messages.h **** 	  trans->end_message(trans->impl, dev);
1369:/home/dino/paparazzi/var/include/messages.h **** 	} else
1370:/home/dino/paparazzi/var/include/messages.h **** 	  trans->overrun(trans->impl, dev);
1371:/home/dino/paparazzi/var/include/messages.h **** }
1372:/home/dino/paparazzi/var/include/messages.h **** 
1373:/home/dino/paparazzi/var/include/messages.h **** #define DOWNLINK_SEND_FLIGHT_BENCHMARK(_trans, _dev, SE_As, SE_Alt, SE_Pos, Err_As, Err_Alt, Err_Po
1374:/home/dino/paparazzi/var/include/messages.h **** static inline void pprz_msg_send_FLIGHT_BENCHMARK(struct transport_tx *trans, struct link_device *d
1375:/home/dino/paparazzi/var/include/messages.h **** 	if (trans->check_available_space(trans->impl, dev, trans->size_of(trans->impl, 0+4+4+4+4+4+4 +2 /*
1376:/home/dino/paparazzi/var/include/messages.h **** 	  trans->count_bytes(trans->impl, dev, trans->size_of(trans->impl, 0+4+4+4+4+4+4 +2 /* msg header 
1377:/home/dino/paparazzi/var/include/messages.h **** 	  trans->start_message(trans->impl, dev, 0+4+4+4+4+4+4 +2 /* msg header overhead */);
1378:/home/dino/paparazzi/var/include/messages.h **** 	  trans->put_bytes(trans->impl, dev, DL_TYPE_UINT8, DL_FORMAT_SCALAR, 1, &ac_id);
1379:/home/dino/paparazzi/var/include/messages.h **** 	  trans->put_named_byte(trans->impl, dev, DL_TYPE_UINT8, DL_FORMAT_SCALAR, DL_FLIGHT_BENCHMARK, "F
1380:/home/dino/paparazzi/var/include/messages.h **** 	  trans->put_bytes(trans->impl, dev, DL_TYPE_FLOAT, DL_FORMAT_SCALAR, 4, (void *) _SE_As);
1381:/home/dino/paparazzi/var/include/messages.h **** 	  trans->put_bytes(trans->impl, dev, DL_TYPE_FLOAT, DL_FORMAT_SCALAR, 4, (void *) _SE_Alt);
1382:/home/dino/paparazzi/var/include/messages.h **** 	  trans->put_bytes(trans->impl, dev, DL_TYPE_FLOAT, DL_FORMAT_SCALAR, 4, (void *) _SE_Pos);
1383:/home/dino/paparazzi/var/include/messages.h **** 	  trans->put_bytes(trans->impl, dev, DL_TYPE_FLOAT, DL_FORMAT_SCALAR, 4, (void *) _Err_As);
1384:/home/dino/paparazzi/var/include/messages.h **** 	  trans->put_bytes(trans->impl, dev, DL_TYPE_FLOAT, DL_FORMAT_SCALAR, 4, (void *) _Err_Alt);
1385:/home/dino/paparazzi/var/include/messages.h **** 	  trans->put_bytes(trans->impl, dev, DL_TYPE_FLOAT, DL_FORMAT_SCALAR, 4, (void *) _Err_Pos);
1386:/home/dino/paparazzi/var/include/messages.h **** 	  trans->end_message(trans->impl, dev);
1387:/home/dino/paparazzi/var/include/messages.h **** 	} else
1388:/home/dino/paparazzi/var/include/messages.h **** 	  trans->overrun(trans->impl, dev);
1389:/home/dino/paparazzi/var/include/messages.h **** }
1390:/home/dino/paparazzi/var/include/messages.h **** 
1391:/home/dino/paparazzi/var/include/messages.h **** #define DOWNLINK_SEND_MPL3115_BARO(_trans, _dev, pressure, temp, alt) pprz_msg_send_MPL3115_BARO(&(
1392:/home/dino/paparazzi/var/include/messages.h **** static inline void pprz_msg_send_MPL3115_BARO(struct transport_tx *trans, struct link_device *dev, 
1393:/home/dino/paparazzi/var/include/messages.h **** 	if (trans->check_available_space(trans->impl, dev, trans->size_of(trans->impl, 0+4+2+4 +2 /* msg h
1394:/home/dino/paparazzi/var/include/messages.h **** 	  trans->count_bytes(trans->impl, dev, trans->size_of(trans->impl, 0+4+2+4 +2 /* msg header overhe
1395:/home/dino/paparazzi/var/include/messages.h **** 	  trans->start_message(trans->impl, dev, 0+4+2+4 +2 /* msg header overhead */);
1396:/home/dino/paparazzi/var/include/messages.h **** 	  trans->put_bytes(trans->impl, dev, DL_TYPE_UINT8, DL_FORMAT_SCALAR, 1, &ac_id);
1397:/home/dino/paparazzi/var/include/messages.h **** 	  trans->put_named_byte(trans->impl, dev, DL_TYPE_UINT8, DL_FORMAT_SCALAR, DL_MPL3115_BARO, "MPL31
1398:/home/dino/paparazzi/var/include/messages.h **** 	  trans->put_bytes(trans->impl, dev, DL_TYPE_UINT32, DL_FORMAT_SCALAR, 4, (void *) _pressure);
1399:/home/dino/paparazzi/var/include/messages.h **** 	  trans->put_bytes(trans->impl, dev, DL_TYPE_INT16, DL_FORMAT_SCALAR, 2, (void *) _temp);
1400:/home/dino/paparazzi/var/include/messages.h **** 	  trans->put_bytes(trans->impl, dev, DL_TYPE_FLOAT, DL_FORMAT_SCALAR, 4, (void *) _alt);
1401:/home/dino/paparazzi/var/include/messages.h **** 	  trans->end_message(trans->impl, dev);
1402:/home/dino/paparazzi/var/include/messages.h **** 	} else
1403:/home/dino/paparazzi/var/include/messages.h **** 	  trans->overrun(trans->impl, dev);
1404:/home/dino/paparazzi/var/include/messages.h **** }
1405:/home/dino/paparazzi/var/include/messages.h **** 
1406:/home/dino/paparazzi/var/include/messages.h **** #define DOWNLINK_SEND_AOA_ADC(_trans, _dev, adcVal, AOA) pprz_msg_send_AOA_ADC(&((_trans).trans_tx)
1407:/home/dino/paparazzi/var/include/messages.h **** static inline void pprz_msg_send_AOA_ADC(struct transport_tx *trans, struct link_device *dev, uint8
1408:/home/dino/paparazzi/var/include/messages.h **** 	if (trans->check_available_space(trans->impl, dev, trans->size_of(trans->impl, 0+2+4 +2 /* msg hea
1409:/home/dino/paparazzi/var/include/messages.h **** 	  trans->count_bytes(trans->impl, dev, trans->size_of(trans->impl, 0+2+4 +2 /* msg header overhead
1410:/home/dino/paparazzi/var/include/messages.h **** 	  trans->start_message(trans->impl, dev, 0+2+4 +2 /* msg header overhead */);
1411:/home/dino/paparazzi/var/include/messages.h **** 	  trans->put_bytes(trans->impl, dev, DL_TYPE_UINT8, DL_FORMAT_SCALAR, 1, &ac_id);
1412:/home/dino/paparazzi/var/include/messages.h **** 	  trans->put_named_byte(trans->impl, dev, DL_TYPE_UINT8, DL_FORMAT_SCALAR, DL_AOA_ADC, "AOA_ADC");
1413:/home/dino/paparazzi/var/include/messages.h **** 	  trans->put_bytes(trans->impl, dev, DL_TYPE_UINT16, DL_FORMAT_SCALAR, 2, (void *) _adcVal);
1414:/home/dino/paparazzi/var/include/messages.h **** 	  trans->put_bytes(trans->impl, dev, DL_TYPE_FLOAT, DL_FORMAT_SCALAR, 4, (void *) _AOA);
1415:/home/dino/paparazzi/var/include/messages.h **** 	  trans->end_message(trans->impl, dev);
1416:/home/dino/paparazzi/var/include/messages.h **** 	} else
1417:/home/dino/paparazzi/var/include/messages.h **** 	  trans->overrun(trans->impl, dev);
1418:/home/dino/paparazzi/var/include/messages.h **** }
1419:/home/dino/paparazzi/var/include/messages.h **** 
1420:/home/dino/paparazzi/var/include/messages.h **** #define DOWNLINK_SEND_XTEND_RSSI(_trans, _dev, datalink_time, rssi_fade_margin, duty) pprz_msg_send
1421:/home/dino/paparazzi/var/include/messages.h **** static inline void pprz_msg_send_XTEND_RSSI(struct transport_tx *trans, struct link_device *dev, ui
1422:/home/dino/paparazzi/var/include/messages.h **** 	if (trans->check_available_space(trans->impl, dev, trans->size_of(trans->impl, 0+2+1+1 +2 /* msg h
1423:/home/dino/paparazzi/var/include/messages.h **** 	  trans->count_bytes(trans->impl, dev, trans->size_of(trans->impl, 0+2+1+1 +2 /* msg header overhe
1424:/home/dino/paparazzi/var/include/messages.h **** 	  trans->start_message(trans->impl, dev, 0+2+1+1 +2 /* msg header overhead */);
1425:/home/dino/paparazzi/var/include/messages.h **** 	  trans->put_bytes(trans->impl, dev, DL_TYPE_UINT8, DL_FORMAT_SCALAR, 1, &ac_id);
1426:/home/dino/paparazzi/var/include/messages.h **** 	  trans->put_named_byte(trans->impl, dev, DL_TYPE_UINT8, DL_FORMAT_SCALAR, DL_XTEND_RSSI, "XTEND_R
1427:/home/dino/paparazzi/var/include/messages.h **** 	  trans->put_bytes(trans->impl, dev, DL_TYPE_UINT16, DL_FORMAT_SCALAR, 2, (void *) _datalink_time)
1428:/home/dino/paparazzi/var/include/messages.h **** 	  trans->put_bytes(trans->impl, dev, DL_TYPE_UINT8, DL_FORMAT_SCALAR, 1, (void *) _rssi_fade_margi
1429:/home/dino/paparazzi/var/include/messages.h **** 	  trans->put_bytes(trans->impl, dev, DL_TYPE_UINT8, DL_FORMAT_SCALAR, 1, (void *) _duty);
1430:/home/dino/paparazzi/var/include/messages.h **** 	  trans->end_message(trans->impl, dev);
1431:/home/dino/paparazzi/var/include/messages.h **** 	} else
1432:/home/dino/paparazzi/var/include/messages.h **** 	  trans->overrun(trans->impl, dev);
1433:/home/dino/paparazzi/var/include/messages.h **** }
1434:/home/dino/paparazzi/var/include/messages.h **** 
1435:/home/dino/paparazzi/var/include/messages.h **** #define DOWNLINK_SEND_SUPERBITRF(_trans, _dev, status, cyrf_status, irq_count, rx_packet_count, tx_
1436:/home/dino/paparazzi/var/include/messages.h **** static inline void pprz_msg_send_SUPERBITRF(struct transport_tx *trans, struct link_device *dev, ui
1437:/home/dino/paparazzi/var/include/messages.h **** 	if (trans->check_available_space(trans->impl, dev, trans->size_of(trans->impl, 0+1+1+4+4+4+4+4+4+4
1438:/home/dino/paparazzi/var/include/messages.h **** 	  trans->count_bytes(trans->impl, dev, trans->size_of(trans->impl, 0+1+1+4+4+4+4+4+4+4+4+4+4+1+nb_
1439:/home/dino/paparazzi/var/include/messages.h **** 	  trans->start_message(trans->impl, dev, 0+1+1+4+4+4+4+4+4+4+4+4+4+1+nb_mfg_id*1 +2 /* msg header 
1440:/home/dino/paparazzi/var/include/messages.h **** 	  trans->put_bytes(trans->impl, dev, DL_TYPE_UINT8, DL_FORMAT_SCALAR, 1, &ac_id);
1441:/home/dino/paparazzi/var/include/messages.h **** 	  trans->put_named_byte(trans->impl, dev, DL_TYPE_UINT8, DL_FORMAT_SCALAR, DL_SUPERBITRF, "SUPERBI
1442:/home/dino/paparazzi/var/include/messages.h **** 	  trans->put_bytes(trans->impl, dev, DL_TYPE_UINT8, DL_FORMAT_SCALAR, 1, (void *) _status);
1443:/home/dino/paparazzi/var/include/messages.h **** 	  trans->put_bytes(trans->impl, dev, DL_TYPE_UINT8, DL_FORMAT_SCALAR, 1, (void *) _cyrf_status);
1444:/home/dino/paparazzi/var/include/messages.h **** 	  trans->put_bytes(trans->impl, dev, DL_TYPE_UINT32, DL_FORMAT_SCALAR, 4, (void *) _irq_count);
1445:/home/dino/paparazzi/var/include/messages.h **** 	  trans->put_bytes(trans->impl, dev, DL_TYPE_UINT32, DL_FORMAT_SCALAR, 4, (void *) _rx_packet_coun
1446:/home/dino/paparazzi/var/include/messages.h **** 	  trans->put_bytes(trans->impl, dev, DL_TYPE_UINT32, DL_FORMAT_SCALAR, 4, (void *) _tx_packet_coun
1447:/home/dino/paparazzi/var/include/messages.h **** 	  trans->put_bytes(trans->impl, dev, DL_TYPE_UINT32, DL_FORMAT_SCALAR, 4, (void *) _transfer_timeo
1448:/home/dino/paparazzi/var/include/messages.h **** 	  trans->put_bytes(trans->impl, dev, DL_TYPE_UINT32, DL_FORMAT_SCALAR, 4, (void *) _resync_count);
1449:/home/dino/paparazzi/var/include/messages.h **** 	  trans->put_bytes(trans->impl, dev, DL_TYPE_UINT32, DL_FORMAT_SCALAR, 4, (void *) _uplink_count);
1450:/home/dino/paparazzi/var/include/messages.h **** 	  trans->put_bytes(trans->impl, dev, DL_TYPE_UINT32, DL_FORMAT_SCALAR, 4, (void *) _rc_count);
1451:/home/dino/paparazzi/var/include/messages.h **** 	  trans->put_bytes(trans->impl, dev, DL_TYPE_UINT32, DL_FORMAT_SCALAR, 4, (void *) _timing1);
1452:/home/dino/paparazzi/var/include/messages.h **** 	  trans->put_bytes(trans->impl, dev, DL_TYPE_UINT32, DL_FORMAT_SCALAR, 4, (void *) _timing2);
1453:/home/dino/paparazzi/var/include/messages.h **** 	  trans->put_bytes(trans->impl, dev, DL_TYPE_UINT32, DL_FORMAT_SCALAR, 4, (void *) _bind_mfg_id);
1454:/home/dino/paparazzi/var/include/messages.h **** 	  trans->put_bytes(trans->impl, dev, DL_TYPE_ARRAY_LENGTH, DL_FORMAT_SCALAR, 1, (void *) &nb_mfg_i
1455:/home/dino/paparazzi/var/include/messages.h **** 	  trans->put_bytes(trans->impl, dev, DL_TYPE_UINT8, DL_FORMAT_ARRAY, 1 * nb_mfg_id, (void *) _mfg_
1456:/home/dino/paparazzi/var/include/messages.h **** 	  trans->end_message(trans->impl, dev);
1457:/home/dino/paparazzi/var/include/messages.h **** 	} else
1458:/home/dino/paparazzi/var/include/messages.h **** 	  trans->overrun(trans->impl, dev);
1459:/home/dino/paparazzi/var/include/messages.h **** }
1460:/home/dino/paparazzi/var/include/messages.h **** 
1461:/home/dino/paparazzi/var/include/messages.h **** #define DOWNLINK_SEND_GX3_INFO(_trans, _dev, GX3_freq, chksm_error, hdr_error, GX3_chksm) pprz_msg_
1462:/home/dino/paparazzi/var/include/messages.h **** static inline void pprz_msg_send_GX3_INFO(struct transport_tx *trans, struct link_device *dev, uint
1463:/home/dino/paparazzi/var/include/messages.h **** 	if (trans->check_available_space(trans->impl, dev, trans->size_of(trans->impl, 0+4+4+4+2 +2 /* msg
1464:/home/dino/paparazzi/var/include/messages.h **** 	  trans->count_bytes(trans->impl, dev, trans->size_of(trans->impl, 0+4+4+4+2 +2 /* msg header over
1465:/home/dino/paparazzi/var/include/messages.h **** 	  trans->start_message(trans->impl, dev, 0+4+4+4+2 +2 /* msg header overhead */);
1466:/home/dino/paparazzi/var/include/messages.h **** 	  trans->put_bytes(trans->impl, dev, DL_TYPE_UINT8, DL_FORMAT_SCALAR, 1, &ac_id);
1467:/home/dino/paparazzi/var/include/messages.h **** 	  trans->put_named_byte(trans->impl, dev, DL_TYPE_UINT8, DL_FORMAT_SCALAR, DL_GX3_INFO, "GX3_INFO"
1468:/home/dino/paparazzi/var/include/messages.h **** 	  trans->put_bytes(trans->impl, dev, DL_TYPE_FLOAT, DL_FORMAT_SCALAR, 4, (void *) _GX3_freq);
1469:/home/dino/paparazzi/var/include/messages.h **** 	  trans->put_bytes(trans->impl, dev, DL_TYPE_UINT32, DL_FORMAT_SCALAR, 4, (void *) _chksm_error);
1470:/home/dino/paparazzi/var/include/messages.h **** 	  trans->put_bytes(trans->impl, dev, DL_TYPE_UINT32, DL_FORMAT_SCALAR, 4, (void *) _hdr_error);
1471:/home/dino/paparazzi/var/include/messages.h **** 	  trans->put_bytes(trans->impl, dev, DL_TYPE_UINT16, DL_FORMAT_SCALAR, 2, (void *) _GX3_chksm);
1472:/home/dino/paparazzi/var/include/messages.h **** 	  trans->end_message(trans->impl, dev);
1473:/home/dino/paparazzi/var/include/messages.h **** 	} else
1474:/home/dino/paparazzi/var/include/messages.h **** 	  trans->overrun(trans->impl, dev);
1475:/home/dino/paparazzi/var/include/messages.h **** }
1476:/home/dino/paparazzi/var/include/messages.h **** 
1477:/home/dino/paparazzi/var/include/messages.h **** #define DOWNLINK_SEND_EXPLAIN(_trans, _dev, type, id, nb_string, string) pprz_msg_send_EXPLAIN(&((_
1478:/home/dino/paparazzi/var/include/messages.h **** static inline void pprz_msg_send_EXPLAIN(struct transport_tx *trans, struct link_device *dev, uint8
1479:/home/dino/paparazzi/var/include/messages.h **** 	if (trans->check_available_space(trans->impl, dev, trans->size_of(trans->impl, 0+1+1+1+nb_string*1
1480:/home/dino/paparazzi/var/include/messages.h **** 	  trans->count_bytes(trans->impl, dev, trans->size_of(trans->impl, 0+1+1+1+nb_string*1 +2 /* msg h
1481:/home/dino/paparazzi/var/include/messages.h **** 	  trans->start_message(trans->impl, dev, 0+1+1+1+nb_string*1 +2 /* msg header overhead */);
1482:/home/dino/paparazzi/var/include/messages.h **** 	  trans->put_bytes(trans->impl, dev, DL_TYPE_UINT8, DL_FORMAT_SCALAR, 1, &ac_id);
1483:/home/dino/paparazzi/var/include/messages.h **** 	  trans->put_named_byte(trans->impl, dev, DL_TYPE_UINT8, DL_FORMAT_SCALAR, DL_EXPLAIN, "EXPLAIN");
1484:/home/dino/paparazzi/var/include/messages.h **** 	  trans->put_bytes(trans->impl, dev, DL_TYPE_UINT8, DL_FORMAT_SCALAR, 1, (void *) _type);
1485:/home/dino/paparazzi/var/include/messages.h **** 	  trans->put_bytes(trans->impl, dev, DL_TYPE_UINT8, DL_FORMAT_SCALAR, 1, (void *) _id);
1486:/home/dino/paparazzi/var/include/messages.h **** 	  trans->put_bytes(trans->impl, dev, DL_TYPE_ARRAY_LENGTH, DL_FORMAT_SCALAR, 1, (void *) &nb_strin
1487:/home/dino/paparazzi/var/include/messages.h **** 	  trans->put_bytes(trans->impl, dev, DL_TYPE_UINT8, DL_FORMAT_ARRAY, 1 * nb_string, (void *) _stri
1488:/home/dino/paparazzi/var/include/messages.h **** 	  trans->end_message(trans->impl, dev);
1489:/home/dino/paparazzi/var/include/messages.h **** 	} else
1490:/home/dino/paparazzi/var/include/messages.h **** 	  trans->overrun(trans->impl, dev);
1491:/home/dino/paparazzi/var/include/messages.h **** }
1492:/home/dino/paparazzi/var/include/messages.h **** 
1493:/home/dino/paparazzi/var/include/messages.h **** #define DOWNLINK_SEND_VIDEO_TELEMETRY(_trans, _dev, blob_x1, blob_y1, blob_x2, blob_y2, blob_x3, bl
1494:/home/dino/paparazzi/var/include/messages.h **** static inline void pprz_msg_send_VIDEO_TELEMETRY(struct transport_tx *trans, struct link_device *de
1495:/home/dino/paparazzi/var/include/messages.h **** 	if (trans->check_available_space(trans->impl, dev, trans->size_of(trans->impl, 0+4+4+4+4+4+4+4+4 +
1496:/home/dino/paparazzi/var/include/messages.h **** 	  trans->count_bytes(trans->impl, dev, trans->size_of(trans->impl, 0+4+4+4+4+4+4+4+4 +2 /* msg hea
1497:/home/dino/paparazzi/var/include/messages.h **** 	  trans->start_message(trans->impl, dev, 0+4+4+4+4+4+4+4+4 +2 /* msg header overhead */);
1498:/home/dino/paparazzi/var/include/messages.h **** 	  trans->put_bytes(trans->impl, dev, DL_TYPE_UINT8, DL_FORMAT_SCALAR, 1, &ac_id);
1499:/home/dino/paparazzi/var/include/messages.h **** 	  trans->put_named_byte(trans->impl, dev, DL_TYPE_UINT8, DL_FORMAT_SCALAR, DL_VIDEO_TELEMETRY, "VI
1500:/home/dino/paparazzi/var/include/messages.h **** 	  trans->put_bytes(trans->impl, dev, DL_TYPE_INT32, DL_FORMAT_SCALAR, 4, (void *) _blob_x1);
1501:/home/dino/paparazzi/var/include/messages.h **** 	  trans->put_bytes(trans->impl, dev, DL_TYPE_INT32, DL_FORMAT_SCALAR, 4, (void *) _blob_y1);
1502:/home/dino/paparazzi/var/include/messages.h **** 	  trans->put_bytes(trans->impl, dev, DL_TYPE_INT32, DL_FORMAT_SCALAR, 4, (void *) _blob_x2);
1503:/home/dino/paparazzi/var/include/messages.h **** 	  trans->put_bytes(trans->impl, dev, DL_TYPE_INT32, DL_FORMAT_SCALAR, 4, (void *) _blob_y2);
1504:/home/dino/paparazzi/var/include/messages.h **** 	  trans->put_bytes(trans->impl, dev, DL_TYPE_INT32, DL_FORMAT_SCALAR, 4, (void *) _blob_x3);
1505:/home/dino/paparazzi/var/include/messages.h **** 	  trans->put_bytes(trans->impl, dev, DL_TYPE_INT32, DL_FORMAT_SCALAR, 4, (void *) _blob_y3);
1506:/home/dino/paparazzi/var/include/messages.h **** 	  trans->put_bytes(trans->impl, dev, DL_TYPE_INT32, DL_FORMAT_SCALAR, 4, (void *) _blob_x4);
1507:/home/dino/paparazzi/var/include/messages.h **** 	  trans->put_bytes(trans->impl, dev, DL_TYPE_INT32, DL_FORMAT_SCALAR, 4, (void *) _blob_y4);
1508:/home/dino/paparazzi/var/include/messages.h **** 	  trans->end_message(trans->impl, dev);
1509:/home/dino/paparazzi/var/include/messages.h **** 	} else
1510:/home/dino/paparazzi/var/include/messages.h **** 	  trans->overrun(trans->impl, dev);
1511:/home/dino/paparazzi/var/include/messages.h **** }
1512:/home/dino/paparazzi/var/include/messages.h **** 
1513:/home/dino/paparazzi/var/include/messages.h **** #define DOWNLINK_SEND_VF_UPDATE(_trans, _dev, baro, range_meter) pprz_msg_send_VF_UPDATE(&((_trans)
1514:/home/dino/paparazzi/var/include/messages.h **** static inline void pprz_msg_send_VF_UPDATE(struct transport_tx *trans, struct link_device *dev, uin
1515:/home/dino/paparazzi/var/include/messages.h **** 	if (trans->check_available_space(trans->impl, dev, trans->size_of(trans->impl, 0+4+4 +2 /* msg hea
1516:/home/dino/paparazzi/var/include/messages.h **** 	  trans->count_bytes(trans->impl, dev, trans->size_of(trans->impl, 0+4+4 +2 /* msg header overhead
1517:/home/dino/paparazzi/var/include/messages.h **** 	  trans->start_message(trans->impl, dev, 0+4+4 +2 /* msg header overhead */);
1518:/home/dino/paparazzi/var/include/messages.h **** 	  trans->put_bytes(trans->impl, dev, DL_TYPE_UINT8, DL_FORMAT_SCALAR, 1, &ac_id);
1519:/home/dino/paparazzi/var/include/messages.h **** 	  trans->put_named_byte(trans->impl, dev, DL_TYPE_UINT8, DL_FORMAT_SCALAR, DL_VF_UPDATE, "VF_UPDAT
1520:/home/dino/paparazzi/var/include/messages.h **** 	  trans->put_bytes(trans->impl, dev, DL_TYPE_FLOAT, DL_FORMAT_SCALAR, 4, (void *) _baro);
1521:/home/dino/paparazzi/var/include/messages.h **** 	  trans->put_bytes(trans->impl, dev, DL_TYPE_FLOAT, DL_FORMAT_SCALAR, 4, (void *) _range_meter);
1522:/home/dino/paparazzi/var/include/messages.h **** 	  trans->end_message(trans->impl, dev);
1523:/home/dino/paparazzi/var/include/messages.h **** 	} else
1524:/home/dino/paparazzi/var/include/messages.h **** 	  trans->overrun(trans->impl, dev);
1525:/home/dino/paparazzi/var/include/messages.h **** }
1526:/home/dino/paparazzi/var/include/messages.h **** 
1527:/home/dino/paparazzi/var/include/messages.h **** #define DOWNLINK_SEND_VF_PREDICT(_trans, _dev, accel) pprz_msg_send_VF_PREDICT(&((_trans).trans_tx)
1528:/home/dino/paparazzi/var/include/messages.h **** static inline void pprz_msg_send_VF_PREDICT(struct transport_tx *trans, struct link_device *dev, ui
1529:/home/dino/paparazzi/var/include/messages.h **** 	if (trans->check_available_space(trans->impl, dev, trans->size_of(trans->impl, 0+4 +2 /* msg heade
1530:/home/dino/paparazzi/var/include/messages.h **** 	  trans->count_bytes(trans->impl, dev, trans->size_of(trans->impl, 0+4 +2 /* msg header overhead *
1531:/home/dino/paparazzi/var/include/messages.h **** 	  trans->start_message(trans->impl, dev, 0+4 +2 /* msg header overhead */);
1532:/home/dino/paparazzi/var/include/messages.h **** 	  trans->put_bytes(trans->impl, dev, DL_TYPE_UINT8, DL_FORMAT_SCALAR, 1, &ac_id);
1533:/home/dino/paparazzi/var/include/messages.h **** 	  trans->put_named_byte(trans->impl, dev, DL_TYPE_UINT8, DL_FORMAT_SCALAR, DL_VF_PREDICT, "VF_PRED
1534:/home/dino/paparazzi/var/include/messages.h **** 	  trans->put_bytes(trans->impl, dev, DL_TYPE_FLOAT, DL_FORMAT_SCALAR, 4, (void *) _accel);
1535:/home/dino/paparazzi/var/include/messages.h **** 	  trans->end_message(trans->impl, dev);
1536:/home/dino/paparazzi/var/include/messages.h **** 	} else
1537:/home/dino/paparazzi/var/include/messages.h **** 	  trans->overrun(trans->impl, dev);
1538:/home/dino/paparazzi/var/include/messages.h **** }
1539:/home/dino/paparazzi/var/include/messages.h **** 
1540:/home/dino/paparazzi/var/include/messages.h **** #define DOWNLINK_SEND_INV_FILTER(_trans, _dev, quat, phi_inv, theta_inv, psi_inv, Vx_inv, Vy_inv, V
1541:/home/dino/paparazzi/var/include/messages.h **** static inline void pprz_msg_send_INV_FILTER(struct transport_tx *trans, struct link_device *dev, ui
1542:/home/dino/paparazzi/var/include/messages.h **** 	if (trans->check_available_space(trans->impl, dev, trans->size_of(trans->impl, 0+4+4+4+4+4+4+4+4+4
1543:/home/dino/paparazzi/var/include/messages.h **** 	  trans->count_bytes(trans->impl, dev, trans->size_of(trans->impl, 0+4+4+4+4+4+4+4+4+4+4+4+4+4+4+4
1544:/home/dino/paparazzi/var/include/messages.h **** 	  trans->start_message(trans->impl, dev, 0+4+4+4+4+4+4+4+4+4+4+4+4+4+4+4+4+4 +2 /* msg header over
1545:/home/dino/paparazzi/var/include/messages.h **** 	  trans->put_bytes(trans->impl, dev, DL_TYPE_UINT8, DL_FORMAT_SCALAR, 1, &ac_id);
1546:/home/dino/paparazzi/var/include/messages.h **** 	  trans->put_named_byte(trans->impl, dev, DL_TYPE_UINT8, DL_FORMAT_SCALAR, DL_INV_FILTER, "INV_FIL
1547:/home/dino/paparazzi/var/include/messages.h **** 	  trans->put_bytes(trans->impl, dev, DL_TYPE_FLOAT, DL_FORMAT_SCALAR, 4, (void *) _quat);
1548:/home/dino/paparazzi/var/include/messages.h **** 	  trans->put_bytes(trans->impl, dev, DL_TYPE_FLOAT, DL_FORMAT_SCALAR, 4, (void *) _phi_inv);
1549:/home/dino/paparazzi/var/include/messages.h **** 	  trans->put_bytes(trans->impl, dev, DL_TYPE_FLOAT, DL_FORMAT_SCALAR, 4, (void *) _theta_inv);
1550:/home/dino/paparazzi/var/include/messages.h **** 	  trans->put_bytes(trans->impl, dev, DL_TYPE_FLOAT, DL_FORMAT_SCALAR, 4, (void *) _psi_inv);
1551:/home/dino/paparazzi/var/include/messages.h **** 	  trans->put_bytes(trans->impl, dev, DL_TYPE_FLOAT, DL_FORMAT_SCALAR, 4, (void *) _Vx_inv);
1552:/home/dino/paparazzi/var/include/messages.h **** 	  trans->put_bytes(trans->impl, dev, DL_TYPE_FLOAT, DL_FORMAT_SCALAR, 4, (void *) _Vy_inv);
1553:/home/dino/paparazzi/var/include/messages.h **** 	  trans->put_bytes(trans->impl, dev, DL_TYPE_FLOAT, DL_FORMAT_SCALAR, 4, (void *) _Vz_inv);
1554:/home/dino/paparazzi/var/include/messages.h **** 	  trans->put_bytes(trans->impl, dev, DL_TYPE_FLOAT, DL_FORMAT_SCALAR, 4, (void *) _Px_inv);
1555:/home/dino/paparazzi/var/include/messages.h **** 	  trans->put_bytes(trans->impl, dev, DL_TYPE_FLOAT, DL_FORMAT_SCALAR, 4, (void *) _Py_inv);
1556:/home/dino/paparazzi/var/include/messages.h **** 	  trans->put_bytes(trans->impl, dev, DL_TYPE_FLOAT, DL_FORMAT_SCALAR, 4, (void *) _Pz_inv);
1557:/home/dino/paparazzi/var/include/messages.h **** 	  trans->put_bytes(trans->impl, dev, DL_TYPE_FLOAT, DL_FORMAT_SCALAR, 4, (void *) _bias_phi);
1558:/home/dino/paparazzi/var/include/messages.h **** 	  trans->put_bytes(trans->impl, dev, DL_TYPE_FLOAT, DL_FORMAT_SCALAR, 4, (void *) _bias_theta);
1559:/home/dino/paparazzi/var/include/messages.h **** 	  trans->put_bytes(trans->impl, dev, DL_TYPE_FLOAT, DL_FORMAT_SCALAR, 4, (void *) _bias_psi);
1560:/home/dino/paparazzi/var/include/messages.h **** 	  trans->put_bytes(trans->impl, dev, DL_TYPE_FLOAT, DL_FORMAT_SCALAR, 4, (void *) _bias_as);
1561:/home/dino/paparazzi/var/include/messages.h **** 	  trans->put_bytes(trans->impl, dev, DL_TYPE_FLOAT, DL_FORMAT_SCALAR, 4, (void *) _bias_hb);
1562:/home/dino/paparazzi/var/include/messages.h **** 	  trans->put_bytes(trans->impl, dev, DL_TYPE_FLOAT, DL_FORMAT_SCALAR, 4, (void *) _meas_baro);
1563:/home/dino/paparazzi/var/include/messages.h **** 	  trans->put_bytes(trans->impl, dev, DL_TYPE_FLOAT, DL_FORMAT_SCALAR, 4, (void *) _meas_gps);
1564:/home/dino/paparazzi/var/include/messages.h **** 	  trans->end_message(trans->impl, dev);
1565:/home/dino/paparazzi/var/include/messages.h **** 	} else
1566:/home/dino/paparazzi/var/include/messages.h **** 	  trans->overrun(trans->impl, dev);
1567:/home/dino/paparazzi/var/include/messages.h **** }
1568:/home/dino/paparazzi/var/include/messages.h **** 
1569:/home/dino/paparazzi/var/include/messages.h **** #define DOWNLINK_SEND_MISSION_STATUS(_trans, _dev, remaining_time, nb_task_list, task_list) pprz_ms
1570:/home/dino/paparazzi/var/include/messages.h **** static inline void pprz_msg_send_MISSION_STATUS(struct transport_tx *trans, struct link_device *dev
1571:/home/dino/paparazzi/var/include/messages.h **** 	if (trans->check_available_space(trans->impl, dev, trans->size_of(trans->impl, 0+4+1+nb_task_list*
1572:/home/dino/paparazzi/var/include/messages.h **** 	  trans->count_bytes(trans->impl, dev, trans->size_of(trans->impl, 0+4+1+nb_task_list*1 +2 /* msg 
1573:/home/dino/paparazzi/var/include/messages.h **** 	  trans->start_message(trans->impl, dev, 0+4+1+nb_task_list*1 +2 /* msg header overhead */);
1574:/home/dino/paparazzi/var/include/messages.h **** 	  trans->put_bytes(trans->impl, dev, DL_TYPE_UINT8, DL_FORMAT_SCALAR, 1, &ac_id);
1575:/home/dino/paparazzi/var/include/messages.h **** 	  trans->put_named_byte(trans->impl, dev, DL_TYPE_UINT8, DL_FORMAT_SCALAR, DL_MISSION_STATUS, "MIS
1576:/home/dino/paparazzi/var/include/messages.h **** 	  trans->put_bytes(trans->impl, dev, DL_TYPE_FLOAT, DL_FORMAT_SCALAR, 4, (void *) _remaining_time)
1577:/home/dino/paparazzi/var/include/messages.h **** 	  trans->put_bytes(trans->impl, dev, DL_TYPE_ARRAY_LENGTH, DL_FORMAT_SCALAR, 1, (void *) &nb_task_
1578:/home/dino/paparazzi/var/include/messages.h **** 	  trans->put_bytes(trans->impl, dev, DL_TYPE_UINT8, DL_FORMAT_ARRAY, 1 * nb_task_list, (void *) _t
1579:/home/dino/paparazzi/var/include/messages.h **** 	  trans->end_message(trans->impl, dev);
1580:/home/dino/paparazzi/var/include/messages.h **** 	} else
1581:/home/dino/paparazzi/var/include/messages.h **** 	  trans->overrun(trans->impl, dev);
1582:/home/dino/paparazzi/var/include/messages.h **** }
1583:/home/dino/paparazzi/var/include/messages.h **** 
1584:/home/dino/paparazzi/var/include/messages.h **** #define DOWNLINK_SEND_CROSS_TRACK_ERROR(_trans, _dev, cross_track_error, cte_int) pprz_msg_send_CRO
1585:/home/dino/paparazzi/var/include/messages.h **** static inline void pprz_msg_send_CROSS_TRACK_ERROR(struct transport_tx *trans, struct link_device *
1586:/home/dino/paparazzi/var/include/messages.h **** 	if (trans->check_available_space(trans->impl, dev, trans->size_of(trans->impl, 0+4+4 +2 /* msg hea
1587:/home/dino/paparazzi/var/include/messages.h **** 	  trans->count_bytes(trans->impl, dev, trans->size_of(trans->impl, 0+4+4 +2 /* msg header overhead
1588:/home/dino/paparazzi/var/include/messages.h **** 	  trans->start_message(trans->impl, dev, 0+4+4 +2 /* msg header overhead */);
1589:/home/dino/paparazzi/var/include/messages.h **** 	  trans->put_bytes(trans->impl, dev, DL_TYPE_UINT8, DL_FORMAT_SCALAR, 1, &ac_id);
1590:/home/dino/paparazzi/var/include/messages.h **** 	  trans->put_named_byte(trans->impl, dev, DL_TYPE_UINT8, DL_FORMAT_SCALAR, DL_CROSS_TRACK_ERROR, "
1591:/home/dino/paparazzi/var/include/messages.h **** 	  trans->put_bytes(trans->impl, dev, DL_TYPE_FLOAT, DL_FORMAT_SCALAR, 4, (void *) _cross_track_err
1592:/home/dino/paparazzi/var/include/messages.h **** 	  trans->put_bytes(trans->impl, dev, DL_TYPE_FLOAT, DL_FORMAT_SCALAR, 4, (void *) _cte_int);
1593:/home/dino/paparazzi/var/include/messages.h **** 	  trans->end_message(trans->impl, dev);
1594:/home/dino/paparazzi/var/include/messages.h **** 	} else
1595:/home/dino/paparazzi/var/include/messages.h **** 	  trans->overrun(trans->impl, dev);
1596:/home/dino/paparazzi/var/include/messages.h **** }
1597:/home/dino/paparazzi/var/include/messages.h **** 
1598:/home/dino/paparazzi/var/include/messages.h **** #define DOWNLINK_SEND_GENERIC_COM(_trans, _dev, lat, lon, alt, gspeed, course, airspeed, vsupply, e
1599:/home/dino/paparazzi/var/include/messages.h **** static inline void pprz_msg_send_GENERIC_COM(struct transport_tx *trans, struct link_device *dev, u
1600:/home/dino/paparazzi/var/include/messages.h **** 	if (trans->check_available_space(trans->impl, dev, trans->size_of(trans->impl, 0+4+4+2+2+2+2+1+1+1
1601:/home/dino/paparazzi/var/include/messages.h **** 	  trans->count_bytes(trans->impl, dev, trans->size_of(trans->impl, 0+4+4+2+2+2+2+1+1+1+1+1+2 +2 /*
1602:/home/dino/paparazzi/var/include/messages.h **** 	  trans->start_message(trans->impl, dev, 0+4+4+2+2+2+2+1+1+1+1+1+2 +2 /* msg header overhead */);
1603:/home/dino/paparazzi/var/include/messages.h **** 	  trans->put_bytes(trans->impl, dev, DL_TYPE_UINT8, DL_FORMAT_SCALAR, 1, &ac_id);
1604:/home/dino/paparazzi/var/include/messages.h **** 	  trans->put_named_byte(trans->impl, dev, DL_TYPE_UINT8, DL_FORMAT_SCALAR, DL_GENERIC_COM, "GENERI
1605:/home/dino/paparazzi/var/include/messages.h **** 	  trans->put_bytes(trans->impl, dev, DL_TYPE_INT32, DL_FORMAT_SCALAR, 4, (void *) _lat);
1606:/home/dino/paparazzi/var/include/messages.h **** 	  trans->put_bytes(trans->impl, dev, DL_TYPE_INT32, DL_FORMAT_SCALAR, 4, (void *) _lon);
1607:/home/dino/paparazzi/var/include/messages.h **** 	  trans->put_bytes(trans->impl, dev, DL_TYPE_INT16, DL_FORMAT_SCALAR, 2, (void *) _alt);
1608:/home/dino/paparazzi/var/include/messages.h **** 	  trans->put_bytes(trans->impl, dev, DL_TYPE_UINT16, DL_FORMAT_SCALAR, 2, (void *) _gspeed);
1609:/home/dino/paparazzi/var/include/messages.h **** 	  trans->put_bytes(trans->impl, dev, DL_TYPE_INT16, DL_FORMAT_SCALAR, 2, (void *) _course);
1610:/home/dino/paparazzi/var/include/messages.h **** 	  trans->put_bytes(trans->impl, dev, DL_TYPE_UINT16, DL_FORMAT_SCALAR, 2, (void *) _airspeed);
1611:/home/dino/paparazzi/var/include/messages.h **** 	  trans->put_bytes(trans->impl, dev, DL_TYPE_UINT8, DL_FORMAT_SCALAR, 1, (void *) _vsupply);
1612:/home/dino/paparazzi/var/include/messages.h **** 	  trans->put_bytes(trans->impl, dev, DL_TYPE_UINT8, DL_FORMAT_SCALAR, 1, (void *) _energy);
1613:/home/dino/paparazzi/var/include/messages.h **** 	  trans->put_bytes(trans->impl, dev, DL_TYPE_UINT8, DL_FORMAT_SCALAR, 1, (void *) _throttle);
1614:/home/dino/paparazzi/var/include/messages.h **** 	  trans->put_bytes(trans->impl, dev, DL_TYPE_UINT8, DL_FORMAT_SCALAR, 1, (void *) _ap_mode);
1615:/home/dino/paparazzi/var/include/messages.h **** 	  trans->put_bytes(trans->impl, dev, DL_TYPE_UINT8, DL_FORMAT_SCALAR, 1, (void *) _nav_block);
1616:/home/dino/paparazzi/var/include/messages.h **** 	  trans->put_bytes(trans->impl, dev, DL_TYPE_UINT16, DL_FORMAT_SCALAR, 2, (void *) _flight_time);
1617:/home/dino/paparazzi/var/include/messages.h **** 	  trans->end_message(trans->impl, dev);
1618:/home/dino/paparazzi/var/include/messages.h **** 	} else
1619:/home/dino/paparazzi/var/include/messages.h **** 	  trans->overrun(trans->impl, dev);
1620:/home/dino/paparazzi/var/include/messages.h **** }
1621:/home/dino/paparazzi/var/include/messages.h **** 
1622:/home/dino/paparazzi/var/include/messages.h **** #define DOWNLINK_SEND_FORMATION_SLOT_TM(_trans, _dev, ac_id, mode, slot_east, slot_north, slot_alt)
1623:/home/dino/paparazzi/var/include/messages.h **** static inline void pprz_msg_send_FORMATION_SLOT_TM(struct transport_tx *trans, struct link_device *
1624:/home/dino/paparazzi/var/include/messages.h **** 	if (trans->check_available_space(trans->impl, dev, trans->size_of(trans->impl, 0+1+1+4+4+4 +2 /* m
1625:/home/dino/paparazzi/var/include/messages.h **** 	  trans->count_bytes(trans->impl, dev, trans->size_of(trans->impl, 0+1+1+4+4+4 +2 /* msg header ov
1626:/home/dino/paparazzi/var/include/messages.h **** 	  trans->start_message(trans->impl, dev, 0+1+1+4+4+4 +2 /* msg header overhead */);
1627:/home/dino/paparazzi/var/include/messages.h **** 	  trans->put_bytes(trans->impl, dev, DL_TYPE_UINT8, DL_FORMAT_SCALAR, 1, &ac_id);
1628:/home/dino/paparazzi/var/include/messages.h **** 	  trans->put_named_byte(trans->impl, dev, DL_TYPE_UINT8, DL_FORMAT_SCALAR, DL_FORMATION_SLOT_TM, "
1629:/home/dino/paparazzi/var/include/messages.h **** 	  trans->put_bytes(trans->impl, dev, DL_TYPE_UINT8, DL_FORMAT_SCALAR, 1, (void *) _ac_id);
1630:/home/dino/paparazzi/var/include/messages.h **** 	  trans->put_bytes(trans->impl, dev, DL_TYPE_UINT8, DL_FORMAT_SCALAR, 1, (void *) _mode);
1631:/home/dino/paparazzi/var/include/messages.h **** 	  trans->put_bytes(trans->impl, dev, DL_TYPE_FLOAT, DL_FORMAT_SCALAR, 4, (void *) _slot_east);
1632:/home/dino/paparazzi/var/include/messages.h **** 	  trans->put_bytes(trans->impl, dev, DL_TYPE_FLOAT, DL_FORMAT_SCALAR, 4, (void *) _slot_north);
1633:/home/dino/paparazzi/var/include/messages.h **** 	  trans->put_bytes(trans->impl, dev, DL_TYPE_FLOAT, DL_FORMAT_SCALAR, 4, (void *) _slot_alt);
1634:/home/dino/paparazzi/var/include/messages.h **** 	  trans->end_message(trans->impl, dev);
1635:/home/dino/paparazzi/var/include/messages.h **** 	} else
1636:/home/dino/paparazzi/var/include/messages.h **** 	  trans->overrun(trans->impl, dev);
1637:/home/dino/paparazzi/var/include/messages.h **** }
1638:/home/dino/paparazzi/var/include/messages.h **** 
1639:/home/dino/paparazzi/var/include/messages.h **** #define DOWNLINK_SEND_FORMATION_STATUS_TM(_trans, _dev, ac_id, leader_id, status) pprz_msg_send_FOR
1640:/home/dino/paparazzi/var/include/messages.h **** static inline void pprz_msg_send_FORMATION_STATUS_TM(struct transport_tx *trans, struct link_device
1641:/home/dino/paparazzi/var/include/messages.h **** 	if (trans->check_available_space(trans->impl, dev, trans->size_of(trans->impl, 0+1+1+1 +2 /* msg h
1642:/home/dino/paparazzi/var/include/messages.h **** 	  trans->count_bytes(trans->impl, dev, trans->size_of(trans->impl, 0+1+1+1 +2 /* msg header overhe
1643:/home/dino/paparazzi/var/include/messages.h **** 	  trans->start_message(trans->impl, dev, 0+1+1+1 +2 /* msg header overhead */);
1644:/home/dino/paparazzi/var/include/messages.h **** 	  trans->put_bytes(trans->impl, dev, DL_TYPE_UINT8, DL_FORMAT_SCALAR, 1, &ac_id);
1645:/home/dino/paparazzi/var/include/messages.h **** 	  trans->put_named_byte(trans->impl, dev, DL_TYPE_UINT8, DL_FORMAT_SCALAR, DL_FORMATION_STATUS_TM,
1646:/home/dino/paparazzi/var/include/messages.h **** 	  trans->put_bytes(trans->impl, dev, DL_TYPE_UINT8, DL_FORMAT_SCALAR, 1, (void *) _ac_id);
1647:/home/dino/paparazzi/var/include/messages.h **** 	  trans->put_bytes(trans->impl, dev, DL_TYPE_UINT8, DL_FORMAT_SCALAR, 1, (void *) _leader_id);
1648:/home/dino/paparazzi/var/include/messages.h **** 	  trans->put_bytes(trans->impl, dev, DL_TYPE_UINT8, DL_FORMAT_SCALAR, 1, (void *) _status);
1649:/home/dino/paparazzi/var/include/messages.h **** 	  trans->end_message(trans->impl, dev);
1650:/home/dino/paparazzi/var/include/messages.h **** 	} else
1651:/home/dino/paparazzi/var/include/messages.h **** 	  trans->overrun(trans->impl, dev);
1652:/home/dino/paparazzi/var/include/messages.h **** }
1653:/home/dino/paparazzi/var/include/messages.h **** 
1654:/home/dino/paparazzi/var/include/messages.h **** #define DOWNLINK_SEND_BMP_STATUS(_trans, _dev, UP, UT, press, temp) pprz_msg_send_BMP_STATUS(&((_tr
1655:/home/dino/paparazzi/var/include/messages.h **** static inline void pprz_msg_send_BMP_STATUS(struct transport_tx *trans, struct link_device *dev, ui
1656:/home/dino/paparazzi/var/include/messages.h **** 	if (trans->check_available_space(trans->impl, dev, trans->size_of(trans->impl, 0+4+4+4+4 +2 /* msg
1657:/home/dino/paparazzi/var/include/messages.h **** 	  trans->count_bytes(trans->impl, dev, trans->size_of(trans->impl, 0+4+4+4+4 +2 /* msg header over
1658:/home/dino/paparazzi/var/include/messages.h **** 	  trans->start_message(trans->impl, dev, 0+4+4+4+4 +2 /* msg header overhead */);
1659:/home/dino/paparazzi/var/include/messages.h **** 	  trans->put_bytes(trans->impl, dev, DL_TYPE_UINT8, DL_FORMAT_SCALAR, 1, &ac_id);
1660:/home/dino/paparazzi/var/include/messages.h **** 	  trans->put_named_byte(trans->impl, dev, DL_TYPE_UINT8, DL_FORMAT_SCALAR, DL_BMP_STATUS, "BMP_STA
1661:/home/dino/paparazzi/var/include/messages.h **** 	  trans->put_bytes(trans->impl, dev, DL_TYPE_INT32, DL_FORMAT_SCALAR, 4, (void *) _UP);
1662:/home/dino/paparazzi/var/include/messages.h **** 	  trans->put_bytes(trans->impl, dev, DL_TYPE_INT32, DL_FORMAT_SCALAR, 4, (void *) _UT);
1663:/home/dino/paparazzi/var/include/messages.h **** 	  trans->put_bytes(trans->impl, dev, DL_TYPE_INT32, DL_FORMAT_SCALAR, 4, (void *) _press);
1664:/home/dino/paparazzi/var/include/messages.h **** 	  trans->put_bytes(trans->impl, dev, DL_TYPE_INT32, DL_FORMAT_SCALAR, 4, (void *) _temp);
1665:/home/dino/paparazzi/var/include/messages.h **** 	  trans->end_message(trans->impl, dev);
1666:/home/dino/paparazzi/var/include/messages.h **** 	} else
1667:/home/dino/paparazzi/var/include/messages.h **** 	  trans->overrun(trans->impl, dev);
1668:/home/dino/paparazzi/var/include/messages.h **** }
1669:/home/dino/paparazzi/var/include/messages.h **** 
1670:/home/dino/paparazzi/var/include/messages.h **** #define DOWNLINK_SEND_MLX_STATUS(_trans, _dev, itemp_case, temp_case, itemp_obj, temp_obj) pprz_msg
1671:/home/dino/paparazzi/var/include/messages.h **** static inline void pprz_msg_send_MLX_STATUS(struct transport_tx *trans, struct link_device *dev, ui
1672:/home/dino/paparazzi/var/include/messages.h **** 	if (trans->check_available_space(trans->impl, dev, trans->size_of(trans->impl, 0+2+4+2+4 +2 /* msg
1673:/home/dino/paparazzi/var/include/messages.h **** 	  trans->count_bytes(trans->impl, dev, trans->size_of(trans->impl, 0+2+4+2+4 +2 /* msg header over
1674:/home/dino/paparazzi/var/include/messages.h **** 	  trans->start_message(trans->impl, dev, 0+2+4+2+4 +2 /* msg header overhead */);
1675:/home/dino/paparazzi/var/include/messages.h **** 	  trans->put_bytes(trans->impl, dev, DL_TYPE_UINT8, DL_FORMAT_SCALAR, 1, &ac_id);
1676:/home/dino/paparazzi/var/include/messages.h **** 	  trans->put_named_byte(trans->impl, dev, DL_TYPE_UINT8, DL_FORMAT_SCALAR, DL_MLX_STATUS, "MLX_STA
1677:/home/dino/paparazzi/var/include/messages.h **** 	  trans->put_bytes(trans->impl, dev, DL_TYPE_UINT16, DL_FORMAT_SCALAR, 2, (void *) _itemp_case);
1678:/home/dino/paparazzi/var/include/messages.h **** 	  trans->put_bytes(trans->impl, dev, DL_TYPE_FLOAT, DL_FORMAT_SCALAR, 4, (void *) _temp_case);
1679:/home/dino/paparazzi/var/include/messages.h **** 	  trans->put_bytes(trans->impl, dev, DL_TYPE_UINT16, DL_FORMAT_SCALAR, 2, (void *) _itemp_obj);
1680:/home/dino/paparazzi/var/include/messages.h **** 	  trans->put_bytes(trans->impl, dev, DL_TYPE_FLOAT, DL_FORMAT_SCALAR, 4, (void *) _temp_obj);
1681:/home/dino/paparazzi/var/include/messages.h **** 	  trans->end_message(trans->impl, dev);
1682:/home/dino/paparazzi/var/include/messages.h **** 	} else
1683:/home/dino/paparazzi/var/include/messages.h **** 	  trans->overrun(trans->impl, dev);
1684:/home/dino/paparazzi/var/include/messages.h **** }
1685:/home/dino/paparazzi/var/include/messages.h **** 
1686:/home/dino/paparazzi/var/include/messages.h **** #define DOWNLINK_SEND_TMP_STATUS(_trans, _dev, itemp, temp) pprz_msg_send_TMP_STATUS(&((_trans).tra
1687:/home/dino/paparazzi/var/include/messages.h **** static inline void pprz_msg_send_TMP_STATUS(struct transport_tx *trans, struct link_device *dev, ui
1688:/home/dino/paparazzi/var/include/messages.h **** 	if (trans->check_available_space(trans->impl, dev, trans->size_of(trans->impl, 0+2+4 +2 /* msg hea
1689:/home/dino/paparazzi/var/include/messages.h **** 	  trans->count_bytes(trans->impl, dev, trans->size_of(trans->impl, 0+2+4 +2 /* msg header overhead
1690:/home/dino/paparazzi/var/include/messages.h **** 	  trans->start_message(trans->impl, dev, 0+2+4 +2 /* msg header overhead */);
1691:/home/dino/paparazzi/var/include/messages.h **** 	  trans->put_bytes(trans->impl, dev, DL_TYPE_UINT8, DL_FORMAT_SCALAR, 1, &ac_id);
1692:/home/dino/paparazzi/var/include/messages.h **** 	  trans->put_named_byte(trans->impl, dev, DL_TYPE_UINT8, DL_FORMAT_SCALAR, DL_TMP_STATUS, "TMP_STA
1693:/home/dino/paparazzi/var/include/messages.h **** 	  trans->put_bytes(trans->impl, dev, DL_TYPE_UINT16, DL_FORMAT_SCALAR, 2, (void *) _itemp);
1694:/home/dino/paparazzi/var/include/messages.h **** 	  trans->put_bytes(trans->impl, dev, DL_TYPE_FLOAT, DL_FORMAT_SCALAR, 4, (void *) _temp);
1695:/home/dino/paparazzi/var/include/messages.h **** 	  trans->end_message(trans->impl, dev);
1696:/home/dino/paparazzi/var/include/messages.h **** 	} else
1697:/home/dino/paparazzi/var/include/messages.h **** 	  trans->overrun(trans->impl, dev);
1698:/home/dino/paparazzi/var/include/messages.h **** }
1699:/home/dino/paparazzi/var/include/messages.h **** 
1700:/home/dino/paparazzi/var/include/messages.h **** #define DOWNLINK_SEND_WIND_INFO_RET(_trans, _dev, east, north, airspeed) pprz_msg_send_WIND_INFO_RE
1701:/home/dino/paparazzi/var/include/messages.h **** static inline void pprz_msg_send_WIND_INFO_RET(struct transport_tx *trans, struct link_device *dev,
1702:/home/dino/paparazzi/var/include/messages.h **** 	if (trans->check_available_space(trans->impl, dev, trans->size_of(trans->impl, 0+4+4+4 +2 /* msg h
1703:/home/dino/paparazzi/var/include/messages.h **** 	  trans->count_bytes(trans->impl, dev, trans->size_of(trans->impl, 0+4+4+4 +2 /* msg header overhe
1704:/home/dino/paparazzi/var/include/messages.h **** 	  trans->start_message(trans->impl, dev, 0+4+4+4 +2 /* msg header overhead */);
1705:/home/dino/paparazzi/var/include/messages.h **** 	  trans->put_bytes(trans->impl, dev, DL_TYPE_UINT8, DL_FORMAT_SCALAR, 1, &ac_id);
1706:/home/dino/paparazzi/var/include/messages.h **** 	  trans->put_named_byte(trans->impl, dev, DL_TYPE_UINT8, DL_FORMAT_SCALAR, DL_WIND_INFO_RET, "WIND
1707:/home/dino/paparazzi/var/include/messages.h **** 	  trans->put_bytes(trans->impl, dev, DL_TYPE_FLOAT, DL_FORMAT_SCALAR, 4, (void *) _east);
1708:/home/dino/paparazzi/var/include/messages.h **** 	  trans->put_bytes(trans->impl, dev, DL_TYPE_FLOAT, DL_FORMAT_SCALAR, 4, (void *) _north);
1709:/home/dino/paparazzi/var/include/messages.h **** 	  trans->put_bytes(trans->impl, dev, DL_TYPE_FLOAT, DL_FORMAT_SCALAR, 4, (void *) _airspeed);
1710:/home/dino/paparazzi/var/include/messages.h **** 	  trans->end_message(trans->impl, dev);
1711:/home/dino/paparazzi/var/include/messages.h **** 	} else
1712:/home/dino/paparazzi/var/include/messages.h **** 	  trans->overrun(trans->impl, dev);
1713:/home/dino/paparazzi/var/include/messages.h **** }
1714:/home/dino/paparazzi/var/include/messages.h **** 
1715:/home/dino/paparazzi/var/include/messages.h **** #define DOWNLINK_SEND_SCP_STATUS(_trans, _dev, press, temp) pprz_msg_send_SCP_STATUS(&((_trans).tra
1716:/home/dino/paparazzi/var/include/messages.h **** static inline void pprz_msg_send_SCP_STATUS(struct transport_tx *trans, struct link_device *dev, ui
1717:/home/dino/paparazzi/var/include/messages.h **** 	if (trans->check_available_space(trans->impl, dev, trans->size_of(trans->impl, 0+4+2 +2 /* msg hea
1718:/home/dino/paparazzi/var/include/messages.h **** 	  trans->count_bytes(trans->impl, dev, trans->size_of(trans->impl, 0+4+2 +2 /* msg header overhead
1719:/home/dino/paparazzi/var/include/messages.h **** 	  trans->start_message(trans->impl, dev, 0+4+2 +2 /* msg header overhead */);
1720:/home/dino/paparazzi/var/include/messages.h **** 	  trans->put_bytes(trans->impl, dev, DL_TYPE_UINT8, DL_FORMAT_SCALAR, 1, &ac_id);
1721:/home/dino/paparazzi/var/include/messages.h **** 	  trans->put_named_byte(trans->impl, dev, DL_TYPE_UINT8, DL_FORMAT_SCALAR, DL_SCP_STATUS, "SCP_STA
1722:/home/dino/paparazzi/var/include/messages.h **** 	  trans->put_bytes(trans->impl, dev, DL_TYPE_UINT32, DL_FORMAT_SCALAR, 4, (void *) _press);
1723:/home/dino/paparazzi/var/include/messages.h **** 	  trans->put_bytes(trans->impl, dev, DL_TYPE_INT16, DL_FORMAT_SCALAR, 2, (void *) _temp);
1724:/home/dino/paparazzi/var/include/messages.h **** 	  trans->end_message(trans->impl, dev);
1725:/home/dino/paparazzi/var/include/messages.h **** 	} else
1726:/home/dino/paparazzi/var/include/messages.h **** 	  trans->overrun(trans->impl, dev);
1727:/home/dino/paparazzi/var/include/messages.h **** }
1728:/home/dino/paparazzi/var/include/messages.h **** 
1729:/home/dino/paparazzi/var/include/messages.h **** #define DOWNLINK_SEND_SHT_STATUS(_trans, _dev, ihumid, itemp, humid, temp) pprz_msg_send_SHT_STATUS
1730:/home/dino/paparazzi/var/include/messages.h **** static inline void pprz_msg_send_SHT_STATUS(struct transport_tx *trans, struct link_device *dev, ui
1731:/home/dino/paparazzi/var/include/messages.h **** 	if (trans->check_available_space(trans->impl, dev, trans->size_of(trans->impl, 0+2+2+4+4 +2 /* msg
1732:/home/dino/paparazzi/var/include/messages.h **** 	  trans->count_bytes(trans->impl, dev, trans->size_of(trans->impl, 0+2+2+4+4 +2 /* msg header over
1733:/home/dino/paparazzi/var/include/messages.h **** 	  trans->start_message(trans->impl, dev, 0+2+2+4+4 +2 /* msg header overhead */);
1734:/home/dino/paparazzi/var/include/messages.h **** 	  trans->put_bytes(trans->impl, dev, DL_TYPE_UINT8, DL_FORMAT_SCALAR, 1, &ac_id);
1735:/home/dino/paparazzi/var/include/messages.h **** 	  trans->put_named_byte(trans->impl, dev, DL_TYPE_UINT8, DL_FORMAT_SCALAR, DL_SHT_STATUS, "SHT_STA
1736:/home/dino/paparazzi/var/include/messages.h **** 	  trans->put_bytes(trans->impl, dev, DL_TYPE_UINT16, DL_FORMAT_SCALAR, 2, (void *) _ihumid);
1737:/home/dino/paparazzi/var/include/messages.h **** 	  trans->put_bytes(trans->impl, dev, DL_TYPE_UINT16, DL_FORMAT_SCALAR, 2, (void *) _itemp);
1738:/home/dino/paparazzi/var/include/messages.h **** 	  trans->put_bytes(trans->impl, dev, DL_TYPE_FLOAT, DL_FORMAT_SCALAR, 4, (void *) _humid);
1739:/home/dino/paparazzi/var/include/messages.h **** 	  trans->put_bytes(trans->impl, dev, DL_TYPE_FLOAT, DL_FORMAT_SCALAR, 4, (void *) _temp);
1740:/home/dino/paparazzi/var/include/messages.h **** 	  trans->end_message(trans->impl, dev);
1741:/home/dino/paparazzi/var/include/messages.h **** 	} else
1742:/home/dino/paparazzi/var/include/messages.h **** 	  trans->overrun(trans->impl, dev);
1743:/home/dino/paparazzi/var/include/messages.h **** }
1744:/home/dino/paparazzi/var/include/messages.h **** 
1745:/home/dino/paparazzi/var/include/messages.h **** #define DOWNLINK_SEND_ENOSE_STATUS(_trans, _dev, val1, val2, val3, PID, nb_heat, heat) pprz_msg_sen
1746:/home/dino/paparazzi/var/include/messages.h **** static inline void pprz_msg_send_ENOSE_STATUS(struct transport_tx *trans, struct link_device *dev, 
1747:/home/dino/paparazzi/var/include/messages.h **** 	if (trans->check_available_space(trans->impl, dev, trans->size_of(trans->impl, 0+2+2+2+2+1+nb_heat
1748:/home/dino/paparazzi/var/include/messages.h **** 	  trans->count_bytes(trans->impl, dev, trans->size_of(trans->impl, 0+2+2+2+2+1+nb_heat*1 +2 /* msg
1749:/home/dino/paparazzi/var/include/messages.h **** 	  trans->start_message(trans->impl, dev, 0+2+2+2+2+1+nb_heat*1 +2 /* msg header overhead */);
1750:/home/dino/paparazzi/var/include/messages.h **** 	  trans->put_bytes(trans->impl, dev, DL_TYPE_UINT8, DL_FORMAT_SCALAR, 1, &ac_id);
1751:/home/dino/paparazzi/var/include/messages.h **** 	  trans->put_named_byte(trans->impl, dev, DL_TYPE_UINT8, DL_FORMAT_SCALAR, DL_ENOSE_STATUS, "ENOSE
1752:/home/dino/paparazzi/var/include/messages.h **** 	  trans->put_bytes(trans->impl, dev, DL_TYPE_UINT16, DL_FORMAT_SCALAR, 2, (void *) _val1);
1753:/home/dino/paparazzi/var/include/messages.h **** 	  trans->put_bytes(trans->impl, dev, DL_TYPE_UINT16, DL_FORMAT_SCALAR, 2, (void *) _val2);
1754:/home/dino/paparazzi/var/include/messages.h **** 	  trans->put_bytes(trans->impl, dev, DL_TYPE_UINT16, DL_FORMAT_SCALAR, 2, (void *) _val3);
1755:/home/dino/paparazzi/var/include/messages.h **** 	  trans->put_bytes(trans->impl, dev, DL_TYPE_UINT16, DL_FORMAT_SCALAR, 2, (void *) _PID);
1756:/home/dino/paparazzi/var/include/messages.h **** 	  trans->put_bytes(trans->impl, dev, DL_TYPE_ARRAY_LENGTH, DL_FORMAT_SCALAR, 1, (void *) &nb_heat)
1757:/home/dino/paparazzi/var/include/messages.h **** 	  trans->put_bytes(trans->impl, dev, DL_TYPE_UINT8, DL_FORMAT_ARRAY, 1 * nb_heat, (void *) _heat);
1758:/home/dino/paparazzi/var/include/messages.h **** 	  trans->end_message(trans->impl, dev);
1759:/home/dino/paparazzi/var/include/messages.h **** 	} else
1760:/home/dino/paparazzi/var/include/messages.h **** 	  trans->overrun(trans->impl, dev);
1761:/home/dino/paparazzi/var/include/messages.h **** }
1762:/home/dino/paparazzi/var/include/messages.h **** 
1763:/home/dino/paparazzi/var/include/messages.h **** #define DOWNLINK_SEND_DPICCO_STATUS(_trans, _dev, humid, temp, fhumid, ftemp) pprz_msg_send_DPICCO_
1764:/home/dino/paparazzi/var/include/messages.h **** static inline void pprz_msg_send_DPICCO_STATUS(struct transport_tx *trans, struct link_device *dev,
1765:/home/dino/paparazzi/var/include/messages.h **** 	if (trans->check_available_space(trans->impl, dev, trans->size_of(trans->impl, 0+2+2+4+4 +2 /* msg
1766:/home/dino/paparazzi/var/include/messages.h **** 	  trans->count_bytes(trans->impl, dev, trans->size_of(trans->impl, 0+2+2+4+4 +2 /* msg header over
1767:/home/dino/paparazzi/var/include/messages.h **** 	  trans->start_message(trans->impl, dev, 0+2+2+4+4 +2 /* msg header overhead */);
1768:/home/dino/paparazzi/var/include/messages.h **** 	  trans->put_bytes(trans->impl, dev, DL_TYPE_UINT8, DL_FORMAT_SCALAR, 1, &ac_id);
1769:/home/dino/paparazzi/var/include/messages.h **** 	  trans->put_named_byte(trans->impl, dev, DL_TYPE_UINT8, DL_FORMAT_SCALAR, DL_DPICCO_STATUS, "DPIC
1770:/home/dino/paparazzi/var/include/messages.h **** 	  trans->put_bytes(trans->impl, dev, DL_TYPE_UINT16, DL_FORMAT_SCALAR, 2, (void *) _humid);
1771:/home/dino/paparazzi/var/include/messages.h **** 	  trans->put_bytes(trans->impl, dev, DL_TYPE_UINT16, DL_FORMAT_SCALAR, 2, (void *) _temp);
1772:/home/dino/paparazzi/var/include/messages.h **** 	  trans->put_bytes(trans->impl, dev, DL_TYPE_FLOAT, DL_FORMAT_SCALAR, 4, (void *) _fhumid);
1773:/home/dino/paparazzi/var/include/messages.h **** 	  trans->put_bytes(trans->impl, dev, DL_TYPE_FLOAT, DL_FORMAT_SCALAR, 4, (void *) _ftemp);
1774:/home/dino/paparazzi/var/include/messages.h **** 	  trans->end_message(trans->impl, dev);
1775:/home/dino/paparazzi/var/include/messages.h **** 	} else
1776:/home/dino/paparazzi/var/include/messages.h **** 	  trans->overrun(trans->impl, dev);
1777:/home/dino/paparazzi/var/include/messages.h **** }
1778:/home/dino/paparazzi/var/include/messages.h **** 
1779:/home/dino/paparazzi/var/include/messages.h **** #define DOWNLINK_SEND_ANTENNA_DEBUG(_trans, _dev, mag_xraw, mag_yraw, mag_xcal, mag_ycal, mag_headi
1780:/home/dino/paparazzi/var/include/messages.h **** static inline void pprz_msg_send_ANTENNA_DEBUG(struct transport_tx *trans, struct link_device *dev,
1781:/home/dino/paparazzi/var/include/messages.h **** 	if (trans->check_available_space(trans->impl, dev, trans->size_of(trans->impl, 0+4+4+4+4+4+4+4+1+1
1782:/home/dino/paparazzi/var/include/messages.h **** 	  trans->count_bytes(trans->impl, dev, trans->size_of(trans->impl, 0+4+4+4+4+4+4+4+1+1 +2 /* msg h
1783:/home/dino/paparazzi/var/include/messages.h **** 	  trans->start_message(trans->impl, dev, 0+4+4+4+4+4+4+4+1+1 +2 /* msg header overhead */);
1784:/home/dino/paparazzi/var/include/messages.h **** 	  trans->put_bytes(trans->impl, dev, DL_TYPE_UINT8, DL_FORMAT_SCALAR, 1, &ac_id);
1785:/home/dino/paparazzi/var/include/messages.h **** 	  trans->put_named_byte(trans->impl, dev, DL_TYPE_UINT8, DL_FORMAT_SCALAR, DL_ANTENNA_DEBUG, "ANTE
1786:/home/dino/paparazzi/var/include/messages.h **** 	  trans->put_bytes(trans->impl, dev, DL_TYPE_INT32, DL_FORMAT_SCALAR, 4, (void *) _mag_xraw);
1787:/home/dino/paparazzi/var/include/messages.h **** 	  trans->put_bytes(trans->impl, dev, DL_TYPE_INT32, DL_FORMAT_SCALAR, 4, (void *) _mag_yraw);
1788:/home/dino/paparazzi/var/include/messages.h **** 	  trans->put_bytes(trans->impl, dev, DL_TYPE_FLOAT, DL_FORMAT_SCALAR, 4, (void *) _mag_xcal);
1789:/home/dino/paparazzi/var/include/messages.h **** 	  trans->put_bytes(trans->impl, dev, DL_TYPE_FLOAT, DL_FORMAT_SCALAR, 4, (void *) _mag_ycal);
1790:/home/dino/paparazzi/var/include/messages.h **** 	  trans->put_bytes(trans->impl, dev, DL_TYPE_FLOAT, DL_FORMAT_SCALAR, 4, (void *) _mag_heading);
1791:/home/dino/paparazzi/var/include/messages.h **** 	  trans->put_bytes(trans->impl, dev, DL_TYPE_FLOAT, DL_FORMAT_SCALAR, 4, (void *) _mag_magnitude);
1792:/home/dino/paparazzi/var/include/messages.h **** 	  trans->put_bytes(trans->impl, dev, DL_TYPE_FLOAT, DL_FORMAT_SCALAR, 4, (void *) _mag_temp);
1793:/home/dino/paparazzi/var/include/messages.h **** 	  trans->put_bytes(trans->impl, dev, DL_TYPE_UINT8, DL_FORMAT_SCALAR, 1, (void *) _mag_distor);
1794:/home/dino/paparazzi/var/include/messages.h **** 	  trans->put_bytes(trans->impl, dev, DL_TYPE_UINT8, DL_FORMAT_SCALAR, 1, (void *) _mag_cal_status)
1795:/home/dino/paparazzi/var/include/messages.h **** 	  trans->end_message(trans->impl, dev);
1796:/home/dino/paparazzi/var/include/messages.h **** 	} else
1797:/home/dino/paparazzi/var/include/messages.h **** 	  trans->overrun(trans->impl, dev);
1798:/home/dino/paparazzi/var/include/messages.h **** }
1799:/home/dino/paparazzi/var/include/messages.h **** 
1800:/home/dino/paparazzi/var/include/messages.h **** #define DOWNLINK_SEND_ANTENNA_STATUS(_trans, _dev, azim_sp, elev_sp, id_sp, mode) pprz_msg_send_ANT
1801:/home/dino/paparazzi/var/include/messages.h **** static inline void pprz_msg_send_ANTENNA_STATUS(struct transport_tx *trans, struct link_device *dev
1802:/home/dino/paparazzi/var/include/messages.h **** 	if (trans->check_available_space(trans->impl, dev, trans->size_of(trans->impl, 0+4+4+1+1 +2 /* msg
1803:/home/dino/paparazzi/var/include/messages.h **** 	  trans->count_bytes(trans->impl, dev, trans->size_of(trans->impl, 0+4+4+1+1 +2 /* msg header over
1804:/home/dino/paparazzi/var/include/messages.h **** 	  trans->start_message(trans->impl, dev, 0+4+4+1+1 +2 /* msg header overhead */);
1805:/home/dino/paparazzi/var/include/messages.h **** 	  trans->put_bytes(trans->impl, dev, DL_TYPE_UINT8, DL_FORMAT_SCALAR, 1, &ac_id);
1806:/home/dino/paparazzi/var/include/messages.h **** 	  trans->put_named_byte(trans->impl, dev, DL_TYPE_UINT8, DL_FORMAT_SCALAR, DL_ANTENNA_STATUS, "ANT
1807:/home/dino/paparazzi/var/include/messages.h **** 	  trans->put_bytes(trans->impl, dev, DL_TYPE_FLOAT, DL_FORMAT_SCALAR, 4, (void *) _azim_sp);
1808:/home/dino/paparazzi/var/include/messages.h **** 	  trans->put_bytes(trans->impl, dev, DL_TYPE_FLOAT, DL_FORMAT_SCALAR, 4, (void *) _elev_sp);
1809:/home/dino/paparazzi/var/include/messages.h **** 	  trans->put_bytes(trans->impl, dev, DL_TYPE_UINT8, DL_FORMAT_SCALAR, 1, (void *) _id_sp);
1810:/home/dino/paparazzi/var/include/messages.h **** 	  trans->put_bytes(trans->impl, dev, DL_TYPE_UINT8, DL_FORMAT_SCALAR, 1, (void *) _mode);
1811:/home/dino/paparazzi/var/include/messages.h **** 	  trans->end_message(trans->impl, dev);
1812:/home/dino/paparazzi/var/include/messages.h **** 	} else
1813:/home/dino/paparazzi/var/include/messages.h **** 	  trans->overrun(trans->impl, dev);
1814:/home/dino/paparazzi/var/include/messages.h **** }
1815:/home/dino/paparazzi/var/include/messages.h **** 
1816:/home/dino/paparazzi/var/include/messages.h **** #define DOWNLINK_SEND_MOTOR_BENCH_STATUS(_trans, _dev, time_ticks, throttle, rpm, current, thrust, 
1817:/home/dino/paparazzi/var/include/messages.h **** static inline void pprz_msg_send_MOTOR_BENCH_STATUS(struct transport_tx *trans, struct link_device 
1818:/home/dino/paparazzi/var/include/messages.h **** 	if (trans->check_available_space(trans->impl, dev, trans->size_of(trans->impl, 0+4+4+4+4+4+4+2+1 +
1819:/home/dino/paparazzi/var/include/messages.h **** 	  trans->count_bytes(trans->impl, dev, trans->size_of(trans->impl, 0+4+4+4+4+4+4+2+1 +2 /* msg hea
1820:/home/dino/paparazzi/var/include/messages.h **** 	  trans->start_message(trans->impl, dev, 0+4+4+4+4+4+4+2+1 +2 /* msg header overhead */);
1821:/home/dino/paparazzi/var/include/messages.h **** 	  trans->put_bytes(trans->impl, dev, DL_TYPE_UINT8, DL_FORMAT_SCALAR, 1, &ac_id);
1822:/home/dino/paparazzi/var/include/messages.h **** 	  trans->put_named_byte(trans->impl, dev, DL_TYPE_UINT8, DL_FORMAT_SCALAR, DL_MOTOR_BENCH_STATUS, 
1823:/home/dino/paparazzi/var/include/messages.h **** 	  trans->put_bytes(trans->impl, dev, DL_TYPE_UINT32, DL_FORMAT_SCALAR, 4, (void *) _time_ticks);
1824:/home/dino/paparazzi/var/include/messages.h **** 	  trans->put_bytes(trans->impl, dev, DL_TYPE_FLOAT, DL_FORMAT_SCALAR, 4, (void *) _throttle);
1825:/home/dino/paparazzi/var/include/messages.h **** 	  trans->put_bytes(trans->impl, dev, DL_TYPE_FLOAT, DL_FORMAT_SCALAR, 4, (void *) _rpm);
1826:/home/dino/paparazzi/var/include/messages.h **** 	  trans->put_bytes(trans->impl, dev, DL_TYPE_FLOAT, DL_FORMAT_SCALAR, 4, (void *) _current);
1827:/home/dino/paparazzi/var/include/messages.h **** 	  trans->put_bytes(trans->impl, dev, DL_TYPE_FLOAT, DL_FORMAT_SCALAR, 4, (void *) _thrust);
1828:/home/dino/paparazzi/var/include/messages.h **** 	  trans->put_bytes(trans->impl, dev, DL_TYPE_FLOAT, DL_FORMAT_SCALAR, 4, (void *) _torque);
1829:/home/dino/paparazzi/var/include/messages.h **** 	  trans->put_bytes(trans->impl, dev, DL_TYPE_UINT16, DL_FORMAT_SCALAR, 2, (void *) _time_s);
1830:/home/dino/paparazzi/var/include/messages.h **** 	  trans->put_bytes(trans->impl, dev, DL_TYPE_UINT8, DL_FORMAT_SCALAR, 1, (void *) _mode);
1831:/home/dino/paparazzi/var/include/messages.h **** 	  trans->end_message(trans->impl, dev);
1832:/home/dino/paparazzi/var/include/messages.h **** 	} else
1833:/home/dino/paparazzi/var/include/messages.h **** 	  trans->overrun(trans->impl, dev);
1834:/home/dino/paparazzi/var/include/messages.h **** }
1835:/home/dino/paparazzi/var/include/messages.h **** 
1836:/home/dino/paparazzi/var/include/messages.h **** #define DOWNLINK_SEND_MOTOR_BENCH_STATIC(_trans, _dev, av_rpm, av_thrust, av_current, throttle) ppr
1837:/home/dino/paparazzi/var/include/messages.h **** static inline void pprz_msg_send_MOTOR_BENCH_STATIC(struct transport_tx *trans, struct link_device 
1838:/home/dino/paparazzi/var/include/messages.h **** 	if (trans->check_available_space(trans->impl, dev, trans->size_of(trans->impl, 0+4+4+4+2 +2 /* msg
1839:/home/dino/paparazzi/var/include/messages.h **** 	  trans->count_bytes(trans->impl, dev, trans->size_of(trans->impl, 0+4+4+4+2 +2 /* msg header over
1840:/home/dino/paparazzi/var/include/messages.h **** 	  trans->start_message(trans->impl, dev, 0+4+4+4+2 +2 /* msg header overhead */);
1841:/home/dino/paparazzi/var/include/messages.h **** 	  trans->put_bytes(trans->impl, dev, DL_TYPE_UINT8, DL_FORMAT_SCALAR, 1, &ac_id);
1842:/home/dino/paparazzi/var/include/messages.h **** 	  trans->put_named_byte(trans->impl, dev, DL_TYPE_UINT8, DL_FORMAT_SCALAR, DL_MOTOR_BENCH_STATIC, 
1843:/home/dino/paparazzi/var/include/messages.h **** 	  trans->put_bytes(trans->impl, dev, DL_TYPE_FLOAT, DL_FORMAT_SCALAR, 4, (void *) _av_rpm);
1844:/home/dino/paparazzi/var/include/messages.h **** 	  trans->put_bytes(trans->impl, dev, DL_TYPE_FLOAT, DL_FORMAT_SCALAR, 4, (void *) _av_thrust);
1845:/home/dino/paparazzi/var/include/messages.h **** 	  trans->put_bytes(trans->impl, dev, DL_TYPE_FLOAT, DL_FORMAT_SCALAR, 4, (void *) _av_current);
1846:/home/dino/paparazzi/var/include/messages.h **** 	  trans->put_bytes(trans->impl, dev, DL_TYPE_UINT16, DL_FORMAT_SCALAR, 2, (void *) _throttle);
1847:/home/dino/paparazzi/var/include/messages.h **** 	  trans->end_message(trans->impl, dev);
1848:/home/dino/paparazzi/var/include/messages.h **** 	} else
