   1              		.syntax unified
   2              		.cpu cortex-m4
   3              		.eabi_attribute 27, 1
   4              		.fpu fpv4-sp-d16
   5              		.eabi_attribute 20, 1
   6              		.eabi_attribute 21, 1
   7              		.eabi_attribute 23, 3
   8              		.eabi_attribute 24, 1
   9              		.eabi_attribute 25, 1
  10              		.eabi_attribute 26, 1
  11              		.eabi_attribute 30, 4
  12              		.eabi_attribute 34, 1
  13              		.eabi_attribute 18, 4
  14              		.thumb
  15              		.file	"mpu60x0_i2c.c"
  16              		.text
  17              	.Ltext0:
  18              		.cfi_sections	.debug_frame
  19              		.section	.text.mpu60x0_i2c_write_to_reg,"ax",%progbits
  20              		.align	1
  21              		.thumb
  22              		.thumb_func
  24              	mpu60x0_i2c_write_to_reg:
  25              	.LFB11:
  26              		.file 1 "peripherals/mpu60x0_i2c.c"
   1:peripherals/mpu60x0_i2c.c **** /*
   2:peripherals/mpu60x0_i2c.c ****  * Copyright (C) 2013 Gautier Hattenberger
   3:peripherals/mpu60x0_i2c.c ****  *
   4:peripherals/mpu60x0_i2c.c ****  * This file is part of paparazzi.
   5:peripherals/mpu60x0_i2c.c ****  *
   6:peripherals/mpu60x0_i2c.c ****  * paparazzi is free software; you can redistribute it and/or modify
   7:peripherals/mpu60x0_i2c.c ****  * it under the terms of the GNU General Public License as published by
   8:peripherals/mpu60x0_i2c.c ****  * the Free Software Foundation; either version 2, or (at your option)
   9:peripherals/mpu60x0_i2c.c ****  * any later version.
  10:peripherals/mpu60x0_i2c.c ****  *
  11:peripherals/mpu60x0_i2c.c ****  * paparazzi is distributed in the hope that it will be useful,
  12:peripherals/mpu60x0_i2c.c ****  * but WITHOUT ANY WARRANTY; without even the implied warranty of
  13:peripherals/mpu60x0_i2c.c ****  * MERCHANTABILITY or FITNESS FOR A PARTICULAR PURPOSE.  See the
  14:peripherals/mpu60x0_i2c.c ****  * GNU General Public License for more details.
  15:peripherals/mpu60x0_i2c.c ****  *
  16:peripherals/mpu60x0_i2c.c ****  * You should have received a copy of the GNU General Public License
  17:peripherals/mpu60x0_i2c.c ****  * along with paparazzi; see the file COPYING.  If not, write to
  18:peripherals/mpu60x0_i2c.c ****  * the Free Software Foundation, 59 Temple Place - Suite 330,
  19:peripherals/mpu60x0_i2c.c ****  * Boston, MA 02111-1307, USA.
  20:peripherals/mpu60x0_i2c.c ****  */
  21:peripherals/mpu60x0_i2c.c **** 
  22:peripherals/mpu60x0_i2c.c **** /**
  23:peripherals/mpu60x0_i2c.c ****  * @file peripherals/mpu60x0_i2c.c
  24:peripherals/mpu60x0_i2c.c ****  *
  25:peripherals/mpu60x0_i2c.c ****  * Driver for the MPU-60X0 using I2C.
  26:peripherals/mpu60x0_i2c.c ****  *
  27:peripherals/mpu60x0_i2c.c ****  */
  28:peripherals/mpu60x0_i2c.c **** 
  29:peripherals/mpu60x0_i2c.c **** #include "peripherals/mpu60x0_i2c.h"
  30:peripherals/mpu60x0_i2c.c **** 
  31:peripherals/mpu60x0_i2c.c **** void mpu60x0_i2c_init(struct Mpu60x0_I2c *mpu, struct i2c_periph *i2c_p, uint8_t addr)
  32:peripherals/mpu60x0_i2c.c **** {
  33:peripherals/mpu60x0_i2c.c ****   /* set i2c_peripheral */
  34:peripherals/mpu60x0_i2c.c ****   mpu->i2c_p = i2c_p;
  35:peripherals/mpu60x0_i2c.c **** 
  36:peripherals/mpu60x0_i2c.c ****   /* slave address */
  37:peripherals/mpu60x0_i2c.c ****   mpu->i2c_trans.slave_addr = addr;
  38:peripherals/mpu60x0_i2c.c ****   /* set inital status: Success or Done */
  39:peripherals/mpu60x0_i2c.c ****   mpu->i2c_trans.status = I2CTransDone;
  40:peripherals/mpu60x0_i2c.c **** 
  41:peripherals/mpu60x0_i2c.c ****   /* set default MPU60X0 config options */
  42:peripherals/mpu60x0_i2c.c ****   mpu60x0_set_default_config(&(mpu->config));
  43:peripherals/mpu60x0_i2c.c **** 
  44:peripherals/mpu60x0_i2c.c ****   mpu->data_available = FALSE;
  45:peripherals/mpu60x0_i2c.c ****   mpu->config.initialized = FALSE;
  46:peripherals/mpu60x0_i2c.c ****   mpu->config.init_status = MPU60X0_CONF_UNINIT;
  47:peripherals/mpu60x0_i2c.c **** 
  48:peripherals/mpu60x0_i2c.c ****   mpu->slave_init_status = MPU60X0_I2C_CONF_UNINIT;
  49:peripherals/mpu60x0_i2c.c **** }
  50:peripherals/mpu60x0_i2c.c **** 
  51:peripherals/mpu60x0_i2c.c **** 
  52:peripherals/mpu60x0_i2c.c **** static void mpu60x0_i2c_write_to_reg(void *mpu, uint8_t _reg, uint8_t _val)
  53:peripherals/mpu60x0_i2c.c **** {
  27              		.loc 1 53 0
  28              		.cfi_startproc
  29              		@ args = 0, pretend = 0, frame = 0
  30              		@ frame_needed = 0, uses_anonymous_args = 0
  31              		@ link register save eliminated.
  32              	.LVL0:
  33              		.loc 1 53 0
  34 0000 0346     		mov	r3, r0
  54:peripherals/mpu60x0_i2c.c ****   struct Mpu60x0_I2c *mpu_i2c = (struct Mpu60x0_I2c *)(mpu);
  55:peripherals/mpu60x0_i2c.c ****   mpu_i2c->i2c_trans.buf[0] = _reg;
  35              		.loc 1 55 0
  36 0002 4172     		strb	r1, [r0, #9]
  56:peripherals/mpu60x0_i2c.c ****   mpu_i2c->i2c_trans.buf[1] = _val;
  37              		.loc 1 56 0
  38 0004 8272     		strb	r2, [r0, #10]
  57:peripherals/mpu60x0_i2c.c ****   i2c_transmit(mpu_i2c->i2c_p, &(mpu_i2c->i2c_trans), mpu_i2c->i2c_trans.slave_addr, 2);
  39              		.loc 1 57 0
  40 0006 191D     		adds	r1, r3, #4
  41              	.LVL1:
  42 0008 5A79     		ldrb	r2, [r3, #5]	@ zero_extendqisi2
  43              	.LVL2:
  44 000a 0068     		ldr	r0, [r0]
  45              	.LVL3:
  46 000c 0223     		movs	r3, #2
  47              	.LVL4:
  48 000e FFF7FEBF 		b	i2c_transmit
  49              	.LVL5:
  50              		.cfi_endproc
  51              	.LFE11:
  53              		.section	.text.mpu60x0_i2c_init,"ax",%progbits
  54              		.align	1
  55              		.global	mpu60x0_i2c_init
  56              		.thumb
  57              		.thumb_func
  59              	mpu60x0_i2c_init:
  60              	.LFB10:
  32:peripherals/mpu60x0_i2c.c ****   /* set i2c_peripheral */
  61              		.loc 1 32 0
  62              		.cfi_startproc
  63              		@ args = 0, pretend = 0, frame = 0
  64              		@ frame_needed = 0, uses_anonymous_args = 0
  65              	.LVL6:
  66 0000 10B5     		push	{r4, lr}
  67              		.cfi_def_cfa_offset 8
  68              		.cfi_offset 4, -8
  69              		.cfi_offset 14, -4
  39:peripherals/mpu60x0_i2c.c **** 
  70              		.loc 1 39 0
  71 0002 0423     		movs	r3, #4
  32:peripherals/mpu60x0_i2c.c ****   /* set i2c_peripheral */
  72              		.loc 1 32 0
  73 0004 0446     		mov	r4, r0
  39:peripherals/mpu60x0_i2c.c **** 
  74              		.loc 1 39 0
  75 0006 80F82930 		strb	r3, [r0, #41]
  34:peripherals/mpu60x0_i2c.c **** 
  76              		.loc 1 34 0
  77 000a 0160     		str	r1, [r0]
  37:peripherals/mpu60x0_i2c.c ****   /* set inital status: Success or Done */
  78              		.loc 1 37 0
  79 000c 4271     		strb	r2, [r0, #5]
  42:peripherals/mpu60x0_i2c.c **** 
  80              		.loc 1 42 0
  81 000e 4C30     		adds	r0, r0, #76
  82              	.LVL7:
  83 0010 FFF7FEFF 		bl	mpu60x0_set_default_config
  84              	.LVL8:
  44:peripherals/mpu60x0_i2c.c ****   mpu->config.initialized = FALSE;
  85              		.loc 1 44 0
  86 0014 0023     		movs	r3, #0
  87 0016 84F82A30 		strb	r3, [r4, #42]
  45:peripherals/mpu60x0_i2c.c ****   mpu->config.init_status = MPU60X0_CONF_UNINIT;
  88              		.loc 1 45 0
  89 001a 84F85430 		strb	r3, [r4, #84]
  46:peripherals/mpu60x0_i2c.c **** 
  90              		.loc 1 46 0
  91 001e 84F85330 		strb	r3, [r4, #83]
  48:peripherals/mpu60x0_i2c.c **** }
  92              		.loc 1 48 0
  93 0022 84F87030 		strb	r3, [r4, #112]
  94 0026 10BD     		pop	{r4, pc}
  95              		.cfi_endproc
  96              	.LFE10:
  98              		.section	.text.mpu60x0_i2c_start_configure,"ax",%progbits
  99              		.align	1
 100              		.global	mpu60x0_i2c_start_configure
 101              		.thumb
 102              		.thumb_func
 104              	mpu60x0_i2c_start_configure:
 105              	.LFB12:
  58:peripherals/mpu60x0_i2c.c **** }
  59:peripherals/mpu60x0_i2c.c **** 
  60:peripherals/mpu60x0_i2c.c **** // Configuration function called once before normal use
  61:peripherals/mpu60x0_i2c.c **** void mpu60x0_i2c_start_configure(struct Mpu60x0_I2c *mpu)
  62:peripherals/mpu60x0_i2c.c **** {
 106              		.loc 1 62 0
 107              		.cfi_startproc
 108              		@ args = 0, pretend = 0, frame = 0
 109              		@ frame_needed = 0, uses_anonymous_args = 0
 110              		@ link register save eliminated.
 111              	.LVL9:
  63:peripherals/mpu60x0_i2c.c ****   if (mpu->config.init_status == MPU60X0_CONF_UNINIT) {
 112              		.loc 1 63 0
 113 0000 90F85330 		ldrb	r3, [r0, #83]	@ zero_extendqisi2
  62:peripherals/mpu60x0_i2c.c ****   if (mpu->config.init_status == MPU60X0_CONF_UNINIT) {
 114              		.loc 1 62 0
 115 0004 0146     		mov	r1, r0
 116              		.loc 1 63 0
 117 0006 7BB9     		cbnz	r3, .L3
  64:peripherals/mpu60x0_i2c.c ****     mpu->config.init_status++;
 118              		.loc 1 64 0
 119 0008 0123     		movs	r3, #1
 120 000a 80F85330 		strb	r3, [r0, #83]
  65:peripherals/mpu60x0_i2c.c ****     if (mpu->i2c_trans.status == I2CTransSuccess || mpu->i2c_trans.status == I2CTransDone) {
 121              		.loc 1 65 0
 122 000e 90F82930 		ldrb	r3, [r0, #41]	@ zero_extendqisi2
 123 0012 022B     		cmp	r3, #2
 124 0014 03D0     		beq	.L6
 125              		.loc 1 65 0 is_stmt 0 discriminator 1
 126 0016 90F82930 		ldrb	r3, [r0, #41]	@ zero_extendqisi2
 127 001a 042B     		cmp	r3, #4
 128 001c 04D1     		bne	.L3
 129              	.L6:
  66:peripherals/mpu60x0_i2c.c ****       mpu60x0_send_config(mpu60x0_i2c_write_to_reg, (void *)mpu, &(mpu->config));
 130              		.loc 1 66 0 is_stmt 1
 131 001e 0348     		ldr	r0, .L12
 132              	.LVL10:
 133 0020 01F14C02 		add	r2, r1, #76
 134 0024 FFF7FEBF 		b	mpu60x0_send_config
 135              	.LVL11:
 136              	.L3:
 137 0028 7047     		bx	lr
 138              	.L13:
 139 002a 00BF     		.align	2
 140              	.L12:
 141 002c 00000000 		.word	mpu60x0_i2c_write_to_reg
 142              		.cfi_endproc
 143              	.LFE12:
 145              		.section	.text.mpu60x0_i2c_read,"ax",%progbits
 146              		.align	1
 147              		.global	mpu60x0_i2c_read
 148              		.thumb
 149              		.thumb_func
 151              	mpu60x0_i2c_read:
 152              	.LFB13:
  67:peripherals/mpu60x0_i2c.c ****     }
  68:peripherals/mpu60x0_i2c.c ****   }
  69:peripherals/mpu60x0_i2c.c **** }
  70:peripherals/mpu60x0_i2c.c **** 
  71:peripherals/mpu60x0_i2c.c **** void mpu60x0_i2c_read(struct Mpu60x0_I2c *mpu)
  72:peripherals/mpu60x0_i2c.c **** {
 153              		.loc 1 72 0
 154              		.cfi_startproc
 155              		@ args = 0, pretend = 0, frame = 0
 156              		@ frame_needed = 0, uses_anonymous_args = 0
 157              	.LVL12:
 158 0000 07B5     		push	{r0, r1, r2, lr}
 159              		.cfi_def_cfa_offset 16
 160              		.cfi_offset 14, -4
  73:peripherals/mpu60x0_i2c.c ****   if (mpu->config.initialized && mpu->i2c_trans.status == I2CTransDone) {
 161              		.loc 1 73 0
 162 0002 90F85430 		ldrb	r3, [r0, #84]	@ zero_extendqisi2
  72:peripherals/mpu60x0_i2c.c ****   if (mpu->config.initialized && mpu->i2c_trans.status == I2CTransDone) {
 163              		.loc 1 72 0
 164 0006 0146     		mov	r1, r0
 165              		.loc 1 73 0
 166 0008 73B1     		cbz	r3, .L14
 167              		.loc 1 73 0 is_stmt 0 discriminator 1
 168 000a 90F82930 		ldrb	r3, [r0, #41]	@ zero_extendqisi2
 169 000e 042B     		cmp	r3, #4
 170 0010 0AD1     		bne	.L14
  74:peripherals/mpu60x0_i2c.c ****     /* set read bit and multiple byte bit, then address */
  75:peripherals/mpu60x0_i2c.c ****     mpu->i2c_trans.buf[0] = MPU60X0_REG_INT_STATUS;
 171              		.loc 1 75 0 is_stmt 1
 172 0012 3A23     		movs	r3, #58
 173 0014 4372     		strb	r3, [r0, #9]
  76:peripherals/mpu60x0_i2c.c ****     i2c_transceive(mpu->i2c_p, &(mpu->i2c_trans), mpu->i2c_trans.slave_addr, 1, mpu->config.nb_byte
 174              		.loc 1 76 0
 175 0016 90F85230 		ldrb	r3, [r0, #82]	@ zero_extendqisi2
 176 001a 4279     		ldrb	r2, [r0, #5]	@ zero_extendqisi2
 177 001c 0093     		str	r3, [sp]
 178 001e 0068     		ldr	r0, [r0]
 179              	.LVL13:
 180 0020 0431     		adds	r1, r1, #4
 181              	.LVL14:
 182 0022 0123     		movs	r3, #1
 183 0024 FFF7FEFF 		bl	i2c_transceive
 184              	.LVL15:
 185              	.L14:
  77:peripherals/mpu60x0_i2c.c ****   }
  78:peripherals/mpu60x0_i2c.c **** }
 186              		.loc 1 78 0
 187 0028 03B0     		add	sp, sp, #12
 188              		.cfi_def_cfa_offset 4
 189              		@ sp needed
 190 002a 5DF804FB 		ldr	pc, [sp], #4
 191              		.cfi_endproc
 192              	.LFE13:
 194              		.section	.text.mpu60x0_i2c_event,"ax",%progbits
 195              		.align	1
 196              		.global	mpu60x0_i2c_event
 197              		.thumb
 198              		.thumb_func
 200              	mpu60x0_i2c_event:
 201              	.LFB14:
  79:peripherals/mpu60x0_i2c.c **** 
  80:peripherals/mpu60x0_i2c.c **** #define Int16FromBuf(_buf,_idx) ((int16_t)((_buf[_idx]<<8) | _buf[_idx+1]))
  81:peripherals/mpu60x0_i2c.c **** 
  82:peripherals/mpu60x0_i2c.c **** void mpu60x0_i2c_event(struct Mpu60x0_I2c *mpu)
  83:peripherals/mpu60x0_i2c.c **** {
 202              		.loc 1 83 0
 203              		.cfi_startproc
 204              		@ args = 0, pretend = 0, frame = 0
 205              		@ frame_needed = 0, uses_anonymous_args = 0
 206              	.LVL16:
 207 0000 10B5     		push	{r4, lr}
 208              		.cfi_def_cfa_offset 8
 209              		.cfi_offset 4, -8
 210              		.cfi_offset 14, -4
  84:peripherals/mpu60x0_i2c.c ****   if (mpu->config.initialized) {
 211              		.loc 1 84 0
 212 0002 90F85430 		ldrb	r3, [r0, #84]	@ zero_extendqisi2
  83:peripherals/mpu60x0_i2c.c ****   if (mpu->config.initialized) {
 213              		.loc 1 83 0
 214 0006 0446     		mov	r4, r0
 215              		.loc 1 84 0
 216 0008 002B     		cmp	r3, #0
 217 000a 4DD0     		beq	.L20
  85:peripherals/mpu60x0_i2c.c ****     if (mpu->i2c_trans.status == I2CTransFailed) {
 218              		.loc 1 85 0
 219 000c 90F82930 		ldrb	r3, [r0, #41]	@ zero_extendqisi2
 220 0010 032B     		cmp	r3, #3
 221 0012 62D0     		beq	.L47
  86:peripherals/mpu60x0_i2c.c ****       mpu->i2c_trans.status = I2CTransDone;
  87:peripherals/mpu60x0_i2c.c ****     } else if (mpu->i2c_trans.status == I2CTransSuccess) {
 222              		.loc 1 87 0
 223 0014 90F82930 		ldrb	r3, [r0, #41]	@ zero_extendqisi2
 224 0018 022B     		cmp	r3, #2
 225 001a 61D1     		bne	.L19
  88:peripherals/mpu60x0_i2c.c ****       // Successfull reading
  89:peripherals/mpu60x0_i2c.c ****       if (bit_is_set(mpu->i2c_trans.buf[0], 0)) {
 226              		.loc 1 89 0
 227 001c 437A     		ldrb	r3, [r0, #9]	@ zero_extendqisi2
 228 001e DB07     		lsls	r3, r3, #31
 229 0020 5BD5     		bpl	.L47
 230              	.LBB2:
  90:peripherals/mpu60x0_i2c.c ****         // new data
  91:peripherals/mpu60x0_i2c.c ****         mpu->data_accel.vect.x = Int16FromBuf(mpu->i2c_trans.buf, 1);
 231              		.loc 1 91 0
 232 0022 827A     		ldrb	r2, [r0, #10]	@ zero_extendqisi2
 233 0024 C37A     		ldrb	r3, [r0, #11]	@ zero_extendqisi2
  92:peripherals/mpu60x0_i2c.c ****         mpu->data_accel.vect.y = Int16FromBuf(mpu->i2c_trans.buf, 3);
  93:peripherals/mpu60x0_i2c.c ****         mpu->data_accel.vect.z = Int16FromBuf(mpu->i2c_trans.buf, 5);
  94:peripherals/mpu60x0_i2c.c ****         mpu->data_rates.rates.p = Int16FromBuf(mpu->i2c_trans.buf, 9);
  95:peripherals/mpu60x0_i2c.c ****         mpu->data_rates.rates.q = Int16FromBuf(mpu->i2c_trans.buf, 11);
  96:peripherals/mpu60x0_i2c.c ****         mpu->data_rates.rates.r = Int16FromBuf(mpu->i2c_trans.buf, 13);
  97:peripherals/mpu60x0_i2c.c **** 
  98:peripherals/mpu60x0_i2c.c ****         int16_t temp_raw = Int16FromBuf(mpu->i2c_trans.buf, 7);
  99:peripherals/mpu60x0_i2c.c ****         mpu->temp = (float)temp_raw / 340.0f + 36.53f;
 234              		.loc 1 99 0
 235 0026 9FED2F7A 		flds	s14, .L48
  91:peripherals/mpu60x0_i2c.c ****         mpu->data_accel.vect.y = Int16FromBuf(mpu->i2c_trans.buf, 3);
 236              		.loc 1 91 0
 237 002a 43EA0223 		orr	r3, r3, r2, lsl #8
 238 002e 8385     		strh	r3, [r0, #44]	@ movhi
  92:peripherals/mpu60x0_i2c.c ****         mpu->data_accel.vect.y = Int16FromBuf(mpu->i2c_trans.buf, 3);
 239              		.loc 1 92 0
 240 0030 027B     		ldrb	r2, [r0, #12]	@ zero_extendqisi2
 241 0032 437B     		ldrb	r3, [r0, #13]	@ zero_extendqisi2
 242 0034 43EA0223 		orr	r3, r3, r2, lsl #8
 243 0038 C385     		strh	r3, [r0, #46]	@ movhi
  93:peripherals/mpu60x0_i2c.c ****         mpu->data_rates.rates.p = Int16FromBuf(mpu->i2c_trans.buf, 9);
 244              		.loc 1 93 0
 245 003a 827B     		ldrb	r2, [r0, #14]	@ zero_extendqisi2
 246 003c C37B     		ldrb	r3, [r0, #15]	@ zero_extendqisi2
 247 003e 43EA0223 		orr	r3, r3, r2, lsl #8
 248 0042 0386     		strh	r3, [r0, #48]	@ movhi
  94:peripherals/mpu60x0_i2c.c ****         mpu->data_rates.rates.q = Int16FromBuf(mpu->i2c_trans.buf, 11);
 249              		.loc 1 94 0
 250 0044 827C     		ldrb	r2, [r0, #18]	@ zero_extendqisi2
 251 0046 C37C     		ldrb	r3, [r0, #19]	@ zero_extendqisi2
 252 0048 43EA0223 		orr	r3, r3, r2, lsl #8
 253 004c 4386     		strh	r3, [r0, #50]	@ movhi
  95:peripherals/mpu60x0_i2c.c ****         mpu->data_rates.rates.r = Int16FromBuf(mpu->i2c_trans.buf, 13);
 254              		.loc 1 95 0
 255 004e 027D     		ldrb	r2, [r0, #20]	@ zero_extendqisi2
 256 0050 437D     		ldrb	r3, [r0, #21]	@ zero_extendqisi2
 257 0052 43EA0223 		orr	r3, r3, r2, lsl #8
 258 0056 8386     		strh	r3, [r0, #52]	@ movhi
  96:peripherals/mpu60x0_i2c.c **** 
 259              		.loc 1 96 0
 260 0058 827D     		ldrb	r2, [r0, #22]	@ zero_extendqisi2
 261 005a C37D     		ldrb	r3, [r0, #23]	@ zero_extendqisi2
 262 005c 43EA0223 		orr	r3, r3, r2, lsl #8
 263 0060 C386     		strh	r3, [r0, #54]	@ movhi
  98:peripherals/mpu60x0_i2c.c ****         mpu->temp = (float)temp_raw / 340.0f + 36.53f;
 264              		.loc 1 98 0
 265 0062 027C     		ldrb	r2, [r0, #16]	@ zero_extendqisi2
 266 0064 437C     		ldrb	r3, [r0, #17]	@ zero_extendqisi2
 267              	.LVL17:
 268 0066 43EA0223 		orr	r3, r3, r2, lsl #8
 269              	.LVL18:
 270              		.loc 1 99 0
 271 006a 1BB2     		sxth	r3, r3
 272 006c 07EE903A 		fmsr	s15, r3	@ int
 273 0070 F8EEE77A 		fsitos	s15, s15
 100:peripherals/mpu60x0_i2c.c **** 
 101:peripherals/mpu60x0_i2c.c ****         // if we are reading slaves through the mpu, copy the ext_sens_data
 102:peripherals/mpu60x0_i2c.c ****         if ((mpu->config.i2c_bypass == FALSE) && (mpu->config.nb_slaves > 0)) {
 274              		.loc 1 102 0
 275 0074 90F85530 		ldrb	r3, [r0, #85]	@ zero_extendqisi2
  99:peripherals/mpu60x0_i2c.c **** 
 276              		.loc 1 99 0
 277 0078 C7EE877A 		fdivs	s15, s15, s14
 278 007c 9FED1A7A 		flds	s14, .L48+4
 279 0080 77EE877A 		fadds	s15, s15, s14
 280 0084 C0ED0E7A 		fsts	s15, [r0, #56]
 281              		.loc 1 102 0
 282 0088 53B9     		cbnz	r3, .L25
 283              		.loc 1 102 0 is_stmt 0 discriminator 1
 284 008a 90F85630 		ldrb	r3, [r0, #86]	@ zero_extendqisi2
 285 008e 3BB1     		cbz	r3, .L25
 103:peripherals/mpu60x0_i2c.c ****           /* the buffer is volatile, since filled from ISR
 104:peripherals/mpu60x0_i2c.c ****            * but we know it's ok to use it here so we silence the warning
 105:peripherals/mpu60x0_i2c.c ****            */
 106:peripherals/mpu60x0_i2c.c **** #pragma GCC diagnostic push
 107:peripherals/mpu60x0_i2c.c **** #pragma GCC diagnostic ignored "-Wcast-qual"
 108:peripherals/mpu60x0_i2c.c ****           memcpy(mpu->data_ext, (uint8_t *) & (mpu->i2c_trans.buf[15]), mpu->config.nb_bytes - 15);
 286              		.loc 1 108 0 is_stmt 1
 287 0090 90F85220 		ldrb	r2, [r0, #82]	@ zero_extendqisi2
 288 0094 04F11801 		add	r1, r4, #24
 289 0098 3C30     		adds	r0, r0, #60
 290              	.LVL19:
 291 009a 0F3A     		subs	r2, r2, #15
 292 009c FFF7FEFF 		bl	memcpy
 293              	.LVL20:
 294              	.L25:
 109:peripherals/mpu60x0_i2c.c **** #pragma GCC diagnostic pop
 110:peripherals/mpu60x0_i2c.c ****         }
 111:peripherals/mpu60x0_i2c.c **** 
 112:peripherals/mpu60x0_i2c.c ****         mpu->data_available = TRUE;
 295              		.loc 1 112 0
 296 00a0 0123     		movs	r3, #1
 297 00a2 84F82A30 		strb	r3, [r4, #42]
 298 00a6 18E0     		b	.L47
 299              	.LVL21:
 300              	.L20:
 301              	.LBE2:
 113:peripherals/mpu60x0_i2c.c ****       }
 114:peripherals/mpu60x0_i2c.c ****       mpu->i2c_trans.status = I2CTransDone;
 115:peripherals/mpu60x0_i2c.c ****     }
 116:peripherals/mpu60x0_i2c.c ****   } else if (mpu->config.init_status != MPU60X0_CONF_UNINIT) { // Configuring but not yet initializ
 302              		.loc 1 116 0
 303 00a8 90F85320 		ldrb	r2, [r0, #83]	@ zero_extendqisi2
 304 00ac C2B1     		cbz	r2, .L19
 117:peripherals/mpu60x0_i2c.c ****     switch (mpu->i2c_trans.status) {
 305              		.loc 1 117 0
 306 00ae 90F82930 		ldrb	r3, [r0, #41]	@ zero_extendqisi2
 307 00b2 DBB2     		uxtb	r3, r3
 308 00b4 032B     		cmp	r3, #3
 309 00b6 04D0     		beq	.L27
 310 00b8 042B     		cmp	r3, #4
 311 00ba 05D0     		beq	.L28
 312 00bc 022B     		cmp	r3, #2
 313 00be 0FD1     		bne	.L19
 314 00c0 02E0     		b	.L28
 315              	.L27:
 118:peripherals/mpu60x0_i2c.c ****       case I2CTransFailed:
 119:peripherals/mpu60x0_i2c.c ****         mpu->config.init_status--; // Retry config (TODO max retry)
 316              		.loc 1 119 0
 317 00c2 013A     		subs	r2, r2, #1
 318 00c4 80F85320 		strb	r2, [r0, #83]
 319              	.L28:
 120:peripherals/mpu60x0_i2c.c ****       case I2CTransSuccess:
 121:peripherals/mpu60x0_i2c.c ****       case I2CTransDone:
 122:peripherals/mpu60x0_i2c.c ****         mpu60x0_send_config(mpu60x0_i2c_write_to_reg, (void *)mpu, &(mpu->config));
 320              		.loc 1 122 0
 321 00c8 0848     		ldr	r0, .L48+8
 322              	.LVL22:
 323 00ca 2146     		mov	r1, r4
 324 00cc 04F14C02 		add	r2, r4, #76
 325 00d0 FFF7FEFF 		bl	mpu60x0_send_config
 326              	.LVL23:
 123:peripherals/mpu60x0_i2c.c ****         if (mpu->config.initialized) {
 327              		.loc 1 123 0
 328 00d4 94F85430 		ldrb	r3, [r4, #84]	@ zero_extendqisi2
 329 00d8 13B1     		cbz	r3, .L19
 330              	.L47:
 124:peripherals/mpu60x0_i2c.c ****           mpu->i2c_trans.status = I2CTransDone;
 331              		.loc 1 124 0
 332 00da 0423     		movs	r3, #4
 333 00dc 84F82930 		strb	r3, [r4, #41]
 334              	.L19:
 335 00e0 10BD     		pop	{r4, pc}
 336              	.LVL24:
 337              	.L49:
 338 00e2 00BF     		.align	2
 339              	.L48:
 340 00e4 0000AA43 		.word	1135214592
 341 00e8 B81E1242 		.word	1108483768
 342 00ec 00000000 		.word	mpu60x0_i2c_write_to_reg
 343              		.cfi_endproc
 344              	.LFE14:
 346              		.section	.text.mpu60x0_configure_i2c_slaves,"ax",%progbits
 347              		.align	1
 348              		.global	mpu60x0_configure_i2c_slaves
 349              		.thumb
 350              		.thumb_func
 352              	mpu60x0_configure_i2c_slaves:
 353              	.LFB15:
 125:peripherals/mpu60x0_i2c.c ****         }
 126:peripherals/mpu60x0_i2c.c ****         break;
 127:peripherals/mpu60x0_i2c.c ****       default:
 128:peripherals/mpu60x0_i2c.c ****         break;
 129:peripherals/mpu60x0_i2c.c ****     }
 130:peripherals/mpu60x0_i2c.c ****   }
 131:peripherals/mpu60x0_i2c.c **** }
 132:peripherals/mpu60x0_i2c.c **** 
 133:peripherals/mpu60x0_i2c.c **** /** @todo: only one slave so far. */
 134:peripherals/mpu60x0_i2c.c **** bool_t mpu60x0_configure_i2c_slaves(Mpu60x0ConfigSet mpu_set, void *mpu)
 135:peripherals/mpu60x0_i2c.c **** {
 354              		.loc 1 135 0
 355              		.cfi_startproc
 356              		@ args = 0, pretend = 0, frame = 0
 357              		@ frame_needed = 0, uses_anonymous_args = 0
 358              	.LVL25:
 136:peripherals/mpu60x0_i2c.c ****   struct Mpu60x0_I2c *mpu_i2c = (struct Mpu60x0_I2c *)(mpu);
 137:peripherals/mpu60x0_i2c.c **** 
 138:peripherals/mpu60x0_i2c.c ****   if (mpu_i2c->slave_init_status == MPU60X0_I2C_CONF_UNINIT) {
 359              		.loc 1 138 0
 360 0000 91F87020 		ldrb	r2, [r1, #112]	@ zero_extendqisi2
 135:peripherals/mpu60x0_i2c.c ****   struct Mpu60x0_I2c *mpu_i2c = (struct Mpu60x0_I2c *)(mpu);
 361              		.loc 1 135 0
 362 0004 38B5     		push	{r3, r4, r5, lr}
 363              		.cfi_def_cfa_offset 16
 364              		.cfi_offset 3, -16
 365              		.cfi_offset 4, -12
 366              		.cfi_offset 5, -8
 367              		.cfi_offset 14, -4
 135:peripherals/mpu60x0_i2c.c ****   struct Mpu60x0_I2c *mpu_i2c = (struct Mpu60x0_I2c *)(mpu);
 368              		.loc 1 135 0
 369 0006 0346     		mov	r3, r0
 370 0008 0C46     		mov	r4, r1
 371              		.loc 1 138 0
 372 000a 12B9     		cbnz	r2, .L51
 139:peripherals/mpu60x0_i2c.c ****     mpu_i2c->slave_init_status++;
 373              		.loc 1 139 0
 374 000c 0122     		movs	r2, #1
 375 000e 81F87020 		strb	r2, [r1, #112]
 376              	.L51:
 140:peripherals/mpu60x0_i2c.c ****   }
 141:peripherals/mpu60x0_i2c.c **** 
 142:peripherals/mpu60x0_i2c.c ****   switch (mpu_i2c->slave_init_status) {
 377              		.loc 1 142 0
 378 0012 94F87020 		ldrb	r2, [r4, #112]	@ zero_extendqisi2
 379 0016 013A     		subs	r2, r2, #1
 380 0018 082A     		cmp	r2, #8
 381 001a 3CD8     		bhi	.L69
 382 001c DFE802F0 		tbb	[pc, r2]
 383              	.LVL26:
 384              	.L54:
 385 0020 05       		.byte	(.L53-.L54)/2
 386 0021 08       		.byte	(.L55-.L54)/2
 387 0022 0C       		.byte	(.L56-.L54)/2
 388 0023 13       		.byte	(.L57-.L54)/2
 389 0024 22       		.byte	(.L58-.L54)/2
 390 0025 29       		.byte	(.L59-.L54)/2
 391 0026 2E       		.byte	(.L60-.L54)/2
 392 0027 32       		.byte	(.L61-.L54)/2
 393 0028 3D       		.byte	(.L64-.L54)/2
 394 0029 00       		.p2align 1
 395              	.L53:
 143:peripherals/mpu60x0_i2c.c ****     case MPU60X0_I2C_CONF_I2C_MST_DIS:
 144:peripherals/mpu60x0_i2c.c ****       mpu_set(mpu, MPU60X0_REG_USER_CTRL, 0);
 396              		.loc 1 144 0
 397 002a 2046     		mov	r0, r4
 398              	.LVL27:
 399 002c 6A21     		movs	r1, #106
 400 002e 27E0     		b	.L73
 401              	.LVL28:
 402              	.L55:
 145:peripherals/mpu60x0_i2c.c ****       mpu_i2c->slave_init_status++;
 146:peripherals/mpu60x0_i2c.c ****       break;
 147:peripherals/mpu60x0_i2c.c ****     case MPU60X0_I2C_CONF_I2C_BYPASS_EN:
 148:peripherals/mpu60x0_i2c.c ****       /* switch to I2C passthrough */
 149:peripherals/mpu60x0_i2c.c ****       mpu_set(mpu, MPU60X0_REG_INT_PIN_CFG, (1 << 1));
 403              		.loc 1 149 0
 404 0030 2046     		mov	r0, r4
 405              	.LVL29:
 406 0032 3721     		movs	r1, #55
 407 0034 0222     		movs	r2, #2
 408 0036 28E0     		b	.L72
 409              	.LVL30:
 410              	.L56:
 150:peripherals/mpu60x0_i2c.c ****       mpu_i2c->slave_init_status++;
 151:peripherals/mpu60x0_i2c.c ****       break;
 152:peripherals/mpu60x0_i2c.c ****     case MPU60X0_I2C_CONF_SLAVES_CONFIGURE:
 153:peripherals/mpu60x0_i2c.c ****       /* configure each slave. TODO: currently only one */
 154:peripherals/mpu60x0_i2c.c ****       if (mpu_i2c->config.slaves[0].configure(mpu_set, mpu)) {
 411              		.loc 1 154 0
 412 0038 A26D     		ldr	r2, [r4, #88]
 413 003a 1846     		mov	r0, r3
 414              	.LVL31:
 415 003c 2146     		mov	r1, r4
 416 003e 9047     		blx	r2
 417              	.LVL32:
 418 0040 0546     		mov	r5, r0
 419 0042 58B3     		cbz	r0, .L62
 420 0044 22E0     		b	.L71
 421              	.LVL33:
 422              	.L57:
 155:peripherals/mpu60x0_i2c.c ****         mpu_i2c->slave_init_status++;
 156:peripherals/mpu60x0_i2c.c ****       }
 157:peripherals/mpu60x0_i2c.c ****       break;
 158:peripherals/mpu60x0_i2c.c ****     case MPU60X0_I2C_CONF_I2C_BYPASS_DIS:
 159:peripherals/mpu60x0_i2c.c ****       if (mpu_i2c->config.i2c_bypass) {
 423              		.loc 1 159 0
 424 0046 94F85550 		ldrb	r5, [r4, #85]	@ zero_extendqisi2
 425 004a 0DB1     		cbz	r5, .L63
 160:peripherals/mpu60x0_i2c.c ****         /* if bypassing I2C skip MPU I2C master setup */
 161:peripherals/mpu60x0_i2c.c ****         mpu_i2c->slave_init_status = MPU60X0_I2C_CONF_DONE;
 426              		.loc 1 161 0
 427 004c 0923     		movs	r3, #9
 428 004e 20E0     		b	.L70
 429              	.L63:
 162:peripherals/mpu60x0_i2c.c ****       } else {
 163:peripherals/mpu60x0_i2c.c ****         /* disable I2C passthrough again */
 164:peripherals/mpu60x0_i2c.c ****         mpu_set(mpu, MPU60X0_REG_INT_PIN_CFG, (0 << 1));
 430              		.loc 1 164 0
 431 0050 2046     		mov	r0, r4
 432              	.LVL34:
 433 0052 3721     		movs	r1, #55
 434 0054 2A46     		mov	r2, r5
 435 0056 9847     		blx	r3
 436              	.LVL35:
 165:peripherals/mpu60x0_i2c.c ****         mpu_i2c->slave_init_status++;
 437              		.loc 1 165 0
 438 0058 94F87030 		ldrb	r3, [r4, #112]	@ zero_extendqisi2
 439 005c 0133     		adds	r3, r3, #1
 440 005e 84F87030 		strb	r3, [r4, #112]
 441 0062 1BE0     		b	.L62
 442              	.LVL36:
 443              	.L58:
 166:peripherals/mpu60x0_i2c.c ****       }
 167:peripherals/mpu60x0_i2c.c ****       break;
 168:peripherals/mpu60x0_i2c.c ****     case MPU60X0_I2C_CONF_I2C_MST_CLK:
 169:peripherals/mpu60x0_i2c.c ****       /* configure MPU I2C master clock and stop/start between slave reads */
 170:peripherals/mpu60x0_i2c.c ****       mpu_set(mpu, MPU60X0_REG_I2C_MST_CTRL,
 444              		.loc 1 170 0
 445 0064 94F86C20 		ldrb	r2, [r4, #108]	@ zero_extendqisi2
 446 0068 2046     		mov	r0, r4
 447              	.LVL37:
 448 006a 2421     		movs	r1, #36
 449 006c 42F01002 		orr	r2, r2, #16
 450 0070 0BE0     		b	.L72
 451              	.LVL38:
 452              	.L59:
 171:peripherals/mpu60x0_i2c.c ****               ((1 << 4) | mpu_i2c->config.i2c_mst_clk));
 172:peripherals/mpu60x0_i2c.c ****       mpu_i2c->slave_init_status++;
 173:peripherals/mpu60x0_i2c.c ****       break;
 174:peripherals/mpu60x0_i2c.c ****     case MPU60X0_I2C_CONF_I2C_MST_DELAY:
 175:peripherals/mpu60x0_i2c.c ****       /* Set I2C slaves delayed sample rate */
 176:peripherals/mpu60x0_i2c.c ****       mpu_set(mpu, MPU60X0_REG_I2C_MST_DELAY, mpu_i2c->config.i2c_mst_delay);
 453              		.loc 1 176 0
 454 0072 2046     		mov	r0, r4
 455              	.LVL39:
 456 0074 6721     		movs	r1, #103
 457 0076 94F86D20 		ldrb	r2, [r4, #109]	@ zero_extendqisi2
 458 007a 06E0     		b	.L72
 459              	.LVL40:
 460              	.L60:
 177:peripherals/mpu60x0_i2c.c ****       mpu_i2c->slave_init_status++;
 178:peripherals/mpu60x0_i2c.c ****       break;
 179:peripherals/mpu60x0_i2c.c ****     case MPU60X0_I2C_CONF_I2C_SMPLRT:
 180:peripherals/mpu60x0_i2c.c ****       /* I2C slave0 sample rate/2 = 100/2 = 50Hz */
 181:peripherals/mpu60x0_i2c.c ****       mpu_set(mpu, MPU60X0_REG_I2C_SLV4_CTRL, 0);
 461              		.loc 1 181 0
 462 007c 2046     		mov	r0, r4
 463              	.LVL41:
 464 007e 3421     		movs	r1, #52
 465              	.LVL42:
 466              	.L73:
 467 0080 0022     		movs	r2, #0
 468 0082 02E0     		b	.L72
 469              	.LVL43:
 470              	.L61:
 182:peripherals/mpu60x0_i2c.c ****       mpu_i2c->slave_init_status++;
 183:peripherals/mpu60x0_i2c.c ****       break;
 184:peripherals/mpu60x0_i2c.c ****     case MPU60X0_I2C_CONF_I2C_MST_EN:
 185:peripherals/mpu60x0_i2c.c ****       /* enable internal I2C master */
 186:peripherals/mpu60x0_i2c.c ****       mpu_set(mpu, MPU60X0_REG_USER_CTRL, (1 << MPU60X0_I2C_MST_EN));
 471              		.loc 1 186 0
 472 0084 2046     		mov	r0, r4
 473              	.LVL44:
 474 0086 6A21     		movs	r1, #106
 475 0088 2022     		movs	r2, #32
 476              	.LVL45:
 477              	.L72:
 478 008a 9847     		blx	r3
 479              	.LVL46:
 480              	.L71:
 187:peripherals/mpu60x0_i2c.c ****       mpu_i2c->slave_init_status++;
 481              		.loc 1 187 0
 482 008c 94F87030 		ldrb	r3, [r4, #112]	@ zero_extendqisi2
 483 0090 0133     		adds	r3, r3, #1
 484              	.L70:
 485 0092 84F87030 		strb	r3, [r4, #112]
 486              	.L69:
 188:peripherals/mpu60x0_i2c.c ****       break;
 189:peripherals/mpu60x0_i2c.c ****     case MPU60X0_I2C_CONF_DONE:
 190:peripherals/mpu60x0_i2c.c ****       return TRUE;
 191:peripherals/mpu60x0_i2c.c ****     default:
 192:peripherals/mpu60x0_i2c.c ****       break;
 193:peripherals/mpu60x0_i2c.c ****   }
 194:peripherals/mpu60x0_i2c.c ****   return FALSE;
 487              		.loc 1 194 0
 488 0096 0025     		movs	r5, #0
 188:peripherals/mpu60x0_i2c.c ****       break;
 489              		.loc 1 188 0
 490 0098 00E0     		b	.L62
 491              	.LVL47:
 492              	.L64:
 190:peripherals/mpu60x0_i2c.c ****     default:
 493              		.loc 1 190 0
 494 009a 0125     		movs	r5, #1
 495              	.LVL48:
 496              	.L62:
 195:peripherals/mpu60x0_i2c.c **** }
 497              		.loc 1 195 0
 498 009c 2846     		mov	r0, r5
 499 009e 38BD     		pop	{r3, r4, r5, pc}
 500              		.cfi_endproc
 501              	.LFE15:
 503              		.text
 504              	.Letext0:
 505              		.file 2 "/usr/arm-none-eabi/include/machine/_default_types.h"
 506              		.file 3 "/usr/arm-none-eabi/include/sys/_stdint.h"
 507              		.file 4 "/home/dino/paparazzi/sw/include/std.h"
 508              		.file 5 "./math/pprz_algebra_int.h"
 509              		.file 6 "./mcu_periph/i2c.h"
 510              		.file 7 "./peripherals/mpu60x0_regs.h"
 511              		.file 8 "./peripherals/mpu60x0.h"
 512              		.file 9 "./peripherals/mpu60x0_i2c.h"