   1              		.syntax unified
   2              		.cpu cortex-m4
   3              		.eabi_attribute 27, 1
   4              		.fpu fpv4-sp-d16
   5              		.eabi_attribute 20, 1
   6              		.eabi_attribute 21, 1
   7              		.eabi_attribute 23, 3
   8              		.eabi_attribute 24, 1
   9              		.eabi_attribute 25, 1
  10              		.eabi_attribute 26, 1
  11              		.eabi_attribute 30, 4
  12              		.eabi_attribute 34, 1
  13              		.eabi_attribute 18, 4
  14              		.thumb
  15              		.file	"mpu60x0.c"
  16              		.text
  17              	.Ltext0:
  18              		.cfi_sections	.debug_frame
  19              		.section	.text.mpu60x0_set_default_config,"ax",%progbits
  20              		.align	1
  21              		.global	mpu60x0_set_default_config
  22              		.thumb
  23              		.thumb_func
  25              	mpu60x0_set_default_config:
  26              	.LFB1:
  27              		.file 1 "peripherals/mpu60x0.c"
   1:peripherals/mpu60x0.c **** /*
   2:peripherals/mpu60x0.c ****  * Copyright (C) 2013 Felix Ruess <felix.ruess@gmail.com>
   3:peripherals/mpu60x0.c ****  *
   4:peripherals/mpu60x0.c ****  * This file is part of paparazzi.
   5:peripherals/mpu60x0.c ****  *
   6:peripherals/mpu60x0.c ****  * paparazzi is free software; you can redistribute it and/or modify
   7:peripherals/mpu60x0.c ****  * it under the terms of the GNU General Public License as published by
   8:peripherals/mpu60x0.c ****  * the Free Software Foundation; either version 2, or (at your option)
   9:peripherals/mpu60x0.c ****  * any later version.
  10:peripherals/mpu60x0.c ****  *
  11:peripherals/mpu60x0.c ****  * paparazzi is distributed in the hope that it will be useful,
  12:peripherals/mpu60x0.c ****  * but WITHOUT ANY WARRANTY; without even the implied warranty of
  13:peripherals/mpu60x0.c ****  * MERCHANTABILITY or FITNESS FOR A PARTICULAR PURPOSE.  See the
  14:peripherals/mpu60x0.c ****  * GNU General Public License for more details.
  15:peripherals/mpu60x0.c ****  *
  16:peripherals/mpu60x0.c ****  * You should have received a copy of the GNU General Public License
  17:peripherals/mpu60x0.c ****  * along with paparazzi; see the file COPYING.  If not, write to
  18:peripherals/mpu60x0.c ****  * the Free Software Foundation, 59 Temple Place - Suite 330,
  19:peripherals/mpu60x0.c ****  * Boston, MA 02111-1307, USA.
  20:peripherals/mpu60x0.c ****  */
  21:peripherals/mpu60x0.c **** 
  22:peripherals/mpu60x0.c **** /**
  23:peripherals/mpu60x0.c ****  * @file peripherals/mpu60x0.c
  24:peripherals/mpu60x0.c ****  *
  25:peripherals/mpu60x0.c ****  * MPU-60X0 driver common functions (I2C and SPI).
  26:peripherals/mpu60x0.c ****  *
  27:peripherals/mpu60x0.c ****  * Still needs the either the I2C or SPI specific implementation.
  28:peripherals/mpu60x0.c ****  */
  29:peripherals/mpu60x0.c **** 
  30:peripherals/mpu60x0.c **** #include "peripherals/mpu60x0.h"
  31:peripherals/mpu60x0.c **** 
  32:peripherals/mpu60x0.c **** void mpu60x0_set_default_config(struct Mpu60x0Config *c)
  33:peripherals/mpu60x0.c **** {
  28              		.loc 1 33 0
  29              		.cfi_startproc
  30              		@ args = 0, pretend = 0, frame = 0
  31              		@ frame_needed = 0, uses_anonymous_args = 0
  32              		@ link register save eliminated.
  33              	.LVL0:
  34:peripherals/mpu60x0.c ****   c->clk_sel = MPU60X0_DEFAULT_CLK_SEL;
  35:peripherals/mpu60x0.c ****   c->smplrt_div = MPU60X0_DEFAULT_SMPLRT_DIV;
  36:peripherals/mpu60x0.c ****   c->dlpf_cfg = MPU60X0_DEFAULT_DLPF_CFG;
  34              		.loc 1 36 0
  35 0000 0322     		movs	r2, #3
  34:peripherals/mpu60x0.c ****   c->clk_sel = MPU60X0_DEFAULT_CLK_SEL;
  36              		.loc 1 34 0
  37 0002 0123     		movs	r3, #1
  38 0004 4371     		strb	r3, [r0, #5]
  39              		.loc 1 36 0
  40 0006 4270     		strb	r2, [r0, #1]
  35:peripherals/mpu60x0.c ****   c->dlpf_cfg = MPU60X0_DEFAULT_DLPF_CFG;
  41              		.loc 1 35 0
  42 0008 0023     		movs	r3, #0
  37:peripherals/mpu60x0.c ****   c->gyro_range = MPU60X0_DEFAULT_FS_SEL;
  43              		.loc 1 37 0
  44 000a 8270     		strb	r2, [r0, #2]
  38:peripherals/mpu60x0.c ****   c->accel_range = MPU60X0_DEFAULT_AFS_SEL;
  45              		.loc 1 38 0
  46 000c C270     		strb	r2, [r0, #3]
  39:peripherals/mpu60x0.c ****   c->drdy_int_enable = FALSE;
  40:peripherals/mpu60x0.c **** 
  41:peripherals/mpu60x0.c ****   /* Number of bytes to read starting with MPU60X0_REG_INT_STATUS
  42:peripherals/mpu60x0.c ****    * By default read only gyro and accel data -> 15 bytes.
  43:peripherals/mpu60x0.c ****    * Increase to include slave data.
  44:peripherals/mpu60x0.c ****    */
  45:peripherals/mpu60x0.c ****   c->nb_bytes = 15;
  47              		.loc 1 45 0
  48 000e 0F22     		movs	r2, #15
  35:peripherals/mpu60x0.c ****   c->dlpf_cfg = MPU60X0_DEFAULT_DLPF_CFG;
  49              		.loc 1 35 0
  50 0010 0370     		strb	r3, [r0]
  39:peripherals/mpu60x0.c ****   c->drdy_int_enable = FALSE;
  51              		.loc 1 39 0
  52 0012 0371     		strb	r3, [r0, #4]
  53              		.loc 1 45 0
  54 0014 8271     		strb	r2, [r0, #6]
  46:peripherals/mpu60x0.c ****   c->nb_slaves = 0;
  55              		.loc 1 46 0
  56 0016 8372     		strb	r3, [r0, #10]
  47:peripherals/mpu60x0.c **** 
  48:peripherals/mpu60x0.c ****   c->i2c_bypass = FALSE;
  57              		.loc 1 48 0
  58 0018 4372     		strb	r3, [r0, #9]
  59 001a 7047     		bx	lr
  60              		.cfi_endproc
  61              	.LFE1:
  63              		.section	.text.mpu60x0_send_config,"ax",%progbits
  64              		.align	1
  65              		.global	mpu60x0_send_config
  66              		.thumb
  67              		.thumb_func
  69              	mpu60x0_send_config:
  70              	.LFB2:
  49:peripherals/mpu60x0.c **** }
  50:peripherals/mpu60x0.c **** 
  51:peripherals/mpu60x0.c **** void mpu60x0_send_config(Mpu60x0ConfigSet mpu_set, void *mpu, struct Mpu60x0Config *config)
  52:peripherals/mpu60x0.c **** {
  71              		.loc 1 52 0
  72              		.cfi_startproc
  73              		@ args = 0, pretend = 0, frame = 0
  74              		@ frame_needed = 0, uses_anonymous_args = 0
  75              	.LVL1:
  76 0000 10B5     		push	{r4, lr}
  77              		.cfi_def_cfa_offset 8
  78              		.cfi_offset 4, -8
  79              		.cfi_offset 14, -4
  80              		.loc 1 52 0
  81 0002 1446     		mov	r4, r2
  53:peripherals/mpu60x0.c ****   switch (config->init_status) {
  82              		.loc 1 53 0
  83 0004 D279     		ldrb	r2, [r2, #7]	@ zero_extendqisi2
  84              	.LVL2:
  85 0006 013A     		subs	r2, r2, #1
  52:peripherals/mpu60x0.c ****   switch (config->init_status) {
  86              		.loc 1 52 0
  87 0008 0346     		mov	r3, r0
  88              		.loc 1 53 0
  89 000a 092A     		cmp	r2, #9
  90 000c 39D8     		bhi	.L2
  91 000e DFE802F0 		tbb	[pc, r2]
  92              	.LVL3:
  93              	.L5:
  94 0012 05       		.byte	(.L4-.L5)/2
  95 0013 09       		.byte	(.L6-.L5)/2
  96 0014 0D       		.byte	(.L7-.L5)/2
  97 0015 11       		.byte	(.L8-.L5)/2
  98 0016 15       		.byte	(.L9-.L5)/2
  99 0017 19       		.byte	(.L10-.L5)/2
 100 0018 1E       		.byte	(.L11-.L5)/2
 101 0019 25       		.byte	(.L12-.L5)/2
 102 001a 2E       		.byte	(.L13-.L5)/2
 103 001b 36       		.byte	(.L14-.L5)/2
 104              		.p2align 1
 105              	.L4:
  54:peripherals/mpu60x0.c ****     case MPU60X0_CONF_RESET:
  55:peripherals/mpu60x0.c ****       /* device reset, set register values to defaults */
  56:peripherals/mpu60x0.c ****       mpu_set(mpu, MPU60X0_REG_PWR_MGMT_1, (1 << 6));
 106              		.loc 1 56 0
 107 001c 0846     		mov	r0, r1
 108 001e 4022     		movs	r2, #64
 109 0020 6B21     		movs	r1, #107
 110              	.LVL4:
 111 0022 27E0     		b	.L20
 112              	.LVL5:
 113              	.L6:
  57:peripherals/mpu60x0.c ****       config->init_status++;
  58:peripherals/mpu60x0.c ****       break;
  59:peripherals/mpu60x0.c ****     case MPU60X0_CONF_USER_RESET:
  60:peripherals/mpu60x0.c ****       /* trigger FIFO, I2C_MST and SIG_COND resets */
  61:peripherals/mpu60x0.c ****       mpu_set(mpu, MPU60X0_REG_USER_CTRL, ((1 << MPU60X0_FIFO_RESET) |
 114              		.loc 1 61 0
 115 0024 0846     		mov	r0, r1
 116 0026 0722     		movs	r2, #7
 117 0028 6A21     		movs	r1, #106
 118              	.LVL6:
 119 002a 23E0     		b	.L20
 120              	.LVL7:
 121              	.L7:
  62:peripherals/mpu60x0.c ****                                            (1 << MPU60X0_I2C_MST_RESET) |
  63:peripherals/mpu60x0.c ****                                            (1 << MPU60X0_SIG_COND_RESET)));
  64:peripherals/mpu60x0.c ****       config->init_status++;
  65:peripherals/mpu60x0.c ****       break;
  66:peripherals/mpu60x0.c ****     case MPU60X0_CONF_PWR:
  67:peripherals/mpu60x0.c ****       /* switch to gyroX clock by default */
  68:peripherals/mpu60x0.c ****       mpu_set(mpu, MPU60X0_REG_PWR_MGMT_1, ((config->clk_sel) | (0 << 6)));
 122              		.loc 1 68 0
 123 002c 0846     		mov	r0, r1
 124 002e 6279     		ldrb	r2, [r4, #5]	@ zero_extendqisi2
 125 0030 6B21     		movs	r1, #107
 126              	.LVL8:
 127 0032 1FE0     		b	.L20
 128              	.LVL9:
 129              	.L8:
  69:peripherals/mpu60x0.c ****       config->init_status++;
  70:peripherals/mpu60x0.c ****       break;
  71:peripherals/mpu60x0.c ****     case MPU60X0_CONF_SD:
  72:peripherals/mpu60x0.c ****       /* configure sample rate divider */
  73:peripherals/mpu60x0.c ****       mpu_set(mpu, MPU60X0_REG_SMPLRT_DIV, config->smplrt_div);
 130              		.loc 1 73 0
 131 0034 0846     		mov	r0, r1
 132 0036 2278     		ldrb	r2, [r4]	@ zero_extendqisi2
 133 0038 1921     		movs	r1, #25
 134              	.LVL10:
 135 003a 1BE0     		b	.L20
 136              	.LVL11:
 137              	.L9:
  74:peripherals/mpu60x0.c ****       config->init_status++;
  75:peripherals/mpu60x0.c ****       break;
  76:peripherals/mpu60x0.c ****     case MPU60X0_CONF_DLPF:
  77:peripherals/mpu60x0.c ****       /* configure digital low pass filter */
  78:peripherals/mpu60x0.c ****       mpu_set(mpu, MPU60X0_REG_CONFIG, config->dlpf_cfg);
 138              		.loc 1 78 0
 139 003c 0846     		mov	r0, r1
 140 003e 6278     		ldrb	r2, [r4, #1]	@ zero_extendqisi2
 141 0040 1A21     		movs	r1, #26
 142              	.LVL12:
 143 0042 17E0     		b	.L20
 144              	.LVL13:
 145              	.L10:
  79:peripherals/mpu60x0.c ****       config->init_status++;
  80:peripherals/mpu60x0.c ****       break;
  81:peripherals/mpu60x0.c ****     case MPU60X0_CONF_GYRO:
  82:peripherals/mpu60x0.c ****       /* configure gyro range */
  83:peripherals/mpu60x0.c ****       mpu_set(mpu, MPU60X0_REG_GYRO_CONFIG, (config->gyro_range << 3));
 146              		.loc 1 83 0
 147 0044 A278     		ldrb	r2, [r4, #2]	@ zero_extendqisi2
 148 0046 0846     		mov	r0, r1
 149 0048 D200     		lsls	r2, r2, #3
 150 004a 1B21     		movs	r1, #27
 151              	.LVL14:
 152 004c 03E0     		b	.L22
 153              	.LVL15:
 154              	.L11:
  84:peripherals/mpu60x0.c ****       config->init_status++;
  85:peripherals/mpu60x0.c ****       break;
  86:peripherals/mpu60x0.c ****     case MPU60X0_CONF_ACCEL:
  87:peripherals/mpu60x0.c ****       /* configure accelerometer range */
  88:peripherals/mpu60x0.c ****       mpu_set(mpu, MPU60X0_REG_ACCEL_CONFIG, (config->accel_range << 3));
 155              		.loc 1 88 0
 156 004e E278     		ldrb	r2, [r4, #3]	@ zero_extendqisi2
 157 0050 0846     		mov	r0, r1
 158 0052 D200     		lsls	r2, r2, #3
 159 0054 1C21     		movs	r1, #28
 160              	.LVL16:
 161              	.L22:
 162 0056 02F0F802 		and	r2, r2, #248
 163 005a 0BE0     		b	.L20
 164              	.LVL17:
 165              	.L12:
  89:peripherals/mpu60x0.c ****       config->init_status++;
  90:peripherals/mpu60x0.c ****       break;
  91:peripherals/mpu60x0.c ****     case MPU60X0_CONF_I2C_SLAVES:
  92:peripherals/mpu60x0.c ****       /* if any, set MPU for I2C slaves and configure them*/
  93:peripherals/mpu60x0.c ****       if (config->nb_slaves > 0) {
 166              		.loc 1 93 0
 167 005c A27A     		ldrb	r2, [r4, #10]	@ zero_extendqisi2
 168 005e 22B1     		cbz	r2, .L15
  94:peripherals/mpu60x0.c ****         /* returns TRUE when all slaves are configured */
  95:peripherals/mpu60x0.c ****         if (mpu60x0_configure_i2c_slaves(mpu_set, mpu)) {
 169              		.loc 1 95 0
 170 0060 1846     		mov	r0, r3
 171 0062 FFF7FEFF 		bl	mpu60x0_configure_i2c_slaves
 172              	.LVL18:
 173 0066 60B1     		cbz	r0, .L2
 174 0068 05E0     		b	.L21
 175              	.LVL19:
 176              	.L15:
  96:peripherals/mpu60x0.c ****           config->init_status++;
  97:peripherals/mpu60x0.c ****         }
  98:peripherals/mpu60x0.c ****       } else {
  99:peripherals/mpu60x0.c ****         config->init_status++;
 177              		.loc 1 99 0
 178 006a 0923     		movs	r3, #9
 179              	.LVL20:
 180 006c 05E0     		b	.L19
 181              	.LVL21:
 182              	.L13:
 100:peripherals/mpu60x0.c ****       }
 101:peripherals/mpu60x0.c ****       break;
 102:peripherals/mpu60x0.c ****     case MPU60X0_CONF_INT_ENABLE:
 103:peripherals/mpu60x0.c ****       /* configure data ready interrupt */
 104:peripherals/mpu60x0.c ****       mpu_set(mpu, MPU60X0_REG_INT_ENABLE, (config->drdy_int_enable << 0));
 183              		.loc 1 104 0
 184 006e 2279     		ldrb	r2, [r4, #4]	@ zero_extendqisi2
 185 0070 0846     		mov	r0, r1
 186 0072 3821     		movs	r1, #56
 187              	.LVL22:
 188              	.L20:
 189 0074 9847     		blx	r3
 190              	.LVL23:
 191              	.L21:
 105:peripherals/mpu60x0.c ****       config->init_status++;
 192              		.loc 1 105 0
 193 0076 E379     		ldrb	r3, [r4, #7]	@ zero_extendqisi2
 194 0078 0133     		adds	r3, r3, #1
 195              	.L19:
 196 007a E371     		strb	r3, [r4, #7]
 106:peripherals/mpu60x0.c ****       break;
 197              		.loc 1 106 0
 198 007c 10BD     		pop	{r4, pc}
 199              	.LVL24:
 200              	.L14:
 107:peripherals/mpu60x0.c ****     case MPU60X0_CONF_DONE:
 108:peripherals/mpu60x0.c ****       config->initialized = TRUE;
 201              		.loc 1 108 0
 202 007e 0123     		movs	r3, #1
 203              	.LVL25:
 204 0080 2372     		strb	r3, [r4, #8]
 205              	.LVL26:
 206              	.L2:
 207 0082 10BD     		pop	{r4, pc}
 208              		.cfi_endproc
 209              	.LFE2:
 211              		.text
 212              	.Letext0:
 213              		.file 2 "/usr/arm-none-eabi/include/machine/_default_types.h"
 214              		.file 3 "/usr/arm-none-eabi/include/sys/_stdint.h"
 215              		.file 4 "/home/dino/paparazzi/sw/include/std.h"
 216              		.file 5 "./peripherals/mpu60x0_regs.h"
 217              		.file 6 "./peripherals/mpu60x0.h"
DEFINED SYMBOLS
                            *ABS*:00000000 mpu60x0.c
     /tmp/ccuWTsRh.s:20     .text.mpu60x0_set_default_config:00000000 $t
     /tmp/ccuWTsRh.s:25     .text.mpu60x0_set_default_config:00000000 mpu60x0_set_default_config
     /tmp/ccuWTsRh.s:64     .text.mpu60x0_send_config:00000000 $t
     /tmp/ccuWTsRh.s:69     .text.mpu60x0_send_config:00000000 mpu60x0_send_config
     /tmp/ccuWTsRh.s:94     .text.mpu60x0_send_config:00000012 $d
     /tmp/ccuWTsRh.s:104    .text.mpu60x0_send_config:0000001c $t
                     .debug_frame:00000010 $d
                           .group:00000000 wm4.0.7f506cdee5614e5fae524d20989ad8c8
                           .group:00000000 wm4.newlib.h.8.2702bca278809460f0af6fba1d84eb68
                           .group:00000000 wm4.features.h.22.2e382148a0560adabf236cddd4e880f4
                           .group:00000000 wm4.config.h.220.a09b0b0de3c25be3f39d71990e617bff
                           .group:00000000 wm4._intsup.h.10.b2832a532eae49c14d45880be6d4ca65
                           .group:00000000 wm4._default_types.h.6.35ee9e747940367bf2a634907d1c2382
                           .group:00000000 wm4._stdint.h.10.f76354baea1c7088202064e6f3d4f5e3
                           .group:00000000 wm4.stdint.h.23.373a9d32a9e4c2e88fd347156532d281
                           .group:00000000 wm4.stddef.h.263.49e44f5ee9cdd8820580fc4aa239e32a
                           .group:00000000 wm4.inttypes.h.23.a096771aacee9aba4b33c2d04aacc9b1
                           .group:00000000 wm4.stdbool.h.29.1c9ee6859ce8145f7838a4f2549ccec2
                           .group:00000000 wm4._ansi.h.13.1b5575dc7921a4c0cff7dbaa2f33e670
                           .group:00000000 wm4.stddef.h.39.2b75ea897b59bf67f50e970d678806e4
                           .group:00000000 wm4.lock.h.2.9bc98482741e5e2a9450b12934a684ea
                           .group:00000000 wm4._types.h.54.d3d34a3b7f3cc230cd159baf022b4b08
                           .group:00000000 wm4.stddef.h.158.61317cdbfb4026324507d123a50b0fd6
                           .group:00000000 wm4.reent.h.17.8bd9e4098e0428508c282cad794fae43
                           .group:00000000 wm4.math.h.35.ad242c9287d2217c7d2035216e5d04ca
                           .group:00000000 wm4.message_pragmas.h.2.a703592919ab94db061a475289156c21
                           .group:00000000 wm4.std.h.37.c94f17957e155d4dda789b7ad0549a32
                           .group:00000000 wm4.mpu60x0_regs.h.29.354741a377e41e863a6f15c8045a1631
                           .group:00000000 wm4.mpu60x0.h.37.d6af4975dcfadd714415f3475e68a5c4

UNDEFINED SYMBOLS
mpu60x0_configure_i2c_slaves
