   1              		.syntax unified
   2              		.cpu cortex-m4
   3              		.eabi_attribute 27, 1
   4              		.fpu fpv4-sp-d16
   5              		.eabi_attribute 20, 1
   6              		.eabi_attribute 21, 1
   7              		.eabi_attribute 23, 3
   8              		.eabi_attribute 24, 1
   9              		.eabi_attribute 25, 1
  10              		.eabi_attribute 26, 1
  11              		.eabi_attribute 30, 4
  12              		.eabi_attribute 34, 1
  13              		.eabi_attribute 18, 4
  14              		.thumb
  15              		.file	"spi.c"
  16              		.text
  17              	.Ltext0:
  18              		.cfi_sections	.debug_frame
  19              		.section	.text.spi_init,"ax",%progbits
  20              		.align	1
  21              		.global	spi_init
  22              		.thumb
  23              		.thumb_func
  25              	spi_init:
  26              	.LFB2:
  27              		.file 1 "mcu_periph/spi.c"
   1:mcu_periph/spi.c **** /*
   2:mcu_periph/spi.c ****  * Copyright (C) 2005-2012 The Paparazzi Team
   3:mcu_periph/spi.c ****  *
   4:mcu_periph/spi.c ****  * This file is part of paparazzi.
   5:mcu_periph/spi.c ****  *
   6:mcu_periph/spi.c ****  * paparazzi is free software; you can redistribute it and/or modify
   7:mcu_periph/spi.c ****  * it under the terms of the GNU General Public License as published by
   8:mcu_periph/spi.c ****  * the Free Software Foundation; either version 2, or (at your option)
   9:mcu_periph/spi.c ****  * any later version.
  10:mcu_periph/spi.c ****  *
  11:mcu_periph/spi.c ****  * paparazzi is distributed in the hope that it will be useful,
  12:mcu_periph/spi.c ****  * but WITHOUT ANY WARRANTY; without even the implied warranty of
  13:mcu_periph/spi.c ****  * MERCHANTABILITY or FITNESS FOR A PARTICULAR PURPOSE.  See the
  14:mcu_periph/spi.c ****  * GNU General Public License for more details.
  15:mcu_periph/spi.c ****  *
  16:mcu_periph/spi.c ****  * You should have received a copy of the GNU General Public License
  17:mcu_periph/spi.c ****  * along with paparazzi; see the file COPYING.  If not, write to
  18:mcu_periph/spi.c ****  * the Free Software Foundation, 59 Temple Place - Suite 330,
  19:mcu_periph/spi.c ****  * Boston, MA 02111-1307, USA.
  20:mcu_periph/spi.c ****  *
  21:mcu_periph/spi.c ****  */
  22:mcu_periph/spi.c **** 
  23:mcu_periph/spi.c **** /**
  24:mcu_periph/spi.c ****  * @file mcu_periph/spi.c
  25:mcu_periph/spi.c ****  *
  26:mcu_periph/spi.c ****  * Architecture independent SPI (Serial Peripheral Interface) API.
  27:mcu_periph/spi.c ****  */
  28:mcu_periph/spi.c **** 
  29:mcu_periph/spi.c **** #include "std.h"
  30:mcu_periph/spi.c **** #include "mcu_periph/spi.h"
  31:mcu_periph/spi.c **** 
  32:mcu_periph/spi.c **** #if SPI_MASTER
  33:mcu_periph/spi.c **** 
  34:mcu_periph/spi.c **** #if USE_SPI0
  35:mcu_periph/spi.c **** struct spi_periph spi0;
  36:mcu_periph/spi.c **** 
  37:mcu_periph/spi.c **** void spi0_init(void)
  38:mcu_periph/spi.c **** {
  39:mcu_periph/spi.c ****   spi_init(&spi0);
  40:mcu_periph/spi.c ****   spi0_arch_init();
  41:mcu_periph/spi.c **** }
  42:mcu_periph/spi.c **** #endif // USE_SPI0
  43:mcu_periph/spi.c **** 
  44:mcu_periph/spi.c **** 
  45:mcu_periph/spi.c **** #if USE_SPI1
  46:mcu_periph/spi.c **** struct spi_periph spi1;
  47:mcu_periph/spi.c **** 
  48:mcu_periph/spi.c **** void spi1_init(void)
  49:mcu_periph/spi.c **** {
  50:mcu_periph/spi.c ****   spi_init(&spi1);
  51:mcu_periph/spi.c ****   spi1_arch_init();
  52:mcu_periph/spi.c **** }
  53:mcu_periph/spi.c **** #endif // USE_SPI1
  54:mcu_periph/spi.c **** 
  55:mcu_periph/spi.c **** 
  56:mcu_periph/spi.c **** #if USE_SPI2
  57:mcu_periph/spi.c **** struct spi_periph spi2;
  58:mcu_periph/spi.c **** 
  59:mcu_periph/spi.c **** void spi2_init(void)
  60:mcu_periph/spi.c **** {
  61:mcu_periph/spi.c ****   spi_init(&spi2);
  62:mcu_periph/spi.c ****   spi2_arch_init();
  63:mcu_periph/spi.c **** }
  64:mcu_periph/spi.c **** #endif // USE_SPI2
  65:mcu_periph/spi.c **** 
  66:mcu_periph/spi.c **** 
  67:mcu_periph/spi.c **** #if USE_SPI3
  68:mcu_periph/spi.c **** struct spi_periph spi3;
  69:mcu_periph/spi.c **** 
  70:mcu_periph/spi.c **** void spi3_init(void)
  71:mcu_periph/spi.c **** {
  72:mcu_periph/spi.c ****   spi_init(&spi3);
  73:mcu_periph/spi.c ****   spi3_arch_init();
  74:mcu_periph/spi.c **** }
  75:mcu_periph/spi.c **** #endif // USE_SPI3
  76:mcu_periph/spi.c **** 
  77:mcu_periph/spi.c **** 
  78:mcu_periph/spi.c **** void spi_init(struct spi_periph *p)
  79:mcu_periph/spi.c **** {
  28              		.loc 1 79 0
  29              		.cfi_startproc
  30              		@ args = 0, pretend = 0, frame = 0
  31              		@ frame_needed = 0, uses_anonymous_args = 0
  32              		@ link register save eliminated.
  33              	.LVL0:
  80:mcu_periph/spi.c ****   p->trans_insert_idx = 0;
  34              		.loc 1 80 0
  35 0000 0023     		movs	r3, #0
  81:mcu_periph/spi.c ****   p->trans_extract_idx = 0;
  82:mcu_periph/spi.c ****   p->status = SPIIdle;
  36              		.loc 1 82 0
  37 0002 80F82230 		strb	r3, [r0, #34]
  80:mcu_periph/spi.c ****   p->trans_insert_idx = 0;
  38              		.loc 1 80 0
  39 0006 80F82030 		strb	r3, [r0, #32]
  81:mcu_periph/spi.c ****   p->trans_extract_idx = 0;
  40              		.loc 1 81 0
  41 000a 80F82130 		strb	r3, [r0, #33]
  83:mcu_periph/spi.c ****   p->mode = SPIMaster;
  42              		.loc 1 83 0
  43 000e 80F83030 		strb	r3, [r0, #48]
  84:mcu_periph/spi.c ****   p->suspend = FALSE;
  44              		.loc 1 84 0
  45 0012 80F83130 		strb	r3, [r0, #49]
  46 0016 7047     		bx	lr
  47              		.cfi_endproc
  48              	.LFE2:
  50              		.section	.text.spi1_init,"ax",%progbits
  51              		.align	1
  52              		.global	spi1_init
  53              		.thumb
  54              		.thumb_func
  56              	spi1_init:
  57              	.LFB1:
  49:mcu_periph/spi.c ****   spi_init(&spi1);
  58              		.loc 1 49 0
  59              		.cfi_startproc
  60              		@ args = 0, pretend = 0, frame = 0
  61              		@ frame_needed = 0, uses_anonymous_args = 0
  62 0000 08B5     		push	{r3, lr}
  63              		.cfi_def_cfa_offset 8
  64              		.cfi_offset 3, -8
  65              		.cfi_offset 14, -4
  50:mcu_periph/spi.c ****   spi1_arch_init();
  66              		.loc 1 50 0
  67 0002 0348     		ldr	r0, .L3
  68 0004 FFF7FEFF 		bl	spi_init
  69              	.LVL1:
  52:mcu_periph/spi.c **** #endif // USE_SPI1
  70              		.loc 1 52 0
  71 0008 BDE80840 		pop	{r3, lr}
  72              		.cfi_restore 14
  73              		.cfi_restore 3
  74              		.cfi_def_cfa_offset 0
  51:mcu_periph/spi.c **** }
  75              		.loc 1 51 0
  76 000c FFF7FEBF 		b	spi1_arch_init
  77              	.LVL2:
  78              	.L4:
  79              		.align	2
  80              	.L3:
  81 0010 00000000 		.word	.LANCHOR0
  82              		.cfi_endproc
  83              	.LFE1:
  85              		.global	spi1
  86              		.section	.bss.spi1,"aw",%nobits
  87              		.align	2
  88              		.set	.LANCHOR0,. + 0
  91              	spi1:
  92 0000 00000000 		.space	52
  92      00000000 
  92      00000000 
  92      00000000 
  92      00000000 
  93              		.text
  94              	.Letext0:
  95              		.file 2 "/usr/arm-none-eabi/include/machine/_default_types.h"
  96              		.file 3 "/usr/arm-none-eabi/include/sys/_stdint.h"
  97              		.file 4 "./mcu_periph/spi.h"