   1              		.syntax unified
   2              		.cpu cortex-m4
   3              		.eabi_attribute 27, 3
   4              		.fpu fpv4-sp-d16
   5              		.eabi_attribute 20, 1
   6              		.eabi_attribute 21, 1
   7              		.eabi_attribute 23, 3
   8              		.eabi_attribute 24, 1
   9              		.eabi_attribute 25, 1
  10              		.eabi_attribute 26, 1
  11              		.eabi_attribute 30, 4
  12              		.eabi_attribute 34, 1
  13              		.eabi_attribute 18, 4
  14              		.thumb
  15              		.file	"gps.c"
  16              		.text
  17              	.Ltext0:
  18              		.cfi_sections	.debug_frame
  19              		.global	__aeabi_i2d
  20              		.global	__aeabi_dmul
  21              		.global	__aeabi_ddiv
  22              		.global	__aeabi_d2iz
  23              		.section	.text.send_gps_lla,"ax",%progbits
  24              		.align	1
  25              		.thumb
  26              		.thumb_func
  28              	send_gps_lla:
  29              	.LFB367:
  30              		.file 1 "subsystems/gps.c"
   1:subsystems/gps.c **** /*
   2:subsystems/gps.c ****  * Copyright (C) 2008-2011 The Paparazzi Team
   3:subsystems/gps.c ****  *
   4:subsystems/gps.c ****  * This file is part of paparazzi.
   5:subsystems/gps.c ****  *
   6:subsystems/gps.c ****  * paparazzi is free software; you can redistribute it and/or modify
   7:subsystems/gps.c ****  * it under the terms of the GNU General Public License as published by
   8:subsystems/gps.c ****  * the Free Software Foundation; either version 2, or (at your option)
   9:subsystems/gps.c ****  * any later version.
  10:subsystems/gps.c ****  *
  11:subsystems/gps.c ****  * paparazzi is distributed in the hope that it will be useful,
  12:subsystems/gps.c ****  * but WITHOUT ANY WARRANTY; without even the implied warranty of
  13:subsystems/gps.c ****  * MERCHANTABILITY or FITNESS FOR A PARTICULAR PURPOSE.  See the
  14:subsystems/gps.c ****  * GNU General Public License for more details.
  15:subsystems/gps.c ****  *
  16:subsystems/gps.c ****  * You should have received a copy of the GNU General Public License
  17:subsystems/gps.c ****  * along with paparazzi; see the file COPYING.  If not, write to
  18:subsystems/gps.c ****  * the Free Software Foundation, 59 Temple Place - Suite 330,
  19:subsystems/gps.c ****  * Boston, MA 02111-1307, USA.
  20:subsystems/gps.c ****  */
  21:subsystems/gps.c **** 
  22:subsystems/gps.c **** /** @file gps.c
  23:subsystems/gps.c ****  *  @brief Device independent GPS code
  24:subsystems/gps.c ****  *
  25:subsystems/gps.c ****  */
  26:subsystems/gps.c **** 
  27:subsystems/gps.c **** #include "subsystems/gps.h"
  28:subsystems/gps.c **** 
  29:subsystems/gps.c **** #include "led.h"
  30:subsystems/gps.c **** 
  31:subsystems/gps.c **** #ifdef GPS_POWER_GPIO
  32:subsystems/gps.c **** #include "mcu_periph/gpio.h"
  33:subsystems/gps.c **** 
  34:subsystems/gps.c **** #ifndef GPS_POWER_GPIO_ON
  35:subsystems/gps.c **** #define GPS_POWER_GPIO_ON gpio_set
  36:subsystems/gps.c **** #endif
  37:subsystems/gps.c **** #endif
  38:subsystems/gps.c **** 
  39:subsystems/gps.c **** #define MSEC_PER_WEEK (1000*60*60*24*7)
  40:subsystems/gps.c **** 
  41:subsystems/gps.c **** struct GpsState gps;
  42:subsystems/gps.c **** 
  43:subsystems/gps.c **** struct GpsTimeSync gps_time_sync;
  44:subsystems/gps.c **** 
  45:subsystems/gps.c **** #if PERIODIC_TELEMETRY
  46:subsystems/gps.c **** #include "subsystems/datalink/telemetry.h"
  47:subsystems/gps.c **** 
  48:subsystems/gps.c **** static void send_svinfo_id(struct transport_tx *trans, struct link_device *dev,
  49:subsystems/gps.c ****                            uint8_t svid)
  50:subsystems/gps.c **** {
  51:subsystems/gps.c ****   if (svid < GPS_NB_CHANNELS) {
  52:subsystems/gps.c ****     pprz_msg_send_SVINFO(trans, dev, AC_ID, &svid,
  53:subsystems/gps.c ****                          &gps.svinfos[svid].svid, &gps.svinfos[svid].flags,
  54:subsystems/gps.c ****                          &gps.svinfos[svid].qi, &gps.svinfos[svid].cno,
  55:subsystems/gps.c ****                          &gps.svinfos[svid].elev, &gps.svinfos[svid].azim);
  56:subsystems/gps.c ****   }
  57:subsystems/gps.c **** }
  58:subsystems/gps.c **** 
  59:subsystems/gps.c **** /** send SVINFO message (regardless of state) */
  60:subsystems/gps.c **** static void send_svinfo(struct transport_tx *trans, struct link_device *dev)
  61:subsystems/gps.c **** {
  62:subsystems/gps.c ****   static uint8_t i = 0;
  63:subsystems/gps.c ****   if (i == gps.nb_channels) { i = 0; }
  64:subsystems/gps.c ****   send_svinfo_id(trans, dev, i);
  65:subsystems/gps.c ****   i++;
  66:subsystems/gps.c **** }
  67:subsystems/gps.c **** 
  68:subsystems/gps.c **** /** send SVINFO message if updated.
  69:subsystems/gps.c ****  * send SVINFO for all satellites while no GPS fix,
  70:subsystems/gps.c ****  * after 3D fix, send avialable sats only when there is new information
  71:subsystems/gps.c ****  */
  72:subsystems/gps.c **** static inline void send_svinfo_available(struct transport_tx *trans, struct link_device *dev)
  73:subsystems/gps.c **** {
  74:subsystems/gps.c ****   static uint8_t i = 0;
  75:subsystems/gps.c ****   static uint8_t last_cnos[GPS_NB_CHANNELS];
  76:subsystems/gps.c ****   if (i >= gps.nb_channels) { i = 0; }
  77:subsystems/gps.c ****   // send SVINFO for all satellites while no GPS fix,
  78:subsystems/gps.c ****   // after 3D fix, send avialable sats if they were updated
  79:subsystems/gps.c ****   if (gps.fix != GPS_FIX_3D) {
  80:subsystems/gps.c ****     send_svinfo_id(trans, dev, i);
  81:subsystems/gps.c ****   } else if (gps.svinfos[i].cno != last_cnos[i]) {
  82:subsystems/gps.c ****     send_svinfo_id(trans, dev, i);
  83:subsystems/gps.c ****     last_cnos[i] = gps.svinfos[i].cno;
  84:subsystems/gps.c ****   }
  85:subsystems/gps.c ****   i++;
  86:subsystems/gps.c **** }
  87:subsystems/gps.c **** 
  88:subsystems/gps.c **** static void send_gps(struct transport_tx *trans, struct link_device *dev)
  89:subsystems/gps.c **** {
  90:subsystems/gps.c ****   uint8_t zero = 0;
  91:subsystems/gps.c ****   int16_t climb = -gps.ned_vel.z;
  92:subsystems/gps.c ****   int16_t course = (DegOfRad(gps.course) / ((int32_t)1e6));
  93:subsystems/gps.c ****   pprz_msg_send_GPS(trans, dev, AC_ID, &gps.fix,
  94:subsystems/gps.c ****                     &gps.utm_pos.east, &gps.utm_pos.north,
  95:subsystems/gps.c ****                     &course, &gps.hmsl, &gps.gspeed, &climb,
  96:subsystems/gps.c ****                     &gps.week, &gps.tow, &gps.utm_pos.zone, &zero);
  97:subsystems/gps.c ****   // send SVINFO for available satellites that have new data
  98:subsystems/gps.c ****   send_svinfo_available(trans, dev);
  99:subsystems/gps.c **** }
 100:subsystems/gps.c **** 
 101:subsystems/gps.c **** static void send_gps_int(struct transport_tx *trans, struct link_device *dev)
 102:subsystems/gps.c **** {
 103:subsystems/gps.c ****   pprz_msg_send_GPS_INT(trans, dev, AC_ID,
 104:subsystems/gps.c ****                         &gps.ecef_pos.x, &gps.ecef_pos.y, &gps.ecef_pos.z,
 105:subsystems/gps.c ****                         &gps.lla_pos.lat, &gps.lla_pos.lon, &gps.lla_pos.alt,
 106:subsystems/gps.c ****                         &gps.hmsl,
 107:subsystems/gps.c ****                         &gps.ecef_vel.x, &gps.ecef_vel.y, &gps.ecef_vel.z,
 108:subsystems/gps.c ****                         &gps.pacc, &gps.sacc,
 109:subsystems/gps.c ****                         &gps.tow,
 110:subsystems/gps.c ****                         &gps.pdop,
 111:subsystems/gps.c ****                         &gps.num_sv,
 112:subsystems/gps.c ****                         &gps.fix);
 113:subsystems/gps.c ****   // send SVINFO for available satellites that have new data
 114:subsystems/gps.c ****   send_svinfo_available(trans, dev);
 115:subsystems/gps.c **** }
 116:subsystems/gps.c **** 
 117:subsystems/gps.c **** static void send_gps_lla(struct transport_tx *trans, struct link_device *dev)
 118:subsystems/gps.c **** {
  31              		.loc 1 118 0
  32              		.cfi_startproc
  33              		@ args = 0, pretend = 0, frame = 8
  34              		@ frame_needed = 0, uses_anonymous_args = 0
  35              	.LVL0:
  36 0000 2DE9F04F 		push	{r4, r5, r6, r7, r8, r9, r10, fp, lr}
  37              		.cfi_def_cfa_offset 36
  38              		.cfi_offset 4, -36
  39              		.cfi_offset 5, -32
  40              		.cfi_offset 6, -28
  41              		.cfi_offset 7, -24
  42              		.cfi_offset 8, -20
  43              		.cfi_offset 9, -16
  44              		.cfi_offset 10, -12
  45              		.cfi_offset 11, -8
  46              		.cfi_offset 14, -4
 119:subsystems/gps.c ****   uint8_t err = 0;
 120:subsystems/gps.c ****   int16_t climb = -gps.ned_vel.z;
  47              		.loc 1 120 0
  48 0004 DFF8B4B1 		ldr	fp, .L6+20
  49 0008 DBF84030 		ldr	r3, [fp, #64]
 118:subsystems/gps.c **** {
  50              		.loc 1 118 0
  51 000c 85B0     		sub	sp, sp, #20
  52              		.cfi_def_cfa_offset 56
 118:subsystems/gps.c **** {
  53              		.loc 1 118 0
  54 000e 0746     		mov	r7, r0
  55              		.loc 1 120 0
  56 0010 5B42     		negs	r3, r3
 121:subsystems/gps.c ****   int16_t course = (DegOfRad(gps.course) / ((int32_t)1e6));
  57              		.loc 1 121 0
  58 0012 DBF84800 		ldr	r0, [fp, #72]
  59              	.LVL1:
 120:subsystems/gps.c ****   int16_t climb = -gps.ned_vel.z;
  60              		.loc 1 120 0
  61 0016 ADF80C30 		strh	r3, [sp, #12]	@ movhi
 119:subsystems/gps.c ****   uint8_t err = 0;
  62              		.loc 1 119 0
  63 001a 0025     		movs	r5, #0
 118:subsystems/gps.c **** {
  64              		.loc 1 118 0
  65 001c 0C46     		mov	r4, r1
 119:subsystems/gps.c ****   uint8_t err = 0;
  66              		.loc 1 119 0
  67 001e 8DF80A50 		strb	r5, [sp, #10]
  68              		.loc 1 121 0
  69 0022 FFF7FEFF 		bl	__aeabi_i2d
  70              	.LVL2:
  71 0026 61A3     		adr	r3, .L6+4
  72 0028 D3E90023 		ldrd	r2, [r3]
  73 002c FFF7FEFF 		bl	__aeabi_dmul
  74              	.LVL3:
  75 0030 60A3     		adr	r3, .L6+12
  76 0032 D3E90023 		ldrd	r2, [r3]
  77 0036 FFF7FEFF 		bl	__aeabi_ddiv
  78              	.LVL4:
  79 003a FFF7FEFF 		bl	__aeabi_d2iz
  80              	.LVL5:
  81              	.LBB6:
  82              	.LBB7:
  83              		.file 2 "/home/lsk/paparazzi/var/include/messages.h"
   1:/home/lsk/paparazzi/var/include/messages.h **** /* Automatically generated by gen_messages from /home/lsk/paparazzi/conf/messages.xml */
   2:/home/lsk/paparazzi/var/include/messages.h **** /* Please DO NOT EDIT */
   3:/home/lsk/paparazzi/var/include/messages.h **** /* Macros to send and receive messages of class telemetry */
   4:/home/lsk/paparazzi/var/include/messages.h **** #ifndef _VAR_MESSAGES_telemetry_H_
   5:/home/lsk/paparazzi/var/include/messages.h **** #define _VAR_MESSAGES_telemetry_H_
   6:/home/lsk/paparazzi/var/include/messages.h **** #include "subsystems/datalink/transport.h"
   7:/home/lsk/paparazzi/var/include/messages.h **** #include "mcu_periph/link_device.h"
   8:/home/lsk/paparazzi/var/include/messages.h **** #if DOWNLINK
   9:/home/lsk/paparazzi/var/include/messages.h **** #define DL_AUTOPILOT_VERSION 1
  10:/home/lsk/paparazzi/var/include/messages.h **** #define DL_ALIVE 2
  11:/home/lsk/paparazzi/var/include/messages.h **** #define DL_PONG 3
  12:/home/lsk/paparazzi/var/include/messages.h **** #define DL_TAKEOFF 4
  13:/home/lsk/paparazzi/var/include/messages.h **** #define DL_ARDRONE_NAVDATA 5
  14:/home/lsk/paparazzi/var/include/messages.h **** #define DL_ATTITUDE 6
  15:/home/lsk/paparazzi/var/include/messages.h **** #define DL_IR_SENSORS 7
  16:/home/lsk/paparazzi/var/include/messages.h **** #define DL_GPS 8
  17:/home/lsk/paparazzi/var/include/messages.h **** #define DL_NAVIGATION_REF 9
  18:/home/lsk/paparazzi/var/include/messages.h **** #define DL_NAVIGATION 10
  19:/home/lsk/paparazzi/var/include/messages.h **** #define DL_PPRZ_MODE 11
  20:/home/lsk/paparazzi/var/include/messages.h **** #define DL_BAT 12
  21:/home/lsk/paparazzi/var/include/messages.h **** #define DL_DEBUG_MCU_LINK 13
  22:/home/lsk/paparazzi/var/include/messages.h **** #define DL_CALIBRATION 14
  23:/home/lsk/paparazzi/var/include/messages.h **** #define DL_SETTINGS 15
  24:/home/lsk/paparazzi/var/include/messages.h **** #define DL_DESIRED 16
  25:/home/lsk/paparazzi/var/include/messages.h **** #define DL_GPS_SOL 17
  26:/home/lsk/paparazzi/var/include/messages.h **** #define DL_ADC_GENERIC 18
  27:/home/lsk/paparazzi/var/include/messages.h **** #define DL_TEST_FORMAT 19
  28:/home/lsk/paparazzi/var/include/messages.h **** #define DL_CAM 20
  29:/home/lsk/paparazzi/var/include/messages.h **** #define DL_CIRCLE 21
  30:/home/lsk/paparazzi/var/include/messages.h **** #define DL_SEGMENT 22
  31:/home/lsk/paparazzi/var/include/messages.h **** #define DL_SVINFO 25
  32:/home/lsk/paparazzi/var/include/messages.h **** #define DL_DEBUG 26
  33:/home/lsk/paparazzi/var/include/messages.h **** #define DL_SURVEY 27
  34:/home/lsk/paparazzi/var/include/messages.h **** #define DL_WC_RSSI 28
  35:/home/lsk/paparazzi/var/include/messages.h **** #define DL_RANGEFINDER 29
  36:/home/lsk/paparazzi/var/include/messages.h **** #define DL_DATALINK_REPORT 30
  37:/home/lsk/paparazzi/var/include/messages.h **** #define DL_DL_VALUE 31
  38:/home/lsk/paparazzi/var/include/messages.h **** #define DL_MARK 32
  39:/home/lsk/paparazzi/var/include/messages.h **** #define DL_SYS_MON 33
  40:/home/lsk/paparazzi/var/include/messages.h **** #define DL_MOTOR 34
  41:/home/lsk/paparazzi/var/include/messages.h **** #define DL_WP_MOVED 35
  42:/home/lsk/paparazzi/var/include/messages.h **** #define DL_MKK 36
  43:/home/lsk/paparazzi/var/include/messages.h **** #define DL_ENERGY 37
  44:/home/lsk/paparazzi/var/include/messages.h **** #define DL_BARO_BMP85_CALIB 38
  45:/home/lsk/paparazzi/var/include/messages.h **** #define DL_BARO_BMP85 39
  46:/home/lsk/paparazzi/var/include/messages.h **** #define DL_SPEED_LOOP 40
  47:/home/lsk/paparazzi/var/include/messages.h **** #define DL_ALT_KALMAN 41
  48:/home/lsk/paparazzi/var/include/messages.h **** #define DL_ESTIMATOR 42
  49:/home/lsk/paparazzi/var/include/messages.h **** #define DL_TUNE_ROLL 43
  50:/home/lsk/paparazzi/var/include/messages.h **** #define DL_BARO_MS5534A 44
  51:/home/lsk/paparazzi/var/include/messages.h **** #define DL_PRESSURE 45
  52:/home/lsk/paparazzi/var/include/messages.h **** #define DL_BARO_WORDS 46
  53:/home/lsk/paparazzi/var/include/messages.h **** #define DL_WP_MOVED_LLA 47
  54:/home/lsk/paparazzi/var/include/messages.h **** #define DL_CHRONO 48
  55:/home/lsk/paparazzi/var/include/messages.h **** #define DL_WP_MOVED_ENU 49
  56:/home/lsk/paparazzi/var/include/messages.h **** #define DL_WINDTURBINE_STATUS_ 50
  57:/home/lsk/paparazzi/var/include/messages.h **** #define DL_RC_3CH_ 51
  58:/home/lsk/paparazzi/var/include/messages.h **** #define DL_MPPT 52
  59:/home/lsk/paparazzi/var/include/messages.h **** #define DL_DEBUG_IR_I2C 53
  60:/home/lsk/paparazzi/var/include/messages.h **** #define DL_AIRSPEED 54
  61:/home/lsk/paparazzi/var/include/messages.h **** #define DL_XSENS 55
  62:/home/lsk/paparazzi/var/include/messages.h **** #define DL_BARO_ETS 56
  63:/home/lsk/paparazzi/var/include/messages.h **** #define DL_AIRSPEED_ETS 57
  64:/home/lsk/paparazzi/var/include/messages.h **** #define DL_PBN 58
  65:/home/lsk/paparazzi/var/include/messages.h **** #define DL_GPS_LLA 59
  66:/home/lsk/paparazzi/var/include/messages.h **** #define DL_H_CTL_A 60
  67:/home/lsk/paparazzi/var/include/messages.h **** #define DL_TURB_PRESSURE_RAW 61
  68:/home/lsk/paparazzi/var/include/messages.h **** #define DL_TURB_PRESSURE_VOLTAGE 62
  69:/home/lsk/paparazzi/var/include/messages.h **** #define DL_CAM_POINT 63
  70:/home/lsk/paparazzi/var/include/messages.h **** #define DL_DC_INFO 64
  71:/home/lsk/paparazzi/var/include/messages.h **** #define DL_AMSYS_BARO 65
  72:/home/lsk/paparazzi/var/include/messages.h **** #define DL_AMSYS_AIRSPEED 66
  73:/home/lsk/paparazzi/var/include/messages.h **** #define DL_FLIGHT_BENCHMARK 67
  74:/home/lsk/paparazzi/var/include/messages.h **** #define DL_MPL3115_BARO 68
  75:/home/lsk/paparazzi/var/include/messages.h **** #define DL_AOA_ADC 69
  76:/home/lsk/paparazzi/var/include/messages.h **** #define DL_XTEND_RSSI 70
  77:/home/lsk/paparazzi/var/include/messages.h **** #define DL_SUPERBITRF 72
  78:/home/lsk/paparazzi/var/include/messages.h **** #define DL_GX3_INFO 73
  79:/home/lsk/paparazzi/var/include/messages.h **** #define DL_EXPLAIN 74
  80:/home/lsk/paparazzi/var/include/messages.h **** #define DL_VIDEO_TELEMETRY 75
  81:/home/lsk/paparazzi/var/include/messages.h **** #define DL_VF_UPDATE 76
  82:/home/lsk/paparazzi/var/include/messages.h **** #define DL_VF_PREDICT 77
  83:/home/lsk/paparazzi/var/include/messages.h **** #define DL_INV_FILTER 78
  84:/home/lsk/paparazzi/var/include/messages.h **** #define DL_MISSION_STATUS 79
  85:/home/lsk/paparazzi/var/include/messages.h **** #define DL_CROSS_TRACK_ERROR 80
  86:/home/lsk/paparazzi/var/include/messages.h **** #define DL_GENERIC_COM 81
  87:/home/lsk/paparazzi/var/include/messages.h **** #define DL_FORMATION_SLOT_TM 82
  88:/home/lsk/paparazzi/var/include/messages.h **** #define DL_FORMATION_STATUS_TM 83
  89:/home/lsk/paparazzi/var/include/messages.h **** #define DL_BMP_STATUS 84
  90:/home/lsk/paparazzi/var/include/messages.h **** #define DL_MLX_STATUS 85
  91:/home/lsk/paparazzi/var/include/messages.h **** #define DL_TMP_STATUS 86
  92:/home/lsk/paparazzi/var/include/messages.h **** #define DL_WIND_INFO_RET 87
  93:/home/lsk/paparazzi/var/include/messages.h **** #define DL_SCP_STATUS 88
  94:/home/lsk/paparazzi/var/include/messages.h **** #define DL_SHT_STATUS 89
  95:/home/lsk/paparazzi/var/include/messages.h **** #define DL_ENOSE_STATUS 90
  96:/home/lsk/paparazzi/var/include/messages.h **** #define DL_DPICCO_STATUS 91
  97:/home/lsk/paparazzi/var/include/messages.h **** #define DL_ANTENNA_DEBUG 92
  98:/home/lsk/paparazzi/var/include/messages.h **** #define DL_ANTENNA_STATUS 93
  99:/home/lsk/paparazzi/var/include/messages.h **** #define DL_MOTOR_BENCH_STATUS 94
 100:/home/lsk/paparazzi/var/include/messages.h **** #define DL_MOTOR_BENCH_STATIC 95
 101:/home/lsk/paparazzi/var/include/messages.h **** #define DL_HIH_STATUS 96
 102:/home/lsk/paparazzi/var/include/messages.h **** #define DL_TEMT_STATUS 97
 103:/home/lsk/paparazzi/var/include/messages.h **** #define DL_GP2Y_STATUS 98
 104:/home/lsk/paparazzi/var/include/messages.h **** #define DL_SHT_I2C_SERIAL 99
 105:/home/lsk/paparazzi/var/include/messages.h **** #define DL_PPM 100
 106:/home/lsk/paparazzi/var/include/messages.h **** #define DL_RC 101
 107:/home/lsk/paparazzi/var/include/messages.h **** #define DL_COMMANDS 102
 108:/home/lsk/paparazzi/var/include/messages.h **** #define DL_FBW_STATUS 103
 109:/home/lsk/paparazzi/var/include/messages.h **** #define DL_ADC 104
 110:/home/lsk/paparazzi/var/include/messages.h **** #define DL_ACTUATORS 105
 111:/home/lsk/paparazzi/var/include/messages.h **** #define DL_DC_SHOT 110
 112:/home/lsk/paparazzi/var/include/messages.h **** #define DL_TEST_BOARD_RESULTS 111
 113:/home/lsk/paparazzi/var/include/messages.h **** #define DL_MLX_SERIAL 113
 114:/home/lsk/paparazzi/var/include/messages.h **** #define DL_PAYLOAD 114
 115:/home/lsk/paparazzi/var/include/messages.h **** #define DL_HTM_STATUS 115
 116:/home/lsk/paparazzi/var/include/messages.h **** #define DL_BARO_MS5611 116
 117:/home/lsk/paparazzi/var/include/messages.h **** #define DL_MS5611_COEFF 117
 118:/home/lsk/paparazzi/var/include/messages.h **** #define DL_ATMOSPHERE_CHARGE 118
 119:/home/lsk/paparazzi/var/include/messages.h **** #define DL_SOLAR_RADIATION 119
 120:/home/lsk/paparazzi/var/include/messages.h **** #define DL_TCAS_TA 120
 121:/home/lsk/paparazzi/var/include/messages.h **** #define DL_TCAS_RA 121
 122:/home/lsk/paparazzi/var/include/messages.h **** #define DL_TCAS_RESOLVED 122
 123:/home/lsk/paparazzi/var/include/messages.h **** #define DL_TCAS_DEBUG 123
 124:/home/lsk/paparazzi/var/include/messages.h **** #define DL_POTENTIAL 124
 125:/home/lsk/paparazzi/var/include/messages.h **** #define DL_VERTICAL_ENERGY 125
 126:/home/lsk/paparazzi/var/include/messages.h **** #define DL_TEMP_TCOUPLE 126
 127:/home/lsk/paparazzi/var/include/messages.h **** #define DL_SHT_I2C_STATUS 127
 128:/home/lsk/paparazzi/var/include/messages.h **** #define DL_CAMERA_SNAPSHOT 128
 129:/home/lsk/paparazzi/var/include/messages.h **** #define DL_TIMESTAMP 129
 130:/home/lsk/paparazzi/var/include/messages.h **** #define DL_STAB_ATTITUDE_FLOAT 130
 131:/home/lsk/paparazzi/var/include/messages.h **** #define DL_IMU_GYRO_SCALED 131
 132:/home/lsk/paparazzi/var/include/messages.h **** #define DL_IMU_ACCEL_SCALED 132
 133:/home/lsk/paparazzi/var/include/messages.h **** #define DL_IMU_MAG_SCALED 133
 134:/home/lsk/paparazzi/var/include/messages.h **** #define DL_FILTER 134
 135:/home/lsk/paparazzi/var/include/messages.h **** #define DL_FILTER2 135
 136:/home/lsk/paparazzi/var/include/messages.h **** #define DL_RATE_LOOP 136
 137:/home/lsk/paparazzi/var/include/messages.h **** #define DL_FILTER_ALIGNER 137
 138:/home/lsk/paparazzi/var/include/messages.h **** #define DL_AIRSPEED_MS45XX 138
 139:/home/lsk/paparazzi/var/include/messages.h **** #define DL_FILTER_COR 139
 140:/home/lsk/paparazzi/var/include/messages.h **** #define DL_STAB_ATTITUDE_INT 140
 141:/home/lsk/paparazzi/var/include/messages.h **** #define DL_STAB_ATTITUDE_REF_INT 141
 142:/home/lsk/paparazzi/var/include/messages.h **** #define DL_STAB_ATTITUDE_REF_FLOAT 142
 143:/home/lsk/paparazzi/var/include/messages.h **** #define DL_ROTORCRAFT_CMD 143
 144:/home/lsk/paparazzi/var/include/messages.h **** #define DL_GUIDANCE_H_INT 144
 145:/home/lsk/paparazzi/var/include/messages.h **** #define DL_VERT_LOOP 145
 146:/home/lsk/paparazzi/var/include/messages.h **** #define DL_HOVER_LOOP 146
 147:/home/lsk/paparazzi/var/include/messages.h **** #define DL_ROTORCRAFT_FP 147
 148:/home/lsk/paparazzi/var/include/messages.h **** #define DL_TEMP_ADC 148
 149:/home/lsk/paparazzi/var/include/messages.h **** #define DL_GUIDANCE_H_REF_INT 149
 150:/home/lsk/paparazzi/var/include/messages.h **** #define DL_ROTORCRAFT_TUNE_HOVER 150
 151:/home/lsk/paparazzi/var/include/messages.h **** #define DL_INS_Z 151
 152:/home/lsk/paparazzi/var/include/messages.h **** #define DL_PCAP01_STATUS 152
 153:/home/lsk/paparazzi/var/include/messages.h **** #define DL_GEIGER_COUNTER 153
 154:/home/lsk/paparazzi/var/include/messages.h **** #define DL_INS_REF 154
 155:/home/lsk/paparazzi/var/include/messages.h **** #define DL_GPS_INT 155
 156:/home/lsk/paparazzi/var/include/messages.h **** #define DL_AHRS_EULER_INT 156
 157:/home/lsk/paparazzi/var/include/messages.h **** #define DL_AHRS_QUAT_INT 157
 158:/home/lsk/paparazzi/var/include/messages.h **** #define DL_AHRS_RMAT_INT 158
 159:/home/lsk/paparazzi/var/include/messages.h **** #define DL_ROTORCRAFT_NAV_STATUS 159
 160:/home/lsk/paparazzi/var/include/messages.h **** #define DL_ROTORCRAFT_RADIO_CONTROL 160
 161:/home/lsk/paparazzi/var/include/messages.h **** #define DL_VFF_EXTENDED 161
 162:/home/lsk/paparazzi/var/include/messages.h **** #define DL_VFF 162
 163:/home/lsk/paparazzi/var/include/messages.h **** #define DL_GEO_MAG 163
 164:/home/lsk/paparazzi/var/include/messages.h **** #define DL_HFF 164
 165:/home/lsk/paparazzi/var/include/messages.h **** #define DL_HFF_DBG 165
 166:/home/lsk/paparazzi/var/include/messages.h **** #define DL_HFF_GPS 166
 167:/home/lsk/paparazzi/var/include/messages.h **** #define DL_INS_SONAR 167
 168:/home/lsk/paparazzi/var/include/messages.h **** #define DL_ROTORCRAFT_CAM 168
 169:/home/lsk/paparazzi/var/include/messages.h **** #define DL_AHRS_REF_QUAT 169
 170:/home/lsk/paparazzi/var/include/messages.h **** #define DL_EKF7_XHAT 170
 171:/home/lsk/paparazzi/var/include/messages.h **** #define DL_EKF7_Y 171
 172:/home/lsk/paparazzi/var/include/messages.h **** #define DL_EKF7_P_DIAG 172
 173:/home/lsk/paparazzi/var/include/messages.h **** #define DL_AHRS_EULER 173
 174:/home/lsk/paparazzi/var/include/messages.h **** #define DL_AHRS_MEASUREMENT_EULER 174
 175:/home/lsk/paparazzi/var/include/messages.h **** #define DL_WT 175
 176:/home/lsk/paparazzi/var/include/messages.h **** #define DL_CSC_CAN_DEBUG 176
 177:/home/lsk/paparazzi/var/include/messages.h **** #define DL_CSC_CAN_MSG 177
 178:/home/lsk/paparazzi/var/include/messages.h **** #define DL_AHRS_GYRO_BIAS_INT 178
 179:/home/lsk/paparazzi/var/include/messages.h **** #define DL_FLOW_AP_OTF 179
 180:/home/lsk/paparazzi/var/include/messages.h **** #define DL_FMS_TIME 180
 181:/home/lsk/paparazzi/var/include/messages.h **** #define DL_LOADCELL 181
 182:/home/lsk/paparazzi/var/include/messages.h **** #define DL_FLA_DEBUG 182
 183:/home/lsk/paparazzi/var/include/messages.h **** #define DL_BLMC_FAULT_STATUS 183
 184:/home/lsk/paparazzi/var/include/messages.h **** #define DL_BLMC_SPEEDS 184
 185:/home/lsk/paparazzi/var/include/messages.h **** #define DL_AHRS_DEBUG_QUAT 185
 186:/home/lsk/paparazzi/var/include/messages.h **** #define DL_BLMC_BUSVOLTS 186
 187:/home/lsk/paparazzi/var/include/messages.h **** #define DL_SYSTEM_STATUS 187
 188:/home/lsk/paparazzi/var/include/messages.h **** #define DL_DYNAMIXEL 188
 189:/home/lsk/paparazzi/var/include/messages.h **** #define DL_RMAT_DEBUG 189
 190:/home/lsk/paparazzi/var/include/messages.h **** #define DL_SIMPLE_COMMANDS 190
 191:/home/lsk/paparazzi/var/include/messages.h **** #define DL_VANE_SENSOR 191
 192:/home/lsk/paparazzi/var/include/messages.h **** #define DL_CONTROLLER_GAINS 192
 193:/home/lsk/paparazzi/var/include/messages.h **** #define DL_AHRS_LKF 193
 194:/home/lsk/paparazzi/var/include/messages.h **** #define DL_AHRS_LKF_DEBUG 194
 195:/home/lsk/paparazzi/var/include/messages.h **** #define DL_AHRS_LKF_ACC_DBG 195
 196:/home/lsk/paparazzi/var/include/messages.h **** #define DL_AHRS_LKF_MAG_DBG 196
 197:/home/lsk/paparazzi/var/include/messages.h **** #define DL_NPS_SENSORS_SCALED 197
 198:/home/lsk/paparazzi/var/include/messages.h **** #define DL_INS 198
 199:/home/lsk/paparazzi/var/include/messages.h **** #define DL_GPS_ERROR 199
 200:/home/lsk/paparazzi/var/include/messages.h **** #define DL_IMU_GYRO 200
 201:/home/lsk/paparazzi/var/include/messages.h **** #define DL_IMU_MAG 201
 202:/home/lsk/paparazzi/var/include/messages.h **** #define DL_IMU_ACCEL 202
 203:/home/lsk/paparazzi/var/include/messages.h **** #define DL_IMU_GYRO_RAW 203
 204:/home/lsk/paparazzi/var/include/messages.h **** #define DL_IMU_ACCEL_RAW 204
 205:/home/lsk/paparazzi/var/include/messages.h **** #define DL_IMU_MAG_RAW 205
 206:/home/lsk/paparazzi/var/include/messages.h **** #define DL_IMU_MAG_SETTINGS 206
 207:/home/lsk/paparazzi/var/include/messages.h **** #define DL_IMU_MAG_CURRENT_CALIBRATION 207
 208:/home/lsk/paparazzi/var/include/messages.h **** #define DL_UART_ERRORS 208
 209:/home/lsk/paparazzi/var/include/messages.h **** #define DL_IMU_GYRO_LP 209
 210:/home/lsk/paparazzi/var/include/messages.h **** #define DL_IMU_PRESSURE 210
 211:/home/lsk/paparazzi/var/include/messages.h **** #define DL_IMU_HS_GYRO 211
 212:/home/lsk/paparazzi/var/include/messages.h **** #define DL_TEST_PASSTHROUGH_STATUS 212
 213:/home/lsk/paparazzi/var/include/messages.h **** #define DL_TUNE_VERT 213
 214:/home/lsk/paparazzi/var/include/messages.h **** #define DL_MF_DAQ_STATE 214
 215:/home/lsk/paparazzi/var/include/messages.h **** #define DL_INFO_MSG 215
 216:/home/lsk/paparazzi/var/include/messages.h **** #define DL_BEBOP_ACTUATORS 218
 217:/home/lsk/paparazzi/var/include/messages.h **** #define DL_WEATHER 219
 218:/home/lsk/paparazzi/var/include/messages.h **** #define DL_IMU_TURNTABLE 220
 219:/home/lsk/paparazzi/var/include/messages.h **** #define DL_BARO_RAW 221
 220:/home/lsk/paparazzi/var/include/messages.h **** #define DL_AIR_DATA 222
 221:/home/lsk/paparazzi/var/include/messages.h **** #define DL_AMSL 223
 222:/home/lsk/paparazzi/var/include/messages.h **** #define DL_VIDEO_SYNC 225
 223:/home/lsk/paparazzi/var/include/messages.h **** #define DL_PERIODIC_TELEMETRY_ERR 226
 224:/home/lsk/paparazzi/var/include/messages.h **** #define DL_TIME 227
 225:/home/lsk/paparazzi/var/include/messages.h **** #define DL_OPTIC_FLOW_EST 228
 226:/home/lsk/paparazzi/var/include/messages.h **** #define DL_AHRS_ARDRONE2 230
 227:/home/lsk/paparazzi/var/include/messages.h **** #define DL_ROTORCRAFT_STATUS 231
 228:/home/lsk/paparazzi/var/include/messages.h **** #define DL_STATE_FILTER_STATUS 232
 229:/home/lsk/paparazzi/var/include/messages.h **** #define DL_PX4FLOW 233
 230:/home/lsk/paparazzi/var/include/messages.h **** #define DL_OPTICFLOW 234
 231:/home/lsk/paparazzi/var/include/messages.h **** #define DL_VISUALTARGET 235
 232:/home/lsk/paparazzi/var/include/messages.h **** #define DL_SONAR 236
 233:/home/lsk/paparazzi/var/include/messages.h **** #define DL_PAYLOAD_FLOAT 237
 234:/home/lsk/paparazzi/var/include/messages.h **** #define DL_NPS_POS_LLH 238
 235:/home/lsk/paparazzi/var/include/messages.h **** #define DL_NPS_RPMS 239
 236:/home/lsk/paparazzi/var/include/messages.h **** #define DL_NPS_SPEED_POS 240
 237:/home/lsk/paparazzi/var/include/messages.h **** #define DL_NPS_RATE_ATTITUDE 241
 238:/home/lsk/paparazzi/var/include/messages.h **** #define DL_NPS_GYRO_BIAS 242
 239:/home/lsk/paparazzi/var/include/messages.h **** #define DL_NPS_RANGE_METER 243
 240:/home/lsk/paparazzi/var/include/messages.h **** #define DL_NPS_WIND 244
 241:/home/lsk/paparazzi/var/include/messages.h **** #define DL_PPRZ_DEBUG 247
 242:/home/lsk/paparazzi/var/include/messages.h **** #define DL_NPS_ACCEL_LTP 248
 243:/home/lsk/paparazzi/var/include/messages.h **** #define DL_LOOSE_INS_GPS 249
 244:/home/lsk/paparazzi/var/include/messages.h **** #define DL_AFL_COEFFS 250
 245:/home/lsk/paparazzi/var/include/messages.h **** #define DL_I2C_ERRORS 253
 246:/home/lsk/paparazzi/var/include/messages.h **** #define DL_RDYB_TRAJECTORY 254
 247:/home/lsk/paparazzi/var/include/messages.h **** #define DL_HENRY_GNSS 255
 248:/home/lsk/paparazzi/var/include/messages.h **** #define DL_MSG_telemetry_NB 239
 249:/home/lsk/paparazzi/var/include/messages.h **** 
 250:/home/lsk/paparazzi/var/include/messages.h **** #define DOWNLINK_SEND_AUTOPILOT_VERSION(_trans, _dev, version, nb_desc, desc) pprz_msg_send_AUTOPIL
 251:/home/lsk/paparazzi/var/include/messages.h **** static inline void pprz_msg_send_AUTOPILOT_VERSION(struct transport_tx *trans, struct link_device *
 252:/home/lsk/paparazzi/var/include/messages.h **** 	if (trans->check_available_space(trans->impl, dev, trans->size_of(trans->impl, 0+4+1+nb_desc*1 +2 
 253:/home/lsk/paparazzi/var/include/messages.h **** 	  trans->count_bytes(trans->impl, dev, trans->size_of(trans->impl, 0+4+1+nb_desc*1 +2 /* msg heade
 254:/home/lsk/paparazzi/var/include/messages.h **** 	  trans->start_message(trans->impl, dev, 0+4+1+nb_desc*1 +2 /* msg header overhead */);
 255:/home/lsk/paparazzi/var/include/messages.h **** 	  trans->put_bytes(trans->impl, dev, DL_TYPE_UINT8, DL_FORMAT_SCALAR, 1, &ac_id);
 256:/home/lsk/paparazzi/var/include/messages.h **** 	  trans->put_named_byte(trans->impl, dev, DL_TYPE_UINT8, DL_FORMAT_SCALAR, DL_AUTOPILOT_VERSION, "
 257:/home/lsk/paparazzi/var/include/messages.h **** 	  trans->put_bytes(trans->impl, dev, DL_TYPE_UINT32, DL_FORMAT_SCALAR, 4, (void *) _version);
 258:/home/lsk/paparazzi/var/include/messages.h **** 	  trans->put_bytes(trans->impl, dev, DL_TYPE_ARRAY_LENGTH, DL_FORMAT_SCALAR, 1, (void *) &nb_desc)
 259:/home/lsk/paparazzi/var/include/messages.h **** 	  trans->put_bytes(trans->impl, dev, DL_TYPE_CHAR, DL_FORMAT_ARRAY, 1 * nb_desc, (void *) _desc);
 260:/home/lsk/paparazzi/var/include/messages.h **** 	  trans->end_message(trans->impl, dev);
 261:/home/lsk/paparazzi/var/include/messages.h **** 	} else
 262:/home/lsk/paparazzi/var/include/messages.h **** 	  trans->overrun(trans->impl, dev);
 263:/home/lsk/paparazzi/var/include/messages.h **** }
 264:/home/lsk/paparazzi/var/include/messages.h **** 
 265:/home/lsk/paparazzi/var/include/messages.h **** #define DOWNLINK_SEND_ALIVE(_trans, _dev, nb_md5sum, md5sum) pprz_msg_send_ALIVE(&((_trans).trans_t
 266:/home/lsk/paparazzi/var/include/messages.h **** static inline void pprz_msg_send_ALIVE(struct transport_tx *trans, struct link_device *dev, uint8_t
 267:/home/lsk/paparazzi/var/include/messages.h **** 	if (trans->check_available_space(trans->impl, dev, trans->size_of(trans->impl, 0+1+nb_md5sum*1 +2 
 268:/home/lsk/paparazzi/var/include/messages.h **** 	  trans->count_bytes(trans->impl, dev, trans->size_of(trans->impl, 0+1+nb_md5sum*1 +2 /* msg heade
 269:/home/lsk/paparazzi/var/include/messages.h **** 	  trans->start_message(trans->impl, dev, 0+1+nb_md5sum*1 +2 /* msg header overhead */);
 270:/home/lsk/paparazzi/var/include/messages.h **** 	  trans->put_bytes(trans->impl, dev, DL_TYPE_UINT8, DL_FORMAT_SCALAR, 1, &ac_id);
 271:/home/lsk/paparazzi/var/include/messages.h **** 	  trans->put_named_byte(trans->impl, dev, DL_TYPE_UINT8, DL_FORMAT_SCALAR, DL_ALIVE, "ALIVE");
 272:/home/lsk/paparazzi/var/include/messages.h **** 	  trans->put_bytes(trans->impl, dev, DL_TYPE_ARRAY_LENGTH, DL_FORMAT_SCALAR, 1, (void *) &nb_md5su
 273:/home/lsk/paparazzi/var/include/messages.h **** 	  trans->put_bytes(trans->impl, dev, DL_TYPE_UINT8, DL_FORMAT_ARRAY, 1 * nb_md5sum, (void *) _md5s
 274:/home/lsk/paparazzi/var/include/messages.h **** 	  trans->end_message(trans->impl, dev);
 275:/home/lsk/paparazzi/var/include/messages.h **** 	} else
 276:/home/lsk/paparazzi/var/include/messages.h **** 	  trans->overrun(trans->impl, dev);
 277:/home/lsk/paparazzi/var/include/messages.h **** }
 278:/home/lsk/paparazzi/var/include/messages.h **** 
 279:/home/lsk/paparazzi/var/include/messages.h **** #define DOWNLINK_SEND_PONG(_trans, _dev) pprz_msg_send_PONG(&((_trans).trans_tx), &((_dev).device),
 280:/home/lsk/paparazzi/var/include/messages.h **** static inline void pprz_msg_send_PONG(struct transport_tx *trans, struct link_device *dev, uint8_t 
 281:/home/lsk/paparazzi/var/include/messages.h **** 	if (trans->check_available_space(trans->impl, dev, trans->size_of(trans->impl, 0 +2 /* msg header 
 282:/home/lsk/paparazzi/var/include/messages.h **** 	  trans->count_bytes(trans->impl, dev, trans->size_of(trans->impl, 0 +2 /* msg header overhead */)
 283:/home/lsk/paparazzi/var/include/messages.h **** 	  trans->start_message(trans->impl, dev, 0 +2 /* msg header overhead */);
 284:/home/lsk/paparazzi/var/include/messages.h **** 	  trans->put_bytes(trans->impl, dev, DL_TYPE_UINT8, DL_FORMAT_SCALAR, 1, &ac_id);
 285:/home/lsk/paparazzi/var/include/messages.h **** 	  trans->put_named_byte(trans->impl, dev, DL_TYPE_UINT8, DL_FORMAT_SCALAR, DL_PONG, "PONG");
 286:/home/lsk/paparazzi/var/include/messages.h **** 	  trans->end_message(trans->impl, dev);
 287:/home/lsk/paparazzi/var/include/messages.h **** 	} else
 288:/home/lsk/paparazzi/var/include/messages.h **** 	  trans->overrun(trans->impl, dev);
 289:/home/lsk/paparazzi/var/include/messages.h **** }
 290:/home/lsk/paparazzi/var/include/messages.h **** 
 291:/home/lsk/paparazzi/var/include/messages.h **** #define DOWNLINK_SEND_TAKEOFF(_trans, _dev, cpu_time) pprz_msg_send_TAKEOFF(&((_trans).trans_tx), &
 292:/home/lsk/paparazzi/var/include/messages.h **** static inline void pprz_msg_send_TAKEOFF(struct transport_tx *trans, struct link_device *dev, uint8
 293:/home/lsk/paparazzi/var/include/messages.h **** 	if (trans->check_available_space(trans->impl, dev, trans->size_of(trans->impl, 0+2 +2 /* msg heade
 294:/home/lsk/paparazzi/var/include/messages.h **** 	  trans->count_bytes(trans->impl, dev, trans->size_of(trans->impl, 0+2 +2 /* msg header overhead *
 295:/home/lsk/paparazzi/var/include/messages.h **** 	  trans->start_message(trans->impl, dev, 0+2 +2 /* msg header overhead */);
 296:/home/lsk/paparazzi/var/include/messages.h **** 	  trans->put_bytes(trans->impl, dev, DL_TYPE_UINT8, DL_FORMAT_SCALAR, 1, &ac_id);
 297:/home/lsk/paparazzi/var/include/messages.h **** 	  trans->put_named_byte(trans->impl, dev, DL_TYPE_UINT8, DL_FORMAT_SCALAR, DL_TAKEOFF, "TAKEOFF");
 298:/home/lsk/paparazzi/var/include/messages.h **** 	  trans->put_bytes(trans->impl, dev, DL_TYPE_UINT16, DL_FORMAT_SCALAR, 2, (void *) _cpu_time);
 299:/home/lsk/paparazzi/var/include/messages.h **** 	  trans->end_message(trans->impl, dev);
 300:/home/lsk/paparazzi/var/include/messages.h **** 	} else
 301:/home/lsk/paparazzi/var/include/messages.h **** 	  trans->overrun(trans->impl, dev);
 302:/home/lsk/paparazzi/var/include/messages.h **** }
 303:/home/lsk/paparazzi/var/include/messages.h **** 
 304:/home/lsk/paparazzi/var/include/messages.h **** #define DOWNLINK_SEND_ARDRONE_NAVDATA(_trans, _dev, taille, nu_trame, ax, ay, az, vx, vy, vz, tempe
 305:/home/lsk/paparazzi/var/include/messages.h **** static inline void pprz_msg_send_ARDRONE_NAVDATA(struct transport_tx *trans, struct link_device *de
 306:/home/lsk/paparazzi/var/include/messages.h **** 	if (trans->check_available_space(trans->impl, dev, trans->size_of(trans->impl, 0+2+2+2+2+2+2+2+2+2
 307:/home/lsk/paparazzi/var/include/messages.h **** 	  trans->count_bytes(trans->impl, dev, trans->size_of(trans->impl, 0+2+2+2+2+2+2+2+2+2+2+2+2+2+2+2
 308:/home/lsk/paparazzi/var/include/messages.h **** 	  trans->start_message(trans->impl, dev, 0+2+2+2+2+2+2+2+2+2+2+2+2+2+2+2+2+2+2+2+4+2+2+4+2+2+2+2+2
 309:/home/lsk/paparazzi/var/include/messages.h **** 	  trans->put_bytes(trans->impl, dev, DL_TYPE_UINT8, DL_FORMAT_SCALAR, 1, &ac_id);
 310:/home/lsk/paparazzi/var/include/messages.h **** 	  trans->put_named_byte(trans->impl, dev, DL_TYPE_UINT8, DL_FORMAT_SCALAR, DL_ARDRONE_NAVDATA, "AR
 311:/home/lsk/paparazzi/var/include/messages.h **** 	  trans->put_bytes(trans->impl, dev, DL_TYPE_UINT16, DL_FORMAT_SCALAR, 2, (void *) _taille);
 312:/home/lsk/paparazzi/var/include/messages.h **** 	  trans->put_bytes(trans->impl, dev, DL_TYPE_UINT16, DL_FORMAT_SCALAR, 2, (void *) _nu_trame);
 313:/home/lsk/paparazzi/var/include/messages.h **** 	  trans->put_bytes(trans->impl, dev, DL_TYPE_UINT16, DL_FORMAT_SCALAR, 2, (void *) _ax);
 314:/home/lsk/paparazzi/var/include/messages.h **** 	  trans->put_bytes(trans->impl, dev, DL_TYPE_UINT16, DL_FORMAT_SCALAR, 2, (void *) _ay);
 315:/home/lsk/paparazzi/var/include/messages.h **** 	  trans->put_bytes(trans->impl, dev, DL_TYPE_UINT16, DL_FORMAT_SCALAR, 2, (void *) _az);
 316:/home/lsk/paparazzi/var/include/messages.h **** 	  trans->put_bytes(trans->impl, dev, DL_TYPE_INT16, DL_FORMAT_SCALAR, 2, (void *) _vx);
 317:/home/lsk/paparazzi/var/include/messages.h **** 	  trans->put_bytes(trans->impl, dev, DL_TYPE_INT16, DL_FORMAT_SCALAR, 2, (void *) _vy);
 318:/home/lsk/paparazzi/var/include/messages.h **** 	  trans->put_bytes(trans->impl, dev, DL_TYPE_INT16, DL_FORMAT_SCALAR, 2, (void *) _vz);
 319:/home/lsk/paparazzi/var/include/messages.h **** 	  trans->put_bytes(trans->impl, dev, DL_TYPE_UINT16, DL_FORMAT_SCALAR, 2, (void *) _temperature_ac
 320:/home/lsk/paparazzi/var/include/messages.h **** 	  trans->put_bytes(trans->impl, dev, DL_TYPE_UINT16, DL_FORMAT_SCALAR, 2, (void *) _temperature_gy
 321:/home/lsk/paparazzi/var/include/messages.h **** 	  trans->put_bytes(trans->impl, dev, DL_TYPE_UINT16, DL_FORMAT_SCALAR, 2, (void *) _ultrasound);
 322:/home/lsk/paparazzi/var/include/messages.h **** 	  trans->put_bytes(trans->impl, dev, DL_TYPE_UINT16, DL_FORMAT_SCALAR, 2, (void *) _us_debut_echo)
 323:/home/lsk/paparazzi/var/include/messages.h **** 	  trans->put_bytes(trans->impl, dev, DL_TYPE_UINT16, DL_FORMAT_SCALAR, 2, (void *) _us_fin_echo);
 324:/home/lsk/paparazzi/var/include/messages.h **** 	  trans->put_bytes(trans->impl, dev, DL_TYPE_UINT16, DL_FORMAT_SCALAR, 2, (void *) _us_association
 325:/home/lsk/paparazzi/var/include/messages.h **** 	  trans->put_bytes(trans->impl, dev, DL_TYPE_UINT16, DL_FORMAT_SCALAR, 2, (void *) _us_distance_ec
 326:/home/lsk/paparazzi/var/include/messages.h **** 	  trans->put_bytes(trans->impl, dev, DL_TYPE_UINT16, DL_FORMAT_SCALAR, 2, (void *) _us_curve_time)
 327:/home/lsk/paparazzi/var/include/messages.h **** 	  trans->put_bytes(trans->impl, dev, DL_TYPE_UINT16, DL_FORMAT_SCALAR, 2, (void *) _us_curve_value
 328:/home/lsk/paparazzi/var/include/messages.h **** 	  trans->put_bytes(trans->impl, dev, DL_TYPE_UINT16, DL_FORMAT_SCALAR, 2, (void *) _us_curve_ref);
 329:/home/lsk/paparazzi/var/include/messages.h **** 	  trans->put_bytes(trans->impl, dev, DL_TYPE_UINT16, DL_FORMAT_SCALAR, 2, (void *) _nb_echo);
 330:/home/lsk/paparazzi/var/include/messages.h **** 	  trans->put_bytes(trans->impl, dev, DL_TYPE_UINT32, DL_FORMAT_SCALAR, 4, (void *) _sum_echo);
 331:/home/lsk/paparazzi/var/include/messages.h **** 	  trans->put_bytes(trans->impl, dev, DL_TYPE_INT16, DL_FORMAT_SCALAR, 2, (void *) _gradient);
 332:/home/lsk/paparazzi/var/include/messages.h **** 	  trans->put_bytes(trans->impl, dev, DL_TYPE_UINT16, DL_FORMAT_SCALAR, 2, (void *) _flag_echo_ini)
 333:/home/lsk/paparazzi/var/include/messages.h **** 	  trans->put_bytes(trans->impl, dev, DL_TYPE_INT32, DL_FORMAT_SCALAR, 4, (void *) _pressure);
 334:/home/lsk/paparazzi/var/include/messages.h **** 	  trans->put_bytes(trans->impl, dev, DL_TYPE_UINT16, DL_FORMAT_SCALAR, 2, (void *) _temperature_pr
 335:/home/lsk/paparazzi/var/include/messages.h **** 	  trans->put_bytes(trans->impl, dev, DL_TYPE_INT16, DL_FORMAT_SCALAR, 2, (void *) _mx);
 336:/home/lsk/paparazzi/var/include/messages.h **** 	  trans->put_bytes(trans->impl, dev, DL_TYPE_INT16, DL_FORMAT_SCALAR, 2, (void *) _my);
 337:/home/lsk/paparazzi/var/include/messages.h **** 	  trans->put_bytes(trans->impl, dev, DL_TYPE_INT16, DL_FORMAT_SCALAR, 2, (void *) _mz);
 338:/home/lsk/paparazzi/var/include/messages.h **** 	  trans->put_bytes(trans->impl, dev, DL_TYPE_UINT16, DL_FORMAT_SCALAR, 2, (void *) _chksum);
 339:/home/lsk/paparazzi/var/include/messages.h **** 	  trans->put_bytes(trans->impl, dev, DL_TYPE_UINT32, DL_FORMAT_SCALAR, 4, (void *) _checksum_error
 340:/home/lsk/paparazzi/var/include/messages.h **** 	  trans->end_message(trans->impl, dev);
 341:/home/lsk/paparazzi/var/include/messages.h **** 	} else
 342:/home/lsk/paparazzi/var/include/messages.h **** 	  trans->overrun(trans->impl, dev);
 343:/home/lsk/paparazzi/var/include/messages.h **** }
 344:/home/lsk/paparazzi/var/include/messages.h **** 
 345:/home/lsk/paparazzi/var/include/messages.h **** #define DOWNLINK_SEND_ATTITUDE(_trans, _dev, phi, psi, theta) pprz_msg_send_ATTITUDE(&((_trans).tra
 346:/home/lsk/paparazzi/var/include/messages.h **** static inline void pprz_msg_send_ATTITUDE(struct transport_tx *trans, struct link_device *dev, uint
 347:/home/lsk/paparazzi/var/include/messages.h **** 	if (trans->check_available_space(trans->impl, dev, trans->size_of(trans->impl, 0+4+4+4 +2 /* msg h
 348:/home/lsk/paparazzi/var/include/messages.h **** 	  trans->count_bytes(trans->impl, dev, trans->size_of(trans->impl, 0+4+4+4 +2 /* msg header overhe
 349:/home/lsk/paparazzi/var/include/messages.h **** 	  trans->start_message(trans->impl, dev, 0+4+4+4 +2 /* msg header overhead */);
 350:/home/lsk/paparazzi/var/include/messages.h **** 	  trans->put_bytes(trans->impl, dev, DL_TYPE_UINT8, DL_FORMAT_SCALAR, 1, &ac_id);
 351:/home/lsk/paparazzi/var/include/messages.h **** 	  trans->put_named_byte(trans->impl, dev, DL_TYPE_UINT8, DL_FORMAT_SCALAR, DL_ATTITUDE, "ATTITUDE"
 352:/home/lsk/paparazzi/var/include/messages.h **** 	  trans->put_bytes(trans->impl, dev, DL_TYPE_FLOAT, DL_FORMAT_SCALAR, 4, (void *) _phi);
 353:/home/lsk/paparazzi/var/include/messages.h **** 	  trans->put_bytes(trans->impl, dev, DL_TYPE_FLOAT, DL_FORMAT_SCALAR, 4, (void *) _psi);
 354:/home/lsk/paparazzi/var/include/messages.h **** 	  trans->put_bytes(trans->impl, dev, DL_TYPE_FLOAT, DL_FORMAT_SCALAR, 4, (void *) _theta);
 355:/home/lsk/paparazzi/var/include/messages.h **** 	  trans->end_message(trans->impl, dev);
 356:/home/lsk/paparazzi/var/include/messages.h **** 	} else
 357:/home/lsk/paparazzi/var/include/messages.h **** 	  trans->overrun(trans->impl, dev);
 358:/home/lsk/paparazzi/var/include/messages.h **** }
 359:/home/lsk/paparazzi/var/include/messages.h **** 
 360:/home/lsk/paparazzi/var/include/messages.h **** #define DOWNLINK_SEND_IR_SENSORS(_trans, _dev, ir1, ir2, longitudinal, lateral, vertical) pprz_msg_
 361:/home/lsk/paparazzi/var/include/messages.h **** static inline void pprz_msg_send_IR_SENSORS(struct transport_tx *trans, struct link_device *dev, ui
 362:/home/lsk/paparazzi/var/include/messages.h **** 	if (trans->check_available_space(trans->impl, dev, trans->size_of(trans->impl, 0+2+2+2+2+2 +2 /* m
 363:/home/lsk/paparazzi/var/include/messages.h **** 	  trans->count_bytes(trans->impl, dev, trans->size_of(trans->impl, 0+2+2+2+2+2 +2 /* msg header ov
 364:/home/lsk/paparazzi/var/include/messages.h **** 	  trans->start_message(trans->impl, dev, 0+2+2+2+2+2 +2 /* msg header overhead */);
 365:/home/lsk/paparazzi/var/include/messages.h **** 	  trans->put_bytes(trans->impl, dev, DL_TYPE_UINT8, DL_FORMAT_SCALAR, 1, &ac_id);
 366:/home/lsk/paparazzi/var/include/messages.h **** 	  trans->put_named_byte(trans->impl, dev, DL_TYPE_UINT8, DL_FORMAT_SCALAR, DL_IR_SENSORS, "IR_SENS
 367:/home/lsk/paparazzi/var/include/messages.h **** 	  trans->put_bytes(trans->impl, dev, DL_TYPE_INT16, DL_FORMAT_SCALAR, 2, (void *) _ir1);
 368:/home/lsk/paparazzi/var/include/messages.h **** 	  trans->put_bytes(trans->impl, dev, DL_TYPE_INT16, DL_FORMAT_SCALAR, 2, (void *) _ir2);
 369:/home/lsk/paparazzi/var/include/messages.h **** 	  trans->put_bytes(trans->impl, dev, DL_TYPE_INT16, DL_FORMAT_SCALAR, 2, (void *) _longitudinal);
 370:/home/lsk/paparazzi/var/include/messages.h **** 	  trans->put_bytes(trans->impl, dev, DL_TYPE_INT16, DL_FORMAT_SCALAR, 2, (void *) _lateral);
 371:/home/lsk/paparazzi/var/include/messages.h **** 	  trans->put_bytes(trans->impl, dev, DL_TYPE_INT16, DL_FORMAT_SCALAR, 2, (void *) _vertical);
 372:/home/lsk/paparazzi/var/include/messages.h **** 	  trans->end_message(trans->impl, dev);
 373:/home/lsk/paparazzi/var/include/messages.h **** 	} else
 374:/home/lsk/paparazzi/var/include/messages.h **** 	  trans->overrun(trans->impl, dev);
 375:/home/lsk/paparazzi/var/include/messages.h **** }
 376:/home/lsk/paparazzi/var/include/messages.h **** 
 377:/home/lsk/paparazzi/var/include/messages.h **** #define DOWNLINK_SEND_GPS(_trans, _dev, mode, utm_east, utm_north, course, alt, speed, climb, week,
 378:/home/lsk/paparazzi/var/include/messages.h **** static inline void pprz_msg_send_GPS(struct transport_tx *trans, struct link_device *dev, uint8_t a
 379:/home/lsk/paparazzi/var/include/messages.h **** 	if (trans->check_available_space(trans->impl, dev, trans->size_of(trans->impl, 0+1+4+4+2+4+2+2+2+4
 380:/home/lsk/paparazzi/var/include/messages.h **** 	  trans->count_bytes(trans->impl, dev, trans->size_of(trans->impl, 0+1+4+4+2+4+2+2+2+4+1+1 +2 /* m
 381:/home/lsk/paparazzi/var/include/messages.h **** 	  trans->start_message(trans->impl, dev, 0+1+4+4+2+4+2+2+2+4+1+1 +2 /* msg header overhead */);
 382:/home/lsk/paparazzi/var/include/messages.h **** 	  trans->put_bytes(trans->impl, dev, DL_TYPE_UINT8, DL_FORMAT_SCALAR, 1, &ac_id);
 383:/home/lsk/paparazzi/var/include/messages.h **** 	  trans->put_named_byte(trans->impl, dev, DL_TYPE_UINT8, DL_FORMAT_SCALAR, DL_GPS, "GPS");
 384:/home/lsk/paparazzi/var/include/messages.h **** 	  trans->put_bytes(trans->impl, dev, DL_TYPE_UINT8, DL_FORMAT_SCALAR, 1, (void *) _mode);
 385:/home/lsk/paparazzi/var/include/messages.h **** 	  trans->put_bytes(trans->impl, dev, DL_TYPE_INT32, DL_FORMAT_SCALAR, 4, (void *) _utm_east);
 386:/home/lsk/paparazzi/var/include/messages.h **** 	  trans->put_bytes(trans->impl, dev, DL_TYPE_INT32, DL_FORMAT_SCALAR, 4, (void *) _utm_north);
 387:/home/lsk/paparazzi/var/include/messages.h **** 	  trans->put_bytes(trans->impl, dev, DL_TYPE_INT16, DL_FORMAT_SCALAR, 2, (void *) _course);
 388:/home/lsk/paparazzi/var/include/messages.h **** 	  trans->put_bytes(trans->impl, dev, DL_TYPE_INT32, DL_FORMAT_SCALAR, 4, (void *) _alt);
 389:/home/lsk/paparazzi/var/include/messages.h **** 	  trans->put_bytes(trans->impl, dev, DL_TYPE_UINT16, DL_FORMAT_SCALAR, 2, (void *) _speed);
 390:/home/lsk/paparazzi/var/include/messages.h **** 	  trans->put_bytes(trans->impl, dev, DL_TYPE_INT16, DL_FORMAT_SCALAR, 2, (void *) _climb);
 391:/home/lsk/paparazzi/var/include/messages.h **** 	  trans->put_bytes(trans->impl, dev, DL_TYPE_UINT16, DL_FORMAT_SCALAR, 2, (void *) _week);
 392:/home/lsk/paparazzi/var/include/messages.h **** 	  trans->put_bytes(trans->impl, dev, DL_TYPE_UINT32, DL_FORMAT_SCALAR, 4, (void *) _itow);
 393:/home/lsk/paparazzi/var/include/messages.h **** 	  trans->put_bytes(trans->impl, dev, DL_TYPE_UINT8, DL_FORMAT_SCALAR, 1, (void *) _utm_zone);
 394:/home/lsk/paparazzi/var/include/messages.h **** 	  trans->put_bytes(trans->impl, dev, DL_TYPE_UINT8, DL_FORMAT_SCALAR, 1, (void *) _gps_nb_err);
 395:/home/lsk/paparazzi/var/include/messages.h **** 	  trans->end_message(trans->impl, dev);
 396:/home/lsk/paparazzi/var/include/messages.h **** 	} else
 397:/home/lsk/paparazzi/var/include/messages.h **** 	  trans->overrun(trans->impl, dev);
 398:/home/lsk/paparazzi/var/include/messages.h **** }
 399:/home/lsk/paparazzi/var/include/messages.h **** 
 400:/home/lsk/paparazzi/var/include/messages.h **** #define DOWNLINK_SEND_NAVIGATION_REF(_trans, _dev, utm_east, utm_north, utm_zone, ground_alt) pprz_
 401:/home/lsk/paparazzi/var/include/messages.h **** static inline void pprz_msg_send_NAVIGATION_REF(struct transport_tx *trans, struct link_device *dev
 402:/home/lsk/paparazzi/var/include/messages.h **** 	if (trans->check_available_space(trans->impl, dev, trans->size_of(trans->impl, 0+4+4+1+4 +2 /* msg
 403:/home/lsk/paparazzi/var/include/messages.h **** 	  trans->count_bytes(trans->impl, dev, trans->size_of(trans->impl, 0+4+4+1+4 +2 /* msg header over
 404:/home/lsk/paparazzi/var/include/messages.h **** 	  trans->start_message(trans->impl, dev, 0+4+4+1+4 +2 /* msg header overhead */);
 405:/home/lsk/paparazzi/var/include/messages.h **** 	  trans->put_bytes(trans->impl, dev, DL_TYPE_UINT8, DL_FORMAT_SCALAR, 1, &ac_id);
 406:/home/lsk/paparazzi/var/include/messages.h **** 	  trans->put_named_byte(trans->impl, dev, DL_TYPE_UINT8, DL_FORMAT_SCALAR, DL_NAVIGATION_REF, "NAV
 407:/home/lsk/paparazzi/var/include/messages.h **** 	  trans->put_bytes(trans->impl, dev, DL_TYPE_INT32, DL_FORMAT_SCALAR, 4, (void *) _utm_east);
 408:/home/lsk/paparazzi/var/include/messages.h **** 	  trans->put_bytes(trans->impl, dev, DL_TYPE_INT32, DL_FORMAT_SCALAR, 4, (void *) _utm_north);
 409:/home/lsk/paparazzi/var/include/messages.h **** 	  trans->put_bytes(trans->impl, dev, DL_TYPE_UINT8, DL_FORMAT_SCALAR, 1, (void *) _utm_zone);
 410:/home/lsk/paparazzi/var/include/messages.h **** 	  trans->put_bytes(trans->impl, dev, DL_TYPE_FLOAT, DL_FORMAT_SCALAR, 4, (void *) _ground_alt);
 411:/home/lsk/paparazzi/var/include/messages.h **** 	  trans->end_message(trans->impl, dev);
 412:/home/lsk/paparazzi/var/include/messages.h **** 	} else
 413:/home/lsk/paparazzi/var/include/messages.h **** 	  trans->overrun(trans->impl, dev);
 414:/home/lsk/paparazzi/var/include/messages.h **** }
 415:/home/lsk/paparazzi/var/include/messages.h **** 
 416:/home/lsk/paparazzi/var/include/messages.h **** #define DOWNLINK_SEND_NAVIGATION(_trans, _dev, cur_block, cur_stage, pos_x, pos_y, dist_wp, dist_ho
 417:/home/lsk/paparazzi/var/include/messages.h **** static inline void pprz_msg_send_NAVIGATION(struct transport_tx *trans, struct link_device *dev, ui
 418:/home/lsk/paparazzi/var/include/messages.h **** 	if (trans->check_available_space(trans->impl, dev, trans->size_of(trans->impl, 0+1+1+4+4+4+4+1+1 +
 419:/home/lsk/paparazzi/var/include/messages.h **** 	  trans->count_bytes(trans->impl, dev, trans->size_of(trans->impl, 0+1+1+4+4+4+4+1+1 +2 /* msg hea
 420:/home/lsk/paparazzi/var/include/messages.h **** 	  trans->start_message(trans->impl, dev, 0+1+1+4+4+4+4+1+1 +2 /* msg header overhead */);
 421:/home/lsk/paparazzi/var/include/messages.h **** 	  trans->put_bytes(trans->impl, dev, DL_TYPE_UINT8, DL_FORMAT_SCALAR, 1, &ac_id);
 422:/home/lsk/paparazzi/var/include/messages.h **** 	  trans->put_named_byte(trans->impl, dev, DL_TYPE_UINT8, DL_FORMAT_SCALAR, DL_NAVIGATION, "NAVIGAT
 423:/home/lsk/paparazzi/var/include/messages.h **** 	  trans->put_bytes(trans->impl, dev, DL_TYPE_UINT8, DL_FORMAT_SCALAR, 1, (void *) _cur_block);
 424:/home/lsk/paparazzi/var/include/messages.h **** 	  trans->put_bytes(trans->impl, dev, DL_TYPE_UINT8, DL_FORMAT_SCALAR, 1, (void *) _cur_stage);
 425:/home/lsk/paparazzi/var/include/messages.h **** 	  trans->put_bytes(trans->impl, dev, DL_TYPE_FLOAT, DL_FORMAT_SCALAR, 4, (void *) _pos_x);
 426:/home/lsk/paparazzi/var/include/messages.h **** 	  trans->put_bytes(trans->impl, dev, DL_TYPE_FLOAT, DL_FORMAT_SCALAR, 4, (void *) _pos_y);
 427:/home/lsk/paparazzi/var/include/messages.h **** 	  trans->put_bytes(trans->impl, dev, DL_TYPE_FLOAT, DL_FORMAT_SCALAR, 4, (void *) _dist_wp);
 428:/home/lsk/paparazzi/var/include/messages.h **** 	  trans->put_bytes(trans->impl, dev, DL_TYPE_FLOAT, DL_FORMAT_SCALAR, 4, (void *) _dist_home);
 429:/home/lsk/paparazzi/var/include/messages.h **** 	  trans->put_bytes(trans->impl, dev, DL_TYPE_UINT8, DL_FORMAT_SCALAR, 1, (void *) _circle_count);
 430:/home/lsk/paparazzi/var/include/messages.h **** 	  trans->put_bytes(trans->impl, dev, DL_TYPE_UINT8, DL_FORMAT_SCALAR, 1, (void *) _oval_count);
 431:/home/lsk/paparazzi/var/include/messages.h **** 	  trans->end_message(trans->impl, dev);
 432:/home/lsk/paparazzi/var/include/messages.h **** 	} else
 433:/home/lsk/paparazzi/var/include/messages.h **** 	  trans->overrun(trans->impl, dev);
 434:/home/lsk/paparazzi/var/include/messages.h **** }
 435:/home/lsk/paparazzi/var/include/messages.h **** 
 436:/home/lsk/paparazzi/var/include/messages.h **** #define DOWNLINK_SEND_PPRZ_MODE(_trans, _dev, ap_mode, ap_gaz, ap_lateral, ap_horizontal, if_calib_
 437:/home/lsk/paparazzi/var/include/messages.h **** static inline void pprz_msg_send_PPRZ_MODE(struct transport_tx *trans, struct link_device *dev, uin
 438:/home/lsk/paparazzi/var/include/messages.h **** 	if (trans->check_available_space(trans->impl, dev, trans->size_of(trans->impl, 0+1+1+1+1+1+1 +2 /*
 439:/home/lsk/paparazzi/var/include/messages.h **** 	  trans->count_bytes(trans->impl, dev, trans->size_of(trans->impl, 0+1+1+1+1+1+1 +2 /* msg header 
 440:/home/lsk/paparazzi/var/include/messages.h **** 	  trans->start_message(trans->impl, dev, 0+1+1+1+1+1+1 +2 /* msg header overhead */);
 441:/home/lsk/paparazzi/var/include/messages.h **** 	  trans->put_bytes(trans->impl, dev, DL_TYPE_UINT8, DL_FORMAT_SCALAR, 1, &ac_id);
 442:/home/lsk/paparazzi/var/include/messages.h **** 	  trans->put_named_byte(trans->impl, dev, DL_TYPE_UINT8, DL_FORMAT_SCALAR, DL_PPRZ_MODE, "PPRZ_MOD
 443:/home/lsk/paparazzi/var/include/messages.h **** 	  trans->put_bytes(trans->impl, dev, DL_TYPE_UINT8, DL_FORMAT_SCALAR, 1, (void *) _ap_mode);
 444:/home/lsk/paparazzi/var/include/messages.h **** 	  trans->put_bytes(trans->impl, dev, DL_TYPE_UINT8, DL_FORMAT_SCALAR, 1, (void *) _ap_gaz);
 445:/home/lsk/paparazzi/var/include/messages.h **** 	  trans->put_bytes(trans->impl, dev, DL_TYPE_UINT8, DL_FORMAT_SCALAR, 1, (void *) _ap_lateral);
 446:/home/lsk/paparazzi/var/include/messages.h **** 	  trans->put_bytes(trans->impl, dev, DL_TYPE_UINT8, DL_FORMAT_SCALAR, 1, (void *) _ap_horizontal);
 447:/home/lsk/paparazzi/var/include/messages.h **** 	  trans->put_bytes(trans->impl, dev, DL_TYPE_UINT8, DL_FORMAT_SCALAR, 1, (void *) _if_calib_mode);
 448:/home/lsk/paparazzi/var/include/messages.h **** 	  trans->put_bytes(trans->impl, dev, DL_TYPE_UINT8, DL_FORMAT_SCALAR, 1, (void *) _mcu1_status);
 449:/home/lsk/paparazzi/var/include/messages.h **** 	  trans->end_message(trans->impl, dev);
 450:/home/lsk/paparazzi/var/include/messages.h **** 	} else
 451:/home/lsk/paparazzi/var/include/messages.h **** 	  trans->overrun(trans->impl, dev);
 452:/home/lsk/paparazzi/var/include/messages.h **** }
 453:/home/lsk/paparazzi/var/include/messages.h **** 
 454:/home/lsk/paparazzi/var/include/messages.h **** #define DOWNLINK_SEND_BAT(_trans, _dev, throttle, voltage, amps, flight_time, kill_auto_throttle, b
 455:/home/lsk/paparazzi/var/include/messages.h **** static inline void pprz_msg_send_BAT(struct transport_tx *trans, struct link_device *dev, uint8_t a
 456:/home/lsk/paparazzi/var/include/messages.h **** 	if (trans->check_available_space(trans->impl, dev, trans->size_of(trans->impl, 0+2+2+2+2+1+2+2+2 +
 457:/home/lsk/paparazzi/var/include/messages.h **** 	  trans->count_bytes(trans->impl, dev, trans->size_of(trans->impl, 0+2+2+2+2+1+2+2+2 +2 /* msg hea
 458:/home/lsk/paparazzi/var/include/messages.h **** 	  trans->start_message(trans->impl, dev, 0+2+2+2+2+1+2+2+2 +2 /* msg header overhead */);
 459:/home/lsk/paparazzi/var/include/messages.h **** 	  trans->put_bytes(trans->impl, dev, DL_TYPE_UINT8, DL_FORMAT_SCALAR, 1, &ac_id);
 460:/home/lsk/paparazzi/var/include/messages.h **** 	  trans->put_named_byte(trans->impl, dev, DL_TYPE_UINT8, DL_FORMAT_SCALAR, DL_BAT, "BAT");
 461:/home/lsk/paparazzi/var/include/messages.h **** 	  trans->put_bytes(trans->impl, dev, DL_TYPE_INT16, DL_FORMAT_SCALAR, 2, (void *) _throttle);
 462:/home/lsk/paparazzi/var/include/messages.h **** 	  trans->put_bytes(trans->impl, dev, DL_TYPE_UINT16, DL_FORMAT_SCALAR, 2, (void *) _voltage);
 463:/home/lsk/paparazzi/var/include/messages.h **** 	  trans->put_bytes(trans->impl, dev, DL_TYPE_INT16, DL_FORMAT_SCALAR, 2, (void *) _amps);
 464:/home/lsk/paparazzi/var/include/messages.h **** 	  trans->put_bytes(trans->impl, dev, DL_TYPE_UINT16, DL_FORMAT_SCALAR, 2, (void *) _flight_time);
 465:/home/lsk/paparazzi/var/include/messages.h **** 	  trans->put_bytes(trans->impl, dev, DL_TYPE_UINT8, DL_FORMAT_SCALAR, 1, (void *) _kill_auto_throt
 466:/home/lsk/paparazzi/var/include/messages.h **** 	  trans->put_bytes(trans->impl, dev, DL_TYPE_UINT16, DL_FORMAT_SCALAR, 2, (void *) _block_time);
 467:/home/lsk/paparazzi/var/include/messages.h **** 	  trans->put_bytes(trans->impl, dev, DL_TYPE_UINT16, DL_FORMAT_SCALAR, 2, (void *) _stage_time);
 468:/home/lsk/paparazzi/var/include/messages.h **** 	  trans->put_bytes(trans->impl, dev, DL_TYPE_INT16, DL_FORMAT_SCALAR, 2, (void *) _energy);
 469:/home/lsk/paparazzi/var/include/messages.h **** 	  trans->end_message(trans->impl, dev);
 470:/home/lsk/paparazzi/var/include/messages.h **** 	} else
 471:/home/lsk/paparazzi/var/include/messages.h **** 	  trans->overrun(trans->impl, dev);
 472:/home/lsk/paparazzi/var/include/messages.h **** }
 473:/home/lsk/paparazzi/var/include/messages.h **** 
 474:/home/lsk/paparazzi/var/include/messages.h **** #define DOWNLINK_SEND_DEBUG_MCU_LINK(_trans, _dev, i2c_nb_err, i2c_mcu1_nb_err, ppm_rate) pprz_msg_
 475:/home/lsk/paparazzi/var/include/messages.h **** static inline void pprz_msg_send_DEBUG_MCU_LINK(struct transport_tx *trans, struct link_device *dev
 476:/home/lsk/paparazzi/var/include/messages.h **** 	if (trans->check_available_space(trans->impl, dev, trans->size_of(trans->impl, 0+1+1+1 +2 /* msg h
 477:/home/lsk/paparazzi/var/include/messages.h **** 	  trans->count_bytes(trans->impl, dev, trans->size_of(trans->impl, 0+1+1+1 +2 /* msg header overhe
 478:/home/lsk/paparazzi/var/include/messages.h **** 	  trans->start_message(trans->impl, dev, 0+1+1+1 +2 /* msg header overhead */);
 479:/home/lsk/paparazzi/var/include/messages.h **** 	  trans->put_bytes(trans->impl, dev, DL_TYPE_UINT8, DL_FORMAT_SCALAR, 1, &ac_id);
 480:/home/lsk/paparazzi/var/include/messages.h **** 	  trans->put_named_byte(trans->impl, dev, DL_TYPE_UINT8, DL_FORMAT_SCALAR, DL_DEBUG_MCU_LINK, "DEB
 481:/home/lsk/paparazzi/var/include/messages.h **** 	  trans->put_bytes(trans->impl, dev, DL_TYPE_UINT8, DL_FORMAT_SCALAR, 1, (void *) _i2c_nb_err);
 482:/home/lsk/paparazzi/var/include/messages.h **** 	  trans->put_bytes(trans->impl, dev, DL_TYPE_UINT8, DL_FORMAT_SCALAR, 1, (void *) _i2c_mcu1_nb_err
 483:/home/lsk/paparazzi/var/include/messages.h **** 	  trans->put_bytes(trans->impl, dev, DL_TYPE_UINT8, DL_FORMAT_SCALAR, 1, (void *) _ppm_rate);
 484:/home/lsk/paparazzi/var/include/messages.h **** 	  trans->end_message(trans->impl, dev);
 485:/home/lsk/paparazzi/var/include/messages.h **** 	} else
 486:/home/lsk/paparazzi/var/include/messages.h **** 	  trans->overrun(trans->impl, dev);
 487:/home/lsk/paparazzi/var/include/messages.h **** }
 488:/home/lsk/paparazzi/var/include/messages.h **** 
 489:/home/lsk/paparazzi/var/include/messages.h **** #define DOWNLINK_SEND_CALIBRATION(_trans, _dev, climb_sum_err, climb_gaz_submode) pprz_msg_send_CAL
 490:/home/lsk/paparazzi/var/include/messages.h **** static inline void pprz_msg_send_CALIBRATION(struct transport_tx *trans, struct link_device *dev, u
 491:/home/lsk/paparazzi/var/include/messages.h **** 	if (trans->check_available_space(trans->impl, dev, trans->size_of(trans->impl, 0+4+1 +2 /* msg hea
 492:/home/lsk/paparazzi/var/include/messages.h **** 	  trans->count_bytes(trans->impl, dev, trans->size_of(trans->impl, 0+4+1 +2 /* msg header overhead
 493:/home/lsk/paparazzi/var/include/messages.h **** 	  trans->start_message(trans->impl, dev, 0+4+1 +2 /* msg header overhead */);
 494:/home/lsk/paparazzi/var/include/messages.h **** 	  trans->put_bytes(trans->impl, dev, DL_TYPE_UINT8, DL_FORMAT_SCALAR, 1, &ac_id);
 495:/home/lsk/paparazzi/var/include/messages.h **** 	  trans->put_named_byte(trans->impl, dev, DL_TYPE_UINT8, DL_FORMAT_SCALAR, DL_CALIBRATION, "CALIBR
 496:/home/lsk/paparazzi/var/include/messages.h **** 	  trans->put_bytes(trans->impl, dev, DL_TYPE_FLOAT, DL_FORMAT_SCALAR, 4, (void *) _climb_sum_err);
 497:/home/lsk/paparazzi/var/include/messages.h **** 	  trans->put_bytes(trans->impl, dev, DL_TYPE_UINT8, DL_FORMAT_SCALAR, 1, (void *) _climb_gaz_submo
 498:/home/lsk/paparazzi/var/include/messages.h **** 	  trans->end_message(trans->impl, dev);
 499:/home/lsk/paparazzi/var/include/messages.h **** 	} else
 500:/home/lsk/paparazzi/var/include/messages.h **** 	  trans->overrun(trans->impl, dev);
 501:/home/lsk/paparazzi/var/include/messages.h **** }
 502:/home/lsk/paparazzi/var/include/messages.h **** 
 503:/home/lsk/paparazzi/var/include/messages.h **** #define DOWNLINK_SEND_SETTINGS(_trans, _dev, slider_1_val, slider_2_val) pprz_msg_send_SETTINGS(&((
 504:/home/lsk/paparazzi/var/include/messages.h **** static inline void pprz_msg_send_SETTINGS(struct transport_tx *trans, struct link_device *dev, uint
 505:/home/lsk/paparazzi/var/include/messages.h **** 	if (trans->check_available_space(trans->impl, dev, trans->size_of(trans->impl, 0+4+4 +2 /* msg hea
 506:/home/lsk/paparazzi/var/include/messages.h **** 	  trans->count_bytes(trans->impl, dev, trans->size_of(trans->impl, 0+4+4 +2 /* msg header overhead
 507:/home/lsk/paparazzi/var/include/messages.h **** 	  trans->start_message(trans->impl, dev, 0+4+4 +2 /* msg header overhead */);
 508:/home/lsk/paparazzi/var/include/messages.h **** 	  trans->put_bytes(trans->impl, dev, DL_TYPE_UINT8, DL_FORMAT_SCALAR, 1, &ac_id);
 509:/home/lsk/paparazzi/var/include/messages.h **** 	  trans->put_named_byte(trans->impl, dev, DL_TYPE_UINT8, DL_FORMAT_SCALAR, DL_SETTINGS, "SETTINGS"
 510:/home/lsk/paparazzi/var/include/messages.h **** 	  trans->put_bytes(trans->impl, dev, DL_TYPE_FLOAT, DL_FORMAT_SCALAR, 4, (void *) _slider_1_val);
 511:/home/lsk/paparazzi/var/include/messages.h **** 	  trans->put_bytes(trans->impl, dev, DL_TYPE_FLOAT, DL_FORMAT_SCALAR, 4, (void *) _slider_2_val);
 512:/home/lsk/paparazzi/var/include/messages.h **** 	  trans->end_message(trans->impl, dev);
 513:/home/lsk/paparazzi/var/include/messages.h **** 	} else
 514:/home/lsk/paparazzi/var/include/messages.h **** 	  trans->overrun(trans->impl, dev);
 515:/home/lsk/paparazzi/var/include/messages.h **** }
 516:/home/lsk/paparazzi/var/include/messages.h **** 
 517:/home/lsk/paparazzi/var/include/messages.h **** #define DOWNLINK_SEND_DESIRED(_trans, _dev, roll, pitch, course, x, y, altitude, climb, airspeed) p
 518:/home/lsk/paparazzi/var/include/messages.h **** static inline void pprz_msg_send_DESIRED(struct transport_tx *trans, struct link_device *dev, uint8
 519:/home/lsk/paparazzi/var/include/messages.h **** 	if (trans->check_available_space(trans->impl, dev, trans->size_of(trans->impl, 0+4+4+4+4+4+4+4+4 +
 520:/home/lsk/paparazzi/var/include/messages.h **** 	  trans->count_bytes(trans->impl, dev, trans->size_of(trans->impl, 0+4+4+4+4+4+4+4+4 +2 /* msg hea
 521:/home/lsk/paparazzi/var/include/messages.h **** 	  trans->start_message(trans->impl, dev, 0+4+4+4+4+4+4+4+4 +2 /* msg header overhead */);
 522:/home/lsk/paparazzi/var/include/messages.h **** 	  trans->put_bytes(trans->impl, dev, DL_TYPE_UINT8, DL_FORMAT_SCALAR, 1, &ac_id);
 523:/home/lsk/paparazzi/var/include/messages.h **** 	  trans->put_named_byte(trans->impl, dev, DL_TYPE_UINT8, DL_FORMAT_SCALAR, DL_DESIRED, "DESIRED");
 524:/home/lsk/paparazzi/var/include/messages.h **** 	  trans->put_bytes(trans->impl, dev, DL_TYPE_FLOAT, DL_FORMAT_SCALAR, 4, (void *) _roll);
 525:/home/lsk/paparazzi/var/include/messages.h **** 	  trans->put_bytes(trans->impl, dev, DL_TYPE_FLOAT, DL_FORMAT_SCALAR, 4, (void *) _pitch);
 526:/home/lsk/paparazzi/var/include/messages.h **** 	  trans->put_bytes(trans->impl, dev, DL_TYPE_FLOAT, DL_FORMAT_SCALAR, 4, (void *) _course);
 527:/home/lsk/paparazzi/var/include/messages.h **** 	  trans->put_bytes(trans->impl, dev, DL_TYPE_FLOAT, DL_FORMAT_SCALAR, 4, (void *) _x);
 528:/home/lsk/paparazzi/var/include/messages.h **** 	  trans->put_bytes(trans->impl, dev, DL_TYPE_FLOAT, DL_FORMAT_SCALAR, 4, (void *) _y);
 529:/home/lsk/paparazzi/var/include/messages.h **** 	  trans->put_bytes(trans->impl, dev, DL_TYPE_FLOAT, DL_FORMAT_SCALAR, 4, (void *) _altitude);
 530:/home/lsk/paparazzi/var/include/messages.h **** 	  trans->put_bytes(trans->impl, dev, DL_TYPE_FLOAT, DL_FORMAT_SCALAR, 4, (void *) _climb);
 531:/home/lsk/paparazzi/var/include/messages.h **** 	  trans->put_bytes(trans->impl, dev, DL_TYPE_FLOAT, DL_FORMAT_SCALAR, 4, (void *) _airspeed);
 532:/home/lsk/paparazzi/var/include/messages.h **** 	  trans->end_message(trans->impl, dev);
 533:/home/lsk/paparazzi/var/include/messages.h **** 	} else
 534:/home/lsk/paparazzi/var/include/messages.h **** 	  trans->overrun(trans->impl, dev);
 535:/home/lsk/paparazzi/var/include/messages.h **** }
 536:/home/lsk/paparazzi/var/include/messages.h **** 
 537:/home/lsk/paparazzi/var/include/messages.h **** #define DOWNLINK_SEND_GPS_SOL(_trans, _dev, Pacc, Sacc, PDOP, numSV) pprz_msg_send_GPS_SOL(&((_tran
 538:/home/lsk/paparazzi/var/include/messages.h **** static inline void pprz_msg_send_GPS_SOL(struct transport_tx *trans, struct link_device *dev, uint8
 539:/home/lsk/paparazzi/var/include/messages.h **** 	if (trans->check_available_space(trans->impl, dev, trans->size_of(trans->impl, 0+4+4+2+1 +2 /* msg
 540:/home/lsk/paparazzi/var/include/messages.h **** 	  trans->count_bytes(trans->impl, dev, trans->size_of(trans->impl, 0+4+4+2+1 +2 /* msg header over
 541:/home/lsk/paparazzi/var/include/messages.h **** 	  trans->start_message(trans->impl, dev, 0+4+4+2+1 +2 /* msg header overhead */);
 542:/home/lsk/paparazzi/var/include/messages.h **** 	  trans->put_bytes(trans->impl, dev, DL_TYPE_UINT8, DL_FORMAT_SCALAR, 1, &ac_id);
 543:/home/lsk/paparazzi/var/include/messages.h **** 	  trans->put_named_byte(trans->impl, dev, DL_TYPE_UINT8, DL_FORMAT_SCALAR, DL_GPS_SOL, "GPS_SOL");
 544:/home/lsk/paparazzi/var/include/messages.h **** 	  trans->put_bytes(trans->impl, dev, DL_TYPE_UINT32, DL_FORMAT_SCALAR, 4, (void *) _Pacc);
 545:/home/lsk/paparazzi/var/include/messages.h **** 	  trans->put_bytes(trans->impl, dev, DL_TYPE_UINT32, DL_FORMAT_SCALAR, 4, (void *) _Sacc);
 546:/home/lsk/paparazzi/var/include/messages.h **** 	  trans->put_bytes(trans->impl, dev, DL_TYPE_UINT16, DL_FORMAT_SCALAR, 2, (void *) _PDOP);
 547:/home/lsk/paparazzi/var/include/messages.h **** 	  trans->put_bytes(trans->impl, dev, DL_TYPE_UINT8, DL_FORMAT_SCALAR, 1, (void *) _numSV);
 548:/home/lsk/paparazzi/var/include/messages.h **** 	  trans->end_message(trans->impl, dev);
 549:/home/lsk/paparazzi/var/include/messages.h **** 	} else
 550:/home/lsk/paparazzi/var/include/messages.h **** 	  trans->overrun(trans->impl, dev);
 551:/home/lsk/paparazzi/var/include/messages.h **** }
 552:/home/lsk/paparazzi/var/include/messages.h **** 
 553:/home/lsk/paparazzi/var/include/messages.h **** #define DOWNLINK_SEND_ADC_GENERIC(_trans, _dev, val1, val2) pprz_msg_send_ADC_GENERIC(&((_trans).tr
 554:/home/lsk/paparazzi/var/include/messages.h **** static inline void pprz_msg_send_ADC_GENERIC(struct transport_tx *trans, struct link_device *dev, u
 555:/home/lsk/paparazzi/var/include/messages.h **** 	if (trans->check_available_space(trans->impl, dev, trans->size_of(trans->impl, 0+2+2 +2 /* msg hea
 556:/home/lsk/paparazzi/var/include/messages.h **** 	  trans->count_bytes(trans->impl, dev, trans->size_of(trans->impl, 0+2+2 +2 /* msg header overhead
 557:/home/lsk/paparazzi/var/include/messages.h **** 	  trans->start_message(trans->impl, dev, 0+2+2 +2 /* msg header overhead */);
 558:/home/lsk/paparazzi/var/include/messages.h **** 	  trans->put_bytes(trans->impl, dev, DL_TYPE_UINT8, DL_FORMAT_SCALAR, 1, &ac_id);
 559:/home/lsk/paparazzi/var/include/messages.h **** 	  trans->put_named_byte(trans->impl, dev, DL_TYPE_UINT8, DL_FORMAT_SCALAR, DL_ADC_GENERIC, "ADC_GE
 560:/home/lsk/paparazzi/var/include/messages.h **** 	  trans->put_bytes(trans->impl, dev, DL_TYPE_UINT16, DL_FORMAT_SCALAR, 2, (void *) _val1);
 561:/home/lsk/paparazzi/var/include/messages.h **** 	  trans->put_bytes(trans->impl, dev, DL_TYPE_UINT16, DL_FORMAT_SCALAR, 2, (void *) _val2);
 562:/home/lsk/paparazzi/var/include/messages.h **** 	  trans->end_message(trans->impl, dev);
 563:/home/lsk/paparazzi/var/include/messages.h **** 	} else
 564:/home/lsk/paparazzi/var/include/messages.h **** 	  trans->overrun(trans->impl, dev);
 565:/home/lsk/paparazzi/var/include/messages.h **** }
 566:/home/lsk/paparazzi/var/include/messages.h **** 
 567:/home/lsk/paparazzi/var/include/messages.h **** #define DOWNLINK_SEND_TEST_FORMAT(_trans, _dev, val1, val2) pprz_msg_send_TEST_FORMAT(&((_trans).tr
 568:/home/lsk/paparazzi/var/include/messages.h **** static inline void pprz_msg_send_TEST_FORMAT(struct transport_tx *trans, struct link_device *dev, u
 569:/home/lsk/paparazzi/var/include/messages.h **** 	if (trans->check_available_space(trans->impl, dev, trans->size_of(trans->impl, 0+8+4 +2 /* msg hea
 570:/home/lsk/paparazzi/var/include/messages.h **** 	  trans->count_bytes(trans->impl, dev, trans->size_of(trans->impl, 0+8+4 +2 /* msg header overhead
 571:/home/lsk/paparazzi/var/include/messages.h **** 	  trans->start_message(trans->impl, dev, 0+8+4 +2 /* msg header overhead */);
 572:/home/lsk/paparazzi/var/include/messages.h **** 	  trans->put_bytes(trans->impl, dev, DL_TYPE_UINT8, DL_FORMAT_SCALAR, 1, &ac_id);
 573:/home/lsk/paparazzi/var/include/messages.h **** 	  trans->put_named_byte(trans->impl, dev, DL_TYPE_UINT8, DL_FORMAT_SCALAR, DL_TEST_FORMAT, "TEST_F
 574:/home/lsk/paparazzi/var/include/messages.h **** 	  trans->put_bytes(trans->impl, dev, DL_TYPE_DOUBLE, DL_FORMAT_SCALAR, 8, (void *) _val1);
 575:/home/lsk/paparazzi/var/include/messages.h **** 	  trans->put_bytes(trans->impl, dev, DL_TYPE_FLOAT, DL_FORMAT_SCALAR, 4, (void *) _val2);
 576:/home/lsk/paparazzi/var/include/messages.h **** 	  trans->end_message(trans->impl, dev);
 577:/home/lsk/paparazzi/var/include/messages.h **** 	} else
 578:/home/lsk/paparazzi/var/include/messages.h **** 	  trans->overrun(trans->impl, dev);
 579:/home/lsk/paparazzi/var/include/messages.h **** }
 580:/home/lsk/paparazzi/var/include/messages.h **** 
 581:/home/lsk/paparazzi/var/include/messages.h **** #define DOWNLINK_SEND_CAM(_trans, _dev, phi, theta, target_x, target_y) pprz_msg_send_CAM(&((_trans
 582:/home/lsk/paparazzi/var/include/messages.h **** static inline void pprz_msg_send_CAM(struct transport_tx *trans, struct link_device *dev, uint8_t a
 583:/home/lsk/paparazzi/var/include/messages.h **** 	if (trans->check_available_space(trans->impl, dev, trans->size_of(trans->impl, 0+2+2+2+2 +2 /* msg
 584:/home/lsk/paparazzi/var/include/messages.h **** 	  trans->count_bytes(trans->impl, dev, trans->size_of(trans->impl, 0+2+2+2+2 +2 /* msg header over
 585:/home/lsk/paparazzi/var/include/messages.h **** 	  trans->start_message(trans->impl, dev, 0+2+2+2+2 +2 /* msg header overhead */);
 586:/home/lsk/paparazzi/var/include/messages.h **** 	  trans->put_bytes(trans->impl, dev, DL_TYPE_UINT8, DL_FORMAT_SCALAR, 1, &ac_id);
 587:/home/lsk/paparazzi/var/include/messages.h **** 	  trans->put_named_byte(trans->impl, dev, DL_TYPE_UINT8, DL_FORMAT_SCALAR, DL_CAM, "CAM");
 588:/home/lsk/paparazzi/var/include/messages.h **** 	  trans->put_bytes(trans->impl, dev, DL_TYPE_INT16, DL_FORMAT_SCALAR, 2, (void *) _phi);
 589:/home/lsk/paparazzi/var/include/messages.h **** 	  trans->put_bytes(trans->impl, dev, DL_TYPE_INT16, DL_FORMAT_SCALAR, 2, (void *) _theta);
 590:/home/lsk/paparazzi/var/include/messages.h **** 	  trans->put_bytes(trans->impl, dev, DL_TYPE_INT16, DL_FORMAT_SCALAR, 2, (void *) _target_x);
 591:/home/lsk/paparazzi/var/include/messages.h **** 	  trans->put_bytes(trans->impl, dev, DL_TYPE_INT16, DL_FORMAT_SCALAR, 2, (void *) _target_y);
 592:/home/lsk/paparazzi/var/include/messages.h **** 	  trans->end_message(trans->impl, dev);
 593:/home/lsk/paparazzi/var/include/messages.h **** 	} else
 594:/home/lsk/paparazzi/var/include/messages.h **** 	  trans->overrun(trans->impl, dev);
 595:/home/lsk/paparazzi/var/include/messages.h **** }
 596:/home/lsk/paparazzi/var/include/messages.h **** 
 597:/home/lsk/paparazzi/var/include/messages.h **** #define DOWNLINK_SEND_CIRCLE(_trans, _dev, center_east, center_north, radius) pprz_msg_send_CIRCLE(
 598:/home/lsk/paparazzi/var/include/messages.h **** static inline void pprz_msg_send_CIRCLE(struct transport_tx *trans, struct link_device *dev, uint8_
 599:/home/lsk/paparazzi/var/include/messages.h **** 	if (trans->check_available_space(trans->impl, dev, trans->size_of(trans->impl, 0+4+4+4 +2 /* msg h
 600:/home/lsk/paparazzi/var/include/messages.h **** 	  trans->count_bytes(trans->impl, dev, trans->size_of(trans->impl, 0+4+4+4 +2 /* msg header overhe
 601:/home/lsk/paparazzi/var/include/messages.h **** 	  trans->start_message(trans->impl, dev, 0+4+4+4 +2 /* msg header overhead */);
 602:/home/lsk/paparazzi/var/include/messages.h **** 	  trans->put_bytes(trans->impl, dev, DL_TYPE_UINT8, DL_FORMAT_SCALAR, 1, &ac_id);
 603:/home/lsk/paparazzi/var/include/messages.h **** 	  trans->put_named_byte(trans->impl, dev, DL_TYPE_UINT8, DL_FORMAT_SCALAR, DL_CIRCLE, "CIRCLE");
 604:/home/lsk/paparazzi/var/include/messages.h **** 	  trans->put_bytes(trans->impl, dev, DL_TYPE_FLOAT, DL_FORMAT_SCALAR, 4, (void *) _center_east);
 605:/home/lsk/paparazzi/var/include/messages.h **** 	  trans->put_bytes(trans->impl, dev, DL_TYPE_FLOAT, DL_FORMAT_SCALAR, 4, (void *) _center_north);
 606:/home/lsk/paparazzi/var/include/messages.h **** 	  trans->put_bytes(trans->impl, dev, DL_TYPE_FLOAT, DL_FORMAT_SCALAR, 4, (void *) _radius);
 607:/home/lsk/paparazzi/var/include/messages.h **** 	  trans->end_message(trans->impl, dev);
 608:/home/lsk/paparazzi/var/include/messages.h **** 	} else
 609:/home/lsk/paparazzi/var/include/messages.h **** 	  trans->overrun(trans->impl, dev);
 610:/home/lsk/paparazzi/var/include/messages.h **** }
 611:/home/lsk/paparazzi/var/include/messages.h **** 
 612:/home/lsk/paparazzi/var/include/messages.h **** #define DOWNLINK_SEND_SEGMENT(_trans, _dev, segment_east_1, segment_north_1, segment_east_2, segmen
 613:/home/lsk/paparazzi/var/include/messages.h **** static inline void pprz_msg_send_SEGMENT(struct transport_tx *trans, struct link_device *dev, uint8
 614:/home/lsk/paparazzi/var/include/messages.h **** 	if (trans->check_available_space(trans->impl, dev, trans->size_of(trans->impl, 0+4+4+4+4 +2 /* msg
 615:/home/lsk/paparazzi/var/include/messages.h **** 	  trans->count_bytes(trans->impl, dev, trans->size_of(trans->impl, 0+4+4+4+4 +2 /* msg header over
 616:/home/lsk/paparazzi/var/include/messages.h **** 	  trans->start_message(trans->impl, dev, 0+4+4+4+4 +2 /* msg header overhead */);
 617:/home/lsk/paparazzi/var/include/messages.h **** 	  trans->put_bytes(trans->impl, dev, DL_TYPE_UINT8, DL_FORMAT_SCALAR, 1, &ac_id);
 618:/home/lsk/paparazzi/var/include/messages.h **** 	  trans->put_named_byte(trans->impl, dev, DL_TYPE_UINT8, DL_FORMAT_SCALAR, DL_SEGMENT, "SEGMENT");
 619:/home/lsk/paparazzi/var/include/messages.h **** 	  trans->put_bytes(trans->impl, dev, DL_TYPE_FLOAT, DL_FORMAT_SCALAR, 4, (void *) _segment_east_1)
 620:/home/lsk/paparazzi/var/include/messages.h **** 	  trans->put_bytes(trans->impl, dev, DL_TYPE_FLOAT, DL_FORMAT_SCALAR, 4, (void *) _segment_north_1
 621:/home/lsk/paparazzi/var/include/messages.h **** 	  trans->put_bytes(trans->impl, dev, DL_TYPE_FLOAT, DL_FORMAT_SCALAR, 4, (void *) _segment_east_2)
 622:/home/lsk/paparazzi/var/include/messages.h **** 	  trans->put_bytes(trans->impl, dev, DL_TYPE_FLOAT, DL_FORMAT_SCALAR, 4, (void *) _segment_north_2
 623:/home/lsk/paparazzi/var/include/messages.h **** 	  trans->end_message(trans->impl, dev);
 624:/home/lsk/paparazzi/var/include/messages.h **** 	} else
 625:/home/lsk/paparazzi/var/include/messages.h **** 	  trans->overrun(trans->impl, dev);
 626:/home/lsk/paparazzi/var/include/messages.h **** }
 627:/home/lsk/paparazzi/var/include/messages.h **** 
 628:/home/lsk/paparazzi/var/include/messages.h **** #define DOWNLINK_SEND_SVINFO(_trans, _dev, chn, SVID, Flags, QI, CNO, Elev, Azim) pprz_msg_send_SVI
 629:/home/lsk/paparazzi/var/include/messages.h **** static inline void pprz_msg_send_SVINFO(struct transport_tx *trans, struct link_device *dev, uint8_
 630:/home/lsk/paparazzi/var/include/messages.h **** 	if (trans->check_available_space(trans->impl, dev, trans->size_of(trans->impl, 0+1+1+1+1+1+1+2 +2 
 631:/home/lsk/paparazzi/var/include/messages.h **** 	  trans->count_bytes(trans->impl, dev, trans->size_of(trans->impl, 0+1+1+1+1+1+1+2 +2 /* msg heade
 632:/home/lsk/paparazzi/var/include/messages.h **** 	  trans->start_message(trans->impl, dev, 0+1+1+1+1+1+1+2 +2 /* msg header overhead */);
 633:/home/lsk/paparazzi/var/include/messages.h **** 	  trans->put_bytes(trans->impl, dev, DL_TYPE_UINT8, DL_FORMAT_SCALAR, 1, &ac_id);
 634:/home/lsk/paparazzi/var/include/messages.h **** 	  trans->put_named_byte(trans->impl, dev, DL_TYPE_UINT8, DL_FORMAT_SCALAR, DL_SVINFO, "SVINFO");
 635:/home/lsk/paparazzi/var/include/messages.h **** 	  trans->put_bytes(trans->impl, dev, DL_TYPE_UINT8, DL_FORMAT_SCALAR, 1, (void *) _chn);
 636:/home/lsk/paparazzi/var/include/messages.h **** 	  trans->put_bytes(trans->impl, dev, DL_TYPE_UINT8, DL_FORMAT_SCALAR, 1, (void *) _SVID);
 637:/home/lsk/paparazzi/var/include/messages.h **** 	  trans->put_bytes(trans->impl, dev, DL_TYPE_UINT8, DL_FORMAT_SCALAR, 1, (void *) _Flags);
 638:/home/lsk/paparazzi/var/include/messages.h **** 	  trans->put_bytes(trans->impl, dev, DL_TYPE_UINT8, DL_FORMAT_SCALAR, 1, (void *) _QI);
 639:/home/lsk/paparazzi/var/include/messages.h **** 	  trans->put_bytes(trans->impl, dev, DL_TYPE_UINT8, DL_FORMAT_SCALAR, 1, (void *) _CNO);
 640:/home/lsk/paparazzi/var/include/messages.h **** 	  trans->put_bytes(trans->impl, dev, DL_TYPE_INT8, DL_FORMAT_SCALAR, 1, (void *) _Elev);
 641:/home/lsk/paparazzi/var/include/messages.h **** 	  trans->put_bytes(trans->impl, dev, DL_TYPE_INT16, DL_FORMAT_SCALAR, 2, (void *) _Azim);
 642:/home/lsk/paparazzi/var/include/messages.h **** 	  trans->end_message(trans->impl, dev);
 643:/home/lsk/paparazzi/var/include/messages.h **** 	} else
 644:/home/lsk/paparazzi/var/include/messages.h **** 	  trans->overrun(trans->impl, dev);
 645:/home/lsk/paparazzi/var/include/messages.h **** }
 646:/home/lsk/paparazzi/var/include/messages.h **** 
 647:/home/lsk/paparazzi/var/include/messages.h **** #define DOWNLINK_SEND_DEBUG(_trans, _dev, nb_msg, msg) pprz_msg_send_DEBUG(&((_trans).trans_tx), &(
 648:/home/lsk/paparazzi/var/include/messages.h **** static inline void pprz_msg_send_DEBUG(struct transport_tx *trans, struct link_device *dev, uint8_t
 649:/home/lsk/paparazzi/var/include/messages.h **** 	if (trans->check_available_space(trans->impl, dev, trans->size_of(trans->impl, 0+1+nb_msg*1 +2 /* 
 650:/home/lsk/paparazzi/var/include/messages.h **** 	  trans->count_bytes(trans->impl, dev, trans->size_of(trans->impl, 0+1+nb_msg*1 +2 /* msg header o
 651:/home/lsk/paparazzi/var/include/messages.h **** 	  trans->start_message(trans->impl, dev, 0+1+nb_msg*1 +2 /* msg header overhead */);
 652:/home/lsk/paparazzi/var/include/messages.h **** 	  trans->put_bytes(trans->impl, dev, DL_TYPE_UINT8, DL_FORMAT_SCALAR, 1, &ac_id);
 653:/home/lsk/paparazzi/var/include/messages.h **** 	  trans->put_named_byte(trans->impl, dev, DL_TYPE_UINT8, DL_FORMAT_SCALAR, DL_DEBUG, "DEBUG");
 654:/home/lsk/paparazzi/var/include/messages.h **** 	  trans->put_bytes(trans->impl, dev, DL_TYPE_ARRAY_LENGTH, DL_FORMAT_SCALAR, 1, (void *) &nb_msg);
 655:/home/lsk/paparazzi/var/include/messages.h **** 	  trans->put_bytes(trans->impl, dev, DL_TYPE_UINT8, DL_FORMAT_ARRAY, 1 * nb_msg, (void *) _msg);
 656:/home/lsk/paparazzi/var/include/messages.h **** 	  trans->end_message(trans->impl, dev);
 657:/home/lsk/paparazzi/var/include/messages.h **** 	} else
 658:/home/lsk/paparazzi/var/include/messages.h **** 	  trans->overrun(trans->impl, dev);
 659:/home/lsk/paparazzi/var/include/messages.h **** }
 660:/home/lsk/paparazzi/var/include/messages.h **** 
 661:/home/lsk/paparazzi/var/include/messages.h **** #define DOWNLINK_SEND_SURVEY(_trans, _dev, east, north, west, south) pprz_msg_send_SURVEY(&((_trans
 662:/home/lsk/paparazzi/var/include/messages.h **** static inline void pprz_msg_send_SURVEY(struct transport_tx *trans, struct link_device *dev, uint8_
 663:/home/lsk/paparazzi/var/include/messages.h **** 	if (trans->check_available_space(trans->impl, dev, trans->size_of(trans->impl, 0+4+4+4+4 +2 /* msg
 664:/home/lsk/paparazzi/var/include/messages.h **** 	  trans->count_bytes(trans->impl, dev, trans->size_of(trans->impl, 0+4+4+4+4 +2 /* msg header over
 665:/home/lsk/paparazzi/var/include/messages.h **** 	  trans->start_message(trans->impl, dev, 0+4+4+4+4 +2 /* msg header overhead */);
 666:/home/lsk/paparazzi/var/include/messages.h **** 	  trans->put_bytes(trans->impl, dev, DL_TYPE_UINT8, DL_FORMAT_SCALAR, 1, &ac_id);
 667:/home/lsk/paparazzi/var/include/messages.h **** 	  trans->put_named_byte(trans->impl, dev, DL_TYPE_UINT8, DL_FORMAT_SCALAR, DL_SURVEY, "SURVEY");
 668:/home/lsk/paparazzi/var/include/messages.h **** 	  trans->put_bytes(trans->impl, dev, DL_TYPE_FLOAT, DL_FORMAT_SCALAR, 4, (void *) _east);
 669:/home/lsk/paparazzi/var/include/messages.h **** 	  trans->put_bytes(trans->impl, dev, DL_TYPE_FLOAT, DL_FORMAT_SCALAR, 4, (void *) _north);
 670:/home/lsk/paparazzi/var/include/messages.h **** 	  trans->put_bytes(trans->impl, dev, DL_TYPE_FLOAT, DL_FORMAT_SCALAR, 4, (void *) _west);
 671:/home/lsk/paparazzi/var/include/messages.h **** 	  trans->put_bytes(trans->impl, dev, DL_TYPE_FLOAT, DL_FORMAT_SCALAR, 4, (void *) _south);
 672:/home/lsk/paparazzi/var/include/messages.h **** 	  trans->end_message(trans->impl, dev);
 673:/home/lsk/paparazzi/var/include/messages.h **** 	} else
 674:/home/lsk/paparazzi/var/include/messages.h **** 	  trans->overrun(trans->impl, dev);
 675:/home/lsk/paparazzi/var/include/messages.h **** }
 676:/home/lsk/paparazzi/var/include/messages.h **** 
 677:/home/lsk/paparazzi/var/include/messages.h **** #define DOWNLINK_SEND_WC_RSSI(_trans, _dev, raw_level) pprz_msg_send_WC_RSSI(&((_trans).trans_tx), 
 678:/home/lsk/paparazzi/var/include/messages.h **** static inline void pprz_msg_send_WC_RSSI(struct transport_tx *trans, struct link_device *dev, uint8
 679:/home/lsk/paparazzi/var/include/messages.h **** 	if (trans->check_available_space(trans->impl, dev, trans->size_of(trans->impl, 0+1 +2 /* msg heade
 680:/home/lsk/paparazzi/var/include/messages.h **** 	  trans->count_bytes(trans->impl, dev, trans->size_of(trans->impl, 0+1 +2 /* msg header overhead *
 681:/home/lsk/paparazzi/var/include/messages.h **** 	  trans->start_message(trans->impl, dev, 0+1 +2 /* msg header overhead */);
 682:/home/lsk/paparazzi/var/include/messages.h **** 	  trans->put_bytes(trans->impl, dev, DL_TYPE_UINT8, DL_FORMAT_SCALAR, 1, &ac_id);
 683:/home/lsk/paparazzi/var/include/messages.h **** 	  trans->put_named_byte(trans->impl, dev, DL_TYPE_UINT8, DL_FORMAT_SCALAR, DL_WC_RSSI, "WC_RSSI");
 684:/home/lsk/paparazzi/var/include/messages.h **** 	  trans->put_bytes(trans->impl, dev, DL_TYPE_UINT8, DL_FORMAT_SCALAR, 1, (void *) _raw_level);
 685:/home/lsk/paparazzi/var/include/messages.h **** 	  trans->end_message(trans->impl, dev);
 686:/home/lsk/paparazzi/var/include/messages.h **** 	} else
 687:/home/lsk/paparazzi/var/include/messages.h **** 	  trans->overrun(trans->impl, dev);
 688:/home/lsk/paparazzi/var/include/messages.h **** }
 689:/home/lsk/paparazzi/var/include/messages.h **** 
 690:/home/lsk/paparazzi/var/include/messages.h **** #define DOWNLINK_SEND_RANGEFINDER(_trans, _dev, range, z_dot, z_dot_sum_err, z_dot_setpoint, z_sum_
 691:/home/lsk/paparazzi/var/include/messages.h **** static inline void pprz_msg_send_RANGEFINDER(struct transport_tx *trans, struct link_device *dev, u
 692:/home/lsk/paparazzi/var/include/messages.h **** 	if (trans->check_available_space(trans->impl, dev, trans->size_of(trans->impl, 0+2+4+4+4+4+4+1 +2 
 693:/home/lsk/paparazzi/var/include/messages.h **** 	  trans->count_bytes(trans->impl, dev, trans->size_of(trans->impl, 0+2+4+4+4+4+4+1 +2 /* msg heade
 694:/home/lsk/paparazzi/var/include/messages.h **** 	  trans->start_message(trans->impl, dev, 0+2+4+4+4+4+4+1 +2 /* msg header overhead */);
 695:/home/lsk/paparazzi/var/include/messages.h **** 	  trans->put_bytes(trans->impl, dev, DL_TYPE_UINT8, DL_FORMAT_SCALAR, 1, &ac_id);
 696:/home/lsk/paparazzi/var/include/messages.h **** 	  trans->put_named_byte(trans->impl, dev, DL_TYPE_UINT8, DL_FORMAT_SCALAR, DL_RANGEFINDER, "RANGEF
 697:/home/lsk/paparazzi/var/include/messages.h **** 	  trans->put_bytes(trans->impl, dev, DL_TYPE_UINT16, DL_FORMAT_SCALAR, 2, (void *) _range);
 698:/home/lsk/paparazzi/var/include/messages.h **** 	  trans->put_bytes(trans->impl, dev, DL_TYPE_FLOAT, DL_FORMAT_SCALAR, 4, (void *) _z_dot);
 699:/home/lsk/paparazzi/var/include/messages.h **** 	  trans->put_bytes(trans->impl, dev, DL_TYPE_FLOAT, DL_FORMAT_SCALAR, 4, (void *) _z_dot_sum_err);
 700:/home/lsk/paparazzi/var/include/messages.h **** 	  trans->put_bytes(trans->impl, dev, DL_TYPE_FLOAT, DL_FORMAT_SCALAR, 4, (void *) _z_dot_setpoint)
 701:/home/lsk/paparazzi/var/include/messages.h **** 	  trans->put_bytes(trans->impl, dev, DL_TYPE_FLOAT, DL_FORMAT_SCALAR, 4, (void *) _z_sum_err);
 702:/home/lsk/paparazzi/var/include/messages.h **** 	  trans->put_bytes(trans->impl, dev, DL_TYPE_FLOAT, DL_FORMAT_SCALAR, 4, (void *) _z_setpoint);
 703:/home/lsk/paparazzi/var/include/messages.h **** 	  trans->put_bytes(trans->impl, dev, DL_TYPE_UINT8, DL_FORMAT_SCALAR, 1, (void *) _flying);
 704:/home/lsk/paparazzi/var/include/messages.h **** 	  trans->end_message(trans->impl, dev);
 705:/home/lsk/paparazzi/var/include/messages.h **** 	} else
 706:/home/lsk/paparazzi/var/include/messages.h **** 	  trans->overrun(trans->impl, dev);
 707:/home/lsk/paparazzi/var/include/messages.h **** }
 708:/home/lsk/paparazzi/var/include/messages.h **** 
 709:/home/lsk/paparazzi/var/include/messages.h **** #define DOWNLINK_SEND_DATALINK_REPORT(_trans, _dev, uplink_lost_time, uplink_nb_msgs, downlink_nb_m
 710:/home/lsk/paparazzi/var/include/messages.h **** static inline void pprz_msg_send_DATALINK_REPORT(struct transport_tx *trans, struct link_device *de
 711:/home/lsk/paparazzi/var/include/messages.h **** 	if (trans->check_available_space(trans->impl, dev, trans->size_of(trans->impl, 0+2+2+2+2+1 +2 /* m
 712:/home/lsk/paparazzi/var/include/messages.h **** 	  trans->count_bytes(trans->impl, dev, trans->size_of(trans->impl, 0+2+2+2+2+1 +2 /* msg header ov
 713:/home/lsk/paparazzi/var/include/messages.h **** 	  trans->start_message(trans->impl, dev, 0+2+2+2+2+1 +2 /* msg header overhead */);
 714:/home/lsk/paparazzi/var/include/messages.h **** 	  trans->put_bytes(trans->impl, dev, DL_TYPE_UINT8, DL_FORMAT_SCALAR, 1, &ac_id);
 715:/home/lsk/paparazzi/var/include/messages.h **** 	  trans->put_named_byte(trans->impl, dev, DL_TYPE_UINT8, DL_FORMAT_SCALAR, DL_DATALINK_REPORT, "DA
 716:/home/lsk/paparazzi/var/include/messages.h **** 	  trans->put_bytes(trans->impl, dev, DL_TYPE_UINT16, DL_FORMAT_SCALAR, 2, (void *) _uplink_lost_ti
 717:/home/lsk/paparazzi/var/include/messages.h **** 	  trans->put_bytes(trans->impl, dev, DL_TYPE_UINT16, DL_FORMAT_SCALAR, 2, (void *) _uplink_nb_msgs
 718:/home/lsk/paparazzi/var/include/messages.h **** 	  trans->put_bytes(trans->impl, dev, DL_TYPE_UINT16, DL_FORMAT_SCALAR, 2, (void *) _downlink_nb_ms
 719:/home/lsk/paparazzi/var/include/messages.h **** 	  trans->put_bytes(trans->impl, dev, DL_TYPE_UINT16, DL_FORMAT_SCALAR, 2, (void *) _downlink_rate)
 720:/home/lsk/paparazzi/var/include/messages.h **** 	  trans->put_bytes(trans->impl, dev, DL_TYPE_UINT8, DL_FORMAT_SCALAR, 1, (void *) _downlink_ovrn);
 721:/home/lsk/paparazzi/var/include/messages.h **** 	  trans->end_message(trans->impl, dev);
 722:/home/lsk/paparazzi/var/include/messages.h **** 	} else
 723:/home/lsk/paparazzi/var/include/messages.h **** 	  trans->overrun(trans->impl, dev);
 724:/home/lsk/paparazzi/var/include/messages.h **** }
 725:/home/lsk/paparazzi/var/include/messages.h **** 
 726:/home/lsk/paparazzi/var/include/messages.h **** #define DOWNLINK_SEND_DL_VALUE(_trans, _dev, index, value) pprz_msg_send_DL_VALUE(&((_trans).trans_
 727:/home/lsk/paparazzi/var/include/messages.h **** static inline void pprz_msg_send_DL_VALUE(struct transport_tx *trans, struct link_device *dev, uint
 728:/home/lsk/paparazzi/var/include/messages.h **** 	if (trans->check_available_space(trans->impl, dev, trans->size_of(trans->impl, 0+1+4 +2 /* msg hea
 729:/home/lsk/paparazzi/var/include/messages.h **** 	  trans->count_bytes(trans->impl, dev, trans->size_of(trans->impl, 0+1+4 +2 /* msg header overhead
 730:/home/lsk/paparazzi/var/include/messages.h **** 	  trans->start_message(trans->impl, dev, 0+1+4 +2 /* msg header overhead */);
 731:/home/lsk/paparazzi/var/include/messages.h **** 	  trans->put_bytes(trans->impl, dev, DL_TYPE_UINT8, DL_FORMAT_SCALAR, 1, &ac_id);
 732:/home/lsk/paparazzi/var/include/messages.h **** 	  trans->put_named_byte(trans->impl, dev, DL_TYPE_UINT8, DL_FORMAT_SCALAR, DL_DL_VALUE, "DL_VALUE"
 733:/home/lsk/paparazzi/var/include/messages.h **** 	  trans->put_bytes(trans->impl, dev, DL_TYPE_UINT8, DL_FORMAT_SCALAR, 1, (void *) _index);
 734:/home/lsk/paparazzi/var/include/messages.h **** 	  trans->put_bytes(trans->impl, dev, DL_TYPE_FLOAT, DL_FORMAT_SCALAR, 4, (void *) _value);
 735:/home/lsk/paparazzi/var/include/messages.h **** 	  trans->end_message(trans->impl, dev);
 736:/home/lsk/paparazzi/var/include/messages.h **** 	} else
 737:/home/lsk/paparazzi/var/include/messages.h **** 	  trans->overrun(trans->impl, dev);
 738:/home/lsk/paparazzi/var/include/messages.h **** }
 739:/home/lsk/paparazzi/var/include/messages.h **** 
 740:/home/lsk/paparazzi/var/include/messages.h **** #define DOWNLINK_SEND_MARK(_trans, _dev, ac_id, lat, long) pprz_msg_send_MARK(&((_trans).trans_tx),
 741:/home/lsk/paparazzi/var/include/messages.h **** static inline void pprz_msg_send_MARK(struct transport_tx *trans, struct link_device *dev, uint8_t 
 742:/home/lsk/paparazzi/var/include/messages.h **** 	if (trans->check_available_space(trans->impl, dev, trans->size_of(trans->impl, 0+1+4+4 +2 /* msg h
 743:/home/lsk/paparazzi/var/include/messages.h **** 	  trans->count_bytes(trans->impl, dev, trans->size_of(trans->impl, 0+1+4+4 +2 /* msg header overhe
 744:/home/lsk/paparazzi/var/include/messages.h **** 	  trans->start_message(trans->impl, dev, 0+1+4+4 +2 /* msg header overhead */);
 745:/home/lsk/paparazzi/var/include/messages.h **** 	  trans->put_bytes(trans->impl, dev, DL_TYPE_UINT8, DL_FORMAT_SCALAR, 1, &ac_id);
 746:/home/lsk/paparazzi/var/include/messages.h **** 	  trans->put_named_byte(trans->impl, dev, DL_TYPE_UINT8, DL_FORMAT_SCALAR, DL_MARK, "MARK");
 747:/home/lsk/paparazzi/var/include/messages.h **** 	  trans->put_bytes(trans->impl, dev, DL_TYPE_UINT8, DL_FORMAT_SCALAR, 1, (void *) _ac_id);
 748:/home/lsk/paparazzi/var/include/messages.h **** 	  trans->put_bytes(trans->impl, dev, DL_TYPE_FLOAT, DL_FORMAT_SCALAR, 4, (void *) _lat);
 749:/home/lsk/paparazzi/var/include/messages.h **** 	  trans->put_bytes(trans->impl, dev, DL_TYPE_FLOAT, DL_FORMAT_SCALAR, 4, (void *) _long);
 750:/home/lsk/paparazzi/var/include/messages.h **** 	  trans->end_message(trans->impl, dev);
 751:/home/lsk/paparazzi/var/include/messages.h **** 	} else
 752:/home/lsk/paparazzi/var/include/messages.h **** 	  trans->overrun(trans->impl, dev);
 753:/home/lsk/paparazzi/var/include/messages.h **** }
 754:/home/lsk/paparazzi/var/include/messages.h **** 
 755:/home/lsk/paparazzi/var/include/messages.h **** #define DOWNLINK_SEND_SYS_MON(_trans, _dev, periodic_time, periodic_time_min, periodic_time_max, pe
 756:/home/lsk/paparazzi/var/include/messages.h **** static inline void pprz_msg_send_SYS_MON(struct transport_tx *trans, struct link_device *dev, uint8
 757:/home/lsk/paparazzi/var/include/messages.h **** 	if (trans->check_available_space(trans->impl, dev, trans->size_of(trans->impl, 0+2+2+2+2+2+2+2+1 +
 758:/home/lsk/paparazzi/var/include/messages.h **** 	  trans->count_bytes(trans->impl, dev, trans->size_of(trans->impl, 0+2+2+2+2+2+2+2+1 +2 /* msg hea
 759:/home/lsk/paparazzi/var/include/messages.h **** 	  trans->start_message(trans->impl, dev, 0+2+2+2+2+2+2+2+1 +2 /* msg header overhead */);
 760:/home/lsk/paparazzi/var/include/messages.h **** 	  trans->put_bytes(trans->impl, dev, DL_TYPE_UINT8, DL_FORMAT_SCALAR, 1, &ac_id);
 761:/home/lsk/paparazzi/var/include/messages.h **** 	  trans->put_named_byte(trans->impl, dev, DL_TYPE_UINT8, DL_FORMAT_SCALAR, DL_SYS_MON, "SYS_MON");
 762:/home/lsk/paparazzi/var/include/messages.h **** 	  trans->put_bytes(trans->impl, dev, DL_TYPE_UINT16, DL_FORMAT_SCALAR, 2, (void *) _periodic_time)
 763:/home/lsk/paparazzi/var/include/messages.h **** 	  trans->put_bytes(trans->impl, dev, DL_TYPE_UINT16, DL_FORMAT_SCALAR, 2, (void *) _periodic_time_
 764:/home/lsk/paparazzi/var/include/messages.h **** 	  trans->put_bytes(trans->impl, dev, DL_TYPE_UINT16, DL_FORMAT_SCALAR, 2, (void *) _periodic_time_
 765:/home/lsk/paparazzi/var/include/messages.h **** 	  trans->put_bytes(trans->impl, dev, DL_TYPE_UINT16, DL_FORMAT_SCALAR, 2, (void *) _periodic_cycle
 766:/home/lsk/paparazzi/var/include/messages.h **** 	  trans->put_bytes(trans->impl, dev, DL_TYPE_UINT16, DL_FORMAT_SCALAR, 2, (void *) _periodic_cycle
 767:/home/lsk/paparazzi/var/include/messages.h **** 	  trans->put_bytes(trans->impl, dev, DL_TYPE_UINT16, DL_FORMAT_SCALAR, 2, (void *) _periodic_cycle
 768:/home/lsk/paparazzi/var/include/messages.h **** 	  trans->put_bytes(trans->impl, dev, DL_TYPE_UINT16, DL_FORMAT_SCALAR, 2, (void *) _event_number);
 769:/home/lsk/paparazzi/var/include/messages.h **** 	  trans->put_bytes(trans->impl, dev, DL_TYPE_UINT8, DL_FORMAT_SCALAR, 1, (void *) _cpu_load);
 770:/home/lsk/paparazzi/var/include/messages.h **** 	  trans->end_message(trans->impl, dev);
 771:/home/lsk/paparazzi/var/include/messages.h **** 	} else
 772:/home/lsk/paparazzi/var/include/messages.h **** 	  trans->overrun(trans->impl, dev);
 773:/home/lsk/paparazzi/var/include/messages.h **** }
 774:/home/lsk/paparazzi/var/include/messages.h **** 
 775:/home/lsk/paparazzi/var/include/messages.h **** #define DOWNLINK_SEND_MOTOR(_trans, _dev, rpm, current) pprz_msg_send_MOTOR(&((_trans).trans_tx), &
 776:/home/lsk/paparazzi/var/include/messages.h **** static inline void pprz_msg_send_MOTOR(struct transport_tx *trans, struct link_device *dev, uint8_t
 777:/home/lsk/paparazzi/var/include/messages.h **** 	if (trans->check_available_space(trans->impl, dev, trans->size_of(trans->impl, 0+2+4 +2 /* msg hea
 778:/home/lsk/paparazzi/var/include/messages.h **** 	  trans->count_bytes(trans->impl, dev, trans->size_of(trans->impl, 0+2+4 +2 /* msg header overhead
 779:/home/lsk/paparazzi/var/include/messages.h **** 	  trans->start_message(trans->impl, dev, 0+2+4 +2 /* msg header overhead */);
 780:/home/lsk/paparazzi/var/include/messages.h **** 	  trans->put_bytes(trans->impl, dev, DL_TYPE_UINT8, DL_FORMAT_SCALAR, 1, &ac_id);
 781:/home/lsk/paparazzi/var/include/messages.h **** 	  trans->put_named_byte(trans->impl, dev, DL_TYPE_UINT8, DL_FORMAT_SCALAR, DL_MOTOR, "MOTOR");
 782:/home/lsk/paparazzi/var/include/messages.h **** 	  trans->put_bytes(trans->impl, dev, DL_TYPE_UINT16, DL_FORMAT_SCALAR, 2, (void *) _rpm);
 783:/home/lsk/paparazzi/var/include/messages.h **** 	  trans->put_bytes(trans->impl, dev, DL_TYPE_INT32, DL_FORMAT_SCALAR, 4, (void *) _current);
 784:/home/lsk/paparazzi/var/include/messages.h **** 	  trans->end_message(trans->impl, dev);
 785:/home/lsk/paparazzi/var/include/messages.h **** 	} else
 786:/home/lsk/paparazzi/var/include/messages.h **** 	  trans->overrun(trans->impl, dev);
 787:/home/lsk/paparazzi/var/include/messages.h **** }
 788:/home/lsk/paparazzi/var/include/messages.h **** 
 789:/home/lsk/paparazzi/var/include/messages.h **** #define DOWNLINK_SEND_WP_MOVED(_trans, _dev, wp_id, utm_east, utm_north, alt, utm_zone) pprz_msg_se
 790:/home/lsk/paparazzi/var/include/messages.h **** static inline void pprz_msg_send_WP_MOVED(struct transport_tx *trans, struct link_device *dev, uint
 791:/home/lsk/paparazzi/var/include/messages.h **** 	if (trans->check_available_space(trans->impl, dev, trans->size_of(trans->impl, 0+1+4+4+4+1 +2 /* m
 792:/home/lsk/paparazzi/var/include/messages.h **** 	  trans->count_bytes(trans->impl, dev, trans->size_of(trans->impl, 0+1+4+4+4+1 +2 /* msg header ov
 793:/home/lsk/paparazzi/var/include/messages.h **** 	  trans->start_message(trans->impl, dev, 0+1+4+4+4+1 +2 /* msg header overhead */);
 794:/home/lsk/paparazzi/var/include/messages.h **** 	  trans->put_bytes(trans->impl, dev, DL_TYPE_UINT8, DL_FORMAT_SCALAR, 1, &ac_id);
 795:/home/lsk/paparazzi/var/include/messages.h **** 	  trans->put_named_byte(trans->impl, dev, DL_TYPE_UINT8, DL_FORMAT_SCALAR, DL_WP_MOVED, "WP_MOVED"
 796:/home/lsk/paparazzi/var/include/messages.h **** 	  trans->put_bytes(trans->impl, dev, DL_TYPE_UINT8, DL_FORMAT_SCALAR, 1, (void *) _wp_id);
 797:/home/lsk/paparazzi/var/include/messages.h **** 	  trans->put_bytes(trans->impl, dev, DL_TYPE_FLOAT, DL_FORMAT_SCALAR, 4, (void *) _utm_east);
 798:/home/lsk/paparazzi/var/include/messages.h **** 	  trans->put_bytes(trans->impl, dev, DL_TYPE_FLOAT, DL_FORMAT_SCALAR, 4, (void *) _utm_north);
 799:/home/lsk/paparazzi/var/include/messages.h **** 	  trans->put_bytes(trans->impl, dev, DL_TYPE_FLOAT, DL_FORMAT_SCALAR, 4, (void *) _alt);
 800:/home/lsk/paparazzi/var/include/messages.h **** 	  trans->put_bytes(trans->impl, dev, DL_TYPE_UINT8, DL_FORMAT_SCALAR, 1, (void *) _utm_zone);
 801:/home/lsk/paparazzi/var/include/messages.h **** 	  trans->end_message(trans->impl, dev);
 802:/home/lsk/paparazzi/var/include/messages.h **** 	} else
 803:/home/lsk/paparazzi/var/include/messages.h **** 	  trans->overrun(trans->impl, dev);
 804:/home/lsk/paparazzi/var/include/messages.h **** }
 805:/home/lsk/paparazzi/var/include/messages.h **** 
 806:/home/lsk/paparazzi/var/include/messages.h **** #define DOWNLINK_SEND_MKK(_trans, _dev, nr, rpm, current, temp) pprz_msg_send_MKK(&((_trans).trans_
 807:/home/lsk/paparazzi/var/include/messages.h **** static inline void pprz_msg_send_MKK(struct transport_tx *trans, struct link_device *dev, uint8_t a
 808:/home/lsk/paparazzi/var/include/messages.h **** 	if (trans->check_available_space(trans->impl, dev, trans->size_of(trans->impl, 0+1+1+1+1 +2 /* msg
 809:/home/lsk/paparazzi/var/include/messages.h **** 	  trans->count_bytes(trans->impl, dev, trans->size_of(trans->impl, 0+1+1+1+1 +2 /* msg header over
 810:/home/lsk/paparazzi/var/include/messages.h **** 	  trans->start_message(trans->impl, dev, 0+1+1+1+1 +2 /* msg header overhead */);
 811:/home/lsk/paparazzi/var/include/messages.h **** 	  trans->put_bytes(trans->impl, dev, DL_TYPE_UINT8, DL_FORMAT_SCALAR, 1, &ac_id);
 812:/home/lsk/paparazzi/var/include/messages.h **** 	  trans->put_named_byte(trans->impl, dev, DL_TYPE_UINT8, DL_FORMAT_SCALAR, DL_MKK, "MKK");
 813:/home/lsk/paparazzi/var/include/messages.h **** 	  trans->put_bytes(trans->impl, dev, DL_TYPE_UINT8, DL_FORMAT_SCALAR, 1, (void *) _nr);
 814:/home/lsk/paparazzi/var/include/messages.h **** 	  trans->put_bytes(trans->impl, dev, DL_TYPE_UINT8, DL_FORMAT_SCALAR, 1, (void *) _rpm);
 815:/home/lsk/paparazzi/var/include/messages.h **** 	  trans->put_bytes(trans->impl, dev, DL_TYPE_UINT8, DL_FORMAT_SCALAR, 1, (void *) _current);
 816:/home/lsk/paparazzi/var/include/messages.h **** 	  trans->put_bytes(trans->impl, dev, DL_TYPE_INT8, DL_FORMAT_SCALAR, 1, (void *) _temp);
 817:/home/lsk/paparazzi/var/include/messages.h **** 	  trans->end_message(trans->impl, dev);
 818:/home/lsk/paparazzi/var/include/messages.h **** 	} else
 819:/home/lsk/paparazzi/var/include/messages.h **** 	  trans->overrun(trans->impl, dev);
 820:/home/lsk/paparazzi/var/include/messages.h **** }
 821:/home/lsk/paparazzi/var/include/messages.h **** 
 822:/home/lsk/paparazzi/var/include/messages.h **** #define DOWNLINK_SEND_ENERGY(_trans, _dev, bat, amp, energy, power) pprz_msg_send_ENERGY(&((_trans)
 823:/home/lsk/paparazzi/var/include/messages.h **** static inline void pprz_msg_send_ENERGY(struct transport_tx *trans, struct link_device *dev, uint8_
 824:/home/lsk/paparazzi/var/include/messages.h **** 	if (trans->check_available_space(trans->impl, dev, trans->size_of(trans->impl, 0+4+4+2+4 +2 /* msg
 825:/home/lsk/paparazzi/var/include/messages.h **** 	  trans->count_bytes(trans->impl, dev, trans->size_of(trans->impl, 0+4+4+2+4 +2 /* msg header over
 826:/home/lsk/paparazzi/var/include/messages.h **** 	  trans->start_message(trans->impl, dev, 0+4+4+2+4 +2 /* msg header overhead */);
 827:/home/lsk/paparazzi/var/include/messages.h **** 	  trans->put_bytes(trans->impl, dev, DL_TYPE_UINT8, DL_FORMAT_SCALAR, 1, &ac_id);
 828:/home/lsk/paparazzi/var/include/messages.h **** 	  trans->put_named_byte(trans->impl, dev, DL_TYPE_UINT8, DL_FORMAT_SCALAR, DL_ENERGY, "ENERGY");
 829:/home/lsk/paparazzi/var/include/messages.h **** 	  trans->put_bytes(trans->impl, dev, DL_TYPE_FLOAT, DL_FORMAT_SCALAR, 4, (void *) _bat);
 830:/home/lsk/paparazzi/var/include/messages.h **** 	  trans->put_bytes(trans->impl, dev, DL_TYPE_FLOAT, DL_FORMAT_SCALAR, 4, (void *) _amp);
 831:/home/lsk/paparazzi/var/include/messages.h **** 	  trans->put_bytes(trans->impl, dev, DL_TYPE_UINT16, DL_FORMAT_SCALAR, 2, (void *) _energy);
 832:/home/lsk/paparazzi/var/include/messages.h **** 	  trans->put_bytes(trans->impl, dev, DL_TYPE_FLOAT, DL_FORMAT_SCALAR, 4, (void *) _power);
 833:/home/lsk/paparazzi/var/include/messages.h **** 	  trans->end_message(trans->impl, dev);
 834:/home/lsk/paparazzi/var/include/messages.h **** 	} else
 835:/home/lsk/paparazzi/var/include/messages.h **** 	  trans->overrun(trans->impl, dev);
 836:/home/lsk/paparazzi/var/include/messages.h **** }
 837:/home/lsk/paparazzi/var/include/messages.h **** 
 838:/home/lsk/paparazzi/var/include/messages.h **** #define DOWNLINK_SEND_BARO_BMP85_CALIB(_trans, _dev, a1, a2, a3, a4, a5, a6, b1, b2, mb, mc, md) pp
 839:/home/lsk/paparazzi/var/include/messages.h **** static inline void pprz_msg_send_BARO_BMP85_CALIB(struct transport_tx *trans, struct link_device *d
 840:/home/lsk/paparazzi/var/include/messages.h **** 	if (trans->check_available_space(trans->impl, dev, trans->size_of(trans->impl, 0+2+2+2+2+2+2+2+2+2
 841:/home/lsk/paparazzi/var/include/messages.h **** 	  trans->count_bytes(trans->impl, dev, trans->size_of(trans->impl, 0+2+2+2+2+2+2+2+2+2+2+2 +2 /* m
 842:/home/lsk/paparazzi/var/include/messages.h **** 	  trans->start_message(trans->impl, dev, 0+2+2+2+2+2+2+2+2+2+2+2 +2 /* msg header overhead */);
 843:/home/lsk/paparazzi/var/include/messages.h **** 	  trans->put_bytes(trans->impl, dev, DL_TYPE_UINT8, DL_FORMAT_SCALAR, 1, &ac_id);
 844:/home/lsk/paparazzi/var/include/messages.h **** 	  trans->put_named_byte(trans->impl, dev, DL_TYPE_UINT8, DL_FORMAT_SCALAR, DL_BARO_BMP85_CALIB, "B
 845:/home/lsk/paparazzi/var/include/messages.h **** 	  trans->put_bytes(trans->impl, dev, DL_TYPE_INT16, DL_FORMAT_SCALAR, 2, (void *) _a1);
 846:/home/lsk/paparazzi/var/include/messages.h **** 	  trans->put_bytes(trans->impl, dev, DL_TYPE_INT16, DL_FORMAT_SCALAR, 2, (void *) _a2);
 847:/home/lsk/paparazzi/var/include/messages.h **** 	  trans->put_bytes(trans->impl, dev, DL_TYPE_INT16, DL_FORMAT_SCALAR, 2, (void *) _a3);
 848:/home/lsk/paparazzi/var/include/messages.h **** 	  trans->put_bytes(trans->impl, dev, DL_TYPE_UINT16, DL_FORMAT_SCALAR, 2, (void *) _a4);
 849:/home/lsk/paparazzi/var/include/messages.h **** 	  trans->put_bytes(trans->impl, dev, DL_TYPE_UINT16, DL_FORMAT_SCALAR, 2, (void *) _a5);
 850:/home/lsk/paparazzi/var/include/messages.h **** 	  trans->put_bytes(trans->impl, dev, DL_TYPE_UINT16, DL_FORMAT_SCALAR, 2, (void *) _a6);
 851:/home/lsk/paparazzi/var/include/messages.h **** 	  trans->put_bytes(trans->impl, dev, DL_TYPE_INT16, DL_FORMAT_SCALAR, 2, (void *) _b1);
 852:/home/lsk/paparazzi/var/include/messages.h **** 	  trans->put_bytes(trans->impl, dev, DL_TYPE_INT16, DL_FORMAT_SCALAR, 2, (void *) _b2);
 853:/home/lsk/paparazzi/var/include/messages.h **** 	  trans->put_bytes(trans->impl, dev, DL_TYPE_INT16, DL_FORMAT_SCALAR, 2, (void *) _mb);
 854:/home/lsk/paparazzi/var/include/messages.h **** 	  trans->put_bytes(trans->impl, dev, DL_TYPE_INT16, DL_FORMAT_SCALAR, 2, (void *) _mc);
 855:/home/lsk/paparazzi/var/include/messages.h **** 	  trans->put_bytes(trans->impl, dev, DL_TYPE_INT16, DL_FORMAT_SCALAR, 2, (void *) _md);
 856:/home/lsk/paparazzi/var/include/messages.h **** 	  trans->end_message(trans->impl, dev);
 857:/home/lsk/paparazzi/var/include/messages.h **** 	} else
 858:/home/lsk/paparazzi/var/include/messages.h **** 	  trans->overrun(trans->impl, dev);
 859:/home/lsk/paparazzi/var/include/messages.h **** }
 860:/home/lsk/paparazzi/var/include/messages.h **** 
 861:/home/lsk/paparazzi/var/include/messages.h **** #define DOWNLINK_SEND_BARO_BMP85(_trans, _dev, UT, UP, P, T, MSL) pprz_msg_send_BARO_BMP85(&((_tran
 862:/home/lsk/paparazzi/var/include/messages.h **** static inline void pprz_msg_send_BARO_BMP85(struct transport_tx *trans, struct link_device *dev, ui
 863:/home/lsk/paparazzi/var/include/messages.h **** 	if (trans->check_available_space(trans->impl, dev, trans->size_of(trans->impl, 0+4+4+4+4+4 +2 /* m
 864:/home/lsk/paparazzi/var/include/messages.h **** 	  trans->count_bytes(trans->impl, dev, trans->size_of(trans->impl, 0+4+4+4+4+4 +2 /* msg header ov
 865:/home/lsk/paparazzi/var/include/messages.h **** 	  trans->start_message(trans->impl, dev, 0+4+4+4+4+4 +2 /* msg header overhead */);
 866:/home/lsk/paparazzi/var/include/messages.h **** 	  trans->put_bytes(trans->impl, dev, DL_TYPE_UINT8, DL_FORMAT_SCALAR, 1, &ac_id);
 867:/home/lsk/paparazzi/var/include/messages.h **** 	  trans->put_named_byte(trans->impl, dev, DL_TYPE_UINT8, DL_FORMAT_SCALAR, DL_BARO_BMP85, "BARO_BM
 868:/home/lsk/paparazzi/var/include/messages.h **** 	  trans->put_bytes(trans->impl, dev, DL_TYPE_INT32, DL_FORMAT_SCALAR, 4, (void *) _UT);
 869:/home/lsk/paparazzi/var/include/messages.h **** 	  trans->put_bytes(trans->impl, dev, DL_TYPE_INT32, DL_FORMAT_SCALAR, 4, (void *) _UP);
 870:/home/lsk/paparazzi/var/include/messages.h **** 	  trans->put_bytes(trans->impl, dev, DL_TYPE_UINT32, DL_FORMAT_SCALAR, 4, (void *) _P);
 871:/home/lsk/paparazzi/var/include/messages.h **** 	  trans->put_bytes(trans->impl, dev, DL_TYPE_FLOAT, DL_FORMAT_SCALAR, 4, (void *) _T);
 872:/home/lsk/paparazzi/var/include/messages.h **** 	  trans->put_bytes(trans->impl, dev, DL_TYPE_FLOAT, DL_FORMAT_SCALAR, 4, (void *) _MSL);
 873:/home/lsk/paparazzi/var/include/messages.h **** 	  trans->end_message(trans->impl, dev);
 874:/home/lsk/paparazzi/var/include/messages.h **** 	} else
 875:/home/lsk/paparazzi/var/include/messages.h **** 	  trans->overrun(trans->impl, dev);
 876:/home/lsk/paparazzi/var/include/messages.h **** }
 877:/home/lsk/paparazzi/var/include/messages.h **** 
 878:/home/lsk/paparazzi/var/include/messages.h **** #define DOWNLINK_SEND_SPEED_LOOP(_trans, _dev, ve_set_point, ve, vn_set_point, vn, north_sp, east_s
 879:/home/lsk/paparazzi/var/include/messages.h **** static inline void pprz_msg_send_SPEED_LOOP(struct transport_tx *trans, struct link_device *dev, ui
 880:/home/lsk/paparazzi/var/include/messages.h **** 	if (trans->check_available_space(trans->impl, dev, trans->size_of(trans->impl, 0+4+4+4+4+4+4 +2 /*
 881:/home/lsk/paparazzi/var/include/messages.h **** 	  trans->count_bytes(trans->impl, dev, trans->size_of(trans->impl, 0+4+4+4+4+4+4 +2 /* msg header 
 882:/home/lsk/paparazzi/var/include/messages.h **** 	  trans->start_message(trans->impl, dev, 0+4+4+4+4+4+4 +2 /* msg header overhead */);
 883:/home/lsk/paparazzi/var/include/messages.h **** 	  trans->put_bytes(trans->impl, dev, DL_TYPE_UINT8, DL_FORMAT_SCALAR, 1, &ac_id);
 884:/home/lsk/paparazzi/var/include/messages.h **** 	  trans->put_named_byte(trans->impl, dev, DL_TYPE_UINT8, DL_FORMAT_SCALAR, DL_SPEED_LOOP, "SPEED_L
 885:/home/lsk/paparazzi/var/include/messages.h **** 	  trans->put_bytes(trans->impl, dev, DL_TYPE_FLOAT, DL_FORMAT_SCALAR, 4, (void *) _ve_set_point);
 886:/home/lsk/paparazzi/var/include/messages.h **** 	  trans->put_bytes(trans->impl, dev, DL_TYPE_FLOAT, DL_FORMAT_SCALAR, 4, (void *) _ve);
 887:/home/lsk/paparazzi/var/include/messages.h **** 	  trans->put_bytes(trans->impl, dev, DL_TYPE_FLOAT, DL_FORMAT_SCALAR, 4, (void *) _vn_set_point);
 888:/home/lsk/paparazzi/var/include/messages.h **** 	  trans->put_bytes(trans->impl, dev, DL_TYPE_FLOAT, DL_FORMAT_SCALAR, 4, (void *) _vn);
 889:/home/lsk/paparazzi/var/include/messages.h **** 	  trans->put_bytes(trans->impl, dev, DL_TYPE_FLOAT, DL_FORMAT_SCALAR, 4, (void *) _north_sp);
 890:/home/lsk/paparazzi/var/include/messages.h **** 	  trans->put_bytes(trans->impl, dev, DL_TYPE_FLOAT, DL_FORMAT_SCALAR, 4, (void *) _east_sp);
 891:/home/lsk/paparazzi/var/include/messages.h **** 	  trans->end_message(trans->impl, dev);
 892:/home/lsk/paparazzi/var/include/messages.h **** 	} else
 893:/home/lsk/paparazzi/var/include/messages.h **** 	  trans->overrun(trans->impl, dev);
 894:/home/lsk/paparazzi/var/include/messages.h **** }
 895:/home/lsk/paparazzi/var/include/messages.h **** 
 896:/home/lsk/paparazzi/var/include/messages.h **** #define DOWNLINK_SEND_ALT_KALMAN(_trans, _dev, p00, p01, p10, p11) pprz_msg_send_ALT_KALMAN(&((_tra
 897:/home/lsk/paparazzi/var/include/messages.h **** static inline void pprz_msg_send_ALT_KALMAN(struct transport_tx *trans, struct link_device *dev, ui
 898:/home/lsk/paparazzi/var/include/messages.h **** 	if (trans->check_available_space(trans->impl, dev, trans->size_of(trans->impl, 0+4+4+4+4 +2 /* msg
 899:/home/lsk/paparazzi/var/include/messages.h **** 	  trans->count_bytes(trans->impl, dev, trans->size_of(trans->impl, 0+4+4+4+4 +2 /* msg header over
 900:/home/lsk/paparazzi/var/include/messages.h **** 	  trans->start_message(trans->impl, dev, 0+4+4+4+4 +2 /* msg header overhead */);
 901:/home/lsk/paparazzi/var/include/messages.h **** 	  trans->put_bytes(trans->impl, dev, DL_TYPE_UINT8, DL_FORMAT_SCALAR, 1, &ac_id);
 902:/home/lsk/paparazzi/var/include/messages.h **** 	  trans->put_named_byte(trans->impl, dev, DL_TYPE_UINT8, DL_FORMAT_SCALAR, DL_ALT_KALMAN, "ALT_KAL
 903:/home/lsk/paparazzi/var/include/messages.h **** 	  trans->put_bytes(trans->impl, dev, DL_TYPE_FLOAT, DL_FORMAT_SCALAR, 4, (void *) _p00);
 904:/home/lsk/paparazzi/var/include/messages.h **** 	  trans->put_bytes(trans->impl, dev, DL_TYPE_FLOAT, DL_FORMAT_SCALAR, 4, (void *) _p01);
 905:/home/lsk/paparazzi/var/include/messages.h **** 	  trans->put_bytes(trans->impl, dev, DL_TYPE_FLOAT, DL_FORMAT_SCALAR, 4, (void *) _p10);
 906:/home/lsk/paparazzi/var/include/messages.h **** 	  trans->put_bytes(trans->impl, dev, DL_TYPE_FLOAT, DL_FORMAT_SCALAR, 4, (void *) _p11);
 907:/home/lsk/paparazzi/var/include/messages.h **** 	  trans->end_message(trans->impl, dev);
 908:/home/lsk/paparazzi/var/include/messages.h **** 	} else
 909:/home/lsk/paparazzi/var/include/messages.h **** 	  trans->overrun(trans->impl, dev);
 910:/home/lsk/paparazzi/var/include/messages.h **** }
 911:/home/lsk/paparazzi/var/include/messages.h **** 
 912:/home/lsk/paparazzi/var/include/messages.h **** #define DOWNLINK_SEND_ESTIMATOR(_trans, _dev, z, z_dot) pprz_msg_send_ESTIMATOR(&((_trans).trans_tx
 913:/home/lsk/paparazzi/var/include/messages.h **** static inline void pprz_msg_send_ESTIMATOR(struct transport_tx *trans, struct link_device *dev, uin
 914:/home/lsk/paparazzi/var/include/messages.h **** 	if (trans->check_available_space(trans->impl, dev, trans->size_of(trans->impl, 0+4+4 +2 /* msg hea
 915:/home/lsk/paparazzi/var/include/messages.h **** 	  trans->count_bytes(trans->impl, dev, trans->size_of(trans->impl, 0+4+4 +2 /* msg header overhead
 916:/home/lsk/paparazzi/var/include/messages.h **** 	  trans->start_message(trans->impl, dev, 0+4+4 +2 /* msg header overhead */);
 917:/home/lsk/paparazzi/var/include/messages.h **** 	  trans->put_bytes(trans->impl, dev, DL_TYPE_UINT8, DL_FORMAT_SCALAR, 1, &ac_id);
 918:/home/lsk/paparazzi/var/include/messages.h **** 	  trans->put_named_byte(trans->impl, dev, DL_TYPE_UINT8, DL_FORMAT_SCALAR, DL_ESTIMATOR, "ESTIMATO
 919:/home/lsk/paparazzi/var/include/messages.h **** 	  trans->put_bytes(trans->impl, dev, DL_TYPE_FLOAT, DL_FORMAT_SCALAR, 4, (void *) _z);
 920:/home/lsk/paparazzi/var/include/messages.h **** 	  trans->put_bytes(trans->impl, dev, DL_TYPE_FLOAT, DL_FORMAT_SCALAR, 4, (void *) _z_dot);
 921:/home/lsk/paparazzi/var/include/messages.h **** 	  trans->end_message(trans->impl, dev);
 922:/home/lsk/paparazzi/var/include/messages.h **** 	} else
 923:/home/lsk/paparazzi/var/include/messages.h **** 	  trans->overrun(trans->impl, dev);
 924:/home/lsk/paparazzi/var/include/messages.h **** }
 925:/home/lsk/paparazzi/var/include/messages.h **** 
 926:/home/lsk/paparazzi/var/include/messages.h **** #define DOWNLINK_SEND_TUNE_ROLL(_trans, _dev, p, phi, phi_sp) pprz_msg_send_TUNE_ROLL(&((_trans).tr
 927:/home/lsk/paparazzi/var/include/messages.h **** static inline void pprz_msg_send_TUNE_ROLL(struct transport_tx *trans, struct link_device *dev, uin
 928:/home/lsk/paparazzi/var/include/messages.h **** 	if (trans->check_available_space(trans->impl, dev, trans->size_of(trans->impl, 0+4+4+4 +2 /* msg h
 929:/home/lsk/paparazzi/var/include/messages.h **** 	  trans->count_bytes(trans->impl, dev, trans->size_of(trans->impl, 0+4+4+4 +2 /* msg header overhe
 930:/home/lsk/paparazzi/var/include/messages.h **** 	  trans->start_message(trans->impl, dev, 0+4+4+4 +2 /* msg header overhead */);
 931:/home/lsk/paparazzi/var/include/messages.h **** 	  trans->put_bytes(trans->impl, dev, DL_TYPE_UINT8, DL_FORMAT_SCALAR, 1, &ac_id);
 932:/home/lsk/paparazzi/var/include/messages.h **** 	  trans->put_named_byte(trans->impl, dev, DL_TYPE_UINT8, DL_FORMAT_SCALAR, DL_TUNE_ROLL, "TUNE_ROL
 933:/home/lsk/paparazzi/var/include/messages.h **** 	  trans->put_bytes(trans->impl, dev, DL_TYPE_FLOAT, DL_FORMAT_SCALAR, 4, (void *) _p);
 934:/home/lsk/paparazzi/var/include/messages.h **** 	  trans->put_bytes(trans->impl, dev, DL_TYPE_FLOAT, DL_FORMAT_SCALAR, 4, (void *) _phi);
 935:/home/lsk/paparazzi/var/include/messages.h **** 	  trans->put_bytes(trans->impl, dev, DL_TYPE_FLOAT, DL_FORMAT_SCALAR, 4, (void *) _phi_sp);
 936:/home/lsk/paparazzi/var/include/messages.h **** 	  trans->end_message(trans->impl, dev);
 937:/home/lsk/paparazzi/var/include/messages.h **** 	} else
 938:/home/lsk/paparazzi/var/include/messages.h **** 	  trans->overrun(trans->impl, dev);
 939:/home/lsk/paparazzi/var/include/messages.h **** }
 940:/home/lsk/paparazzi/var/include/messages.h **** 
 941:/home/lsk/paparazzi/var/include/messages.h **** #define DOWNLINK_SEND_BARO_MS5534A(_trans, _dev, pressure, temp, alt) pprz_msg_send_BARO_MS5534A(&(
 942:/home/lsk/paparazzi/var/include/messages.h **** static inline void pprz_msg_send_BARO_MS5534A(struct transport_tx *trans, struct link_device *dev, 
 943:/home/lsk/paparazzi/var/include/messages.h **** 	if (trans->check_available_space(trans->impl, dev, trans->size_of(trans->impl, 0+4+2+4 +2 /* msg h
 944:/home/lsk/paparazzi/var/include/messages.h **** 	  trans->count_bytes(trans->impl, dev, trans->size_of(trans->impl, 0+4+2+4 +2 /* msg header overhe
 945:/home/lsk/paparazzi/var/include/messages.h **** 	  trans->start_message(trans->impl, dev, 0+4+2+4 +2 /* msg header overhead */);
 946:/home/lsk/paparazzi/var/include/messages.h **** 	  trans->put_bytes(trans->impl, dev, DL_TYPE_UINT8, DL_FORMAT_SCALAR, 1, &ac_id);
 947:/home/lsk/paparazzi/var/include/messages.h **** 	  trans->put_named_byte(trans->impl, dev, DL_TYPE_UINT8, DL_FORMAT_SCALAR, DL_BARO_MS5534A, "BARO_
 948:/home/lsk/paparazzi/var/include/messages.h **** 	  trans->put_bytes(trans->impl, dev, DL_TYPE_UINT32, DL_FORMAT_SCALAR, 4, (void *) _pressure);
 949:/home/lsk/paparazzi/var/include/messages.h **** 	  trans->put_bytes(trans->impl, dev, DL_TYPE_UINT16, DL_FORMAT_SCALAR, 2, (void *) _temp);
 950:/home/lsk/paparazzi/var/include/messages.h **** 	  trans->put_bytes(trans->impl, dev, DL_TYPE_FLOAT, DL_FORMAT_SCALAR, 4, (void *) _alt);
 951:/home/lsk/paparazzi/var/include/messages.h **** 	  trans->end_message(trans->impl, dev);
 952:/home/lsk/paparazzi/var/include/messages.h **** 	} else
 953:/home/lsk/paparazzi/var/include/messages.h **** 	  trans->overrun(trans->impl, dev);
 954:/home/lsk/paparazzi/var/include/messages.h **** }
 955:/home/lsk/paparazzi/var/include/messages.h **** 
 956:/home/lsk/paparazzi/var/include/messages.h **** #define DOWNLINK_SEND_PRESSURE(_trans, _dev, airspeed_adc, airspeed, altitude_adc, altitude) pprz_m
 957:/home/lsk/paparazzi/var/include/messages.h **** static inline void pprz_msg_send_PRESSURE(struct transport_tx *trans, struct link_device *dev, uint
 958:/home/lsk/paparazzi/var/include/messages.h **** 	if (trans->check_available_space(trans->impl, dev, trans->size_of(trans->impl, 0+4+4+4+4 +2 /* msg
 959:/home/lsk/paparazzi/var/include/messages.h **** 	  trans->count_bytes(trans->impl, dev, trans->size_of(trans->impl, 0+4+4+4+4 +2 /* msg header over
 960:/home/lsk/paparazzi/var/include/messages.h **** 	  trans->start_message(trans->impl, dev, 0+4+4+4+4 +2 /* msg header overhead */);
 961:/home/lsk/paparazzi/var/include/messages.h **** 	  trans->put_bytes(trans->impl, dev, DL_TYPE_UINT8, DL_FORMAT_SCALAR, 1, &ac_id);
 962:/home/lsk/paparazzi/var/include/messages.h **** 	  trans->put_named_byte(trans->impl, dev, DL_TYPE_UINT8, DL_FORMAT_SCALAR, DL_PRESSURE, "PRESSURE"
 963:/home/lsk/paparazzi/var/include/messages.h **** 	  trans->put_bytes(trans->impl, dev, DL_TYPE_FLOAT, DL_FORMAT_SCALAR, 4, (void *) _airspeed_adc);
 964:/home/lsk/paparazzi/var/include/messages.h **** 	  trans->put_bytes(trans->impl, dev, DL_TYPE_FLOAT, DL_FORMAT_SCALAR, 4, (void *) _airspeed);
 965:/home/lsk/paparazzi/var/include/messages.h **** 	  trans->put_bytes(trans->impl, dev, DL_TYPE_FLOAT, DL_FORMAT_SCALAR, 4, (void *) _altitude_adc);
 966:/home/lsk/paparazzi/var/include/messages.h **** 	  trans->put_bytes(trans->impl, dev, DL_TYPE_FLOAT, DL_FORMAT_SCALAR, 4, (void *) _altitude);
 967:/home/lsk/paparazzi/var/include/messages.h **** 	  trans->end_message(trans->impl, dev);
 968:/home/lsk/paparazzi/var/include/messages.h **** 	} else
 969:/home/lsk/paparazzi/var/include/messages.h **** 	  trans->overrun(trans->impl, dev);
 970:/home/lsk/paparazzi/var/include/messages.h **** }
 971:/home/lsk/paparazzi/var/include/messages.h **** 
 972:/home/lsk/paparazzi/var/include/messages.h **** #define DOWNLINK_SEND_BARO_WORDS(_trans, _dev, w1, w2, w3, w4) pprz_msg_send_BARO_WORDS(&((_trans).
 973:/home/lsk/paparazzi/var/include/messages.h **** static inline void pprz_msg_send_BARO_WORDS(struct transport_tx *trans, struct link_device *dev, ui
 974:/home/lsk/paparazzi/var/include/messages.h **** 	if (trans->check_available_space(trans->impl, dev, trans->size_of(trans->impl, 0+2+2+2+2 +2 /* msg
 975:/home/lsk/paparazzi/var/include/messages.h **** 	  trans->count_bytes(trans->impl, dev, trans->size_of(trans->impl, 0+2+2+2+2 +2 /* msg header over
 976:/home/lsk/paparazzi/var/include/messages.h **** 	  trans->start_message(trans->impl, dev, 0+2+2+2+2 +2 /* msg header overhead */);
 977:/home/lsk/paparazzi/var/include/messages.h **** 	  trans->put_bytes(trans->impl, dev, DL_TYPE_UINT8, DL_FORMAT_SCALAR, 1, &ac_id);
 978:/home/lsk/paparazzi/var/include/messages.h **** 	  trans->put_named_byte(trans->impl, dev, DL_TYPE_UINT8, DL_FORMAT_SCALAR, DL_BARO_WORDS, "BARO_WO
 979:/home/lsk/paparazzi/var/include/messages.h **** 	  trans->put_bytes(trans->impl, dev, DL_TYPE_UINT16, DL_FORMAT_SCALAR, 2, (void *) _w1);
 980:/home/lsk/paparazzi/var/include/messages.h **** 	  trans->put_bytes(trans->impl, dev, DL_TYPE_UINT16, DL_FORMAT_SCALAR, 2, (void *) _w2);
 981:/home/lsk/paparazzi/var/include/messages.h **** 	  trans->put_bytes(trans->impl, dev, DL_TYPE_UINT16, DL_FORMAT_SCALAR, 2, (void *) _w3);
 982:/home/lsk/paparazzi/var/include/messages.h **** 	  trans->put_bytes(trans->impl, dev, DL_TYPE_UINT16, DL_FORMAT_SCALAR, 2, (void *) _w4);
 983:/home/lsk/paparazzi/var/include/messages.h **** 	  trans->end_message(trans->impl, dev);
 984:/home/lsk/paparazzi/var/include/messages.h **** 	} else
 985:/home/lsk/paparazzi/var/include/messages.h **** 	  trans->overrun(trans->impl, dev);
 986:/home/lsk/paparazzi/var/include/messages.h **** }
 987:/home/lsk/paparazzi/var/include/messages.h **** 
 988:/home/lsk/paparazzi/var/include/messages.h **** #define DOWNLINK_SEND_WP_MOVED_LLA(_trans, _dev, wp_id, lat, lon, alt) pprz_msg_send_WP_MOVED_LLA(&
 989:/home/lsk/paparazzi/var/include/messages.h **** static inline void pprz_msg_send_WP_MOVED_LLA(struct transport_tx *trans, struct link_device *dev, 
 990:/home/lsk/paparazzi/var/include/messages.h **** 	if (trans->check_available_space(trans->impl, dev, trans->size_of(trans->impl, 0+1+4+4+4 +2 /* msg
 991:/home/lsk/paparazzi/var/include/messages.h **** 	  trans->count_bytes(trans->impl, dev, trans->size_of(trans->impl, 0+1+4+4+4 +2 /* msg header over
 992:/home/lsk/paparazzi/var/include/messages.h **** 	  trans->start_message(trans->impl, dev, 0+1+4+4+4 +2 /* msg header overhead */);
 993:/home/lsk/paparazzi/var/include/messages.h **** 	  trans->put_bytes(trans->impl, dev, DL_TYPE_UINT8, DL_FORMAT_SCALAR, 1, &ac_id);
 994:/home/lsk/paparazzi/var/include/messages.h **** 	  trans->put_named_byte(trans->impl, dev, DL_TYPE_UINT8, DL_FORMAT_SCALAR, DL_WP_MOVED_LLA, "WP_MO
 995:/home/lsk/paparazzi/var/include/messages.h **** 	  trans->put_bytes(trans->impl, dev, DL_TYPE_UINT8, DL_FORMAT_SCALAR, 1, (void *) _wp_id);
 996:/home/lsk/paparazzi/var/include/messages.h **** 	  trans->put_bytes(trans->impl, dev, DL_TYPE_INT32, DL_FORMAT_SCALAR, 4, (void *) _lat);
 997:/home/lsk/paparazzi/var/include/messages.h **** 	  trans->put_bytes(trans->impl, dev, DL_TYPE_INT32, DL_FORMAT_SCALAR, 4, (void *) _lon);
 998:/home/lsk/paparazzi/var/include/messages.h **** 	  trans->put_bytes(trans->impl, dev, DL_TYPE_INT32, DL_FORMAT_SCALAR, 4, (void *) _alt);
 999:/home/lsk/paparazzi/var/include/messages.h **** 	  trans->end_message(trans->impl, dev);
1000:/home/lsk/paparazzi/var/include/messages.h **** 	} else
1001:/home/lsk/paparazzi/var/include/messages.h **** 	  trans->overrun(trans->impl, dev);
1002:/home/lsk/paparazzi/var/include/messages.h **** }
1003:/home/lsk/paparazzi/var/include/messages.h **** 
1004:/home/lsk/paparazzi/var/include/messages.h **** #define DOWNLINK_SEND_CHRONO(_trans, _dev, tag, time) pprz_msg_send_CHRONO(&((_trans).trans_tx), &(
1005:/home/lsk/paparazzi/var/include/messages.h **** static inline void pprz_msg_send_CHRONO(struct transport_tx *trans, struct link_device *dev, uint8_
1006:/home/lsk/paparazzi/var/include/messages.h **** 	if (trans->check_available_space(trans->impl, dev, trans->size_of(trans->impl, 0+1+4 +2 /* msg hea
1007:/home/lsk/paparazzi/var/include/messages.h **** 	  trans->count_bytes(trans->impl, dev, trans->size_of(trans->impl, 0+1+4 +2 /* msg header overhead
1008:/home/lsk/paparazzi/var/include/messages.h **** 	  trans->start_message(trans->impl, dev, 0+1+4 +2 /* msg header overhead */);
1009:/home/lsk/paparazzi/var/include/messages.h **** 	  trans->put_bytes(trans->impl, dev, DL_TYPE_UINT8, DL_FORMAT_SCALAR, 1, &ac_id);
1010:/home/lsk/paparazzi/var/include/messages.h **** 	  trans->put_named_byte(trans->impl, dev, DL_TYPE_UINT8, DL_FORMAT_SCALAR, DL_CHRONO, "CHRONO");
1011:/home/lsk/paparazzi/var/include/messages.h **** 	  trans->put_bytes(trans->impl, dev, DL_TYPE_UINT8, DL_FORMAT_SCALAR, 1, (void *) _tag);
1012:/home/lsk/paparazzi/var/include/messages.h **** 	  trans->put_bytes(trans->impl, dev, DL_TYPE_UINT32, DL_FORMAT_SCALAR, 4, (void *) _time);
1013:/home/lsk/paparazzi/var/include/messages.h **** 	  trans->end_message(trans->impl, dev);
1014:/home/lsk/paparazzi/var/include/messages.h **** 	} else
1015:/home/lsk/paparazzi/var/include/messages.h **** 	  trans->overrun(trans->impl, dev);
1016:/home/lsk/paparazzi/var/include/messages.h **** }
1017:/home/lsk/paparazzi/var/include/messages.h **** 
1018:/home/lsk/paparazzi/var/include/messages.h **** #define DOWNLINK_SEND_WP_MOVED_ENU(_trans, _dev, wp_id, east, north, up) pprz_msg_send_WP_MOVED_ENU
1019:/home/lsk/paparazzi/var/include/messages.h **** static inline void pprz_msg_send_WP_MOVED_ENU(struct transport_tx *trans, struct link_device *dev, 
1020:/home/lsk/paparazzi/var/include/messages.h **** 	if (trans->check_available_space(trans->impl, dev, trans->size_of(trans->impl, 0+1+4+4+4 +2 /* msg
1021:/home/lsk/paparazzi/var/include/messages.h **** 	  trans->count_bytes(trans->impl, dev, trans->size_of(trans->impl, 0+1+4+4+4 +2 /* msg header over
1022:/home/lsk/paparazzi/var/include/messages.h **** 	  trans->start_message(trans->impl, dev, 0+1+4+4+4 +2 /* msg header overhead */);
1023:/home/lsk/paparazzi/var/include/messages.h **** 	  trans->put_bytes(trans->impl, dev, DL_TYPE_UINT8, DL_FORMAT_SCALAR, 1, &ac_id);
1024:/home/lsk/paparazzi/var/include/messages.h **** 	  trans->put_named_byte(trans->impl, dev, DL_TYPE_UINT8, DL_FORMAT_SCALAR, DL_WP_MOVED_ENU, "WP_MO
1025:/home/lsk/paparazzi/var/include/messages.h **** 	  trans->put_bytes(trans->impl, dev, DL_TYPE_UINT8, DL_FORMAT_SCALAR, 1, (void *) _wp_id);
1026:/home/lsk/paparazzi/var/include/messages.h **** 	  trans->put_bytes(trans->impl, dev, DL_TYPE_INT32, DL_FORMAT_SCALAR, 4, (void *) _east);
1027:/home/lsk/paparazzi/var/include/messages.h **** 	  trans->put_bytes(trans->impl, dev, DL_TYPE_INT32, DL_FORMAT_SCALAR, 4, (void *) _north);
1028:/home/lsk/paparazzi/var/include/messages.h **** 	  trans->put_bytes(trans->impl, dev, DL_TYPE_INT32, DL_FORMAT_SCALAR, 4, (void *) _up);
1029:/home/lsk/paparazzi/var/include/messages.h **** 	  trans->end_message(trans->impl, dev);
1030:/home/lsk/paparazzi/var/include/messages.h **** 	} else
1031:/home/lsk/paparazzi/var/include/messages.h **** 	  trans->overrun(trans->impl, dev);
1032:/home/lsk/paparazzi/var/include/messages.h **** }
1033:/home/lsk/paparazzi/var/include/messages.h **** 
1034:/home/lsk/paparazzi/var/include/messages.h **** #define DOWNLINK_SEND_WINDTURBINE_STATUS_(_trans, _dev, ac_id, tb_id, sync_itow, cycle_time) pprz_m
1035:/home/lsk/paparazzi/var/include/messages.h **** static inline void pprz_msg_send_WINDTURBINE_STATUS_(struct transport_tx *trans, struct link_device
1036:/home/lsk/paparazzi/var/include/messages.h **** 	if (trans->check_available_space(trans->impl, dev, trans->size_of(trans->impl, 0+1+1+4+4 +2 /* msg
1037:/home/lsk/paparazzi/var/include/messages.h **** 	  trans->count_bytes(trans->impl, dev, trans->size_of(trans->impl, 0+1+1+4+4 +2 /* msg header over
1038:/home/lsk/paparazzi/var/include/messages.h **** 	  trans->start_message(trans->impl, dev, 0+1+1+4+4 +2 /* msg header overhead */);
1039:/home/lsk/paparazzi/var/include/messages.h **** 	  trans->put_bytes(trans->impl, dev, DL_TYPE_UINT8, DL_FORMAT_SCALAR, 1, &ac_id);
1040:/home/lsk/paparazzi/var/include/messages.h **** 	  trans->put_named_byte(trans->impl, dev, DL_TYPE_UINT8, DL_FORMAT_SCALAR, DL_WINDTURBINE_STATUS_,
1041:/home/lsk/paparazzi/var/include/messages.h **** 	  trans->put_bytes(trans->impl, dev, DL_TYPE_UINT8, DL_FORMAT_SCALAR, 1, (void *) _ac_id);
1042:/home/lsk/paparazzi/var/include/messages.h **** 	  trans->put_bytes(trans->impl, dev, DL_TYPE_UINT8, DL_FORMAT_SCALAR, 1, (void *) _tb_id);
1043:/home/lsk/paparazzi/var/include/messages.h **** 	  trans->put_bytes(trans->impl, dev, DL_TYPE_UINT32, DL_FORMAT_SCALAR, 4, (void *) _sync_itow);
1044:/home/lsk/paparazzi/var/include/messages.h **** 	  trans->put_bytes(trans->impl, dev, DL_TYPE_UINT32, DL_FORMAT_SCALAR, 4, (void *) _cycle_time);
1045:/home/lsk/paparazzi/var/include/messages.h **** 	  trans->end_message(trans->impl, dev);
1046:/home/lsk/paparazzi/var/include/messages.h **** 	} else
1047:/home/lsk/paparazzi/var/include/messages.h **** 	  trans->overrun(trans->impl, dev);
1048:/home/lsk/paparazzi/var/include/messages.h **** }
1049:/home/lsk/paparazzi/var/include/messages.h **** 
1050:/home/lsk/paparazzi/var/include/messages.h **** #define DOWNLINK_SEND_RC_3CH_(_trans, _dev, throttle_mode, roll, pitch) pprz_msg_send_RC_3CH_(&((_t
1051:/home/lsk/paparazzi/var/include/messages.h **** static inline void pprz_msg_send_RC_3CH_(struct transport_tx *trans, struct link_device *dev, uint8
1052:/home/lsk/paparazzi/var/include/messages.h **** 	if (trans->check_available_space(trans->impl, dev, trans->size_of(trans->impl, 0+1+1+1 +2 /* msg h
1053:/home/lsk/paparazzi/var/include/messages.h **** 	  trans->count_bytes(trans->impl, dev, trans->size_of(trans->impl, 0+1+1+1 +2 /* msg header overhe
1054:/home/lsk/paparazzi/var/include/messages.h **** 	  trans->start_message(trans->impl, dev, 0+1+1+1 +2 /* msg header overhead */);
1055:/home/lsk/paparazzi/var/include/messages.h **** 	  trans->put_bytes(trans->impl, dev, DL_TYPE_UINT8, DL_FORMAT_SCALAR, 1, &ac_id);
1056:/home/lsk/paparazzi/var/include/messages.h **** 	  trans->put_named_byte(trans->impl, dev, DL_TYPE_UINT8, DL_FORMAT_SCALAR, DL_RC_3CH_, "RC_3CH_");
1057:/home/lsk/paparazzi/var/include/messages.h **** 	  trans->put_bytes(trans->impl, dev, DL_TYPE_UINT8, DL_FORMAT_SCALAR, 1, (void *) _throttle_mode);
1058:/home/lsk/paparazzi/var/include/messages.h **** 	  trans->put_bytes(trans->impl, dev, DL_TYPE_INT8, DL_FORMAT_SCALAR, 1, (void *) _roll);
1059:/home/lsk/paparazzi/var/include/messages.h **** 	  trans->put_bytes(trans->impl, dev, DL_TYPE_INT8, DL_FORMAT_SCALAR, 1, (void *) _pitch);
1060:/home/lsk/paparazzi/var/include/messages.h **** 	  trans->end_message(trans->impl, dev);
1061:/home/lsk/paparazzi/var/include/messages.h **** 	} else
1062:/home/lsk/paparazzi/var/include/messages.h **** 	  trans->overrun(trans->impl, dev);
1063:/home/lsk/paparazzi/var/include/messages.h **** }
1064:/home/lsk/paparazzi/var/include/messages.h **** 
1065:/home/lsk/paparazzi/var/include/messages.h **** #define DOWNLINK_SEND_MPPT(_trans, _dev, nb_values, values) pprz_msg_send_MPPT(&((_trans).trans_tx)
1066:/home/lsk/paparazzi/var/include/messages.h **** static inline void pprz_msg_send_MPPT(struct transport_tx *trans, struct link_device *dev, uint8_t 
1067:/home/lsk/paparazzi/var/include/messages.h **** 	if (trans->check_available_space(trans->impl, dev, trans->size_of(trans->impl, 0+1+nb_values*2 +2 
1068:/home/lsk/paparazzi/var/include/messages.h **** 	  trans->count_bytes(trans->impl, dev, trans->size_of(trans->impl, 0+1+nb_values*2 +2 /* msg heade
1069:/home/lsk/paparazzi/var/include/messages.h **** 	  trans->start_message(trans->impl, dev, 0+1+nb_values*2 +2 /* msg header overhead */);
1070:/home/lsk/paparazzi/var/include/messages.h **** 	  trans->put_bytes(trans->impl, dev, DL_TYPE_UINT8, DL_FORMAT_SCALAR, 1, &ac_id);
1071:/home/lsk/paparazzi/var/include/messages.h **** 	  trans->put_named_byte(trans->impl, dev, DL_TYPE_UINT8, DL_FORMAT_SCALAR, DL_MPPT, "MPPT");
1072:/home/lsk/paparazzi/var/include/messages.h **** 	  trans->put_bytes(trans->impl, dev, DL_TYPE_ARRAY_LENGTH, DL_FORMAT_SCALAR, 1, (void *) &nb_value
1073:/home/lsk/paparazzi/var/include/messages.h **** 	  trans->put_bytes(trans->impl, dev, DL_TYPE_INT16, DL_FORMAT_ARRAY, 2 * nb_values, (void *) _valu
1074:/home/lsk/paparazzi/var/include/messages.h **** 	  trans->end_message(trans->impl, dev);
1075:/home/lsk/paparazzi/var/include/messages.h **** 	} else
1076:/home/lsk/paparazzi/var/include/messages.h **** 	  trans->overrun(trans->impl, dev);
1077:/home/lsk/paparazzi/var/include/messages.h **** }
1078:/home/lsk/paparazzi/var/include/messages.h **** 
1079:/home/lsk/paparazzi/var/include/messages.h **** #define DOWNLINK_SEND_DEBUG_IR_I2C(_trans, _dev, ir1, ir2, top) pprz_msg_send_DEBUG_IR_I2C(&((_tran
1080:/home/lsk/paparazzi/var/include/messages.h **** static inline void pprz_msg_send_DEBUG_IR_I2C(struct transport_tx *trans, struct link_device *dev, 
1081:/home/lsk/paparazzi/var/include/messages.h **** 	if (trans->check_available_space(trans->impl, dev, trans->size_of(trans->impl, 0+2+2+2 +2 /* msg h
1082:/home/lsk/paparazzi/var/include/messages.h **** 	  trans->count_bytes(trans->impl, dev, trans->size_of(trans->impl, 0+2+2+2 +2 /* msg header overhe
1083:/home/lsk/paparazzi/var/include/messages.h **** 	  trans->start_message(trans->impl, dev, 0+2+2+2 +2 /* msg header overhead */);
1084:/home/lsk/paparazzi/var/include/messages.h **** 	  trans->put_bytes(trans->impl, dev, DL_TYPE_UINT8, DL_FORMAT_SCALAR, 1, &ac_id);
1085:/home/lsk/paparazzi/var/include/messages.h **** 	  trans->put_named_byte(trans->impl, dev, DL_TYPE_UINT8, DL_FORMAT_SCALAR, DL_DEBUG_IR_I2C, "DEBUG
1086:/home/lsk/paparazzi/var/include/messages.h **** 	  trans->put_bytes(trans->impl, dev, DL_TYPE_INT16, DL_FORMAT_SCALAR, 2, (void *) _ir1);
1087:/home/lsk/paparazzi/var/include/messages.h **** 	  trans->put_bytes(trans->impl, dev, DL_TYPE_INT16, DL_FORMAT_SCALAR, 2, (void *) _ir2);
1088:/home/lsk/paparazzi/var/include/messages.h **** 	  trans->put_bytes(trans->impl, dev, DL_TYPE_INT16, DL_FORMAT_SCALAR, 2, (void *) _top);
1089:/home/lsk/paparazzi/var/include/messages.h **** 	  trans->end_message(trans->impl, dev);
1090:/home/lsk/paparazzi/var/include/messages.h **** 	} else
1091:/home/lsk/paparazzi/var/include/messages.h **** 	  trans->overrun(trans->impl, dev);
1092:/home/lsk/paparazzi/var/include/messages.h **** }
1093:/home/lsk/paparazzi/var/include/messages.h **** 
1094:/home/lsk/paparazzi/var/include/messages.h **** #define DOWNLINK_SEND_AIRSPEED(_trans, _dev, airspeed, airspeed_sp, airspeed_cnt, groundspeed_sp) p
1095:/home/lsk/paparazzi/var/include/messages.h **** static inline void pprz_msg_send_AIRSPEED(struct transport_tx *trans, struct link_device *dev, uint
1096:/home/lsk/paparazzi/var/include/messages.h **** 	if (trans->check_available_space(trans->impl, dev, trans->size_of(trans->impl, 0+4+4+4+4 +2 /* msg
1097:/home/lsk/paparazzi/var/include/messages.h **** 	  trans->count_bytes(trans->impl, dev, trans->size_of(trans->impl, 0+4+4+4+4 +2 /* msg header over
1098:/home/lsk/paparazzi/var/include/messages.h **** 	  trans->start_message(trans->impl, dev, 0+4+4+4+4 +2 /* msg header overhead */);
1099:/home/lsk/paparazzi/var/include/messages.h **** 	  trans->put_bytes(trans->impl, dev, DL_TYPE_UINT8, DL_FORMAT_SCALAR, 1, &ac_id);
1100:/home/lsk/paparazzi/var/include/messages.h **** 	  trans->put_named_byte(trans->impl, dev, DL_TYPE_UINT8, DL_FORMAT_SCALAR, DL_AIRSPEED, "AIRSPEED"
1101:/home/lsk/paparazzi/var/include/messages.h **** 	  trans->put_bytes(trans->impl, dev, DL_TYPE_FLOAT, DL_FORMAT_SCALAR, 4, (void *) _airspeed);
1102:/home/lsk/paparazzi/var/include/messages.h **** 	  trans->put_bytes(trans->impl, dev, DL_TYPE_FLOAT, DL_FORMAT_SCALAR, 4, (void *) _airspeed_sp);
1103:/home/lsk/paparazzi/var/include/messages.h **** 	  trans->put_bytes(trans->impl, dev, DL_TYPE_FLOAT, DL_FORMAT_SCALAR, 4, (void *) _airspeed_cnt);
1104:/home/lsk/paparazzi/var/include/messages.h **** 	  trans->put_bytes(trans->impl, dev, DL_TYPE_FLOAT, DL_FORMAT_SCALAR, 4, (void *) _groundspeed_sp)
1105:/home/lsk/paparazzi/var/include/messages.h **** 	  trans->end_message(trans->impl, dev);
1106:/home/lsk/paparazzi/var/include/messages.h **** 	} else
1107:/home/lsk/paparazzi/var/include/messages.h **** 	  trans->overrun(trans->impl, dev);
1108:/home/lsk/paparazzi/var/include/messages.h **** }
1109:/home/lsk/paparazzi/var/include/messages.h **** 
1110:/home/lsk/paparazzi/var/include/messages.h **** #define DOWNLINK_SEND_XSENS(_trans, _dev, counter, p, q, r, phi, theta, psi, ax, ay, az, vx, vy, vz
1111:/home/lsk/paparazzi/var/include/messages.h **** static inline void pprz_msg_send_XSENS(struct transport_tx *trans, struct link_device *dev, uint8_t
1112:/home/lsk/paparazzi/var/include/messages.h **** 	if (trans->check_available_space(trans->impl, dev, trans->size_of(trans->impl, 0+2+4+4+4+4+4+4+4+4
1113:/home/lsk/paparazzi/var/include/messages.h **** 	  trans->count_bytes(trans->impl, dev, trans->size_of(trans->impl, 0+2+4+4+4+4+4+4+4+4+4+4+4+4+4+4
1114:/home/lsk/paparazzi/var/include/messages.h **** 	  trans->start_message(trans->impl, dev, 0+2+4+4+4+4+4+4+4+4+4+4+4+4+4+4+4+1+1+1+1+4+2+1+1 +2 /* m
1115:/home/lsk/paparazzi/var/include/messages.h **** 	  trans->put_bytes(trans->impl, dev, DL_TYPE_UINT8, DL_FORMAT_SCALAR, 1, &ac_id);
1116:/home/lsk/paparazzi/var/include/messages.h **** 	  trans->put_named_byte(trans->impl, dev, DL_TYPE_UINT8, DL_FORMAT_SCALAR, DL_XSENS, "XSENS");
1117:/home/lsk/paparazzi/var/include/messages.h **** 	  trans->put_bytes(trans->impl, dev, DL_TYPE_INT16, DL_FORMAT_SCALAR, 2, (void *) _counter);
1118:/home/lsk/paparazzi/var/include/messages.h **** 	  trans->put_bytes(trans->impl, dev, DL_TYPE_FLOAT, DL_FORMAT_SCALAR, 4, (void *) _p);
1119:/home/lsk/paparazzi/var/include/messages.h **** 	  trans->put_bytes(trans->impl, dev, DL_TYPE_FLOAT, DL_FORMAT_SCALAR, 4, (void *) _q);
1120:/home/lsk/paparazzi/var/include/messages.h **** 	  trans->put_bytes(trans->impl, dev, DL_TYPE_FLOAT, DL_FORMAT_SCALAR, 4, (void *) _r);
1121:/home/lsk/paparazzi/var/include/messages.h **** 	  trans->put_bytes(trans->impl, dev, DL_TYPE_FLOAT, DL_FORMAT_SCALAR, 4, (void *) _phi);
1122:/home/lsk/paparazzi/var/include/messages.h **** 	  trans->put_bytes(trans->impl, dev, DL_TYPE_FLOAT, DL_FORMAT_SCALAR, 4, (void *) _theta);
1123:/home/lsk/paparazzi/var/include/messages.h **** 	  trans->put_bytes(trans->impl, dev, DL_TYPE_FLOAT, DL_FORMAT_SCALAR, 4, (void *) _psi);
1124:/home/lsk/paparazzi/var/include/messages.h **** 	  trans->put_bytes(trans->impl, dev, DL_TYPE_FLOAT, DL_FORMAT_SCALAR, 4, (void *) _ax);
1125:/home/lsk/paparazzi/var/include/messages.h **** 	  trans->put_bytes(trans->impl, dev, DL_TYPE_FLOAT, DL_FORMAT_SCALAR, 4, (void *) _ay);
1126:/home/lsk/paparazzi/var/include/messages.h **** 	  trans->put_bytes(trans->impl, dev, DL_TYPE_FLOAT, DL_FORMAT_SCALAR, 4, (void *) _az);
1127:/home/lsk/paparazzi/var/include/messages.h **** 	  trans->put_bytes(trans->impl, dev, DL_TYPE_FLOAT, DL_FORMAT_SCALAR, 4, (void *) _vx);
1128:/home/lsk/paparazzi/var/include/messages.h **** 	  trans->put_bytes(trans->impl, dev, DL_TYPE_FLOAT, DL_FORMAT_SCALAR, 4, (void *) _vy);
1129:/home/lsk/paparazzi/var/include/messages.h **** 	  trans->put_bytes(trans->impl, dev, DL_TYPE_FLOAT, DL_FORMAT_SCALAR, 4, (void *) _vz);
1130:/home/lsk/paparazzi/var/include/messages.h **** 	  trans->put_bytes(trans->impl, dev, DL_TYPE_FLOAT, DL_FORMAT_SCALAR, 4, (void *) _lat);
1131:/home/lsk/paparazzi/var/include/messages.h **** 	  trans->put_bytes(trans->impl, dev, DL_TYPE_FLOAT, DL_FORMAT_SCALAR, 4, (void *) _lon);
1132:/home/lsk/paparazzi/var/include/messages.h **** 	  trans->put_bytes(trans->impl, dev, DL_TYPE_FLOAT, DL_FORMAT_SCALAR, 4, (void *) _alt);
1133:/home/lsk/paparazzi/var/include/messages.h **** 	  trans->put_bytes(trans->impl, dev, DL_TYPE_UINT8, DL_FORMAT_SCALAR, 1, (void *) _status);
1134:/home/lsk/paparazzi/var/include/messages.h **** 	  trans->put_bytes(trans->impl, dev, DL_TYPE_UINT8, DL_FORMAT_SCALAR, 1, (void *) _hour);
1135:/home/lsk/paparazzi/var/include/messages.h **** 	  trans->put_bytes(trans->impl, dev, DL_TYPE_UINT8, DL_FORMAT_SCALAR, 1, (void *) _min);
1136:/home/lsk/paparazzi/var/include/messages.h **** 	  trans->put_bytes(trans->impl, dev, DL_TYPE_UINT8, DL_FORMAT_SCALAR, 1, (void *) _sec);
1137:/home/lsk/paparazzi/var/include/messages.h **** 	  trans->put_bytes(trans->impl, dev, DL_TYPE_UINT32, DL_FORMAT_SCALAR, 4, (void *) _nanosec);
1138:/home/lsk/paparazzi/var/include/messages.h **** 	  trans->put_bytes(trans->impl, dev, DL_TYPE_UINT16, DL_FORMAT_SCALAR, 2, (void *) _year);
1139:/home/lsk/paparazzi/var/include/messages.h **** 	  trans->put_bytes(trans->impl, dev, DL_TYPE_UINT8, DL_FORMAT_SCALAR, 1, (void *) _month);
1140:/home/lsk/paparazzi/var/include/messages.h **** 	  trans->put_bytes(trans->impl, dev, DL_TYPE_UINT8, DL_FORMAT_SCALAR, 1, (void *) _day);
1141:/home/lsk/paparazzi/var/include/messages.h **** 	  trans->end_message(trans->impl, dev);
1142:/home/lsk/paparazzi/var/include/messages.h **** 	} else
1143:/home/lsk/paparazzi/var/include/messages.h **** 	  trans->overrun(trans->impl, dev);
1144:/home/lsk/paparazzi/var/include/messages.h **** }
1145:/home/lsk/paparazzi/var/include/messages.h **** 
1146:/home/lsk/paparazzi/var/include/messages.h **** #define DOWNLINK_SEND_BARO_ETS(_trans, _dev, adc, offset, scaled) pprz_msg_send_BARO_ETS(&((_trans)
1147:/home/lsk/paparazzi/var/include/messages.h **** static inline void pprz_msg_send_BARO_ETS(struct transport_tx *trans, struct link_device *dev, uint
1148:/home/lsk/paparazzi/var/include/messages.h **** 	if (trans->check_available_space(trans->impl, dev, trans->size_of(trans->impl, 0+2+2+4 +2 /* msg h
1149:/home/lsk/paparazzi/var/include/messages.h **** 	  trans->count_bytes(trans->impl, dev, trans->size_of(trans->impl, 0+2+2+4 +2 /* msg header overhe
1150:/home/lsk/paparazzi/var/include/messages.h **** 	  trans->start_message(trans->impl, dev, 0+2+2+4 +2 /* msg header overhead */);
1151:/home/lsk/paparazzi/var/include/messages.h **** 	  trans->put_bytes(trans->impl, dev, DL_TYPE_UINT8, DL_FORMAT_SCALAR, 1, &ac_id);
1152:/home/lsk/paparazzi/var/include/messages.h **** 	  trans->put_named_byte(trans->impl, dev, DL_TYPE_UINT8, DL_FORMAT_SCALAR, DL_BARO_ETS, "BARO_ETS"
1153:/home/lsk/paparazzi/var/include/messages.h **** 	  trans->put_bytes(trans->impl, dev, DL_TYPE_UINT16, DL_FORMAT_SCALAR, 2, (void *) _adc);
1154:/home/lsk/paparazzi/var/include/messages.h **** 	  trans->put_bytes(trans->impl, dev, DL_TYPE_UINT16, DL_FORMAT_SCALAR, 2, (void *) _offset);
1155:/home/lsk/paparazzi/var/include/messages.h **** 	  trans->put_bytes(trans->impl, dev, DL_TYPE_FLOAT, DL_FORMAT_SCALAR, 4, (void *) _scaled);
1156:/home/lsk/paparazzi/var/include/messages.h **** 	  trans->end_message(trans->impl, dev);
1157:/home/lsk/paparazzi/var/include/messages.h **** 	} else
1158:/home/lsk/paparazzi/var/include/messages.h **** 	  trans->overrun(trans->impl, dev);
1159:/home/lsk/paparazzi/var/include/messages.h **** }
1160:/home/lsk/paparazzi/var/include/messages.h **** 
1161:/home/lsk/paparazzi/var/include/messages.h **** #define DOWNLINK_SEND_AIRSPEED_ETS(_trans, _dev, adc, offset, scaled) pprz_msg_send_AIRSPEED_ETS(&(
1162:/home/lsk/paparazzi/var/include/messages.h **** static inline void pprz_msg_send_AIRSPEED_ETS(struct transport_tx *trans, struct link_device *dev, 
1163:/home/lsk/paparazzi/var/include/messages.h **** 	if (trans->check_available_space(trans->impl, dev, trans->size_of(trans->impl, 0+2+2+4 +2 /* msg h
1164:/home/lsk/paparazzi/var/include/messages.h **** 	  trans->count_bytes(trans->impl, dev, trans->size_of(trans->impl, 0+2+2+4 +2 /* msg header overhe
1165:/home/lsk/paparazzi/var/include/messages.h **** 	  trans->start_message(trans->impl, dev, 0+2+2+4 +2 /* msg header overhead */);
1166:/home/lsk/paparazzi/var/include/messages.h **** 	  trans->put_bytes(trans->impl, dev, DL_TYPE_UINT8, DL_FORMAT_SCALAR, 1, &ac_id);
1167:/home/lsk/paparazzi/var/include/messages.h **** 	  trans->put_named_byte(trans->impl, dev, DL_TYPE_UINT8, DL_FORMAT_SCALAR, DL_AIRSPEED_ETS, "AIRSP
1168:/home/lsk/paparazzi/var/include/messages.h **** 	  trans->put_bytes(trans->impl, dev, DL_TYPE_UINT16, DL_FORMAT_SCALAR, 2, (void *) _adc);
1169:/home/lsk/paparazzi/var/include/messages.h **** 	  trans->put_bytes(trans->impl, dev, DL_TYPE_UINT16, DL_FORMAT_SCALAR, 2, (void *) _offset);
1170:/home/lsk/paparazzi/var/include/messages.h **** 	  trans->put_bytes(trans->impl, dev, DL_TYPE_FLOAT, DL_FORMAT_SCALAR, 4, (void *) _scaled);
1171:/home/lsk/paparazzi/var/include/messages.h **** 	  trans->end_message(trans->impl, dev);
1172:/home/lsk/paparazzi/var/include/messages.h **** 	} else
1173:/home/lsk/paparazzi/var/include/messages.h **** 	  trans->overrun(trans->impl, dev);
1174:/home/lsk/paparazzi/var/include/messages.h **** }
1175:/home/lsk/paparazzi/var/include/messages.h **** 
1176:/home/lsk/paparazzi/var/include/messages.h **** #define DOWNLINK_SEND_PBN(_trans, _dev, airspeed_adc, altitude_adc, airspeed, altitude, airspeed_of
1177:/home/lsk/paparazzi/var/include/messages.h **** static inline void pprz_msg_send_PBN(struct transport_tx *trans, struct link_device *dev, uint8_t a
1178:/home/lsk/paparazzi/var/include/messages.h **** 	if (trans->check_available_space(trans->impl, dev, trans->size_of(trans->impl, 0+2+2+4+4+2+2 +2 /*
1179:/home/lsk/paparazzi/var/include/messages.h **** 	  trans->count_bytes(trans->impl, dev, trans->size_of(trans->impl, 0+2+2+4+4+2+2 +2 /* msg header 
1180:/home/lsk/paparazzi/var/include/messages.h **** 	  trans->start_message(trans->impl, dev, 0+2+2+4+4+2+2 +2 /* msg header overhead */);
1181:/home/lsk/paparazzi/var/include/messages.h **** 	  trans->put_bytes(trans->impl, dev, DL_TYPE_UINT8, DL_FORMAT_SCALAR, 1, &ac_id);
1182:/home/lsk/paparazzi/var/include/messages.h **** 	  trans->put_named_byte(trans->impl, dev, DL_TYPE_UINT8, DL_FORMAT_SCALAR, DL_PBN, "PBN");
1183:/home/lsk/paparazzi/var/include/messages.h **** 	  trans->put_bytes(trans->impl, dev, DL_TYPE_UINT16, DL_FORMAT_SCALAR, 2, (void *) _airspeed_adc);
1184:/home/lsk/paparazzi/var/include/messages.h **** 	  trans->put_bytes(trans->impl, dev, DL_TYPE_UINT16, DL_FORMAT_SCALAR, 2, (void *) _altitude_adc);
1185:/home/lsk/paparazzi/var/include/messages.h **** 	  trans->put_bytes(trans->impl, dev, DL_TYPE_FLOAT, DL_FORMAT_SCALAR, 4, (void *) _airspeed);
1186:/home/lsk/paparazzi/var/include/messages.h **** 	  trans->put_bytes(trans->impl, dev, DL_TYPE_FLOAT, DL_FORMAT_SCALAR, 4, (void *) _altitude);
1187:/home/lsk/paparazzi/var/include/messages.h **** 	  trans->put_bytes(trans->impl, dev, DL_TYPE_UINT16, DL_FORMAT_SCALAR, 2, (void *) _airspeed_offse
1188:/home/lsk/paparazzi/var/include/messages.h **** 	  trans->put_bytes(trans->impl, dev, DL_TYPE_UINT16, DL_FORMAT_SCALAR, 2, (void *) _altitude_offse
1189:/home/lsk/paparazzi/var/include/messages.h **** 	  trans->end_message(trans->impl, dev);
1190:/home/lsk/paparazzi/var/include/messages.h **** 	} else
1191:/home/lsk/paparazzi/var/include/messages.h **** 	  trans->overrun(trans->impl, dev);
1192:/home/lsk/paparazzi/var/include/messages.h **** }
1193:/home/lsk/paparazzi/var/include/messages.h **** 
1194:/home/lsk/paparazzi/var/include/messages.h **** #define DOWNLINK_SEND_GPS_LLA(_trans, _dev, lat, lon, alt, course, speed, climb, week, itow, mode, 
1195:/home/lsk/paparazzi/var/include/messages.h **** static inline void pprz_msg_send_GPS_LLA(struct transport_tx *trans, struct link_device *dev, uint8
1196:/home/lsk/paparazzi/var/include/messages.h **** 	if (trans->check_available_space(trans->impl, dev, trans->size_of(trans->impl, 0+4+4+4+2+2+2+2+4+1
  84              		.loc 2 1196 0
  85 003e D7F82090 		ldr	r9, [r7, #32]
  86              	.LBE7:
  87              	.LBE6:
  88              		.loc 1 121 0
  89 0042 ADF80E00 		strh	r0, [sp, #14]	@ movhi
  90              	.LVL6:
  91 0046 4FF0010A 		mov	r10, #1
  92              	.LBB9:
  93              	.LBB8:
  94              		.loc 2 1196 0
  95 004a 1C21     		movs	r1, #28
  96 004c 8DF80BA0 		strb	r10, [sp, #11]
  97              	.LVL7:
  98 0050 3B68     		ldr	r3, [r7]
  99 0052 D7F80480 		ldr	r8, [r7, #4]
 100 0056 4846     		mov	r0, r9
 101 0058 9847     		blx	r3
 102              	.LVL8:
 103 005a 2146     		mov	r1, r4
 104 005c 0246     		mov	r2, r0
 105 005e 4846     		mov	r0, r9
 106 0060 C047     		blx	r8
 107              	.LVL9:
 108 0062 0028     		cmp	r0, #0
 109 0064 00F09980 		beq	.L2
1197:/home/lsk/paparazzi/var/include/messages.h **** 	  trans->count_bytes(trans->impl, dev, trans->size_of(trans->impl, 0+4+4+4+2+2+2+2+4+1+1 +2 /* msg
 110              		.loc 2 1197 0
 111 0068 D7F82090 		ldr	r9, [r7, #32]
 112 006c 3B68     		ldr	r3, [r7]
 113 006e D7F81C80 		ldr	r8, [r7, #28]
 114 0072 4846     		mov	r0, r9
 115 0074 1C21     		movs	r1, #28
 116 0076 9847     		blx	r3
 117              	.LVL10:
 118 0078 2146     		mov	r1, r4
 119 007a 0246     		mov	r2, r0
 120 007c 4846     		mov	r0, r9
 121 007e C047     		blx	r8
 122              	.LVL11:
1198:/home/lsk/paparazzi/var/include/messages.h **** 	  trans->start_message(trans->impl, dev, 0+4+4+4+2+2+2+2+4+1+1 +2 /* msg header overhead */);
 123              		.loc 2 1198 0
 124 0080 3B69     		ldr	r3, [r7, #16]
 125 0082 386A     		ldr	r0, [r7, #32]
 126 0084 2146     		mov	r1, r4
 127 0086 1C22     		movs	r2, #28
 128 0088 9847     		blx	r3
 129              	.LVL12:
1199:/home/lsk/paparazzi/var/include/messages.h **** 	  trans->put_bytes(trans->impl, dev, DL_TYPE_UINT8, DL_FORMAT_SCALAR, 1, &ac_id);
 130              		.loc 2 1199 0
 131 008a 0DF10B03 		add	r3, sp, #11
 132 008e 0193     		str	r3, [sp, #4]
 133 0090 CDF800A0 		str	r10, [sp]
 134 0094 386A     		ldr	r0, [r7, #32]
 135 0096 BE68     		ldr	r6, [r7, #8]
 136 0098 2146     		mov	r1, r4
 137 009a 0222     		movs	r2, #2
 138 009c 2B46     		mov	r3, r5
 139 009e B047     		blx	r6
 140              	.LVL13:
1200:/home/lsk/paparazzi/var/include/messages.h **** 	  trans->put_named_byte(trans->impl, dev, DL_TYPE_UINT8, DL_FORMAT_SCALAR, DL_GPS_LLA, "GPS_LLA");
 141              		.loc 2 1200 0
 142 00a0 3B23     		movs	r3, #59
 143 00a2 0093     		str	r3, [sp]
 144 00a4 404B     		ldr	r3, .L6
 145 00a6 0193     		str	r3, [sp, #4]
 146 00a8 386A     		ldr	r0, [r7, #32]
 147 00aa FE68     		ldr	r6, [r7, #12]
 148 00ac 2146     		mov	r1, r4
 149 00ae 0222     		movs	r2, #2
 150 00b0 2B46     		mov	r3, r5
 151 00b2 B047     		blx	r6
 152              	.LVL14:
1201:/home/lsk/paparazzi/var/include/messages.h **** 	  trans->put_bytes(trans->impl, dev, DL_TYPE_INT32, DL_FORMAT_SCALAR, 4, (void *) _lat);
 153              		.loc 2 1201 0
 154 00b4 4FF00409 		mov	r9, #4
 155 00b8 0BF10C03 		add	r3, fp, #12
 156 00bc 0193     		str	r3, [sp, #4]
 157 00be CDF80090 		str	r9, [sp]
 158 00c2 386A     		ldr	r0, [r7, #32]
 159 00c4 BE68     		ldr	r6, [r7, #8]
 160 00c6 2146     		mov	r1, r4
 161 00c8 0722     		movs	r2, #7
 162 00ca 2B46     		mov	r3, r5
 163 00cc B047     		blx	r6
 164              	.LVL15:
1202:/home/lsk/paparazzi/var/include/messages.h **** 	  trans->put_bytes(trans->impl, dev, DL_TYPE_INT32, DL_FORMAT_SCALAR, 4, (void *) _lon);
 165              		.loc 2 1202 0
 166 00ce 0BF11003 		add	r3, fp, #16
 167 00d2 0193     		str	r3, [sp, #4]
 168 00d4 CDF80090 		str	r9, [sp]
 169 00d8 386A     		ldr	r0, [r7, #32]
 170 00da BE68     		ldr	r6, [r7, #8]
 171 00dc 2146     		mov	r1, r4
 172 00de 0722     		movs	r2, #7
 173 00e0 2B46     		mov	r3, r5
 174 00e2 B047     		blx	r6
 175              	.LVL16:
1203:/home/lsk/paparazzi/var/include/messages.h **** 	  trans->put_bytes(trans->impl, dev, DL_TYPE_INT32, DL_FORMAT_SCALAR, 4, (void *) _alt);
 176              		.loc 2 1203 0
 177 00e4 0BF11403 		add	r3, fp, #20
 178 00e8 0193     		str	r3, [sp, #4]
 179 00ea CDF80090 		str	r9, [sp]
 180 00ee 386A     		ldr	r0, [r7, #32]
 181 00f0 BE68     		ldr	r6, [r7, #8]
 182 00f2 2146     		mov	r1, r4
 183 00f4 0722     		movs	r2, #7
 184 00f6 2B46     		mov	r3, r5
 185 00f8 B047     		blx	r6
 186              	.LVL17:
1204:/home/lsk/paparazzi/var/include/messages.h **** 	  trans->put_bytes(trans->impl, dev, DL_TYPE_INT16, DL_FORMAT_SCALAR, 2, (void *) _course);
 187              		.loc 2 1204 0
 188 00fa 4FF00208 		mov	r8, #2
 189 00fe 0DF10E03 		add	r3, sp, #14
 190              	.LVL18:
 191 0102 0193     		str	r3, [sp, #4]
 192 0104 CDF80080 		str	r8, [sp]
 193 0108 386A     		ldr	r0, [r7, #32]
 194 010a BE68     		ldr	r6, [r7, #8]
 195 010c 2146     		mov	r1, r4
 196 010e 0522     		movs	r2, #5
 197 0110 2B46     		mov	r3, r5
 198              	.LVL19:
 199 0112 B047     		blx	r6
 200              	.LVL20:
1205:/home/lsk/paparazzi/var/include/messages.h **** 	  trans->put_bytes(trans->impl, dev, DL_TYPE_UINT16, DL_FORMAT_SCALAR, 2, (void *) _speed);
 201              		.loc 2 1205 0
 202 0114 0BF14403 		add	r3, fp, #68
 203 0118 0193     		str	r3, [sp, #4]
 204 011a CDF80080 		str	r8, [sp]
 205 011e 386A     		ldr	r0, [r7, #32]
 206 0120 BE68     		ldr	r6, [r7, #8]
 207 0122 2146     		mov	r1, r4
 208 0124 4A46     		mov	r2, r9
 209 0126 2B46     		mov	r3, r5
 210 0128 B047     		blx	r6
 211              	.LVL21:
1206:/home/lsk/paparazzi/var/include/messages.h **** 	  trans->put_bytes(trans->impl, dev, DL_TYPE_INT16, DL_FORMAT_SCALAR, 2, (void *) _climb);
 212              		.loc 2 1206 0
 213 012a 03AB     		add	r3, sp, #12
 214              	.LVL22:
 215 012c 0193     		str	r3, [sp, #4]
 216 012e CDF80080 		str	r8, [sp]
 217 0132 386A     		ldr	r0, [r7, #32]
 218 0134 BE68     		ldr	r6, [r7, #8]
 219 0136 2146     		mov	r1, r4
 220 0138 0522     		movs	r2, #5
 221 013a 2B46     		mov	r3, r5
 222              	.LVL23:
 223 013c B047     		blx	r6
 224              	.LVL24:
1207:/home/lsk/paparazzi/var/include/messages.h **** 	  trans->put_bytes(trans->impl, dev, DL_TYPE_UINT16, DL_FORMAT_SCALAR, 2, (void *) _week);
 225              		.loc 2 1207 0
 226 013e 0BF15C03 		add	r3, fp, #92
 227 0142 0193     		str	r3, [sp, #4]
 228 0144 CDF80080 		str	r8, [sp]
 229 0148 386A     		ldr	r0, [r7, #32]
 230 014a BE68     		ldr	r6, [r7, #8]
 231 014c 2146     		mov	r1, r4
 232 014e 4A46     		mov	r2, r9
 233 0150 2B46     		mov	r3, r5
 234 0152 B047     		blx	r6
 235              	.LVL25:
1208:/home/lsk/paparazzi/var/include/messages.h **** 	  trans->put_bytes(trans->impl, dev, DL_TYPE_UINT32, DL_FORMAT_SCALAR, 4, (void *) _itow);
 236              		.loc 2 1208 0
 237 0154 0BF16003 		add	r3, fp, #96
 238 0158 0193     		str	r3, [sp, #4]
 239 015a CDF80090 		str	r9, [sp]
 240 015e 386A     		ldr	r0, [r7, #32]
 241 0160 BE68     		ldr	r6, [r7, #8]
 242 0162 2146     		mov	r1, r4
 243 0164 0622     		movs	r2, #6
 244 0166 2B46     		mov	r3, r5
 245 0168 B047     		blx	r6
 246              	.LVL26:
1209:/home/lsk/paparazzi/var/include/messages.h **** 	  trans->put_bytes(trans->impl, dev, DL_TYPE_UINT8, DL_FORMAT_SCALAR, 1, (void *) _mode);
 247              		.loc 2 1209 0
 248 016a 0BF15B06 		add	r6, fp, #91
 249 016e CDF800A0 		str	r10, [sp]
 250 0172 0196     		str	r6, [sp, #4]
 251 0174 BE68     		ldr	r6, [r7, #8]
 252 0176 386A     		ldr	r0, [r7, #32]
 253 0178 2146     		mov	r1, r4
 254 017a 4246     		mov	r2, r8
 255 017c 2B46     		mov	r3, r5
 256 017e B047     		blx	r6
 257              	.LVL27:
1210:/home/lsk/paparazzi/var/include/messages.h **** 	  trans->put_bytes(trans->impl, dev, DL_TYPE_UINT8, DL_FORMAT_SCALAR, 1, (void *) _gps_nb_err);
 258              		.loc 2 1210 0
 259 0180 0DF10A03 		add	r3, sp, #10
 260              	.LVL28:
 261 0184 0193     		str	r3, [sp, #4]
 262 0186 CDF800A0 		str	r10, [sp]
 263 018a 2B46     		mov	r3, r5
 264              	.LVL29:
 265 018c BE68     		ldr	r6, [r7, #8]
 266 018e 386A     		ldr	r0, [r7, #32]
 267 0190 2146     		mov	r1, r4
 268 0192 4246     		mov	r2, r8
 269 0194 B047     		blx	r6
 270              	.LVL30:
1211:/home/lsk/paparazzi/var/include/messages.h **** 	  trans->end_message(trans->impl, dev);
 271              		.loc 2 1211 0
 272 0196 7B69     		ldr	r3, [r7, #20]
 273 0198 00E0     		b	.L4
 274              	.L2:
1212:/home/lsk/paparazzi/var/include/messages.h **** 	} else
1213:/home/lsk/paparazzi/var/include/messages.h **** 	  trans->overrun(trans->impl, dev);
 275              		.loc 2 1213 0
 276 019a BB69     		ldr	r3, [r7, #24]
 277              	.L4:
 278 019c 386A     		ldr	r0, [r7, #32]
 279 019e 2146     		mov	r1, r4
 280 01a0 9847     		blx	r3
 281              	.LVL31:
 282              	.LBE8:
 283              	.LBE9:
 122:subsystems/gps.c ****   pprz_msg_send_GPS_LLA(trans, dev, AC_ID,
 123:subsystems/gps.c ****                         &gps.lla_pos.lat, &gps.lla_pos.lon, &gps.lla_pos.alt,
 124:subsystems/gps.c ****                         &course, &gps.gspeed, &climb,
 125:subsystems/gps.c ****                         &gps.week, &gps.tow,
 126:subsystems/gps.c ****                         &gps.fix, &err);
 127:subsystems/gps.c **** }
 284              		.loc 1 127 0
 285 01a2 05B0     		add	sp, sp, #20
 286              		@ sp needed
 287 01a4 BDE8F08F 		pop	{r4, r5, r6, r7, r8, r9, r10, fp, pc}
 288              	.LVL32:
 289              	.L7:
 290              		.align	3
 291              	.L6:
 292 01a8 00000000 		.word	.LC0
 293 01ac F8C1631A 		.word	442745336
 294 01b0 DCA54C40 		.word	1078765020
 295 01b4 00000000 		.word	0
 296 01b8 80842E41 		.word	1093567616
 297 01bc 00000000 		.word	.LANCHOR0
 298              		.cfi_endproc
 299              	.LFE367:
 301              		.section	.text.send_svinfo_id,"ax",%progbits
 302              		.align	1
 303              		.thumb
 304              		.thumb_func
 306              	send_svinfo_id:
 307              	.LFB362:
  50:subsystems/gps.c **** {
 308              		.loc 1 50 0
 309              		.cfi_startproc
 310              		@ args = 0, pretend = 0, frame = 16
 311              		@ frame_needed = 0, uses_anonymous_args = 0
 312              	.LVL33:
 313 0000 2DE9F043 		push	{r4, r5, r6, r7, r8, r9, lr}
 314              		.cfi_def_cfa_offset 28
 315              		.cfi_offset 4, -28
 316              		.cfi_offset 5, -24
 317              		.cfi_offset 6, -20
 318              		.cfi_offset 7, -16
 319              		.cfi_offset 8, -12
 320              		.cfi_offset 9, -8
 321              		.cfi_offset 14, -4
 322 0004 87B0     		sub	sp, sp, #28
 323              		.cfi_def_cfa_offset 56
  51:subsystems/gps.c ****   if (svid < GPS_NB_CHANNELS) {
 324              		.loc 1 51 0
 325 0006 0F2A     		cmp	r2, #15
  50:subsystems/gps.c **** {
 326              		.loc 1 50 0
 327 0008 0446     		mov	r4, r0
 328 000a 0D46     		mov	r5, r1
 329 000c 8DF80F20 		strb	r2, [sp, #15]
  51:subsystems/gps.c ****   if (svid < GPS_NB_CHANNELS) {
 330              		.loc 1 51 0
 331 0010 9046     		mov	r8, r2
 332 0012 00F28680 		bhi	.L8
 333              	.LVL34:
 334              	.LBB12:
 335              	.LBB13:
 630:/home/lsk/paparazzi/var/include/messages.h **** 	if (trans->check_available_space(trans->impl, dev, trans->size_of(trans->impl, 0+1+1+1+1+1+1+2 +2 
 336              		.loc 2 630 0
 337 0016 076A     		ldr	r7, [r0, #32]
 338 0018 D0F80490 		ldr	r9, [r0, #4]
 339 001c 0368     		ldr	r3, [r0]
 340 001e 0126     		movs	r6, #1
 341 0020 0A21     		movs	r1, #10
 342              	.LVL35:
 343 0022 8DF81760 		strb	r6, [sp, #23]
 344              	.LVL36:
 345 0026 3846     		mov	r0, r7
 346              	.LVL37:
 347 0028 9847     		blx	r3
 348              	.LVL38:
 349 002a 2946     		mov	r1, r5
 350 002c 0246     		mov	r2, r0
 351 002e 3846     		mov	r0, r7
 352 0030 C847     		blx	r9
 353              	.LVL39:
 354 0032 0028     		cmp	r0, #0
 355 0034 71D0     		beq	.L10
 631:/home/lsk/paparazzi/var/include/messages.h **** 	  trans->count_bytes(trans->impl, dev, trans->size_of(trans->impl, 0+1+1+1+1+1+1+2 +2 /* msg heade
 356              		.loc 2 631 0
 357 0036 276A     		ldr	r7, [r4, #32]
 358 0038 2368     		ldr	r3, [r4]
 359 003a D4F81C90 		ldr	r9, [r4, #28]
 360 003e 3846     		mov	r0, r7
 361 0040 0A21     		movs	r1, #10
 362 0042 9847     		blx	r3
 363              	.LVL40:
 364 0044 2946     		mov	r1, r5
 365 0046 0246     		mov	r2, r0
 366 0048 3846     		mov	r0, r7
 367 004a C847     		blx	r9
 368              	.LVL41:
 632:/home/lsk/paparazzi/var/include/messages.h **** 	  trans->start_message(trans->impl, dev, 0+1+1+1+1+1+1+2 +2 /* msg header overhead */);
 369              		.loc 2 632 0
 370 004c 2369     		ldr	r3, [r4, #16]
 371 004e 206A     		ldr	r0, [r4, #32]
 372 0050 2946     		mov	r1, r5
 373 0052 0A22     		movs	r2, #10
 374 0054 9847     		blx	r3
 375              	.LVL42:
 633:/home/lsk/paparazzi/var/include/messages.h **** 	  trans->put_bytes(trans->impl, dev, DL_TYPE_UINT8, DL_FORMAT_SCALAR, 1, &ac_id);
 376              		.loc 2 633 0
 377 0056 0DF11703 		add	r3, sp, #23
 378 005a 0096     		str	r6, [sp]
 379 005c 0193     		str	r3, [sp, #4]
 380 005e A768     		ldr	r7, [r4, #8]
 381 0060 206A     		ldr	r0, [r4, #32]
 382 0062 2946     		mov	r1, r5
 383 0064 0222     		movs	r2, #2
 384 0066 0023     		movs	r3, #0
 385 0068 B847     		blx	r7
 386              	.LVL43:
 634:/home/lsk/paparazzi/var/include/messages.h **** 	  trans->put_named_byte(trans->impl, dev, DL_TYPE_UINT8, DL_FORMAT_SCALAR, DL_SVINFO, "SVINFO");
 387              		.loc 2 634 0
 388 006a 1923     		movs	r3, #25
 389 006c 0093     		str	r3, [sp]
 390 006e 2E4B     		ldr	r3, .L12
 391 0070 0193     		str	r3, [sp, #4]
 392 0072 E768     		ldr	r7, [r4, #12]
 393 0074 206A     		ldr	r0, [r4, #32]
 394 0076 2946     		mov	r1, r5
 395 0078 0222     		movs	r2, #2
 396 007a 0023     		movs	r3, #0
 397 007c B847     		blx	r7
 398              	.LVL44:
 635:/home/lsk/paparazzi/var/include/messages.h **** 	  trans->put_bytes(trans->impl, dev, DL_TYPE_UINT8, DL_FORMAT_SCALAR, 1, (void *) _chn);
 399              		.loc 2 635 0
 400 007e 0DF10F03 		add	r3, sp, #15
 401              	.LVL45:
 402 0082 0096     		str	r6, [sp]
 403 0084 0193     		str	r3, [sp, #4]
 404 0086 A768     		ldr	r7, [r4, #8]
 405 0088 206A     		ldr	r0, [r4, #32]
 406 008a 2946     		mov	r1, r5
 407 008c 0222     		movs	r2, #2
 408 008e 0023     		movs	r3, #0
 409              	.LVL46:
 410 0090 B847     		blx	r7
 411              	.LVL47:
 412              	.LBE13:
 413              	.LBE12:
  52:subsystems/gps.c ****     pprz_msg_send_SVINFO(trans, dev, AC_ID, &svid,
 414              		.loc 1 52 0
 415 0092 264B     		ldr	r3, .L12+4
 416              	.LBB21:
 417              	.LBB14:
 636:/home/lsk/paparazzi/var/include/messages.h **** 	  trans->put_bytes(trans->impl, dev, DL_TYPE_UINT8, DL_FORMAT_SCALAR, 1, (void *) _SVID);
 418              		.loc 2 636 0
 419 0094 0096     		str	r6, [sp]
 420              	.LBE14:
 421              	.LBE21:
  52:subsystems/gps.c ****     pprz_msg_send_SVINFO(trans, dev, AC_ID, &svid,
 422              		.loc 1 52 0
 423 0096 08F10C08 		add	r8, r8, #12
 424              	.LVL48:
 425 009a 03EBC808 		add	r8, r3, r8, lsl #3
 426              	.LVL49:
 427 009e 08F10603 		add	r3, r8, #6
 428              	.LBB22:
 429              	.LBB15:
 636:/home/lsk/paparazzi/var/include/messages.h **** 	  trans->put_bytes(trans->impl, dev, DL_TYPE_UINT8, DL_FORMAT_SCALAR, 1, (void *) _SVID);
 430              		.loc 2 636 0
 431 00a2 0193     		str	r3, [sp, #4]
 432 00a4 A768     		ldr	r7, [r4, #8]
 433 00a6 206A     		ldr	r0, [r4, #32]
 434 00a8 2946     		mov	r1, r5
 435 00aa 0222     		movs	r2, #2
 436 00ac 0023     		movs	r3, #0
 437 00ae B847     		blx	r7
 438              	.LVL50:
 439              	.LBE15:
 440              	.LBE22:
  52:subsystems/gps.c ****     pprz_msg_send_SVINFO(trans, dev, AC_ID, &svid,
 441              		.loc 1 52 0
 442 00b0 08F10703 		add	r3, r8, #7
 443              	.LBB23:
 444              	.LBB16:
 637:/home/lsk/paparazzi/var/include/messages.h **** 	  trans->put_bytes(trans->impl, dev, DL_TYPE_UINT8, DL_FORMAT_SCALAR, 1, (void *) _Flags);
 445              		.loc 2 637 0
 446 00b4 0096     		str	r6, [sp]
 447 00b6 0193     		str	r3, [sp, #4]
 448 00b8 A768     		ldr	r7, [r4, #8]
 449 00ba 206A     		ldr	r0, [r4, #32]
 450 00bc 2946     		mov	r1, r5
 451 00be 0222     		movs	r2, #2
 452 00c0 0023     		movs	r3, #0
 453 00c2 B847     		blx	r7
 454              	.LVL51:
 455              	.LBE16:
 456              	.LBE23:
  52:subsystems/gps.c ****     pprz_msg_send_SVINFO(trans, dev, AC_ID, &svid,
 457              		.loc 1 52 0
 458 00c4 08F10803 		add	r3, r8, #8
 459              	.LBB24:
 460              	.LBB17:
 638:/home/lsk/paparazzi/var/include/messages.h **** 	  trans->put_bytes(trans->impl, dev, DL_TYPE_UINT8, DL_FORMAT_SCALAR, 1, (void *) _QI);
 461              		.loc 2 638 0
 462 00c8 0096     		str	r6, [sp]
 463 00ca 0193     		str	r3, [sp, #4]
 464 00cc A768     		ldr	r7, [r4, #8]
 465 00ce 206A     		ldr	r0, [r4, #32]
 466 00d0 2946     		mov	r1, r5
 467 00d2 0222     		movs	r2, #2
 468 00d4 0023     		movs	r3, #0
 469 00d6 B847     		blx	r7
 470              	.LVL52:
 471              	.LBE17:
 472              	.LBE24:
  52:subsystems/gps.c ****     pprz_msg_send_SVINFO(trans, dev, AC_ID, &svid,
 473              		.loc 1 52 0
 474 00d8 08F10903 		add	r3, r8, #9
 475              	.LBB25:
 476              	.LBB18:
 639:/home/lsk/paparazzi/var/include/messages.h **** 	  trans->put_bytes(trans->impl, dev, DL_TYPE_UINT8, DL_FORMAT_SCALAR, 1, (void *) _CNO);
 477              		.loc 2 639 0
 478 00dc 0096     		str	r6, [sp]
 479 00de 0193     		str	r3, [sp, #4]
 480 00e0 206A     		ldr	r0, [r4, #32]
 481 00e2 A768     		ldr	r7, [r4, #8]
 482 00e4 2946     		mov	r1, r5
 483 00e6 0222     		movs	r2, #2
 484 00e8 0023     		movs	r3, #0
 485 00ea B847     		blx	r7
 486              	.LVL53:
 487              	.LBE18:
 488              	.LBE25:
  52:subsystems/gps.c ****     pprz_msg_send_SVINFO(trans, dev, AC_ID, &svid,
 489              		.loc 1 52 0
 490 00ec 08F10A03 		add	r3, r8, #10
 491              	.LBB26:
 492              	.LBB19:
 640:/home/lsk/paparazzi/var/include/messages.h **** 	  trans->put_bytes(trans->impl, dev, DL_TYPE_INT8, DL_FORMAT_SCALAR, 1, (void *) _Elev);
 493              		.loc 2 640 0
 494 00f0 0096     		str	r6, [sp]
 495 00f2 0193     		str	r3, [sp, #4]
 496 00f4 A668     		ldr	r6, [r4, #8]
 497              	.LVL54:
 498 00f6 206A     		ldr	r0, [r4, #32]
 499 00f8 2946     		mov	r1, r5
 500 00fa 0322     		movs	r2, #3
 501 00fc 0023     		movs	r3, #0
 502 00fe B047     		blx	r6
 503              	.LVL55:
 641:/home/lsk/paparazzi/var/include/messages.h **** 	  trans->put_bytes(trans->impl, dev, DL_TYPE_INT16, DL_FORMAT_SCALAR, 2, (void *) _Azim);
 504              		.loc 2 641 0
 505 0100 0223     		movs	r3, #2
 506 0102 0093     		str	r3, [sp]
 507              	.LBE19:
 508              	.LBE26:
  52:subsystems/gps.c ****     pprz_msg_send_SVINFO(trans, dev, AC_ID, &svid,
 509              		.loc 1 52 0
 510 0104 08F10C03 		add	r3, r8, #12
 511              	.LBB27:
 512              	.LBB20:
 641:/home/lsk/paparazzi/var/include/messages.h **** 	  trans->put_bytes(trans->impl, dev, DL_TYPE_INT16, DL_FORMAT_SCALAR, 2, (void *) _Azim);
 513              		.loc 2 641 0
 514 0108 0193     		str	r3, [sp, #4]
 515 010a A668     		ldr	r6, [r4, #8]
 516 010c 206A     		ldr	r0, [r4, #32]
 517 010e 0023     		movs	r3, #0
 518 0110 2946     		mov	r1, r5
 519 0112 0522     		movs	r2, #5
 520 0114 B047     		blx	r6
 521              	.LVL56:
 642:/home/lsk/paparazzi/var/include/messages.h **** 	  trans->end_message(trans->impl, dev);
 522              		.loc 2 642 0
 523 0116 6369     		ldr	r3, [r4, #20]
 524 0118 00E0     		b	.L11
 525              	.LVL57:
 526              	.L10:
 644:/home/lsk/paparazzi/var/include/messages.h **** 	  trans->overrun(trans->impl, dev);
 527              		.loc 2 644 0
 528 011a A369     		ldr	r3, [r4, #24]
 529              	.LVL58:
 530              	.L11:
 531 011c 206A     		ldr	r0, [r4, #32]
 532 011e 2946     		mov	r1, r5
 533 0120 9847     		blx	r3
 534              	.LVL59:
 535              	.L8:
 536              	.LBE20:
 537              	.LBE27:
  57:subsystems/gps.c **** }
 538              		.loc 1 57 0
 539 0122 07B0     		add	sp, sp, #28
 540              		@ sp needed
 541 0124 BDE8F083 		pop	{r4, r5, r6, r7, r8, r9, pc}
 542              	.LVL60:
 543              	.L13:
 544              		.align	2
 545              	.L12:
 546 0128 08000000 		.word	.LC1
 547 012c 00000000 		.word	.LANCHOR0
 548              		.cfi_endproc
 549              	.LFE362:
 551              		.section	.text.send_svinfo,"ax",%progbits
 552              		.align	1
 553              		.thumb
 554              		.thumb_func
 556              	send_svinfo:
 557              	.LFB363:
  61:subsystems/gps.c **** {
 558              		.loc 1 61 0
 559              		.cfi_startproc
 560              		@ args = 0, pretend = 0, frame = 0
 561              		@ frame_needed = 0, uses_anonymous_args = 0
 562              	.LVL61:
 563 0000 10B5     		push	{r4, lr}
 564              		.cfi_def_cfa_offset 8
 565              		.cfi_offset 4, -8
 566              		.cfi_offset 14, -4
  63:subsystems/gps.c ****   if (i == gps.nb_channels) { i = 0; }
 567              		.loc 1 63 0
 568 0002 084B     		ldr	r3, .L16
 569 0004 084C     		ldr	r4, .L16+4
 570 0006 93F86430 		ldrb	r3, [r3, #100]	@ zero_extendqisi2
 571 000a 2278     		ldrb	r2, [r4]	@ zero_extendqisi2
 572 000c 9A42     		cmp	r2, r3
 573 000e 04BF     		itt	eq
 574 0010 0023     		moveq	r3, #0
 575 0012 2370     		strbeq	r3, [r4]
  64:subsystems/gps.c ****   send_svinfo_id(trans, dev, i);
 576              		.loc 1 64 0
 577 0014 2278     		ldrb	r2, [r4]	@ zero_extendqisi2
 578 0016 FFF7FEFF 		bl	send_svinfo_id
 579              	.LVL62:
  65:subsystems/gps.c ****   i++;
 580              		.loc 1 65 0
 581 001a 2378     		ldrb	r3, [r4]	@ zero_extendqisi2
 582 001c 0133     		adds	r3, r3, #1
 583 001e 2370     		strb	r3, [r4]
 584 0020 10BD     		pop	{r4, pc}
 585              	.L17:
 586 0022 00BF     		.align	2
 587              	.L16:
 588 0024 00000000 		.word	.LANCHOR0
 589 0028 00000000 		.word	.LANCHOR1
 590              		.cfi_endproc
 591              	.LFE363:
 593              		.section	.text.send_svinfo_available,"ax",%progbits
 594              		.align	1
 595              		.thumb
 596              		.thumb_func
 598              	send_svinfo_available:
 599              	.LFB364:
  73:subsystems/gps.c **** {
 600              		.loc 1 73 0
 601              		.cfi_startproc
 602              		@ args = 0, pretend = 0, frame = 0
 603              		@ frame_needed = 0, uses_anonymous_args = 0
 604              	.LVL63:
 605 0000 F8B5     		push	{r3, r4, r5, r6, r7, lr}
 606              		.cfi_def_cfa_offset 24
 607              		.cfi_offset 3, -24
 608              		.cfi_offset 4, -20
 609              		.cfi_offset 5, -16
 610              		.cfi_offset 6, -12
 611              		.cfi_offset 7, -8
 612              		.cfi_offset 14, -4
  76:subsystems/gps.c ****   if (i >= gps.nb_channels) { i = 0; }
 613              		.loc 1 76 0
 614 0002 134C     		ldr	r4, .L22
 615 0004 134B     		ldr	r3, .L22+4
 616 0006 2578     		ldrb	r5, [r4]	@ zero_extendqisi2
 617 0008 93F86420 		ldrb	r2, [r3, #100]	@ zero_extendqisi2
  79:subsystems/gps.c ****   if (gps.fix != GPS_FIX_3D) {
 618              		.loc 1 79 0
 619 000c 93F85B30 		ldrb	r3, [r3, #91]	@ zero_extendqisi2
 620 0010 104E     		ldr	r6, .L22+4
  76:subsystems/gps.c ****   if (i >= gps.nb_channels) { i = 0; }
 621              		.loc 1 76 0
 622 0012 9542     		cmp	r5, r2
 623 0014 24BF     		itt	cs
 624 0016 0022     		movcs	r2, #0
 625 0018 2270     		strbcs	r2, [r4]
  79:subsystems/gps.c ****   if (gps.fix != GPS_FIX_3D) {
 626              		.loc 1 79 0
 627 001a 032B     		cmp	r3, #3
  80:subsystems/gps.c ****     send_svinfo_id(trans, dev, i);
 628              		.loc 1 80 0
 629 001c 2278     		ldrb	r2, [r4]	@ zero_extendqisi2
  79:subsystems/gps.c ****   if (gps.fix != GPS_FIX_3D) {
 630              		.loc 1 79 0
 631 001e 02D0     		beq	.L20
  80:subsystems/gps.c ****     send_svinfo_id(trans, dev, i);
 632              		.loc 1 80 0
 633 0020 FFF7FEFF 		bl	send_svinfo_id
 634              	.LVL64:
 635 0024 10E0     		b	.L21
 636              	.LVL65:
 637              	.L20:
  81:subsystems/gps.c ****   } else if (gps.svinfos[i].cno != last_cnos[i]) {
 638              		.loc 1 81 0
 639 0026 06EBC203 		add	r3, r6, r2, lsl #3
 640 002a 0B4D     		ldr	r5, .L22+8
 641 002c 93F86970 		ldrb	r7, [r3, #105]	@ zero_extendqisi2
 642 0030 AB5C     		ldrb	r3, [r5, r2]	@ zero_extendqisi2
 643 0032 9F42     		cmp	r7, r3
 644 0034 08D0     		beq	.L21
  82:subsystems/gps.c ****     send_svinfo_id(trans, dev, i);
 645              		.loc 1 82 0
 646 0036 FFF7FEFF 		bl	send_svinfo_id
 647              	.LVL66:
  83:subsystems/gps.c ****     last_cnos[i] = gps.svinfos[i].cno;
 648              		.loc 1 83 0
 649 003a 054B     		ldr	r3, .L22
 650 003c 1B78     		ldrb	r3, [r3]	@ zero_extendqisi2
 651 003e 06EBC306 		add	r6, r6, r3, lsl #3
 652 0042 96F86920 		ldrb	r2, [r6, #105]	@ zero_extendqisi2
 653 0046 EA54     		strb	r2, [r5, r3]
 654              	.L21:
  85:subsystems/gps.c ****   i++;
 655              		.loc 1 85 0
 656 0048 2378     		ldrb	r3, [r4]	@ zero_extendqisi2
 657 004a 0133     		adds	r3, r3, #1
 658 004c 2370     		strb	r3, [r4]
 659 004e F8BD     		pop	{r3, r4, r5, r6, r7, pc}
 660              	.L23:
 661              		.align	2
 662              	.L22:
 663 0050 00000000 		.word	.LANCHOR2
 664 0054 00000000 		.word	.LANCHOR0
 665 0058 00000000 		.word	.LANCHOR3
 666              		.cfi_endproc
 667              	.LFE364:
 669              		.section	.text.send_gps_int,"ax",%progbits
 670              		.align	1
 671              		.thumb
 672              		.thumb_func
 674              	send_gps_int:
 675              	.LFB366:
 102:subsystems/gps.c **** {
 676              		.loc 1 102 0
 677              		.cfi_startproc
 678              		@ args = 0, pretend = 0, frame = 8
 679              		@ frame_needed = 0, uses_anonymous_args = 0
 680              	.LVL67:
 681 0000 2DE9FF47 		push	{r0, r1, r2, r3, r4, r5, r6, r7, r8, r9, r10, lr}
 682              		.cfi_def_cfa_offset 48
 683              		.cfi_offset 0, -48
 684              		.cfi_offset 1, -44
 685              		.cfi_offset 2, -40
 686              		.cfi_offset 3, -36
 687              		.cfi_offset 4, -32
 688              		.cfi_offset 5, -28
 689              		.cfi_offset 6, -24
 690              		.cfi_offset 7, -20
 691              		.cfi_offset 8, -16
 692              		.cfi_offset 9, -12
 693              		.cfi_offset 10, -8
 694              		.cfi_offset 14, -4
 695              	.LBB30:
 696              	.LBB31:
1214:/home/lsk/paparazzi/var/include/messages.h **** }
1215:/home/lsk/paparazzi/var/include/messages.h **** 
1216:/home/lsk/paparazzi/var/include/messages.h **** #define DOWNLINK_SEND_H_CTL_A(_trans, _dev, roll_sum_err, roll_sp, roll_ref, phi, aileron_sp, pitch
1217:/home/lsk/paparazzi/var/include/messages.h **** static inline void pprz_msg_send_H_CTL_A(struct transport_tx *trans, struct link_device *dev, uint8
1218:/home/lsk/paparazzi/var/include/messages.h **** 	if (trans->check_available_space(trans->impl, dev, trans->size_of(trans->impl, 0+4+4+4+4+2+4+4+4+4
1219:/home/lsk/paparazzi/var/include/messages.h **** 	  trans->count_bytes(trans->impl, dev, trans->size_of(trans->impl, 0+4+4+4+4+2+4+4+4+4+2 +2 /* msg
1220:/home/lsk/paparazzi/var/include/messages.h **** 	  trans->start_message(trans->impl, dev, 0+4+4+4+4+2+4+4+4+4+2 +2 /* msg header overhead */);
1221:/home/lsk/paparazzi/var/include/messages.h **** 	  trans->put_bytes(trans->impl, dev, DL_TYPE_UINT8, DL_FORMAT_SCALAR, 1, &ac_id);
1222:/home/lsk/paparazzi/var/include/messages.h **** 	  trans->put_named_byte(trans->impl, dev, DL_TYPE_UINT8, DL_FORMAT_SCALAR, DL_H_CTL_A, "H_CTL_A");
1223:/home/lsk/paparazzi/var/include/messages.h **** 	  trans->put_bytes(trans->impl, dev, DL_TYPE_FLOAT, DL_FORMAT_SCALAR, 4, (void *) _roll_sum_err);
1224:/home/lsk/paparazzi/var/include/messages.h **** 	  trans->put_bytes(trans->impl, dev, DL_TYPE_FLOAT, DL_FORMAT_SCALAR, 4, (void *) _roll_sp);
1225:/home/lsk/paparazzi/var/include/messages.h **** 	  trans->put_bytes(trans->impl, dev, DL_TYPE_FLOAT, DL_FORMAT_SCALAR, 4, (void *) _roll_ref);
1226:/home/lsk/paparazzi/var/include/messages.h **** 	  trans->put_bytes(trans->impl, dev, DL_TYPE_FLOAT, DL_FORMAT_SCALAR, 4, (void *) _phi);
1227:/home/lsk/paparazzi/var/include/messages.h **** 	  trans->put_bytes(trans->impl, dev, DL_TYPE_INT16, DL_FORMAT_SCALAR, 2, (void *) _aileron_sp);
1228:/home/lsk/paparazzi/var/include/messages.h **** 	  trans->put_bytes(trans->impl, dev, DL_TYPE_FLOAT, DL_FORMAT_SCALAR, 4, (void *) _pitch_sum_err);
1229:/home/lsk/paparazzi/var/include/messages.h **** 	  trans->put_bytes(trans->impl, dev, DL_TYPE_FLOAT, DL_FORMAT_SCALAR, 4, (void *) _pitch_sp);
1230:/home/lsk/paparazzi/var/include/messages.h **** 	  trans->put_bytes(trans->impl, dev, DL_TYPE_FLOAT, DL_FORMAT_SCALAR, 4, (void *) _pitch_ref);
1231:/home/lsk/paparazzi/var/include/messages.h **** 	  trans->put_bytes(trans->impl, dev, DL_TYPE_FLOAT, DL_FORMAT_SCALAR, 4, (void *) _theta);
1232:/home/lsk/paparazzi/var/include/messages.h **** 	  trans->put_bytes(trans->impl, dev, DL_TYPE_INT16, DL_FORMAT_SCALAR, 2, (void *) _elevator_sp);
1233:/home/lsk/paparazzi/var/include/messages.h **** 	  trans->end_message(trans->impl, dev);
1234:/home/lsk/paparazzi/var/include/messages.h **** 	} else
1235:/home/lsk/paparazzi/var/include/messages.h **** 	  trans->overrun(trans->impl, dev);
1236:/home/lsk/paparazzi/var/include/messages.h **** }
1237:/home/lsk/paparazzi/var/include/messages.h **** 
1238:/home/lsk/paparazzi/var/include/messages.h **** #define DOWNLINK_SEND_TURB_PRESSURE_RAW(_trans, _dev, ch_0, ch_1, ch_2, ch_3, ch_4, ch_5, ch_6, ch_
1239:/home/lsk/paparazzi/var/include/messages.h **** static inline void pprz_msg_send_TURB_PRESSURE_RAW(struct transport_tx *trans, struct link_device *
1240:/home/lsk/paparazzi/var/include/messages.h **** 	if (trans->check_available_space(trans->impl, dev, trans->size_of(trans->impl, 0+4+4+4+4+4+4+4+4+4
1241:/home/lsk/paparazzi/var/include/messages.h **** 	  trans->count_bytes(trans->impl, dev, trans->size_of(trans->impl, 0+4+4+4+4+4+4+4+4+4+4+4+4+4+4+4
1242:/home/lsk/paparazzi/var/include/messages.h **** 	  trans->start_message(trans->impl, dev, 0+4+4+4+4+4+4+4+4+4+4+4+4+4+4+4+4 +2 /* msg header overhe
1243:/home/lsk/paparazzi/var/include/messages.h **** 	  trans->put_bytes(trans->impl, dev, DL_TYPE_UINT8, DL_FORMAT_SCALAR, 1, &ac_id);
1244:/home/lsk/paparazzi/var/include/messages.h **** 	  trans->put_named_byte(trans->impl, dev, DL_TYPE_UINT8, DL_FORMAT_SCALAR, DL_TURB_PRESSURE_RAW, "
1245:/home/lsk/paparazzi/var/include/messages.h **** 	  trans->put_bytes(trans->impl, dev, DL_TYPE_INT32, DL_FORMAT_SCALAR, 4, (void *) _ch_0);
1246:/home/lsk/paparazzi/var/include/messages.h **** 	  trans->put_bytes(trans->impl, dev, DL_TYPE_INT32, DL_FORMAT_SCALAR, 4, (void *) _ch_1);
1247:/home/lsk/paparazzi/var/include/messages.h **** 	  trans->put_bytes(trans->impl, dev, DL_TYPE_INT32, DL_FORMAT_SCALAR, 4, (void *) _ch_2);
1248:/home/lsk/paparazzi/var/include/messages.h **** 	  trans->put_bytes(trans->impl, dev, DL_TYPE_INT32, DL_FORMAT_SCALAR, 4, (void *) _ch_3);
1249:/home/lsk/paparazzi/var/include/messages.h **** 	  trans->put_bytes(trans->impl, dev, DL_TYPE_INT32, DL_FORMAT_SCALAR, 4, (void *) _ch_4);
1250:/home/lsk/paparazzi/var/include/messages.h **** 	  trans->put_bytes(trans->impl, dev, DL_TYPE_INT32, DL_FORMAT_SCALAR, 4, (void *) _ch_5);
1251:/home/lsk/paparazzi/var/include/messages.h **** 	  trans->put_bytes(trans->impl, dev, DL_TYPE_INT32, DL_FORMAT_SCALAR, 4, (void *) _ch_6);
1252:/home/lsk/paparazzi/var/include/messages.h **** 	  trans->put_bytes(trans->impl, dev, DL_TYPE_INT32, DL_FORMAT_SCALAR, 4, (void *) _ch_7);
1253:/home/lsk/paparazzi/var/include/messages.h **** 	  trans->put_bytes(trans->impl, dev, DL_TYPE_INT32, DL_FORMAT_SCALAR, 4, (void *) _ch_8);
1254:/home/lsk/paparazzi/var/include/messages.h **** 	  trans->put_bytes(trans->impl, dev, DL_TYPE_INT32, DL_FORMAT_SCALAR, 4, (void *) _ch_9);
1255:/home/lsk/paparazzi/var/include/messages.h **** 	  trans->put_bytes(trans->impl, dev, DL_TYPE_INT32, DL_FORMAT_SCALAR, 4, (void *) _ch_10);
1256:/home/lsk/paparazzi/var/include/messages.h **** 	  trans->put_bytes(trans->impl, dev, DL_TYPE_INT32, DL_FORMAT_SCALAR, 4, (void *) _ch_11);
1257:/home/lsk/paparazzi/var/include/messages.h **** 	  trans->put_bytes(trans->impl, dev, DL_TYPE_INT32, DL_FORMAT_SCALAR, 4, (void *) _ch_12);
1258:/home/lsk/paparazzi/var/include/messages.h **** 	  trans->put_bytes(trans->impl, dev, DL_TYPE_INT32, DL_FORMAT_SCALAR, 4, (void *) _ch_13);
1259:/home/lsk/paparazzi/var/include/messages.h **** 	  trans->put_bytes(trans->impl, dev, DL_TYPE_INT32, DL_FORMAT_SCALAR, 4, (void *) _ch_14);
1260:/home/lsk/paparazzi/var/include/messages.h **** 	  trans->put_bytes(trans->impl, dev, DL_TYPE_INT32, DL_FORMAT_SCALAR, 4, (void *) _ch_15);
1261:/home/lsk/paparazzi/var/include/messages.h **** 	  trans->end_message(trans->impl, dev);
1262:/home/lsk/paparazzi/var/include/messages.h **** 	} else
1263:/home/lsk/paparazzi/var/include/messages.h **** 	  trans->overrun(trans->impl, dev);
1264:/home/lsk/paparazzi/var/include/messages.h **** }
1265:/home/lsk/paparazzi/var/include/messages.h **** 
1266:/home/lsk/paparazzi/var/include/messages.h **** #define DOWNLINK_SEND_TURB_PRESSURE_VOLTAGE(_trans, _dev, ch_1_p, ch_1_t, ch_2_p, ch_2_t, ch_3_p, c
1267:/home/lsk/paparazzi/var/include/messages.h **** static inline void pprz_msg_send_TURB_PRESSURE_VOLTAGE(struct transport_tx *trans, struct link_devi
1268:/home/lsk/paparazzi/var/include/messages.h **** 	if (trans->check_available_space(trans->impl, dev, trans->size_of(trans->impl, 0+4+4+4+4+4+4+4+4+4
1269:/home/lsk/paparazzi/var/include/messages.h **** 	  trans->count_bytes(trans->impl, dev, trans->size_of(trans->impl, 0+4+4+4+4+4+4+4+4+4+4+4+4+4+4+4
1270:/home/lsk/paparazzi/var/include/messages.h **** 	  trans->start_message(trans->impl, dev, 0+4+4+4+4+4+4+4+4+4+4+4+4+4+4+4+4 +2 /* msg header overhe
1271:/home/lsk/paparazzi/var/include/messages.h **** 	  trans->put_bytes(trans->impl, dev, DL_TYPE_UINT8, DL_FORMAT_SCALAR, 1, &ac_id);
1272:/home/lsk/paparazzi/var/include/messages.h **** 	  trans->put_named_byte(trans->impl, dev, DL_TYPE_UINT8, DL_FORMAT_SCALAR, DL_TURB_PRESSURE_VOLTAG
1273:/home/lsk/paparazzi/var/include/messages.h **** 	  trans->put_bytes(trans->impl, dev, DL_TYPE_FLOAT, DL_FORMAT_SCALAR, 4, (void *) _ch_1_p);
1274:/home/lsk/paparazzi/var/include/messages.h **** 	  trans->put_bytes(trans->impl, dev, DL_TYPE_FLOAT, DL_FORMAT_SCALAR, 4, (void *) _ch_1_t);
1275:/home/lsk/paparazzi/var/include/messages.h **** 	  trans->put_bytes(trans->impl, dev, DL_TYPE_FLOAT, DL_FORMAT_SCALAR, 4, (void *) _ch_2_p);
1276:/home/lsk/paparazzi/var/include/messages.h **** 	  trans->put_bytes(trans->impl, dev, DL_TYPE_FLOAT, DL_FORMAT_SCALAR, 4, (void *) _ch_2_t);
1277:/home/lsk/paparazzi/var/include/messages.h **** 	  trans->put_bytes(trans->impl, dev, DL_TYPE_FLOAT, DL_FORMAT_SCALAR, 4, (void *) _ch_3_p);
1278:/home/lsk/paparazzi/var/include/messages.h **** 	  trans->put_bytes(trans->impl, dev, DL_TYPE_FLOAT, DL_FORMAT_SCALAR, 4, (void *) _ch_3_t);
1279:/home/lsk/paparazzi/var/include/messages.h **** 	  trans->put_bytes(trans->impl, dev, DL_TYPE_FLOAT, DL_FORMAT_SCALAR, 4, (void *) _ch_4_p);
1280:/home/lsk/paparazzi/var/include/messages.h **** 	  trans->put_bytes(trans->impl, dev, DL_TYPE_FLOAT, DL_FORMAT_SCALAR, 4, (void *) _ch_4_t);
1281:/home/lsk/paparazzi/var/include/messages.h **** 	  trans->put_bytes(trans->impl, dev, DL_TYPE_FLOAT, DL_FORMAT_SCALAR, 4, (void *) _ch_5_p);
1282:/home/lsk/paparazzi/var/include/messages.h **** 	  trans->put_bytes(trans->impl, dev, DL_TYPE_FLOAT, DL_FORMAT_SCALAR, 4, (void *) _ch_5_t);
1283:/home/lsk/paparazzi/var/include/messages.h **** 	  trans->put_bytes(trans->impl, dev, DL_TYPE_FLOAT, DL_FORMAT_SCALAR, 4, (void *) _ch_6_p);
1284:/home/lsk/paparazzi/var/include/messages.h **** 	  trans->put_bytes(trans->impl, dev, DL_TYPE_FLOAT, DL_FORMAT_SCALAR, 4, (void *) _ch_6_t);
1285:/home/lsk/paparazzi/var/include/messages.h **** 	  trans->put_bytes(trans->impl, dev, DL_TYPE_FLOAT, DL_FORMAT_SCALAR, 4, (void *) _ch_7_p);
1286:/home/lsk/paparazzi/var/include/messages.h **** 	  trans->put_bytes(trans->impl, dev, DL_TYPE_FLOAT, DL_FORMAT_SCALAR, 4, (void *) _ch_7_t);
1287:/home/lsk/paparazzi/var/include/messages.h **** 	  trans->put_bytes(trans->impl, dev, DL_TYPE_FLOAT, DL_FORMAT_SCALAR, 4, (void *) _gnd1);
1288:/home/lsk/paparazzi/var/include/messages.h **** 	  trans->put_bytes(trans->impl, dev, DL_TYPE_FLOAT, DL_FORMAT_SCALAR, 4, (void *) _gnd2);
1289:/home/lsk/paparazzi/var/include/messages.h **** 	  trans->end_message(trans->impl, dev);
1290:/home/lsk/paparazzi/var/include/messages.h **** 	} else
1291:/home/lsk/paparazzi/var/include/messages.h **** 	  trans->overrun(trans->impl, dev);
1292:/home/lsk/paparazzi/var/include/messages.h **** }
1293:/home/lsk/paparazzi/var/include/messages.h **** 
1294:/home/lsk/paparazzi/var/include/messages.h **** #define DOWNLINK_SEND_CAM_POINT(_trans, _dev, cam_point_distance_from_home, cam_point_lat, cam_poin
1295:/home/lsk/paparazzi/var/include/messages.h **** static inline void pprz_msg_send_CAM_POINT(struct transport_tx *trans, struct link_device *dev, uin
1296:/home/lsk/paparazzi/var/include/messages.h **** 	if (trans->check_available_space(trans->impl, dev, trans->size_of(trans->impl, 0+2+4+4 +2 /* msg h
1297:/home/lsk/paparazzi/var/include/messages.h **** 	  trans->count_bytes(trans->impl, dev, trans->size_of(trans->impl, 0+2+4+4 +2 /* msg header overhe
1298:/home/lsk/paparazzi/var/include/messages.h **** 	  trans->start_message(trans->impl, dev, 0+2+4+4 +2 /* msg header overhead */);
1299:/home/lsk/paparazzi/var/include/messages.h **** 	  trans->put_bytes(trans->impl, dev, DL_TYPE_UINT8, DL_FORMAT_SCALAR, 1, &ac_id);
1300:/home/lsk/paparazzi/var/include/messages.h **** 	  trans->put_named_byte(trans->impl, dev, DL_TYPE_UINT8, DL_FORMAT_SCALAR, DL_CAM_POINT, "CAM_POIN
1301:/home/lsk/paparazzi/var/include/messages.h **** 	  trans->put_bytes(trans->impl, dev, DL_TYPE_UINT16, DL_FORMAT_SCALAR, 2, (void *) _cam_point_dist
1302:/home/lsk/paparazzi/var/include/messages.h **** 	  trans->put_bytes(trans->impl, dev, DL_TYPE_FLOAT, DL_FORMAT_SCALAR, 4, (void *) _cam_point_lat);
1303:/home/lsk/paparazzi/var/include/messages.h **** 	  trans->put_bytes(trans->impl, dev, DL_TYPE_FLOAT, DL_FORMAT_SCALAR, 4, (void *) _cam_point_lon);
1304:/home/lsk/paparazzi/var/include/messages.h **** 	  trans->end_message(trans->impl, dev);
1305:/home/lsk/paparazzi/var/include/messages.h **** 	} else
1306:/home/lsk/paparazzi/var/include/messages.h **** 	  trans->overrun(trans->impl, dev);
1307:/home/lsk/paparazzi/var/include/messages.h **** }
1308:/home/lsk/paparazzi/var/include/messages.h **** 
1309:/home/lsk/paparazzi/var/include/messages.h **** #define DOWNLINK_SEND_DC_INFO(_trans, _dev, mode, lat, lon, alt, course, photo_nr, dist, next_dist,
1310:/home/lsk/paparazzi/var/include/messages.h **** static inline void pprz_msg_send_DC_INFO(struct transport_tx *trans, struct link_device *dev, uint8
1311:/home/lsk/paparazzi/var/include/messages.h **** 	if (trans->check_available_space(trans->impl, dev, trans->size_of(trans->impl, 0+2+4+4+4+4+2+4+4+4
1312:/home/lsk/paparazzi/var/include/messages.h **** 	  trans->count_bytes(trans->impl, dev, trans->size_of(trans->impl, 0+2+4+4+4+4+2+4+4+4+4+4+4+4+2+1
1313:/home/lsk/paparazzi/var/include/messages.h **** 	  trans->start_message(trans->impl, dev, 0+2+4+4+4+4+2+4+4+4+4+4+4+4+2+1 +2 /* msg header overhead
1314:/home/lsk/paparazzi/var/include/messages.h **** 	  trans->put_bytes(trans->impl, dev, DL_TYPE_UINT8, DL_FORMAT_SCALAR, 1, &ac_id);
1315:/home/lsk/paparazzi/var/include/messages.h **** 	  trans->put_named_byte(trans->impl, dev, DL_TYPE_UINT8, DL_FORMAT_SCALAR, DL_DC_INFO, "DC_INFO");
1316:/home/lsk/paparazzi/var/include/messages.h **** 	  trans->put_bytes(trans->impl, dev, DL_TYPE_INT16, DL_FORMAT_SCALAR, 2, (void *) _mode);
1317:/home/lsk/paparazzi/var/include/messages.h **** 	  trans->put_bytes(trans->impl, dev, DL_TYPE_INT32, DL_FORMAT_SCALAR, 4, (void *) _lat);
1318:/home/lsk/paparazzi/var/include/messages.h **** 	  trans->put_bytes(trans->impl, dev, DL_TYPE_INT32, DL_FORMAT_SCALAR, 4, (void *) _lon);
1319:/home/lsk/paparazzi/var/include/messages.h **** 	  trans->put_bytes(trans->impl, dev, DL_TYPE_INT32, DL_FORMAT_SCALAR, 4, (void *) _alt);
1320:/home/lsk/paparazzi/var/include/messages.h **** 	  trans->put_bytes(trans->impl, dev, DL_TYPE_FLOAT, DL_FORMAT_SCALAR, 4, (void *) _course);
1321:/home/lsk/paparazzi/var/include/messages.h **** 	  trans->put_bytes(trans->impl, dev, DL_TYPE_UINT16, DL_FORMAT_SCALAR, 2, (void *) _photo_nr);
1322:/home/lsk/paparazzi/var/include/messages.h **** 	  trans->put_bytes(trans->impl, dev, DL_TYPE_FLOAT, DL_FORMAT_SCALAR, 4, (void *) _dist);
1323:/home/lsk/paparazzi/var/include/messages.h **** 	  trans->put_bytes(trans->impl, dev, DL_TYPE_FLOAT, DL_FORMAT_SCALAR, 4, (void *) _next_dist);
1324:/home/lsk/paparazzi/var/include/messages.h **** 	  trans->put_bytes(trans->impl, dev, DL_TYPE_FLOAT, DL_FORMAT_SCALAR, 4, (void *) _start_x);
1325:/home/lsk/paparazzi/var/include/messages.h **** 	  trans->put_bytes(trans->impl, dev, DL_TYPE_FLOAT, DL_FORMAT_SCALAR, 4, (void *) _start_y);
1326:/home/lsk/paparazzi/var/include/messages.h **** 	  trans->put_bytes(trans->impl, dev, DL_TYPE_FLOAT, DL_FORMAT_SCALAR, 4, (void *) _start_angle);
1327:/home/lsk/paparazzi/var/include/messages.h **** 	  trans->put_bytes(trans->impl, dev, DL_TYPE_FLOAT, DL_FORMAT_SCALAR, 4, (void *) _angle);
1328:/home/lsk/paparazzi/var/include/messages.h **** 	  trans->put_bytes(trans->impl, dev, DL_TYPE_FLOAT, DL_FORMAT_SCALAR, 4, (void *) _last_block);
1329:/home/lsk/paparazzi/var/include/messages.h **** 	  trans->put_bytes(trans->impl, dev, DL_TYPE_UINT16, DL_FORMAT_SCALAR, 2, (void *) _count);
1330:/home/lsk/paparazzi/var/include/messages.h **** 	  trans->put_bytes(trans->impl, dev, DL_TYPE_UINT8, DL_FORMAT_SCALAR, 1, (void *) _shutter);
1331:/home/lsk/paparazzi/var/include/messages.h **** 	  trans->end_message(trans->impl, dev);
1332:/home/lsk/paparazzi/var/include/messages.h **** 	} else
1333:/home/lsk/paparazzi/var/include/messages.h **** 	  trans->overrun(trans->impl, dev);
1334:/home/lsk/paparazzi/var/include/messages.h **** }
1335:/home/lsk/paparazzi/var/include/messages.h **** 
1336:/home/lsk/paparazzi/var/include/messages.h **** #define DOWNLINK_SEND_AMSYS_BARO(_trans, _dev, pBaroRaw, pBaro, pHomePressure, AltOffset, aktuell, 
1337:/home/lsk/paparazzi/var/include/messages.h **** static inline void pprz_msg_send_AMSYS_BARO(struct transport_tx *trans, struct link_device *dev, ui
1338:/home/lsk/paparazzi/var/include/messages.h **** 	if (trans->check_available_space(trans->impl, dev, trans->size_of(trans->impl, 0+2+4+4+4+4+4+4 +2 
1339:/home/lsk/paparazzi/var/include/messages.h **** 	  trans->count_bytes(trans->impl, dev, trans->size_of(trans->impl, 0+2+4+4+4+4+4+4 +2 /* msg heade
1340:/home/lsk/paparazzi/var/include/messages.h **** 	  trans->start_message(trans->impl, dev, 0+2+4+4+4+4+4+4 +2 /* msg header overhead */);
1341:/home/lsk/paparazzi/var/include/messages.h **** 	  trans->put_bytes(trans->impl, dev, DL_TYPE_UINT8, DL_FORMAT_SCALAR, 1, &ac_id);
1342:/home/lsk/paparazzi/var/include/messages.h **** 	  trans->put_named_byte(trans->impl, dev, DL_TYPE_UINT8, DL_FORMAT_SCALAR, DL_AMSYS_BARO, "AMSYS_B
1343:/home/lsk/paparazzi/var/include/messages.h **** 	  trans->put_bytes(trans->impl, dev, DL_TYPE_UINT16, DL_FORMAT_SCALAR, 2, (void *) _pBaroRaw);
1344:/home/lsk/paparazzi/var/include/messages.h **** 	  trans->put_bytes(trans->impl, dev, DL_TYPE_FLOAT, DL_FORMAT_SCALAR, 4, (void *) _pBaro);
1345:/home/lsk/paparazzi/var/include/messages.h **** 	  trans->put_bytes(trans->impl, dev, DL_TYPE_FLOAT, DL_FORMAT_SCALAR, 4, (void *) _pHomePressure);
1346:/home/lsk/paparazzi/var/include/messages.h **** 	  trans->put_bytes(trans->impl, dev, DL_TYPE_FLOAT, DL_FORMAT_SCALAR, 4, (void *) _AltOffset);
1347:/home/lsk/paparazzi/var/include/messages.h **** 	  trans->put_bytes(trans->impl, dev, DL_TYPE_FLOAT, DL_FORMAT_SCALAR, 4, (void *) _aktuell);
1348:/home/lsk/paparazzi/var/include/messages.h **** 	  trans->put_bytes(trans->impl, dev, DL_TYPE_FLOAT, DL_FORMAT_SCALAR, 4, (void *) _Over_Ground);
1349:/home/lsk/paparazzi/var/include/messages.h **** 	  trans->put_bytes(trans->impl, dev, DL_TYPE_FLOAT, DL_FORMAT_SCALAR, 4, (void *) _tempBaro);
1350:/home/lsk/paparazzi/var/include/messages.h **** 	  trans->end_message(trans->impl, dev);
1351:/home/lsk/paparazzi/var/include/messages.h **** 	} else
1352:/home/lsk/paparazzi/var/include/messages.h **** 	  trans->overrun(trans->impl, dev);
1353:/home/lsk/paparazzi/var/include/messages.h **** }
1354:/home/lsk/paparazzi/var/include/messages.h **** 
1355:/home/lsk/paparazzi/var/include/messages.h **** #define DOWNLINK_SEND_AMSYS_AIRSPEED(_trans, _dev, asRaw, asPresure, asAirspeed, asAirsFilt, asTemp
1356:/home/lsk/paparazzi/var/include/messages.h **** static inline void pprz_msg_send_AMSYS_AIRSPEED(struct transport_tx *trans, struct link_device *dev
1357:/home/lsk/paparazzi/var/include/messages.h **** 	if (trans->check_available_space(trans->impl, dev, trans->size_of(trans->impl, 0+2+4+4+4+4 +2 /* m
1358:/home/lsk/paparazzi/var/include/messages.h **** 	  trans->count_bytes(trans->impl, dev, trans->size_of(trans->impl, 0+2+4+4+4+4 +2 /* msg header ov
1359:/home/lsk/paparazzi/var/include/messages.h **** 	  trans->start_message(trans->impl, dev, 0+2+4+4+4+4 +2 /* msg header overhead */);
1360:/home/lsk/paparazzi/var/include/messages.h **** 	  trans->put_bytes(trans->impl, dev, DL_TYPE_UINT8, DL_FORMAT_SCALAR, 1, &ac_id);
1361:/home/lsk/paparazzi/var/include/messages.h **** 	  trans->put_named_byte(trans->impl, dev, DL_TYPE_UINT8, DL_FORMAT_SCALAR, DL_AMSYS_AIRSPEED, "AMS
1362:/home/lsk/paparazzi/var/include/messages.h **** 	  trans->put_bytes(trans->impl, dev, DL_TYPE_UINT16, DL_FORMAT_SCALAR, 2, (void *) _asRaw);
1363:/home/lsk/paparazzi/var/include/messages.h **** 	  trans->put_bytes(trans->impl, dev, DL_TYPE_FLOAT, DL_FORMAT_SCALAR, 4, (void *) _asPresure);
1364:/home/lsk/paparazzi/var/include/messages.h **** 	  trans->put_bytes(trans->impl, dev, DL_TYPE_FLOAT, DL_FORMAT_SCALAR, 4, (void *) _asAirspeed);
1365:/home/lsk/paparazzi/var/include/messages.h **** 	  trans->put_bytes(trans->impl, dev, DL_TYPE_FLOAT, DL_FORMAT_SCALAR, 4, (void *) _asAirsFilt);
1366:/home/lsk/paparazzi/var/include/messages.h **** 	  trans->put_bytes(trans->impl, dev, DL_TYPE_FLOAT, DL_FORMAT_SCALAR, 4, (void *) _asTemp);
1367:/home/lsk/paparazzi/var/include/messages.h **** 	  trans->end_message(trans->impl, dev);
1368:/home/lsk/paparazzi/var/include/messages.h **** 	} else
1369:/home/lsk/paparazzi/var/include/messages.h **** 	  trans->overrun(trans->impl, dev);
1370:/home/lsk/paparazzi/var/include/messages.h **** }
1371:/home/lsk/paparazzi/var/include/messages.h **** 
1372:/home/lsk/paparazzi/var/include/messages.h **** #define DOWNLINK_SEND_FLIGHT_BENCHMARK(_trans, _dev, SE_As, SE_Alt, SE_Pos, Err_As, Err_Alt, Err_Po
1373:/home/lsk/paparazzi/var/include/messages.h **** static inline void pprz_msg_send_FLIGHT_BENCHMARK(struct transport_tx *trans, struct link_device *d
1374:/home/lsk/paparazzi/var/include/messages.h **** 	if (trans->check_available_space(trans->impl, dev, trans->size_of(trans->impl, 0+4+4+4+4+4+4 +2 /*
1375:/home/lsk/paparazzi/var/include/messages.h **** 	  trans->count_bytes(trans->impl, dev, trans->size_of(trans->impl, 0+4+4+4+4+4+4 +2 /* msg header 
1376:/home/lsk/paparazzi/var/include/messages.h **** 	  trans->start_message(trans->impl, dev, 0+4+4+4+4+4+4 +2 /* msg header overhead */);
1377:/home/lsk/paparazzi/var/include/messages.h **** 	  trans->put_bytes(trans->impl, dev, DL_TYPE_UINT8, DL_FORMAT_SCALAR, 1, &ac_id);
1378:/home/lsk/paparazzi/var/include/messages.h **** 	  trans->put_named_byte(trans->impl, dev, DL_TYPE_UINT8, DL_FORMAT_SCALAR, DL_FLIGHT_BENCHMARK, "F
1379:/home/lsk/paparazzi/var/include/messages.h **** 	  trans->put_bytes(trans->impl, dev, DL_TYPE_FLOAT, DL_FORMAT_SCALAR, 4, (void *) _SE_As);
1380:/home/lsk/paparazzi/var/include/messages.h **** 	  trans->put_bytes(trans->impl, dev, DL_TYPE_FLOAT, DL_FORMAT_SCALAR, 4, (void *) _SE_Alt);
1381:/home/lsk/paparazzi/var/include/messages.h **** 	  trans->put_bytes(trans->impl, dev, DL_TYPE_FLOAT, DL_FORMAT_SCALAR, 4, (void *) _SE_Pos);
1382:/home/lsk/paparazzi/var/include/messages.h **** 	  trans->put_bytes(trans->impl, dev, DL_TYPE_FLOAT, DL_FORMAT_SCALAR, 4, (void *) _Err_As);
1383:/home/lsk/paparazzi/var/include/messages.h **** 	  trans->put_bytes(trans->impl, dev, DL_TYPE_FLOAT, DL_FORMAT_SCALAR, 4, (void *) _Err_Alt);
1384:/home/lsk/paparazzi/var/include/messages.h **** 	  trans->put_bytes(trans->impl, dev, DL_TYPE_FLOAT, DL_FORMAT_SCALAR, 4, (void *) _Err_Pos);
1385:/home/lsk/paparazzi/var/include/messages.h **** 	  trans->end_message(trans->impl, dev);
1386:/home/lsk/paparazzi/var/include/messages.h **** 	} else
1387:/home/lsk/paparazzi/var/include/messages.h **** 	  trans->overrun(trans->impl, dev);
1388:/home/lsk/paparazzi/var/include/messages.h **** }
1389:/home/lsk/paparazzi/var/include/messages.h **** 
1390:/home/lsk/paparazzi/var/include/messages.h **** #define DOWNLINK_SEND_MPL3115_BARO(_trans, _dev, pressure, temp, alt) pprz_msg_send_MPL3115_BARO(&(
1391:/home/lsk/paparazzi/var/include/messages.h **** static inline void pprz_msg_send_MPL3115_BARO(struct transport_tx *trans, struct link_device *dev, 
1392:/home/lsk/paparazzi/var/include/messages.h **** 	if (trans->check_available_space(trans->impl, dev, trans->size_of(trans->impl, 0+4+2+4 +2 /* msg h
1393:/home/lsk/paparazzi/var/include/messages.h **** 	  trans->count_bytes(trans->impl, dev, trans->size_of(trans->impl, 0+4+2+4 +2 /* msg header overhe
1394:/home/lsk/paparazzi/var/include/messages.h **** 	  trans->start_message(trans->impl, dev, 0+4+2+4 +2 /* msg header overhead */);
1395:/home/lsk/paparazzi/var/include/messages.h **** 	  trans->put_bytes(trans->impl, dev, DL_TYPE_UINT8, DL_FORMAT_SCALAR, 1, &ac_id);
1396:/home/lsk/paparazzi/var/include/messages.h **** 	  trans->put_named_byte(trans->impl, dev, DL_TYPE_UINT8, DL_FORMAT_SCALAR, DL_MPL3115_BARO, "MPL31
1397:/home/lsk/paparazzi/var/include/messages.h **** 	  trans->put_bytes(trans->impl, dev, DL_TYPE_UINT32, DL_FORMAT_SCALAR, 4, (void *) _pressure);
1398:/home/lsk/paparazzi/var/include/messages.h **** 	  trans->put_bytes(trans->impl, dev, DL_TYPE_INT16, DL_FORMAT_SCALAR, 2, (void *) _temp);
1399:/home/lsk/paparazzi/var/include/messages.h **** 	  trans->put_bytes(trans->impl, dev, DL_TYPE_FLOAT, DL_FORMAT_SCALAR, 4, (void *) _alt);
1400:/home/lsk/paparazzi/var/include/messages.h **** 	  trans->end_message(trans->impl, dev);
1401:/home/lsk/paparazzi/var/include/messages.h **** 	} else
1402:/home/lsk/paparazzi/var/include/messages.h **** 	  trans->overrun(trans->impl, dev);
1403:/home/lsk/paparazzi/var/include/messages.h **** }
1404:/home/lsk/paparazzi/var/include/messages.h **** 
1405:/home/lsk/paparazzi/var/include/messages.h **** #define DOWNLINK_SEND_AOA_ADC(_trans, _dev, adcVal, AOA) pprz_msg_send_AOA_ADC(&((_trans).trans_tx)
1406:/home/lsk/paparazzi/var/include/messages.h **** static inline void pprz_msg_send_AOA_ADC(struct transport_tx *trans, struct link_device *dev, uint8
1407:/home/lsk/paparazzi/var/include/messages.h **** 	if (trans->check_available_space(trans->impl, dev, trans->size_of(trans->impl, 0+2+4 +2 /* msg hea
1408:/home/lsk/paparazzi/var/include/messages.h **** 	  trans->count_bytes(trans->impl, dev, trans->size_of(trans->impl, 0+2+4 +2 /* msg header overhead
1409:/home/lsk/paparazzi/var/include/messages.h **** 	  trans->start_message(trans->impl, dev, 0+2+4 +2 /* msg header overhead */);
1410:/home/lsk/paparazzi/var/include/messages.h **** 	  trans->put_bytes(trans->impl, dev, DL_TYPE_UINT8, DL_FORMAT_SCALAR, 1, &ac_id);
1411:/home/lsk/paparazzi/var/include/messages.h **** 	  trans->put_named_byte(trans->impl, dev, DL_TYPE_UINT8, DL_FORMAT_SCALAR, DL_AOA_ADC, "AOA_ADC");
1412:/home/lsk/paparazzi/var/include/messages.h **** 	  trans->put_bytes(trans->impl, dev, DL_TYPE_UINT16, DL_FORMAT_SCALAR, 2, (void *) _adcVal);
1413:/home/lsk/paparazzi/var/include/messages.h **** 	  trans->put_bytes(trans->impl, dev, DL_TYPE_FLOAT, DL_FORMAT_SCALAR, 4, (void *) _AOA);
1414:/home/lsk/paparazzi/var/include/messages.h **** 	  trans->end_message(trans->impl, dev);
1415:/home/lsk/paparazzi/var/include/messages.h **** 	} else
1416:/home/lsk/paparazzi/var/include/messages.h **** 	  trans->overrun(trans->impl, dev);
1417:/home/lsk/paparazzi/var/include/messages.h **** }
1418:/home/lsk/paparazzi/var/include/messages.h **** 
1419:/home/lsk/paparazzi/var/include/messages.h **** #define DOWNLINK_SEND_XTEND_RSSI(_trans, _dev, datalink_time, rssi_fade_margin, duty) pprz_msg_send
1420:/home/lsk/paparazzi/var/include/messages.h **** static inline void pprz_msg_send_XTEND_RSSI(struct transport_tx *trans, struct link_device *dev, ui
1421:/home/lsk/paparazzi/var/include/messages.h **** 	if (trans->check_available_space(trans->impl, dev, trans->size_of(trans->impl, 0+2+1+1 +2 /* msg h
1422:/home/lsk/paparazzi/var/include/messages.h **** 	  trans->count_bytes(trans->impl, dev, trans->size_of(trans->impl, 0+2+1+1 +2 /* msg header overhe
1423:/home/lsk/paparazzi/var/include/messages.h **** 	  trans->start_message(trans->impl, dev, 0+2+1+1 +2 /* msg header overhead */);
1424:/home/lsk/paparazzi/var/include/messages.h **** 	  trans->put_bytes(trans->impl, dev, DL_TYPE_UINT8, DL_FORMAT_SCALAR, 1, &ac_id);
1425:/home/lsk/paparazzi/var/include/messages.h **** 	  trans->put_named_byte(trans->impl, dev, DL_TYPE_UINT8, DL_FORMAT_SCALAR, DL_XTEND_RSSI, "XTEND_R
1426:/home/lsk/paparazzi/var/include/messages.h **** 	  trans->put_bytes(trans->impl, dev, DL_TYPE_UINT16, DL_FORMAT_SCALAR, 2, (void *) _datalink_time)
1427:/home/lsk/paparazzi/var/include/messages.h **** 	  trans->put_bytes(trans->impl, dev, DL_TYPE_UINT8, DL_FORMAT_SCALAR, 1, (void *) _rssi_fade_margi
1428:/home/lsk/paparazzi/var/include/messages.h **** 	  trans->put_bytes(trans->impl, dev, DL_TYPE_UINT8, DL_FORMAT_SCALAR, 1, (void *) _duty);
1429:/home/lsk/paparazzi/var/include/messages.h **** 	  trans->end_message(trans->impl, dev);
1430:/home/lsk/paparazzi/var/include/messages.h **** 	} else
1431:/home/lsk/paparazzi/var/include/messages.h **** 	  trans->overrun(trans->impl, dev);
1432:/home/lsk/paparazzi/var/include/messages.h **** }
1433:/home/lsk/paparazzi/var/include/messages.h **** 
1434:/home/lsk/paparazzi/var/include/messages.h **** #define DOWNLINK_SEND_SUPERBITRF(_trans, _dev, status, cyrf_status, irq_count, rx_packet_count, tx_
1435:/home/lsk/paparazzi/var/include/messages.h **** static inline void pprz_msg_send_SUPERBITRF(struct transport_tx *trans, struct link_device *dev, ui
1436:/home/lsk/paparazzi/var/include/messages.h **** 	if (trans->check_available_space(trans->impl, dev, trans->size_of(trans->impl, 0+1+1+4+4+4+4+4+4+4
1437:/home/lsk/paparazzi/var/include/messages.h **** 	  trans->count_bytes(trans->impl, dev, trans->size_of(trans->impl, 0+1+1+4+4+4+4+4+4+4+4+4+4+1+nb_
1438:/home/lsk/paparazzi/var/include/messages.h **** 	  trans->start_message(trans->impl, dev, 0+1+1+4+4+4+4+4+4+4+4+4+4+1+nb_mfg_id*1 +2 /* msg header 
1439:/home/lsk/paparazzi/var/include/messages.h **** 	  trans->put_bytes(trans->impl, dev, DL_TYPE_UINT8, DL_FORMAT_SCALAR, 1, &ac_id);
1440:/home/lsk/paparazzi/var/include/messages.h **** 	  trans->put_named_byte(trans->impl, dev, DL_TYPE_UINT8, DL_FORMAT_SCALAR, DL_SUPERBITRF, "SUPERBI
1441:/home/lsk/paparazzi/var/include/messages.h **** 	  trans->put_bytes(trans->impl, dev, DL_TYPE_UINT8, DL_FORMAT_SCALAR, 1, (void *) _status);
1442:/home/lsk/paparazzi/var/include/messages.h **** 	  trans->put_bytes(trans->impl, dev, DL_TYPE_UINT8, DL_FORMAT_SCALAR, 1, (void *) _cyrf_status);
1443:/home/lsk/paparazzi/var/include/messages.h **** 	  trans->put_bytes(trans->impl, dev, DL_TYPE_UINT32, DL_FORMAT_SCALAR, 4, (void *) _irq_count);
1444:/home/lsk/paparazzi/var/include/messages.h **** 	  trans->put_bytes(trans->impl, dev, DL_TYPE_UINT32, DL_FORMAT_SCALAR, 4, (void *) _rx_packet_coun
1445:/home/lsk/paparazzi/var/include/messages.h **** 	  trans->put_bytes(trans->impl, dev, DL_TYPE_UINT32, DL_FORMAT_SCALAR, 4, (void *) _tx_packet_coun
1446:/home/lsk/paparazzi/var/include/messages.h **** 	  trans->put_bytes(trans->impl, dev, DL_TYPE_UINT32, DL_FORMAT_SCALAR, 4, (void *) _transfer_timeo
1447:/home/lsk/paparazzi/var/include/messages.h **** 	  trans->put_bytes(trans->impl, dev, DL_TYPE_UINT32, DL_FORMAT_SCALAR, 4, (void *) _resync_count);
1448:/home/lsk/paparazzi/var/include/messages.h **** 	  trans->put_bytes(trans->impl, dev, DL_TYPE_UINT32, DL_FORMAT_SCALAR, 4, (void *) _uplink_count);
1449:/home/lsk/paparazzi/var/include/messages.h **** 	  trans->put_bytes(trans->impl, dev, DL_TYPE_UINT32, DL_FORMAT_SCALAR, 4, (void *) _rc_count);
1450:/home/lsk/paparazzi/var/include/messages.h **** 	  trans->put_bytes(trans->impl, dev, DL_TYPE_UINT32, DL_FORMAT_SCALAR, 4, (void *) _timing1);
1451:/home/lsk/paparazzi/var/include/messages.h **** 	  trans->put_bytes(trans->impl, dev, DL_TYPE_UINT32, DL_FORMAT_SCALAR, 4, (void *) _timing2);
1452:/home/lsk/paparazzi/var/include/messages.h **** 	  trans->put_bytes(trans->impl, dev, DL_TYPE_UINT32, DL_FORMAT_SCALAR, 4, (void *) _bind_mfg_id);
1453:/home/lsk/paparazzi/var/include/messages.h **** 	  trans->put_bytes(trans->impl, dev, DL_TYPE_ARRAY_LENGTH, DL_FORMAT_SCALAR, 1, (void *) &nb_mfg_i
1454:/home/lsk/paparazzi/var/include/messages.h **** 	  trans->put_bytes(trans->impl, dev, DL_TYPE_UINT8, DL_FORMAT_ARRAY, 1 * nb_mfg_id, (void *) _mfg_
1455:/home/lsk/paparazzi/var/include/messages.h **** 	  trans->end_message(trans->impl, dev);
1456:/home/lsk/paparazzi/var/include/messages.h **** 	} else
1457:/home/lsk/paparazzi/var/include/messages.h **** 	  trans->overrun(trans->impl, dev);
1458:/home/lsk/paparazzi/var/include/messages.h **** }
1459:/home/lsk/paparazzi/var/include/messages.h **** 
1460:/home/lsk/paparazzi/var/include/messages.h **** #define DOWNLINK_SEND_GX3_INFO(_trans, _dev, GX3_freq, chksm_error, hdr_error, GX3_chksm) pprz_msg_
1461:/home/lsk/paparazzi/var/include/messages.h **** static inline void pprz_msg_send_GX3_INFO(struct transport_tx *trans, struct link_device *dev, uint
1462:/home/lsk/paparazzi/var/include/messages.h **** 	if (trans->check_available_space(trans->impl, dev, trans->size_of(trans->impl, 0+4+4+4+2 +2 /* msg
1463:/home/lsk/paparazzi/var/include/messages.h **** 	  trans->count_bytes(trans->impl, dev, trans->size_of(trans->impl, 0+4+4+4+2 +2 /* msg header over
1464:/home/lsk/paparazzi/var/include/messages.h **** 	  trans->start_message(trans->impl, dev, 0+4+4+4+2 +2 /* msg header overhead */);
1465:/home/lsk/paparazzi/var/include/messages.h **** 	  trans->put_bytes(trans->impl, dev, DL_TYPE_UINT8, DL_FORMAT_SCALAR, 1, &ac_id);
1466:/home/lsk/paparazzi/var/include/messages.h **** 	  trans->put_named_byte(trans->impl, dev, DL_TYPE_UINT8, DL_FORMAT_SCALAR, DL_GX3_INFO, "GX3_INFO"
1467:/home/lsk/paparazzi/var/include/messages.h **** 	  trans->put_bytes(trans->impl, dev, DL_TYPE_FLOAT, DL_FORMAT_SCALAR, 4, (void *) _GX3_freq);
1468:/home/lsk/paparazzi/var/include/messages.h **** 	  trans->put_bytes(trans->impl, dev, DL_TYPE_UINT32, DL_FORMAT_SCALAR, 4, (void *) _chksm_error);
1469:/home/lsk/paparazzi/var/include/messages.h **** 	  trans->put_bytes(trans->impl, dev, DL_TYPE_UINT32, DL_FORMAT_SCALAR, 4, (void *) _hdr_error);
1470:/home/lsk/paparazzi/var/include/messages.h **** 	  trans->put_bytes(trans->impl, dev, DL_TYPE_UINT16, DL_FORMAT_SCALAR, 2, (void *) _GX3_chksm);
1471:/home/lsk/paparazzi/var/include/messages.h **** 	  trans->end_message(trans->impl, dev);
1472:/home/lsk/paparazzi/var/include/messages.h **** 	} else
1473:/home/lsk/paparazzi/var/include/messages.h **** 	  trans->overrun(trans->impl, dev);
1474:/home/lsk/paparazzi/var/include/messages.h **** }
1475:/home/lsk/paparazzi/var/include/messages.h **** 
1476:/home/lsk/paparazzi/var/include/messages.h **** #define DOWNLINK_SEND_EXPLAIN(_trans, _dev, type, id, nb_string, string) pprz_msg_send_EXPLAIN(&((_
1477:/home/lsk/paparazzi/var/include/messages.h **** static inline void pprz_msg_send_EXPLAIN(struct transport_tx *trans, struct link_device *dev, uint8
1478:/home/lsk/paparazzi/var/include/messages.h **** 	if (trans->check_available_space(trans->impl, dev, trans->size_of(trans->impl, 0+1+1+1+nb_string*1
1479:/home/lsk/paparazzi/var/include/messages.h **** 	  trans->count_bytes(trans->impl, dev, trans->size_of(trans->impl, 0+1+1+1+nb_string*1 +2 /* msg h
1480:/home/lsk/paparazzi/var/include/messages.h **** 	  trans->start_message(trans->impl, dev, 0+1+1+1+nb_string*1 +2 /* msg header overhead */);
1481:/home/lsk/paparazzi/var/include/messages.h **** 	  trans->put_bytes(trans->impl, dev, DL_TYPE_UINT8, DL_FORMAT_SCALAR, 1, &ac_id);
1482:/home/lsk/paparazzi/var/include/messages.h **** 	  trans->put_named_byte(trans->impl, dev, DL_TYPE_UINT8, DL_FORMAT_SCALAR, DL_EXPLAIN, "EXPLAIN");
1483:/home/lsk/paparazzi/var/include/messages.h **** 	  trans->put_bytes(trans->impl, dev, DL_TYPE_UINT8, DL_FORMAT_SCALAR, 1, (void *) _type);
1484:/home/lsk/paparazzi/var/include/messages.h **** 	  trans->put_bytes(trans->impl, dev, DL_TYPE_UINT8, DL_FORMAT_SCALAR, 1, (void *) _id);
1485:/home/lsk/paparazzi/var/include/messages.h **** 	  trans->put_bytes(trans->impl, dev, DL_TYPE_ARRAY_LENGTH, DL_FORMAT_SCALAR, 1, (void *) &nb_strin
1486:/home/lsk/paparazzi/var/include/messages.h **** 	  trans->put_bytes(trans->impl, dev, DL_TYPE_UINT8, DL_FORMAT_ARRAY, 1 * nb_string, (void *) _stri
1487:/home/lsk/paparazzi/var/include/messages.h **** 	  trans->end_message(trans->impl, dev);
1488:/home/lsk/paparazzi/var/include/messages.h **** 	} else
1489:/home/lsk/paparazzi/var/include/messages.h **** 	  trans->overrun(trans->impl, dev);
1490:/home/lsk/paparazzi/var/include/messages.h **** }
1491:/home/lsk/paparazzi/var/include/messages.h **** 
1492:/home/lsk/paparazzi/var/include/messages.h **** #define DOWNLINK_SEND_VIDEO_TELEMETRY(_trans, _dev, blob_x1, blob_y1, blob_x2, blob_y2, blob_x3, bl
1493:/home/lsk/paparazzi/var/include/messages.h **** static inline void pprz_msg_send_VIDEO_TELEMETRY(struct transport_tx *trans, struct link_device *de
1494:/home/lsk/paparazzi/var/include/messages.h **** 	if (trans->check_available_space(trans->impl, dev, trans->size_of(trans->impl, 0+4+4+4+4+4+4+4+4 +
1495:/home/lsk/paparazzi/var/include/messages.h **** 	  trans->count_bytes(trans->impl, dev, trans->size_of(trans->impl, 0+4+4+4+4+4+4+4+4 +2 /* msg hea
1496:/home/lsk/paparazzi/var/include/messages.h **** 	  trans->start_message(trans->impl, dev, 0+4+4+4+4+4+4+4+4 +2 /* msg header overhead */);
1497:/home/lsk/paparazzi/var/include/messages.h **** 	  trans->put_bytes(trans->impl, dev, DL_TYPE_UINT8, DL_FORMAT_SCALAR, 1, &ac_id);
1498:/home/lsk/paparazzi/var/include/messages.h **** 	  trans->put_named_byte(trans->impl, dev, DL_TYPE_UINT8, DL_FORMAT_SCALAR, DL_VIDEO_TELEMETRY, "VI
1499:/home/lsk/paparazzi/var/include/messages.h **** 	  trans->put_bytes(trans->impl, dev, DL_TYPE_INT32, DL_FORMAT_SCALAR, 4, (void *) _blob_x1);
1500:/home/lsk/paparazzi/var/include/messages.h **** 	  trans->put_bytes(trans->impl, dev, DL_TYPE_INT32, DL_FORMAT_SCALAR, 4, (void *) _blob_y1);
1501:/home/lsk/paparazzi/var/include/messages.h **** 	  trans->put_bytes(trans->impl, dev, DL_TYPE_INT32, DL_FORMAT_SCALAR, 4, (void *) _blob_x2);
1502:/home/lsk/paparazzi/var/include/messages.h **** 	  trans->put_bytes(trans->impl, dev, DL_TYPE_INT32, DL_FORMAT_SCALAR, 4, (void *) _blob_y2);
1503:/home/lsk/paparazzi/var/include/messages.h **** 	  trans->put_bytes(trans->impl, dev, DL_TYPE_INT32, DL_FORMAT_SCALAR, 4, (void *) _blob_x3);
1504:/home/lsk/paparazzi/var/include/messages.h **** 	  trans->put_bytes(trans->impl, dev, DL_TYPE_INT32, DL_FORMAT_SCALAR, 4, (void *) _blob_y3);
1505:/home/lsk/paparazzi/var/include/messages.h **** 	  trans->put_bytes(trans->impl, dev, DL_TYPE_INT32, DL_FORMAT_SCALAR, 4, (void *) _blob_x4);
1506:/home/lsk/paparazzi/var/include/messages.h **** 	  trans->put_bytes(trans->impl, dev, DL_TYPE_INT32, DL_FORMAT_SCALAR, 4, (void *) _blob_y4);
1507:/home/lsk/paparazzi/var/include/messages.h **** 	  trans->end_message(trans->impl, dev);
1508:/home/lsk/paparazzi/var/include/messages.h **** 	} else
1509:/home/lsk/paparazzi/var/include/messages.h **** 	  trans->overrun(trans->impl, dev);
1510:/home/lsk/paparazzi/var/include/messages.h **** }
1511:/home/lsk/paparazzi/var/include/messages.h **** 
1512:/home/lsk/paparazzi/var/include/messages.h **** #define DOWNLINK_SEND_VF_UPDATE(_trans, _dev, baro, range_meter) pprz_msg_send_VF_UPDATE(&((_trans)
1513:/home/lsk/paparazzi/var/include/messages.h **** static inline void pprz_msg_send_VF_UPDATE(struct transport_tx *trans, struct link_device *dev, uin
1514:/home/lsk/paparazzi/var/include/messages.h **** 	if (trans->check_available_space(trans->impl, dev, trans->size_of(trans->impl, 0+4+4 +2 /* msg hea
1515:/home/lsk/paparazzi/var/include/messages.h **** 	  trans->count_bytes(trans->impl, dev, trans->size_of(trans->impl, 0+4+4 +2 /* msg header overhead
1516:/home/lsk/paparazzi/var/include/messages.h **** 	  trans->start_message(trans->impl, dev, 0+4+4 +2 /* msg header overhead */);
1517:/home/lsk/paparazzi/var/include/messages.h **** 	  trans->put_bytes(trans->impl, dev, DL_TYPE_UINT8, DL_FORMAT_SCALAR, 1, &ac_id);
1518:/home/lsk/paparazzi/var/include/messages.h **** 	  trans->put_named_byte(trans->impl, dev, DL_TYPE_UINT8, DL_FORMAT_SCALAR, DL_VF_UPDATE, "VF_UPDAT
1519:/home/lsk/paparazzi/var/include/messages.h **** 	  trans->put_bytes(trans->impl, dev, DL_TYPE_FLOAT, DL_FORMAT_SCALAR, 4, (void *) _baro);
1520:/home/lsk/paparazzi/var/include/messages.h **** 	  trans->put_bytes(trans->impl, dev, DL_TYPE_FLOAT, DL_FORMAT_SCALAR, 4, (void *) _range_meter);
1521:/home/lsk/paparazzi/var/include/messages.h **** 	  trans->end_message(trans->impl, dev);
1522:/home/lsk/paparazzi/var/include/messages.h **** 	} else
1523:/home/lsk/paparazzi/var/include/messages.h **** 	  trans->overrun(trans->impl, dev);
1524:/home/lsk/paparazzi/var/include/messages.h **** }
1525:/home/lsk/paparazzi/var/include/messages.h **** 
1526:/home/lsk/paparazzi/var/include/messages.h **** #define DOWNLINK_SEND_VF_PREDICT(_trans, _dev, accel) pprz_msg_send_VF_PREDICT(&((_trans).trans_tx)
1527:/home/lsk/paparazzi/var/include/messages.h **** static inline void pprz_msg_send_VF_PREDICT(struct transport_tx *trans, struct link_device *dev, ui
1528:/home/lsk/paparazzi/var/include/messages.h **** 	if (trans->check_available_space(trans->impl, dev, trans->size_of(trans->impl, 0+4 +2 /* msg heade
1529:/home/lsk/paparazzi/var/include/messages.h **** 	  trans->count_bytes(trans->impl, dev, trans->size_of(trans->impl, 0+4 +2 /* msg header overhead *
1530:/home/lsk/paparazzi/var/include/messages.h **** 	  trans->start_message(trans->impl, dev, 0+4 +2 /* msg header overhead */);
1531:/home/lsk/paparazzi/var/include/messages.h **** 	  trans->put_bytes(trans->impl, dev, DL_TYPE_UINT8, DL_FORMAT_SCALAR, 1, &ac_id);
1532:/home/lsk/paparazzi/var/include/messages.h **** 	  trans->put_named_byte(trans->impl, dev, DL_TYPE_UINT8, DL_FORMAT_SCALAR, DL_VF_PREDICT, "VF_PRED
1533:/home/lsk/paparazzi/var/include/messages.h **** 	  trans->put_bytes(trans->impl, dev, DL_TYPE_FLOAT, DL_FORMAT_SCALAR, 4, (void *) _accel);
1534:/home/lsk/paparazzi/var/include/messages.h **** 	  trans->end_message(trans->impl, dev);
1535:/home/lsk/paparazzi/var/include/messages.h **** 	} else
1536:/home/lsk/paparazzi/var/include/messages.h **** 	  trans->overrun(trans->impl, dev);
1537:/home/lsk/paparazzi/var/include/messages.h **** }
1538:/home/lsk/paparazzi/var/include/messages.h **** 
1539:/home/lsk/paparazzi/var/include/messages.h **** #define DOWNLINK_SEND_INV_FILTER(_trans, _dev, quat, phi_inv, theta_inv, psi_inv, Vx_inv, Vy_inv, V
1540:/home/lsk/paparazzi/var/include/messages.h **** static inline void pprz_msg_send_INV_FILTER(struct transport_tx *trans, struct link_device *dev, ui
1541:/home/lsk/paparazzi/var/include/messages.h **** 	if (trans->check_available_space(trans->impl, dev, trans->size_of(trans->impl, 0+4+4+4+4+4+4+4+4+4
1542:/home/lsk/paparazzi/var/include/messages.h **** 	  trans->count_bytes(trans->impl, dev, trans->size_of(trans->impl, 0+4+4+4+4+4+4+4+4+4+4+4+4+4+4+4
1543:/home/lsk/paparazzi/var/include/messages.h **** 	  trans->start_message(trans->impl, dev, 0+4+4+4+4+4+4+4+4+4+4+4+4+4+4+4+4+4 +2 /* msg header over
1544:/home/lsk/paparazzi/var/include/messages.h **** 	  trans->put_bytes(trans->impl, dev, DL_TYPE_UINT8, DL_FORMAT_SCALAR, 1, &ac_id);
1545:/home/lsk/paparazzi/var/include/messages.h **** 	  trans->put_named_byte(trans->impl, dev, DL_TYPE_UINT8, DL_FORMAT_SCALAR, DL_INV_FILTER, "INV_FIL
1546:/home/lsk/paparazzi/var/include/messages.h **** 	  trans->put_bytes(trans->impl, dev, DL_TYPE_FLOAT, DL_FORMAT_SCALAR, 4, (void *) _quat);
1547:/home/lsk/paparazzi/var/include/messages.h **** 	  trans->put_bytes(trans->impl, dev, DL_TYPE_FLOAT, DL_FORMAT_SCALAR, 4, (void *) _phi_inv);
1548:/home/lsk/paparazzi/var/include/messages.h **** 	  trans->put_bytes(trans->impl, dev, DL_TYPE_FLOAT, DL_FORMAT_SCALAR, 4, (void *) _theta_inv);
1549:/home/lsk/paparazzi/var/include/messages.h **** 	  trans->put_bytes(trans->impl, dev, DL_TYPE_FLOAT, DL_FORMAT_SCALAR, 4, (void *) _psi_inv);
1550:/home/lsk/paparazzi/var/include/messages.h **** 	  trans->put_bytes(trans->impl, dev, DL_TYPE_FLOAT, DL_FORMAT_SCALAR, 4, (void *) _Vx_inv);
1551:/home/lsk/paparazzi/var/include/messages.h **** 	  trans->put_bytes(trans->impl, dev, DL_TYPE_FLOAT, DL_FORMAT_SCALAR, 4, (void *) _Vy_inv);
1552:/home/lsk/paparazzi/var/include/messages.h **** 	  trans->put_bytes(trans->impl, dev, DL_TYPE_FLOAT, DL_FORMAT_SCALAR, 4, (void *) _Vz_inv);
1553:/home/lsk/paparazzi/var/include/messages.h **** 	  trans->put_bytes(trans->impl, dev, DL_TYPE_FLOAT, DL_FORMAT_SCALAR, 4, (void *) _Px_inv);
1554:/home/lsk/paparazzi/var/include/messages.h **** 	  trans->put_bytes(trans->impl, dev, DL_TYPE_FLOAT, DL_FORMAT_SCALAR, 4, (void *) _Py_inv);
1555:/home/lsk/paparazzi/var/include/messages.h **** 	  trans->put_bytes(trans->impl, dev, DL_TYPE_FLOAT, DL_FORMAT_SCALAR, 4, (void *) _Pz_inv);
1556:/home/lsk/paparazzi/var/include/messages.h **** 	  trans->put_bytes(trans->impl, dev, DL_TYPE_FLOAT, DL_FORMAT_SCALAR, 4, (void *) _bias_phi);
1557:/home/lsk/paparazzi/var/include/messages.h **** 	  trans->put_bytes(trans->impl, dev, DL_TYPE_FLOAT, DL_FORMAT_SCALAR, 4, (void *) _bias_theta);
1558:/home/lsk/paparazzi/var/include/messages.h **** 	  trans->put_bytes(trans->impl, dev, DL_TYPE_FLOAT, DL_FORMAT_SCALAR, 4, (void *) _bias_psi);
1559:/home/lsk/paparazzi/var/include/messages.h **** 	  trans->put_bytes(trans->impl, dev, DL_TYPE_FLOAT, DL_FORMAT_SCALAR, 4, (void *) _bias_as);
1560:/home/lsk/paparazzi/var/include/messages.h **** 	  trans->put_bytes(trans->impl, dev, DL_TYPE_FLOAT, DL_FORMAT_SCALAR, 4, (void *) _bias_hb);
1561:/home/lsk/paparazzi/var/include/messages.h **** 	  trans->put_bytes(trans->impl, dev, DL_TYPE_FLOAT, DL_FORMAT_SCALAR, 4, (void *) _meas_baro);
1562:/home/lsk/paparazzi/var/include/messages.h **** 	  trans->put_bytes(trans->impl, dev, DL_TYPE_FLOAT, DL_FORMAT_SCALAR, 4, (void *) _meas_gps);
1563:/home/lsk/paparazzi/var/include/messages.h **** 	  trans->end_message(trans->impl, dev);
1564:/home/lsk/paparazzi/var/include/messages.h **** 	} else
1565:/home/lsk/paparazzi/var/include/messages.h **** 	  trans->overrun(trans->impl, dev);
1566:/home/lsk/paparazzi/var/include/messages.h **** }
1567:/home/lsk/paparazzi/var/include/messages.h **** 
1568:/home/lsk/paparazzi/var/include/messages.h **** #define DOWNLINK_SEND_MISSION_STATUS(_trans, _dev, remaining_time, nb_task_list, task_list) pprz_ms
1569:/home/lsk/paparazzi/var/include/messages.h **** static inline void pprz_msg_send_MISSION_STATUS(struct transport_tx *trans, struct link_device *dev
1570:/home/lsk/paparazzi/var/include/messages.h **** 	if (trans->check_available_space(trans->impl, dev, trans->size_of(trans->impl, 0+4+1+nb_task_list*
1571:/home/lsk/paparazzi/var/include/messages.h **** 	  trans->count_bytes(trans->impl, dev, trans->size_of(trans->impl, 0+4+1+nb_task_list*1 +2 /* msg 
1572:/home/lsk/paparazzi/var/include/messages.h **** 	  trans->start_message(trans->impl, dev, 0+4+1+nb_task_list*1 +2 /* msg header overhead */);
1573:/home/lsk/paparazzi/var/include/messages.h **** 	  trans->put_bytes(trans->impl, dev, DL_TYPE_UINT8, DL_FORMAT_SCALAR, 1, &ac_id);
1574:/home/lsk/paparazzi/var/include/messages.h **** 	  trans->put_named_byte(trans->impl, dev, DL_TYPE_UINT8, DL_FORMAT_SCALAR, DL_MISSION_STATUS, "MIS
1575:/home/lsk/paparazzi/var/include/messages.h **** 	  trans->put_bytes(trans->impl, dev, DL_TYPE_FLOAT, DL_FORMAT_SCALAR, 4, (void *) _remaining_time)
1576:/home/lsk/paparazzi/var/include/messages.h **** 	  trans->put_bytes(trans->impl, dev, DL_TYPE_ARRAY_LENGTH, DL_FORMAT_SCALAR, 1, (void *) &nb_task_
1577:/home/lsk/paparazzi/var/include/messages.h **** 	  trans->put_bytes(trans->impl, dev, DL_TYPE_UINT8, DL_FORMAT_ARRAY, 1 * nb_task_list, (void *) _t
1578:/home/lsk/paparazzi/var/include/messages.h **** 	  trans->end_message(trans->impl, dev);
1579:/home/lsk/paparazzi/var/include/messages.h **** 	} else
1580:/home/lsk/paparazzi/var/include/messages.h **** 	  trans->overrun(trans->impl, dev);
1581:/home/lsk/paparazzi/var/include/messages.h **** }
1582:/home/lsk/paparazzi/var/include/messages.h **** 
1583:/home/lsk/paparazzi/var/include/messages.h **** #define DOWNLINK_SEND_CROSS_TRACK_ERROR(_trans, _dev, cross_track_error, cte_int) pprz_msg_send_CRO
1584:/home/lsk/paparazzi/var/include/messages.h **** static inline void pprz_msg_send_CROSS_TRACK_ERROR(struct transport_tx *trans, struct link_device *
1585:/home/lsk/paparazzi/var/include/messages.h **** 	if (trans->check_available_space(trans->impl, dev, trans->size_of(trans->impl, 0+4+4 +2 /* msg hea
1586:/home/lsk/paparazzi/var/include/messages.h **** 	  trans->count_bytes(trans->impl, dev, trans->size_of(trans->impl, 0+4+4 +2 /* msg header overhead
1587:/home/lsk/paparazzi/var/include/messages.h **** 	  trans->start_message(trans->impl, dev, 0+4+4 +2 /* msg header overhead */);
1588:/home/lsk/paparazzi/var/include/messages.h **** 	  trans->put_bytes(trans->impl, dev, DL_TYPE_UINT8, DL_FORMAT_SCALAR, 1, &ac_id);
1589:/home/lsk/paparazzi/var/include/messages.h **** 	  trans->put_named_byte(trans->impl, dev, DL_TYPE_UINT8, DL_FORMAT_SCALAR, DL_CROSS_TRACK_ERROR, "
1590:/home/lsk/paparazzi/var/include/messages.h **** 	  trans->put_bytes(trans->impl, dev, DL_TYPE_FLOAT, DL_FORMAT_SCALAR, 4, (void *) _cross_track_err
1591:/home/lsk/paparazzi/var/include/messages.h **** 	  trans->put_bytes(trans->impl, dev, DL_TYPE_FLOAT, DL_FORMAT_SCALAR, 4, (void *) _cte_int);
1592:/home/lsk/paparazzi/var/include/messages.h **** 	  trans->end_message(trans->impl, dev);
1593:/home/lsk/paparazzi/var/include/messages.h **** 	} else
1594:/home/lsk/paparazzi/var/include/messages.h **** 	  trans->overrun(trans->impl, dev);
1595:/home/lsk/paparazzi/var/include/messages.h **** }
1596:/home/lsk/paparazzi/var/include/messages.h **** 
1597:/home/lsk/paparazzi/var/include/messages.h **** #define DOWNLINK_SEND_GENERIC_COM(_trans, _dev, lat, lon, alt, gspeed, course, airspeed, vsupply, e
1598:/home/lsk/paparazzi/var/include/messages.h **** static inline void pprz_msg_send_GENERIC_COM(struct transport_tx *trans, struct link_device *dev, u
1599:/home/lsk/paparazzi/var/include/messages.h **** 	if (trans->check_available_space(trans->impl, dev, trans->size_of(trans->impl, 0+4+4+2+2+2+2+1+1+1
1600:/home/lsk/paparazzi/var/include/messages.h **** 	  trans->count_bytes(trans->impl, dev, trans->size_of(trans->impl, 0+4+4+2+2+2+2+1+1+1+1+1+2 +2 /*
1601:/home/lsk/paparazzi/var/include/messages.h **** 	  trans->start_message(trans->impl, dev, 0+4+4+2+2+2+2+1+1+1+1+1+2 +2 /* msg header overhead */);
1602:/home/lsk/paparazzi/var/include/messages.h **** 	  trans->put_bytes(trans->impl, dev, DL_TYPE_UINT8, DL_FORMAT_SCALAR, 1, &ac_id);
1603:/home/lsk/paparazzi/var/include/messages.h **** 	  trans->put_named_byte(trans->impl, dev, DL_TYPE_UINT8, DL_FORMAT_SCALAR, DL_GENERIC_COM, "GENERI
1604:/home/lsk/paparazzi/var/include/messages.h **** 	  trans->put_bytes(trans->impl, dev, DL_TYPE_INT32, DL_FORMAT_SCALAR, 4, (void *) _lat);
1605:/home/lsk/paparazzi/var/include/messages.h **** 	  trans->put_bytes(trans->impl, dev, DL_TYPE_INT32, DL_FORMAT_SCALAR, 4, (void *) _lon);
1606:/home/lsk/paparazzi/var/include/messages.h **** 	  trans->put_bytes(trans->impl, dev, DL_TYPE_INT16, DL_FORMAT_SCALAR, 2, (void *) _alt);
1607:/home/lsk/paparazzi/var/include/messages.h **** 	  trans->put_bytes(trans->impl, dev, DL_TYPE_UINT16, DL_FORMAT_SCALAR, 2, (void *) _gspeed);
1608:/home/lsk/paparazzi/var/include/messages.h **** 	  trans->put_bytes(trans->impl, dev, DL_TYPE_INT16, DL_FORMAT_SCALAR, 2, (void *) _course);
1609:/home/lsk/paparazzi/var/include/messages.h **** 	  trans->put_bytes(trans->impl, dev, DL_TYPE_UINT16, DL_FORMAT_SCALAR, 2, (void *) _airspeed);
1610:/home/lsk/paparazzi/var/include/messages.h **** 	  trans->put_bytes(trans->impl, dev, DL_TYPE_UINT8, DL_FORMAT_SCALAR, 1, (void *) _vsupply);
1611:/home/lsk/paparazzi/var/include/messages.h **** 	  trans->put_bytes(trans->impl, dev, DL_TYPE_UINT8, DL_FORMAT_SCALAR, 1, (void *) _energy);
1612:/home/lsk/paparazzi/var/include/messages.h **** 	  trans->put_bytes(trans->impl, dev, DL_TYPE_UINT8, DL_FORMAT_SCALAR, 1, (void *) _throttle);
1613:/home/lsk/paparazzi/var/include/messages.h **** 	  trans->put_bytes(trans->impl, dev, DL_TYPE_UINT8, DL_FORMAT_SCALAR, 1, (void *) _ap_mode);
1614:/home/lsk/paparazzi/var/include/messages.h **** 	  trans->put_bytes(trans->impl, dev, DL_TYPE_UINT8, DL_FORMAT_SCALAR, 1, (void *) _nav_block);
1615:/home/lsk/paparazzi/var/include/messages.h **** 	  trans->put_bytes(trans->impl, dev, DL_TYPE_UINT16, DL_FORMAT_SCALAR, 2, (void *) _flight_time);
1616:/home/lsk/paparazzi/var/include/messages.h **** 	  trans->end_message(trans->impl, dev);
1617:/home/lsk/paparazzi/var/include/messages.h **** 	} else
1618:/home/lsk/paparazzi/var/include/messages.h **** 	  trans->overrun(trans->impl, dev);
1619:/home/lsk/paparazzi/var/include/messages.h **** }
1620:/home/lsk/paparazzi/var/include/messages.h **** 
1621:/home/lsk/paparazzi/var/include/messages.h **** #define DOWNLINK_SEND_FORMATION_SLOT_TM(_trans, _dev, ac_id, mode, slot_east, slot_north, slot_alt)
1622:/home/lsk/paparazzi/var/include/messages.h **** static inline void pprz_msg_send_FORMATION_SLOT_TM(struct transport_tx *trans, struct link_device *
1623:/home/lsk/paparazzi/var/include/messages.h **** 	if (trans->check_available_space(trans->impl, dev, trans->size_of(trans->impl, 0+1+1+4+4+4 +2 /* m
1624:/home/lsk/paparazzi/var/include/messages.h **** 	  trans->count_bytes(trans->impl, dev, trans->size_of(trans->impl, 0+1+1+4+4+4 +2 /* msg header ov
1625:/home/lsk/paparazzi/var/include/messages.h **** 	  trans->start_message(trans->impl, dev, 0+1+1+4+4+4 +2 /* msg header overhead */);
1626:/home/lsk/paparazzi/var/include/messages.h **** 	  trans->put_bytes(trans->impl, dev, DL_TYPE_UINT8, DL_FORMAT_SCALAR, 1, &ac_id);
1627:/home/lsk/paparazzi/var/include/messages.h **** 	  trans->put_named_byte(trans->impl, dev, DL_TYPE_UINT8, DL_FORMAT_SCALAR, DL_FORMATION_SLOT_TM, "
1628:/home/lsk/paparazzi/var/include/messages.h **** 	  trans->put_bytes(trans->impl, dev, DL_TYPE_UINT8, DL_FORMAT_SCALAR, 1, (void *) _ac_id);
1629:/home/lsk/paparazzi/var/include/messages.h **** 	  trans->put_bytes(trans->impl, dev, DL_TYPE_UINT8, DL_FORMAT_SCALAR, 1, (void *) _mode);
1630:/home/lsk/paparazzi/var/include/messages.h **** 	  trans->put_bytes(trans->impl, dev, DL_TYPE_FLOAT, DL_FORMAT_SCALAR, 4, (void *) _slot_east);
1631:/home/lsk/paparazzi/var/include/messages.h **** 	  trans->put_bytes(trans->impl, dev, DL_TYPE_FLOAT, DL_FORMAT_SCALAR, 4, (void *) _slot_north);
1632:/home/lsk/paparazzi/var/include/messages.h **** 	  trans->put_bytes(trans->impl, dev, DL_TYPE_FLOAT, DL_FORMAT_SCALAR, 4, (void *) _slot_alt);
1633:/home/lsk/paparazzi/var/include/messages.h **** 	  trans->end_message(trans->impl, dev);
1634:/home/lsk/paparazzi/var/include/messages.h **** 	} else
1635:/home/lsk/paparazzi/var/include/messages.h **** 	  trans->overrun(trans->impl, dev);
1636:/home/lsk/paparazzi/var/include/messages.h **** }
1637:/home/lsk/paparazzi/var/include/messages.h **** 
1638:/home/lsk/paparazzi/var/include/messages.h **** #define DOWNLINK_SEND_FORMATION_STATUS_TM(_trans, _dev, ac_id, leader_id, status) pprz_msg_send_FOR
1639:/home/lsk/paparazzi/var/include/messages.h **** static inline void pprz_msg_send_FORMATION_STATUS_TM(struct transport_tx *trans, struct link_device
1640:/home/lsk/paparazzi/var/include/messages.h **** 	if (trans->check_available_space(trans->impl, dev, trans->size_of(trans->impl, 0+1+1+1 +2 /* msg h
1641:/home/lsk/paparazzi/var/include/messages.h **** 	  trans->count_bytes(trans->impl, dev, trans->size_of(trans->impl, 0+1+1+1 +2 /* msg header overhe
1642:/home/lsk/paparazzi/var/include/messages.h **** 	  trans->start_message(trans->impl, dev, 0+1+1+1 +2 /* msg header overhead */);
1643:/home/lsk/paparazzi/var/include/messages.h **** 	  trans->put_bytes(trans->impl, dev, DL_TYPE_UINT8, DL_FORMAT_SCALAR, 1, &ac_id);
1644:/home/lsk/paparazzi/var/include/messages.h **** 	  trans->put_named_byte(trans->impl, dev, DL_TYPE_UINT8, DL_FORMAT_SCALAR, DL_FORMATION_STATUS_TM,
1645:/home/lsk/paparazzi/var/include/messages.h **** 	  trans->put_bytes(trans->impl, dev, DL_TYPE_UINT8, DL_FORMAT_SCALAR, 1, (void *) _ac_id);
1646:/home/lsk/paparazzi/var/include/messages.h **** 	  trans->put_bytes(trans->impl, dev, DL_TYPE_UINT8, DL_FORMAT_SCALAR, 1, (void *) _leader_id);
1647:/home/lsk/paparazzi/var/include/messages.h **** 	  trans->put_bytes(trans->impl, dev, DL_TYPE_UINT8, DL_FORMAT_SCALAR, 1, (void *) _status);
1648:/home/lsk/paparazzi/var/include/messages.h **** 	  trans->end_message(trans->impl, dev);
1649:/home/lsk/paparazzi/var/include/messages.h **** 	} else
1650:/home/lsk/paparazzi/var/include/messages.h **** 	  trans->overrun(trans->impl, dev);
1651:/home/lsk/paparazzi/var/include/messages.h **** }
1652:/home/lsk/paparazzi/var/include/messages.h **** 
1653:/home/lsk/paparazzi/var/include/messages.h **** #define DOWNLINK_SEND_BMP_STATUS(_trans, _dev, UP, UT, press, temp) pprz_msg_send_BMP_STATUS(&((_tr
1654:/home/lsk/paparazzi/var/include/messages.h **** static inline void pprz_msg_send_BMP_STATUS(struct transport_tx *trans, struct link_device *dev, ui
1655:/home/lsk/paparazzi/var/include/messages.h **** 	if (trans->check_available_space(trans->impl, dev, trans->size_of(trans->impl, 0+4+4+4+4 +2 /* msg
1656:/home/lsk/paparazzi/var/include/messages.h **** 	  trans->count_bytes(trans->impl, dev, trans->size_of(trans->impl, 0+4+4+4+4 +2 /* msg header over
1657:/home/lsk/paparazzi/var/include/messages.h **** 	  trans->start_message(trans->impl, dev, 0+4+4+4+4 +2 /* msg header overhead */);
1658:/home/lsk/paparazzi/var/include/messages.h **** 	  trans->put_bytes(trans->impl, dev, DL_TYPE_UINT8, DL_FORMAT_SCALAR, 1, &ac_id);
1659:/home/lsk/paparazzi/var/include/messages.h **** 	  trans->put_named_byte(trans->impl, dev, DL_TYPE_UINT8, DL_FORMAT_SCALAR, DL_BMP_STATUS, "BMP_STA
1660:/home/lsk/paparazzi/var/include/messages.h **** 	  trans->put_bytes(trans->impl, dev, DL_TYPE_INT32, DL_FORMAT_SCALAR, 4, (void *) _UP);
1661:/home/lsk/paparazzi/var/include/messages.h **** 	  trans->put_bytes(trans->impl, dev, DL_TYPE_INT32, DL_FORMAT_SCALAR, 4, (void *) _UT);
1662:/home/lsk/paparazzi/var/include/messages.h **** 	  trans->put_bytes(trans->impl, dev, DL_TYPE_INT32, DL_FORMAT_SCALAR, 4, (void *) _press);
1663:/home/lsk/paparazzi/var/include/messages.h **** 	  trans->put_bytes(trans->impl, dev, DL_TYPE_INT32, DL_FORMAT_SCALAR, 4, (void *) _temp);
1664:/home/lsk/paparazzi/var/include/messages.h **** 	  trans->end_message(trans->impl, dev);
1665:/home/lsk/paparazzi/var/include/messages.h **** 	} else
1666:/home/lsk/paparazzi/var/include/messages.h **** 	  trans->overrun(trans->impl, dev);
1667:/home/lsk/paparazzi/var/include/messages.h **** }
1668:/home/lsk/paparazzi/var/include/messages.h **** 
1669:/home/lsk/paparazzi/var/include/messages.h **** #define DOWNLINK_SEND_MLX_STATUS(_trans, _dev, itemp_case, temp_case, itemp_obj, temp_obj) pprz_msg
1670:/home/lsk/paparazzi/var/include/messages.h **** static inline void pprz_msg_send_MLX_STATUS(struct transport_tx *trans, struct link_device *dev, ui
1671:/home/lsk/paparazzi/var/include/messages.h **** 	if (trans->check_available_space(trans->impl, dev, trans->size_of(trans->impl, 0+2+4+2+4 +2 /* msg
1672:/home/lsk/paparazzi/var/include/messages.h **** 	  trans->count_bytes(trans->impl, dev, trans->size_of(trans->impl, 0+2+4+2+4 +2 /* msg header over
1673:/home/lsk/paparazzi/var/include/messages.h **** 	  trans->start_message(trans->impl, dev, 0+2+4+2+4 +2 /* msg header overhead */);
1674:/home/lsk/paparazzi/var/include/messages.h **** 	  trans->put_bytes(trans->impl, dev, DL_TYPE_UINT8, DL_FORMAT_SCALAR, 1, &ac_id);
1675:/home/lsk/paparazzi/var/include/messages.h **** 	  trans->put_named_byte(trans->impl, dev, DL_TYPE_UINT8, DL_FORMAT_SCALAR, DL_MLX_STATUS, "MLX_STA
1676:/home/lsk/paparazzi/var/include/messages.h **** 	  trans->put_bytes(trans->impl, dev, DL_TYPE_UINT16, DL_FORMAT_SCALAR, 2, (void *) _itemp_case);
1677:/home/lsk/paparazzi/var/include/messages.h **** 	  trans->put_bytes(trans->impl, dev, DL_TYPE_FLOAT, DL_FORMAT_SCALAR, 4, (void *) _temp_case);
1678:/home/lsk/paparazzi/var/include/messages.h **** 	  trans->put_bytes(trans->impl, dev, DL_TYPE_UINT16, DL_FORMAT_SCALAR, 2, (void *) _itemp_obj);
1679:/home/lsk/paparazzi/var/include/messages.h **** 	  trans->put_bytes(trans->impl, dev, DL_TYPE_FLOAT, DL_FORMAT_SCALAR, 4, (void *) _temp_obj);
1680:/home/lsk/paparazzi/var/include/messages.h **** 	  trans->end_message(trans->impl, dev);
1681:/home/lsk/paparazzi/var/include/messages.h **** 	} else
1682:/home/lsk/paparazzi/var/include/messages.h **** 	  trans->overrun(trans->impl, dev);
1683:/home/lsk/paparazzi/var/include/messages.h **** }
1684:/home/lsk/paparazzi/var/include/messages.h **** 
1685:/home/lsk/paparazzi/var/include/messages.h **** #define DOWNLINK_SEND_TMP_STATUS(_trans, _dev, itemp, temp) pprz_msg_send_TMP_STATUS(&((_trans).tra
1686:/home/lsk/paparazzi/var/include/messages.h **** static inline void pprz_msg_send_TMP_STATUS(struct transport_tx *trans, struct link_device *dev, ui
1687:/home/lsk/paparazzi/var/include/messages.h **** 	if (trans->check_available_space(trans->impl, dev, trans->size_of(trans->impl, 0+2+4 +2 /* msg hea
1688:/home/lsk/paparazzi/var/include/messages.h **** 	  trans->count_bytes(trans->impl, dev, trans->size_of(trans->impl, 0+2+4 +2 /* msg header overhead
1689:/home/lsk/paparazzi/var/include/messages.h **** 	  trans->start_message(trans->impl, dev, 0+2+4 +2 /* msg header overhead */);
1690:/home/lsk/paparazzi/var/include/messages.h **** 	  trans->put_bytes(trans->impl, dev, DL_TYPE_UINT8, DL_FORMAT_SCALAR, 1, &ac_id);
1691:/home/lsk/paparazzi/var/include/messages.h **** 	  trans->put_named_byte(trans->impl, dev, DL_TYPE_UINT8, DL_FORMAT_SCALAR, DL_TMP_STATUS, "TMP_STA
1692:/home/lsk/paparazzi/var/include/messages.h **** 	  trans->put_bytes(trans->impl, dev, DL_TYPE_UINT16, DL_FORMAT_SCALAR, 2, (void *) _itemp);
1693:/home/lsk/paparazzi/var/include/messages.h **** 	  trans->put_bytes(trans->impl, dev, DL_TYPE_FLOAT, DL_FORMAT_SCALAR, 4, (void *) _temp);
1694:/home/lsk/paparazzi/var/include/messages.h **** 	  trans->end_message(trans->impl, dev);
1695:/home/lsk/paparazzi/var/include/messages.h **** 	} else
1696:/home/lsk/paparazzi/var/include/messages.h **** 	  trans->overrun(trans->impl, dev);
1697:/home/lsk/paparazzi/var/include/messages.h **** }
1698:/home/lsk/paparazzi/var/include/messages.h **** 
1699:/home/lsk/paparazzi/var/include/messages.h **** #define DOWNLINK_SEND_WIND_INFO_RET(_trans, _dev, east, north, airspeed) pprz_msg_send_WIND_INFO_RE
1700:/home/lsk/paparazzi/var/include/messages.h **** static inline void pprz_msg_send_WIND_INFO_RET(struct transport_tx *trans, struct link_device *dev,
1701:/home/lsk/paparazzi/var/include/messages.h **** 	if (trans->check_available_space(trans->impl, dev, trans->size_of(trans->impl, 0+4+4+4 +2 /* msg h
1702:/home/lsk/paparazzi/var/include/messages.h **** 	  trans->count_bytes(trans->impl, dev, trans->size_of(trans->impl, 0+4+4+4 +2 /* msg header overhe
1703:/home/lsk/paparazzi/var/include/messages.h **** 	  trans->start_message(trans->impl, dev, 0+4+4+4 +2 /* msg header overhead */);
1704:/home/lsk/paparazzi/var/include/messages.h **** 	  trans->put_bytes(trans->impl, dev, DL_TYPE_UINT8, DL_FORMAT_SCALAR, 1, &ac_id);
1705:/home/lsk/paparazzi/var/include/messages.h **** 	  trans->put_named_byte(trans->impl, dev, DL_TYPE_UINT8, DL_FORMAT_SCALAR, DL_WIND_INFO_RET, "WIND
1706:/home/lsk/paparazzi/var/include/messages.h **** 	  trans->put_bytes(trans->impl, dev, DL_TYPE_FLOAT, DL_FORMAT_SCALAR, 4, (void *) _east);
1707:/home/lsk/paparazzi/var/include/messages.h **** 	  trans->put_bytes(trans->impl, dev, DL_TYPE_FLOAT, DL_FORMAT_SCALAR, 4, (void *) _north);
1708:/home/lsk/paparazzi/var/include/messages.h **** 	  trans->put_bytes(trans->impl, dev, DL_TYPE_FLOAT, DL_FORMAT_SCALAR, 4, (void *) _airspeed);
1709:/home/lsk/paparazzi/var/include/messages.h **** 	  trans->end_message(trans->impl, dev);
1710:/home/lsk/paparazzi/var/include/messages.h **** 	} else
1711:/home/lsk/paparazzi/var/include/messages.h **** 	  trans->overrun(trans->impl, dev);
1712:/home/lsk/paparazzi/var/include/messages.h **** }
1713:/home/lsk/paparazzi/var/include/messages.h **** 
1714:/home/lsk/paparazzi/var/include/messages.h **** #define DOWNLINK_SEND_SCP_STATUS(_trans, _dev, press, temp) pprz_msg_send_SCP_STATUS(&((_trans).tra
1715:/home/lsk/paparazzi/var/include/messages.h **** static inline void pprz_msg_send_SCP_STATUS(struct transport_tx *trans, struct link_device *dev, ui
1716:/home/lsk/paparazzi/var/include/messages.h **** 	if (trans->check_available_space(trans->impl, dev, trans->size_of(trans->impl, 0+4+2 +2 /* msg hea
1717:/home/lsk/paparazzi/var/include/messages.h **** 	  trans->count_bytes(trans->impl, dev, trans->size_of(trans->impl, 0+4+2 +2 /* msg header overhead
1718:/home/lsk/paparazzi/var/include/messages.h **** 	  trans->start_message(trans->impl, dev, 0+4+2 +2 /* msg header overhead */);
1719:/home/lsk/paparazzi/var/include/messages.h **** 	  trans->put_bytes(trans->impl, dev, DL_TYPE_UINT8, DL_FORMAT_SCALAR, 1, &ac_id);
1720:/home/lsk/paparazzi/var/include/messages.h **** 	  trans->put_named_byte(trans->impl, dev, DL_TYPE_UINT8, DL_FORMAT_SCALAR, DL_SCP_STATUS, "SCP_STA
1721:/home/lsk/paparazzi/var/include/messages.h **** 	  trans->put_bytes(trans->impl, dev, DL_TYPE_UINT32, DL_FORMAT_SCALAR, 4, (void *) _press);
1722:/home/lsk/paparazzi/var/include/messages.h **** 	  trans->put_bytes(trans->impl, dev, DL_TYPE_INT16, DL_FORMAT_SCALAR, 2, (void *) _temp);
1723:/home/lsk/paparazzi/var/include/messages.h **** 	  trans->end_message(trans->impl, dev);
1724:/home/lsk/paparazzi/var/include/messages.h **** 	} else
1725:/home/lsk/paparazzi/var/include/messages.h **** 	  trans->overrun(trans->impl, dev);
1726:/home/lsk/paparazzi/var/include/messages.h **** }
1727:/home/lsk/paparazzi/var/include/messages.h **** 
1728:/home/lsk/paparazzi/var/include/messages.h **** #define DOWNLINK_SEND_SHT_STATUS(_trans, _dev, ihumid, itemp, humid, temp) pprz_msg_send_SHT_STATUS
1729:/home/lsk/paparazzi/var/include/messages.h **** static inline void pprz_msg_send_SHT_STATUS(struct transport_tx *trans, struct link_device *dev, ui
1730:/home/lsk/paparazzi/var/include/messages.h **** 	if (trans->check_available_space(trans->impl, dev, trans->size_of(trans->impl, 0+2+2+4+4 +2 /* msg
1731:/home/lsk/paparazzi/var/include/messages.h **** 	  trans->count_bytes(trans->impl, dev, trans->size_of(trans->impl, 0+2+2+4+4 +2 /* msg header over
1732:/home/lsk/paparazzi/var/include/messages.h **** 	  trans->start_message(trans->impl, dev, 0+2+2+4+4 +2 /* msg header overhead */);
1733:/home/lsk/paparazzi/var/include/messages.h **** 	  trans->put_bytes(trans->impl, dev, DL_TYPE_UINT8, DL_FORMAT_SCALAR, 1, &ac_id);
1734:/home/lsk/paparazzi/var/include/messages.h **** 	  trans->put_named_byte(trans->impl, dev, DL_TYPE_UINT8, DL_FORMAT_SCALAR, DL_SHT_STATUS, "SHT_STA
1735:/home/lsk/paparazzi/var/include/messages.h **** 	  trans->put_bytes(trans->impl, dev, DL_TYPE_UINT16, DL_FORMAT_SCALAR, 2, (void *) _ihumid);
1736:/home/lsk/paparazzi/var/include/messages.h **** 	  trans->put_bytes(trans->impl, dev, DL_TYPE_UINT16, DL_FORMAT_SCALAR, 2, (void *) _itemp);
1737:/home/lsk/paparazzi/var/include/messages.h **** 	  trans->put_bytes(trans->impl, dev, DL_TYPE_FLOAT, DL_FORMAT_SCALAR, 4, (void *) _humid);
1738:/home/lsk/paparazzi/var/include/messages.h **** 	  trans->put_bytes(trans->impl, dev, DL_TYPE_FLOAT, DL_FORMAT_SCALAR, 4, (void *) _temp);
1739:/home/lsk/paparazzi/var/include/messages.h **** 	  trans->end_message(trans->impl, dev);
1740:/home/lsk/paparazzi/var/include/messages.h **** 	} else
1741:/home/lsk/paparazzi/var/include/messages.h **** 	  trans->overrun(trans->impl, dev);
1742:/home/lsk/paparazzi/var/include/messages.h **** }
1743:/home/lsk/paparazzi/var/include/messages.h **** 
1744:/home/lsk/paparazzi/var/include/messages.h **** #define DOWNLINK_SEND_ENOSE_STATUS(_trans, _dev, val1, val2, val3, PID, nb_heat, heat) pprz_msg_sen
1745:/home/lsk/paparazzi/var/include/messages.h **** static inline void pprz_msg_send_ENOSE_STATUS(struct transport_tx *trans, struct link_device *dev, 
1746:/home/lsk/paparazzi/var/include/messages.h **** 	if (trans->check_available_space(trans->impl, dev, trans->size_of(trans->impl, 0+2+2+2+2+1+nb_heat
1747:/home/lsk/paparazzi/var/include/messages.h **** 	  trans->count_bytes(trans->impl, dev, trans->size_of(trans->impl, 0+2+2+2+2+1+nb_heat*1 +2 /* msg
1748:/home/lsk/paparazzi/var/include/messages.h **** 	  trans->start_message(trans->impl, dev, 0+2+2+2+2+1+nb_heat*1 +2 /* msg header overhead */);
1749:/home/lsk/paparazzi/var/include/messages.h **** 	  trans->put_bytes(trans->impl, dev, DL_TYPE_UINT8, DL_FORMAT_SCALAR, 1, &ac_id);
1750:/home/lsk/paparazzi/var/include/messages.h **** 	  trans->put_named_byte(trans->impl, dev, DL_TYPE_UINT8, DL_FORMAT_SCALAR, DL_ENOSE_STATUS, "ENOSE
1751:/home/lsk/paparazzi/var/include/messages.h **** 	  trans->put_bytes(trans->impl, dev, DL_TYPE_UINT16, DL_FORMAT_SCALAR, 2, (void *) _val1);
1752:/home/lsk/paparazzi/var/include/messages.h **** 	  trans->put_bytes(trans->impl, dev, DL_TYPE_UINT16, DL_FORMAT_SCALAR, 2, (void *) _val2);
1753:/home/lsk/paparazzi/var/include/messages.h **** 	  trans->put_bytes(trans->impl, dev, DL_TYPE_UINT16, DL_FORMAT_SCALAR, 2, (void *) _val3);
1754:/home/lsk/paparazzi/var/include/messages.h **** 	  trans->put_bytes(trans->impl, dev, DL_TYPE_UINT16, DL_FORMAT_SCALAR, 2, (void *) _PID);
1755:/home/lsk/paparazzi/var/include/messages.h **** 	  trans->put_bytes(trans->impl, dev, DL_TYPE_ARRAY_LENGTH, DL_FORMAT_SCALAR, 1, (void *) &nb_heat)
1756:/home/lsk/paparazzi/var/include/messages.h **** 	  trans->put_bytes(trans->impl, dev, DL_TYPE_UINT8, DL_FORMAT_ARRAY, 1 * nb_heat, (void *) _heat);
1757:/home/lsk/paparazzi/var/include/messages.h **** 	  trans->end_message(trans->impl, dev);
1758:/home/lsk/paparazzi/var/include/messages.h **** 	} else
1759:/home/lsk/paparazzi/var/include/messages.h **** 	  trans->overrun(trans->impl, dev);
1760:/home/lsk/paparazzi/var/include/messages.h **** }
1761:/home/lsk/paparazzi/var/include/messages.h **** 
1762:/home/lsk/paparazzi/var/include/messages.h **** #define DOWNLINK_SEND_DPICCO_STATUS(_trans, _dev, humid, temp, fhumid, ftemp) pprz_msg_send_DPICCO_
1763:/home/lsk/paparazzi/var/include/messages.h **** static inline void pprz_msg_send_DPICCO_STATUS(struct transport_tx *trans, struct link_device *dev,
1764:/home/lsk/paparazzi/var/include/messages.h **** 	if (trans->check_available_space(trans->impl, dev, trans->size_of(trans->impl, 0+2+2+4+4 +2 /* msg
1765:/home/lsk/paparazzi/var/include/messages.h **** 	  trans->count_bytes(trans->impl, dev, trans->size_of(trans->impl, 0+2+2+4+4 +2 /* msg header over
1766:/home/lsk/paparazzi/var/include/messages.h **** 	  trans->start_message(trans->impl, dev, 0+2+2+4+4 +2 /* msg header overhead */);
1767:/home/lsk/paparazzi/var/include/messages.h **** 	  trans->put_bytes(trans->impl, dev, DL_TYPE_UINT8, DL_FORMAT_SCALAR, 1, &ac_id);
1768:/home/lsk/paparazzi/var/include/messages.h **** 	  trans->put_named_byte(trans->impl, dev, DL_TYPE_UINT8, DL_FORMAT_SCALAR, DL_DPICCO_STATUS, "DPIC
1769:/home/lsk/paparazzi/var/include/messages.h **** 	  trans->put_bytes(trans->impl, dev, DL_TYPE_UINT16, DL_FORMAT_SCALAR, 2, (void *) _humid);
1770:/home/lsk/paparazzi/var/include/messages.h **** 	  trans->put_bytes(trans->impl, dev, DL_TYPE_UINT16, DL_FORMAT_SCALAR, 2, (void *) _temp);
1771:/home/lsk/paparazzi/var/include/messages.h **** 	  trans->put_bytes(trans->impl, dev, DL_TYPE_FLOAT, DL_FORMAT_SCALAR, 4, (void *) _fhumid);
1772:/home/lsk/paparazzi/var/include/messages.h **** 	  trans->put_bytes(trans->impl, dev, DL_TYPE_FLOAT, DL_FORMAT_SCALAR, 4, (void *) _ftemp);
1773:/home/lsk/paparazzi/var/include/messages.h **** 	  trans->end_message(trans->impl, dev);
1774:/home/lsk/paparazzi/var/include/messages.h **** 	} else
1775:/home/lsk/paparazzi/var/include/messages.h **** 	  trans->overrun(trans->impl, dev);
1776:/home/lsk/paparazzi/var/include/messages.h **** }
1777:/home/lsk/paparazzi/var/include/messages.h **** 
1778:/home/lsk/paparazzi/var/include/messages.h **** #define DOWNLINK_SEND_ANTENNA_DEBUG(_trans, _dev, mag_xraw, mag_yraw, mag_xcal, mag_ycal, mag_headi
1779:/home/lsk/paparazzi/var/include/messages.h **** static inline void pprz_msg_send_ANTENNA_DEBUG(struct transport_tx *trans, struct link_device *dev,
1780:/home/lsk/paparazzi/var/include/messages.h **** 	if (trans->check_available_space(trans->impl, dev, trans->size_of(trans->impl, 0+4+4+4+4+4+4+4+1+1
1781:/home/lsk/paparazzi/var/include/messages.h **** 	  trans->count_bytes(trans->impl, dev, trans->size_of(trans->impl, 0+4+4+4+4+4+4+4+1+1 +2 /* msg h
1782:/home/lsk/paparazzi/var/include/messages.h **** 	  trans->start_message(trans->impl, dev, 0+4+4+4+4+4+4+4+1+1 +2 /* msg header overhead */);
1783:/home/lsk/paparazzi/var/include/messages.h **** 	  trans->put_bytes(trans->impl, dev, DL_TYPE_UINT8, DL_FORMAT_SCALAR, 1, &ac_id);
1784:/home/lsk/paparazzi/var/include/messages.h **** 	  trans->put_named_byte(trans->impl, dev, DL_TYPE_UINT8, DL_FORMAT_SCALAR, DL_ANTENNA_DEBUG, "ANTE
1785:/home/lsk/paparazzi/var/include/messages.h **** 	  trans->put_bytes(trans->impl, dev, DL_TYPE_INT32, DL_FORMAT_SCALAR, 4, (void *) _mag_xraw);
1786:/home/lsk/paparazzi/var/include/messages.h **** 	  trans->put_bytes(trans->impl, dev, DL_TYPE_INT32, DL_FORMAT_SCALAR, 4, (void *) _mag_yraw);
1787:/home/lsk/paparazzi/var/include/messages.h **** 	  trans->put_bytes(trans->impl, dev, DL_TYPE_FLOAT, DL_FORMAT_SCALAR, 4, (void *) _mag_xcal);
1788:/home/lsk/paparazzi/var/include/messages.h **** 	  trans->put_bytes(trans->impl, dev, DL_TYPE_FLOAT, DL_FORMAT_SCALAR, 4, (void *) _mag_ycal);
1789:/home/lsk/paparazzi/var/include/messages.h **** 	  trans->put_bytes(trans->impl, dev, DL_TYPE_FLOAT, DL_FORMAT_SCALAR, 4, (void *) _mag_heading);
1790:/home/lsk/paparazzi/var/include/messages.h **** 	  trans->put_bytes(trans->impl, dev, DL_TYPE_FLOAT, DL_FORMAT_SCALAR, 4, (void *) _mag_magnitude);
1791:/home/lsk/paparazzi/var/include/messages.h **** 	  trans->put_bytes(trans->impl, dev, DL_TYPE_FLOAT, DL_FORMAT_SCALAR, 4, (void *) _mag_temp);
1792:/home/lsk/paparazzi/var/include/messages.h **** 	  trans->put_bytes(trans->impl, dev, DL_TYPE_UINT8, DL_FORMAT_SCALAR, 1, (void *) _mag_distor);
1793:/home/lsk/paparazzi/var/include/messages.h **** 	  trans->put_bytes(trans->impl, dev, DL_TYPE_UINT8, DL_FORMAT_SCALAR, 1, (void *) _mag_cal_status)
1794:/home/lsk/paparazzi/var/include/messages.h **** 	  trans->end_message(trans->impl, dev);
1795:/home/lsk/paparazzi/var/include/messages.h **** 	} else
1796:/home/lsk/paparazzi/var/include/messages.h **** 	  trans->overrun(trans->impl, dev);
1797:/home/lsk/paparazzi/var/include/messages.h **** }
1798:/home/lsk/paparazzi/var/include/messages.h **** 
1799:/home/lsk/paparazzi/var/include/messages.h **** #define DOWNLINK_SEND_ANTENNA_STATUS(_trans, _dev, azim_sp, elev_sp, id_sp, mode) pprz_msg_send_ANT
1800:/home/lsk/paparazzi/var/include/messages.h **** static inline void pprz_msg_send_ANTENNA_STATUS(struct transport_tx *trans, struct link_device *dev
1801:/home/lsk/paparazzi/var/include/messages.h **** 	if (trans->check_available_space(trans->impl, dev, trans->size_of(trans->impl, 0+4+4+1+1 +2 /* msg
1802:/home/lsk/paparazzi/var/include/messages.h **** 	  trans->count_bytes(trans->impl, dev, trans->size_of(trans->impl, 0+4+4+1+1 +2 /* msg header over
1803:/home/lsk/paparazzi/var/include/messages.h **** 	  trans->start_message(trans->impl, dev, 0+4+4+1+1 +2 /* msg header overhead */);
1804:/home/lsk/paparazzi/var/include/messages.h **** 	  trans->put_bytes(trans->impl, dev, DL_TYPE_UINT8, DL_FORMAT_SCALAR, 1, &ac_id);
1805:/home/lsk/paparazzi/var/include/messages.h **** 	  trans->put_named_byte(trans->impl, dev, DL_TYPE_UINT8, DL_FORMAT_SCALAR, DL_ANTENNA_STATUS, "ANT
1806:/home/lsk/paparazzi/var/include/messages.h **** 	  trans->put_bytes(trans->impl, dev, DL_TYPE_FLOAT, DL_FORMAT_SCALAR, 4, (void *) _azim_sp);
1807:/home/lsk/paparazzi/var/include/messages.h **** 	  trans->put_bytes(trans->impl, dev, DL_TYPE_FLOAT, DL_FORMAT_SCALAR, 4, (void *) _elev_sp);
1808:/home/lsk/paparazzi/var/include/messages.h **** 	  trans->put_bytes(trans->impl, dev, DL_TYPE_UINT8, DL_FORMAT_SCALAR, 1, (void *) _id_sp);
1809:/home/lsk/paparazzi/var/include/messages.h **** 	  trans->put_bytes(trans->impl, dev, DL_TYPE_UINT8, DL_FORMAT_SCALAR, 1, (void *) _mode);
1810:/home/lsk/paparazzi/var/include/messages.h **** 	  trans->end_message(trans->impl, dev);
1811:/home/lsk/paparazzi/var/include/messages.h **** 	} else
1812:/home/lsk/paparazzi/var/include/messages.h **** 	  trans->overrun(trans->impl, dev);
1813:/home/lsk/paparazzi/var/include/messages.h **** }
1814:/home/lsk/paparazzi/var/include/messages.h **** 
1815:/home/lsk/paparazzi/var/include/messages.h **** #define DOWNLINK_SEND_MOTOR_BENCH_STATUS(_trans, _dev, time_ticks, throttle, rpm, current, thrust, 
1816:/home/lsk/paparazzi/var/include/messages.h **** static inline void pprz_msg_send_MOTOR_BENCH_STATUS(struct transport_tx *trans, struct link_device 
1817:/home/lsk/paparazzi/var/include/messages.h **** 	if (trans->check_available_space(trans->impl, dev, trans->size_of(trans->impl, 0+4+4+4+4+4+4+2+1 +
1818:/home/lsk/paparazzi/var/include/messages.h **** 	  trans->count_bytes(trans->impl, dev, trans->size_of(trans->impl, 0+4+4+4+4+4+4+2+1 +2 /* msg hea
1819:/home/lsk/paparazzi/var/include/messages.h **** 	  trans->start_message(trans->impl, dev, 0+4+4+4+4+4+4+2+1 +2 /* msg header overhead */);
1820:/home/lsk/paparazzi/var/include/messages.h **** 	  trans->put_bytes(trans->impl, dev, DL_TYPE_UINT8, DL_FORMAT_SCALAR, 1, &ac_id);
1821:/home/lsk/paparazzi/var/include/messages.h **** 	  trans->put_named_byte(trans->impl, dev, DL_TYPE_UINT8, DL_FORMAT_SCALAR, DL_MOTOR_BENCH_STATUS, 
1822:/home/lsk/paparazzi/var/include/messages.h **** 	  trans->put_bytes(trans->impl, dev, DL_TYPE_UINT32, DL_FORMAT_SCALAR, 4, (void *) _time_ticks);
1823:/home/lsk/paparazzi/var/include/messages.h **** 	  trans->put_bytes(trans->impl, dev, DL_TYPE_FLOAT, DL_FORMAT_SCALAR, 4, (void *) _throttle);
1824:/home/lsk/paparazzi/var/include/messages.h **** 	  trans->put_bytes(trans->impl, dev, DL_TYPE_FLOAT, DL_FORMAT_SCALAR, 4, (void *) _rpm);
1825:/home/lsk/paparazzi/var/include/messages.h **** 	  trans->put_bytes(trans->impl, dev, DL_TYPE_FLOAT, DL_FORMAT_SCALAR, 4, (void *) _current);
1826:/home/lsk/paparazzi/var/include/messages.h **** 	  trans->put_bytes(trans->impl, dev, DL_TYPE_FLOAT, DL_FORMAT_SCALAR, 4, (void *) _thrust);
1827:/home/lsk/paparazzi/var/include/messages.h **** 	  trans->put_bytes(trans->impl, dev, DL_TYPE_FLOAT, DL_FORMAT_SCALAR, 4, (void *) _torque);
1828:/home/lsk/paparazzi/var/include/messages.h **** 	  trans->put_bytes(trans->impl, dev, DL_TYPE_UINT16, DL_FORMAT_SCALAR, 2, (void *) _time_s);
1829:/home/lsk/paparazzi/var/include/messages.h **** 	  trans->put_bytes(trans->impl, dev, DL_TYPE_UINT8, DL_FORMAT_SCALAR, 1, (void *) _mode);
1830:/home/lsk/paparazzi/var/include/messages.h **** 	  trans->end_message(trans->impl, dev);
1831:/home/lsk/paparazzi/var/include/messages.h **** 	} else
1832:/home/lsk/paparazzi/var/include/messages.h **** 	  trans->overrun(trans->impl, dev);
1833:/home/lsk/paparazzi/var/include/messages.h **** }
1834:/home/lsk/paparazzi/var/include/messages.h **** 
1835:/home/lsk/paparazzi/var/include/messages.h **** #define DOWNLINK_SEND_MOTOR_BENCH_STATIC(_trans, _dev, av_rpm, av_thrust, av_current, throttle) ppr
1836:/home/lsk/paparazzi/var/include/messages.h **** static inline void pprz_msg_send_MOTOR_BENCH_STATIC(struct transport_tx *trans, struct link_device 
1837:/home/lsk/paparazzi/var/include/messages.h **** 	if (trans->check_available_space(trans->impl, dev, trans->size_of(trans->impl, 0+4+4+4+2 +2 /* msg
1838:/home/lsk/paparazzi/var/include/messages.h **** 	  trans->count_bytes(trans->impl, dev, trans->size_of(trans->impl, 0+4+4+4+2 +2 /* msg header over
1839:/home/lsk/paparazzi/var/include/messages.h **** 	  trans->start_message(trans->impl, dev, 0+4+4+4+2 +2 /* msg header overhead */);
1840:/home/lsk/paparazzi/var/include/messages.h **** 	  trans->put_bytes(trans->impl, dev, DL_TYPE_UINT8, DL_FORMAT_SCALAR, 1, &ac_id);
1841:/home/lsk/paparazzi/var/include/messages.h **** 	  trans->put_named_byte(trans->impl, dev, DL_TYPE_UINT8, DL_FORMAT_SCALAR, DL_MOTOR_BENCH_STATIC, 
1842:/home/lsk/paparazzi/var/include/messages.h **** 	  trans->put_bytes(trans->impl, dev, DL_TYPE_FLOAT, DL_FORMAT_SCALAR, 4, (void *) _av_rpm);
1843:/home/lsk/paparazzi/var/include/messages.h **** 	  trans->put_bytes(trans->impl, dev, DL_TYPE_FLOAT, DL_FORMAT_SCALAR, 4, (void *) _av_thrust);
1844:/home/lsk/paparazzi/var/include/messages.h **** 	  trans->put_bytes(trans->impl, dev, DL_TYPE_FLOAT, DL_FORMAT_SCALAR, 4, (void *) _av_current);
1845:/home/lsk/paparazzi/var/include/messages.h **** 	  trans->put_bytes(trans->impl, dev, DL_TYPE_UINT16, DL_FORMAT_SCALAR, 2, (void *) _throttle);
1846:/home/lsk/paparazzi/var/include/messages.h **** 	  trans->end_message(trans->impl, dev);
1847:/home/lsk/paparazzi/var/include/messages.h **** 	} else
1848:/home/lsk/paparazzi/var/include/messages.h **** 	  trans->overrun(trans->impl, dev);
1849:/home/lsk/paparazzi/var/include/messages.h **** }
1850:/home/lsk/paparazzi/var/include/messages.h **** 
1851:/home/lsk/paparazzi/var/include/messages.h **** #define DOWNLINK_SEND_HIH_STATUS(_trans, _dev, humid, fhumid, ftemp) pprz_msg_send_HIH_STATUS(&((_t
1852:/home/lsk/paparazzi/var/include/messages.h **** static inline void pprz_msg_send_HIH_STATUS(struct transport_tx *trans, struct link_device *dev, ui
1853:/home/lsk/paparazzi/var/include/messages.h **** 	if (trans->check_available_space(trans->impl, dev, trans->size_of(trans->impl, 0+2+4+4 +2 /* msg h
1854:/home/lsk/paparazzi/var/include/messages.h **** 	  trans->count_bytes(trans->impl, dev, trans->size_of(trans->impl, 0+2+4+4 +2 /* msg header overhe
1855:/home/lsk/paparazzi/var/include/messages.h **** 	  trans->start_message(trans->impl, dev, 0+2+4+4 +2 /* msg header overhead */);
1856:/home/lsk/paparazzi/var/include/messages.h **** 	  trans->put_bytes(trans->impl, dev, DL_TYPE_UINT8, DL_FORMAT_SCALAR, 1, &ac_id);
1857:/home/lsk/paparazzi/var/include/messages.h **** 	  trans->put_named_byte(trans->impl, dev, DL_TYPE_UINT8, DL_FORMAT_SCALAR, DL_HIH_STATUS, "HIH_STA
1858:/home/lsk/paparazzi/var/include/messages.h **** 	  trans->put_bytes(trans->impl, dev, DL_TYPE_UINT16, DL_FORMAT_SCALAR, 2, (void *) _humid);
1859:/home/lsk/paparazzi/var/include/messages.h **** 	  trans->put_bytes(trans->impl, dev, DL_TYPE_FLOAT, DL_FORMAT_SCALAR, 4, (void *) _fhumid);
1860:/home/lsk/paparazzi/var/include/messages.h **** 	  trans->put_bytes(trans->impl, dev, DL_TYPE_FLOAT, DL_FORMAT_SCALAR, 4, (void *) _ftemp);
1861:/home/lsk/paparazzi/var/include/messages.h **** 	  trans->end_message(trans->impl, dev);
1862:/home/lsk/paparazzi/var/include/messages.h **** 	} else
1863:/home/lsk/paparazzi/var/include/messages.h **** 	  trans->overrun(trans->impl, dev);
1864:/home/lsk/paparazzi/var/include/messages.h **** }
1865:/home/lsk/paparazzi/var/include/messages.h **** 
1866:/home/lsk/paparazzi/var/include/messages.h **** #define DOWNLINK_SEND_TEMT_STATUS(_trans, _dev, light, f_light) pprz_msg_send_TEMT_STATUS(&((_trans
1867:/home/lsk/paparazzi/var/include/messages.h **** static inline void pprz_msg_send_TEMT_STATUS(struct transport_tx *trans, struct link_device *dev, u
1868:/home/lsk/paparazzi/var/include/messages.h **** 	if (trans->check_available_space(trans->impl, dev, trans->size_of(trans->impl, 0+2+4 +2 /* msg hea
1869:/home/lsk/paparazzi/var/include/messages.h **** 	  trans->count_bytes(trans->impl, dev, trans->size_of(trans->impl, 0+2+4 +2 /* msg header overhead
1870:/home/lsk/paparazzi/var/include/messages.h **** 	  trans->start_message(trans->impl, dev, 0+2+4 +2 /* msg header overhead */);
1871:/home/lsk/paparazzi/var/include/messages.h **** 	  trans->put_bytes(trans->impl, dev, DL_TYPE_UINT8, DL_FORMAT_SCALAR, 1, &ac_id);
1872:/home/lsk/paparazzi/var/include/messages.h **** 	  trans->put_named_byte(trans->impl, dev, DL_TYPE_UINT8, DL_FORMAT_SCALAR, DL_TEMT_STATUS, "TEMT_S
1873:/home/lsk/paparazzi/var/include/messages.h **** 	  trans->put_bytes(trans->impl, dev, DL_TYPE_UINT16, DL_FORMAT_SCALAR, 2, (void *) _light);
1874:/home/lsk/paparazzi/var/include/messages.h **** 	  trans->put_bytes(trans->impl, dev, DL_TYPE_FLOAT, DL_FORMAT_SCALAR, 4, (void *) _f_light);
1875:/home/lsk/paparazzi/var/include/messages.h **** 	  trans->end_message(trans->impl, dev);
1876:/home/lsk/paparazzi/var/include/messages.h **** 	} else
1877:/home/lsk/paparazzi/var/include/messages.h **** 	  trans->overrun(trans->impl, dev);
1878:/home/lsk/paparazzi/var/include/messages.h **** }
1879:/home/lsk/paparazzi/var/include/messages.h **** 
1880:/home/lsk/paparazzi/var/include/messages.h **** #define DOWNLINK_SEND_GP2Y_STATUS(_trans, _dev, idensity, density) pprz_msg_send_GP2Y_STATUS(&((_tr
1881:/home/lsk/paparazzi/var/include/messages.h **** static inline void pprz_msg_send_GP2Y_STATUS(struct transport_tx *trans, struct link_device *dev, u
1882:/home/lsk/paparazzi/var/include/messages.h **** 	if (trans->check_available_space(trans->impl, dev, trans->size_of(trans->impl, 0+2+4 +2 /* msg hea
1883:/home/lsk/paparazzi/var/include/messages.h **** 	  trans->count_bytes(trans->impl, dev, trans->size_of(trans->impl, 0+2+4 +2 /* msg header overhead
1884:/home/lsk/paparazzi/var/include/messages.h **** 	  trans->start_message(trans->impl, dev, 0+2+4 +2 /* msg header overhead */);
1885:/home/lsk/paparazzi/var/include/messages.h **** 	  trans->put_bytes(trans->impl, dev, DL_TYPE_UINT8, DL_FORMAT_SCALAR, 1, &ac_id);
1886:/home/lsk/paparazzi/var/include/messages.h **** 	  trans->put_named_byte(trans->impl, dev, DL_TYPE_UINT8, DL_FORMAT_SCALAR, DL_GP2Y_STATUS, "GP2Y_S
1887:/home/lsk/paparazzi/var/include/messages.h **** 	  trans->put_bytes(trans->impl, dev, DL_TYPE_UINT16, DL_FORMAT_SCALAR, 2, (void *) _idensity);
1888:/home/lsk/paparazzi/var/include/messages.h **** 	  trans->put_bytes(trans->impl, dev, DL_TYPE_FLOAT, DL_FORMAT_SCALAR, 4, (void *) _density);
1889:/home/lsk/paparazzi/var/include/messages.h **** 	  trans->end_message(trans->impl, dev);
1890:/home/lsk/paparazzi/var/include/messages.h **** 	} else
1891:/home/lsk/paparazzi/var/include/messages.h **** 	  trans->overrun(trans->impl, dev);
1892:/home/lsk/paparazzi/var/include/messages.h **** }
1893:/home/lsk/paparazzi/var/include/messages.h **** 
1894:/home/lsk/paparazzi/var/include/messages.h **** #define DOWNLINK_SEND_SHT_I2C_SERIAL(_trans, _dev, serial0, serial1) pprz_msg_send_SHT_I2C_SERIAL(&
1895:/home/lsk/paparazzi/var/include/messages.h **** static inline void pprz_msg_send_SHT_I2C_SERIAL(struct transport_tx *trans, struct link_device *dev
1896:/home/lsk/paparazzi/var/include/messages.h **** 	if (trans->check_available_space(trans->impl, dev, trans->size_of(trans->impl, 0+4+4 +2 /* msg hea
1897:/home/lsk/paparazzi/var/include/messages.h **** 	  trans->count_bytes(trans->impl, dev, trans->size_of(trans->impl, 0+4+4 +2 /* msg header overhead
1898:/home/lsk/paparazzi/var/include/messages.h **** 	  trans->start_message(trans->impl, dev, 0+4+4 +2 /* msg header overhead */);
1899:/home/lsk/paparazzi/var/include/messages.h **** 	  trans->put_bytes(trans->impl, dev, DL_TYPE_UINT8, DL_FORMAT_SCALAR, 1, &ac_id);
1900:/home/lsk/paparazzi/var/include/messages.h **** 	  trans->put_named_byte(trans->impl, dev, DL_TYPE_UINT8, DL_FORMAT_SCALAR, DL_SHT_I2C_SERIAL, "SHT
1901:/home/lsk/paparazzi/var/include/messages.h **** 	  trans->put_bytes(trans->impl, dev, DL_TYPE_UINT32, DL_FORMAT_SCALAR, 4, (void *) _serial0);
1902:/home/lsk/paparazzi/var/include/messages.h **** 	  trans->put_bytes(trans->impl, dev, DL_TYPE_UINT32, DL_FORMAT_SCALAR, 4, (void *) _serial1);
1903:/home/lsk/paparazzi/var/include/messages.h **** 	  trans->end_message(trans->impl, dev);
1904:/home/lsk/paparazzi/var/include/messages.h **** 	} else
1905:/home/lsk/paparazzi/var/include/messages.h **** 	  trans->overrun(trans->impl, dev);
1906:/home/lsk/paparazzi/var/include/messages.h **** }
1907:/home/lsk/paparazzi/var/include/messages.h **** 
1908:/home/lsk/paparazzi/var/include/messages.h **** #define DOWNLINK_SEND_PPM(_trans, _dev, ppm_rate, nb_values, values) pprz_msg_send_PPM(&((_trans).t
1909:/home/lsk/paparazzi/var/include/messages.h **** static inline void pprz_msg_send_PPM(struct transport_tx *trans, struct link_device *dev, uint8_t a
1910:/home/lsk/paparazzi/var/include/messages.h **** 	if (trans->check_available_space(trans->impl, dev, trans->size_of(trans->impl, 0+1+1+nb_values*2 +
1911:/home/lsk/paparazzi/var/include/messages.h **** 	  trans->count_bytes(trans->impl, dev, trans->size_of(trans->impl, 0+1+1+nb_values*2 +2 /* msg hea
1912:/home/lsk/paparazzi/var/include/messages.h **** 	  trans->start_message(trans->impl, dev, 0+1+1+nb_values*2 +2 /* msg header overhead */);
1913:/home/lsk/paparazzi/var/include/messages.h **** 	  trans->put_bytes(trans->impl, dev, DL_TYPE_UINT8, DL_FORMAT_SCALAR, 1, &ac_id);
1914:/home/lsk/paparazzi/var/include/messages.h **** 	  trans->put_named_byte(trans->impl, dev, DL_TYPE_UINT8, DL_FORMAT_SCALAR, DL_PPM, "PPM");
1915:/home/lsk/paparazzi/var/include/messages.h **** 	  trans->put_bytes(trans->impl, dev, DL_TYPE_UINT8, DL_FORMAT_SCALAR, 1, (void *) _ppm_rate);
1916:/home/lsk/paparazzi/var/include/messages.h **** 	  trans->put_bytes(trans->impl, dev, DL_TYPE_ARRAY_LENGTH, DL_FORMAT_SCALAR, 1, (void *) &nb_value
1917:/home/lsk/paparazzi/var/include/messages.h **** 	  trans->put_bytes(trans->impl, dev, DL_TYPE_UINT16, DL_FORMAT_ARRAY, 2 * nb_values, (void *) _val
1918:/home/lsk/paparazzi/var/include/messages.h **** 	  trans->end_message(trans->impl, dev);
1919:/home/lsk/paparazzi/var/include/messages.h **** 	} else
1920:/home/lsk/paparazzi/var/include/messages.h **** 	  trans->overrun(trans->impl, dev);
1921:/home/lsk/paparazzi/var/include/messages.h **** }
1922:/home/lsk/paparazzi/var/include/messages.h **** 
1923:/home/lsk/paparazzi/var/include/messages.h **** #define DOWNLINK_SEND_RC(_trans, _dev, nb_values, values) pprz_msg_send_RC(&((_trans).trans_tx), &(
1924:/home/lsk/paparazzi/var/include/messages.h **** static inline void pprz_msg_send_RC(struct transport_tx *trans, struct link_device *dev, uint8_t ac
1925:/home/lsk/paparazzi/var/include/messages.h **** 	if (trans->check_available_space(trans->impl, dev, trans->size_of(trans->impl, 0+1+nb_values*2 +2 
1926:/home/lsk/paparazzi/var/include/messages.h **** 	  trans->count_bytes(trans->impl, dev, trans->size_of(trans->impl, 0+1+nb_values*2 +2 /* msg heade
1927:/home/lsk/paparazzi/var/include/messages.h **** 	  trans->start_message(trans->impl, dev, 0+1+nb_values*2 +2 /* msg header overhead */);
1928:/home/lsk/paparazzi/var/include/messages.h **** 	  trans->put_bytes(trans->impl, dev, DL_TYPE_UINT8, DL_FORMAT_SCALAR, 1, &ac_id);
1929:/home/lsk/paparazzi/var/include/messages.h **** 	  trans->put_named_byte(trans->impl, dev, DL_TYPE_UINT8, DL_FORMAT_SCALAR, DL_RC, "RC");
1930:/home/lsk/paparazzi/var/include/messages.h **** 	  trans->put_bytes(trans->impl, dev, DL_TYPE_ARRAY_LENGTH, DL_FORMAT_SCALAR, 1, (void *) &nb_value
1931:/home/lsk/paparazzi/var/include/messages.h **** 	  trans->put_bytes(trans->impl, dev, DL_TYPE_INT16, DL_FORMAT_ARRAY, 2 * nb_values, (void *) _valu
1932:/home/lsk/paparazzi/var/include/messages.h **** 	  trans->end_message(trans->impl, dev);
1933:/home/lsk/paparazzi/var/include/messages.h **** 	} else
1934:/home/lsk/paparazzi/var/include/messages.h **** 	  trans->overrun(trans->impl, dev);
1935:/home/lsk/paparazzi/var/include/messages.h **** }
1936:/home/lsk/paparazzi/var/include/messages.h **** 
1937:/home/lsk/paparazzi/var/include/messages.h **** #define DOWNLINK_SEND_COMMANDS(_trans, _dev, nb_values, values) pprz_msg_send_COMMANDS(&((_trans).t
1938:/home/lsk/paparazzi/var/include/messages.h **** static inline void pprz_msg_send_COMMANDS(struct transport_tx *trans, struct link_device *dev, uint
1939:/home/lsk/paparazzi/var/include/messages.h **** 	if (trans->check_available_space(trans->impl, dev, trans->size_of(trans->impl, 0+1+nb_values*2 +2 
1940:/home/lsk/paparazzi/var/include/messages.h **** 	  trans->count_bytes(trans->impl, dev, trans->size_of(trans->impl, 0+1+nb_values*2 +2 /* msg heade
1941:/home/lsk/paparazzi/var/include/messages.h **** 	  trans->start_message(trans->impl, dev, 0+1+nb_values*2 +2 /* msg header overhead */);
1942:/home/lsk/paparazzi/var/include/messages.h **** 	  trans->put_bytes(trans->impl, dev, DL_TYPE_UINT8, DL_FORMAT_SCALAR, 1, &ac_id);
1943:/home/lsk/paparazzi/var/include/messages.h **** 	  trans->put_named_byte(trans->impl, dev, DL_TYPE_UINT8, DL_FORMAT_SCALAR, DL_COMMANDS, "COMMANDS"
1944:/home/lsk/paparazzi/var/include/messages.h **** 	  trans->put_bytes(trans->impl, dev, DL_TYPE_ARRAY_LENGTH, DL_FORMAT_SCALAR, 1, (void *) &nb_value
1945:/home/lsk/paparazzi/var/include/messages.h **** 	  trans->put_bytes(trans->impl, dev, DL_TYPE_INT16, DL_FORMAT_ARRAY, 2 * nb_values, (void *) _valu
1946:/home/lsk/paparazzi/var/include/messages.h **** 	  trans->end_message(trans->impl, dev);
1947:/home/lsk/paparazzi/var/include/messages.h **** 	} else
1948:/home/lsk/paparazzi/var/include/messages.h **** 	  trans->overrun(trans->impl, dev);
1949:/home/lsk/paparazzi/var/include/messages.h **** }
1950:/home/lsk/paparazzi/var/include/messages.h **** 
1951:/home/lsk/paparazzi/var/include/messages.h **** #define DOWNLINK_SEND_FBW_STATUS(_trans, _dev, rc_status, frame_rate, mode, vsupply, current) pprz_
1952:/home/lsk/paparazzi/var/include/messages.h **** static inline void pprz_msg_send_FBW_STATUS(struct transport_tx *trans, struct link_device *dev, ui
1953:/home/lsk/paparazzi/var/include/messages.h **** 	if (trans->check_available_space(trans->impl, dev, trans->size_of(trans->impl, 0+1+1+1+2+4 +2 /* m
1954:/home/lsk/paparazzi/var/include/messages.h **** 	  trans->count_bytes(trans->impl, dev, trans->size_of(trans->impl, 0+1+1+1+2+4 +2 /* msg header ov
1955:/home/lsk/paparazzi/var/include/messages.h **** 	  trans->start_message(trans->impl, dev, 0+1+1+1+2+4 +2 /* msg header overhead */);
1956:/home/lsk/paparazzi/var/include/messages.h **** 	  trans->put_bytes(trans->impl, dev, DL_TYPE_UINT8, DL_FORMAT_SCALAR, 1, &ac_id);
1957:/home/lsk/paparazzi/var/include/messages.h **** 	  trans->put_named_byte(trans->impl, dev, DL_TYPE_UINT8, DL_FORMAT_SCALAR, DL_FBW_STATUS, "FBW_STA
1958:/home/lsk/paparazzi/var/include/messages.h **** 	  trans->put_bytes(trans->impl, dev, DL_TYPE_UINT8, DL_FORMAT_SCALAR, 1, (void *) _rc_status);
1959:/home/lsk/paparazzi/var/include/messages.h **** 	  trans->put_bytes(trans->impl, dev, DL_TYPE_UINT8, DL_FORMAT_SCALAR, 1, (void *) _frame_rate);
1960:/home/lsk/paparazzi/var/include/messages.h **** 	  trans->put_bytes(trans->impl, dev, DL_TYPE_UINT8, DL_FORMAT_SCALAR, 1, (void *) _mode);
1961:/home/lsk/paparazzi/var/include/messages.h **** 	  trans->put_bytes(trans->impl, dev, DL_TYPE_UINT16, DL_FORMAT_SCALAR, 2, (void *) _vsupply);
1962:/home/lsk/paparazzi/var/include/messages.h **** 	  trans->put_bytes(trans->impl, dev, DL_TYPE_INT32, DL_FORMAT_SCALAR, 4, (void *) _current);
1963:/home/lsk/paparazzi/var/include/messages.h **** 	  trans->end_message(trans->impl, dev);
1964:/home/lsk/paparazzi/var/include/messages.h **** 	} else
1965:/home/lsk/paparazzi/var/include/messages.h **** 	  trans->overrun(trans->impl, dev);
1966:/home/lsk/paparazzi/var/include/messages.h **** }
1967:/home/lsk/paparazzi/var/include/messages.h **** 
1968:/home/lsk/paparazzi/var/include/messages.h **** #define DOWNLINK_SEND_ADC(_trans, _dev, mcu, nb_values, values) pprz_msg_send_ADC(&((_trans).trans_
1969:/home/lsk/paparazzi/var/include/messages.h **** static inline void pprz_msg_send_ADC(struct transport_tx *trans, struct link_device *dev, uint8_t a
1970:/home/lsk/paparazzi/var/include/messages.h **** 	if (trans->check_available_space(trans->impl, dev, trans->size_of(trans->impl, 0+1+1+nb_values*2 +
1971:/home/lsk/paparazzi/var/include/messages.h **** 	  trans->count_bytes(trans->impl, dev, trans->size_of(trans->impl, 0+1+1+nb_values*2 +2 /* msg hea
1972:/home/lsk/paparazzi/var/include/messages.h **** 	  trans->start_message(trans->impl, dev, 0+1+1+nb_values*2 +2 /* msg header overhead */);
1973:/home/lsk/paparazzi/var/include/messages.h **** 	  trans->put_bytes(trans->impl, dev, DL_TYPE_UINT8, DL_FORMAT_SCALAR, 1, &ac_id);
1974:/home/lsk/paparazzi/var/include/messages.h **** 	  trans->put_named_byte(trans->impl, dev, DL_TYPE_UINT8, DL_FORMAT_SCALAR, DL_ADC, "ADC");
1975:/home/lsk/paparazzi/var/include/messages.h **** 	  trans->put_bytes(trans->impl, dev, DL_TYPE_UINT8, DL_FORMAT_SCALAR, 1, (void *) _mcu);
1976:/home/lsk/paparazzi/var/include/messages.h **** 	  trans->put_bytes(trans->impl, dev, DL_TYPE_ARRAY_LENGTH, DL_FORMAT_SCALAR, 1, (void *) &nb_value
1977:/home/lsk/paparazzi/var/include/messages.h **** 	  trans->put_bytes(trans->impl, dev, DL_TYPE_UINT16, DL_FORMAT_ARRAY, 2 * nb_values, (void *) _val
1978:/home/lsk/paparazzi/var/include/messages.h **** 	  trans->end_message(trans->impl, dev);
1979:/home/lsk/paparazzi/var/include/messages.h **** 	} else
1980:/home/lsk/paparazzi/var/include/messages.h **** 	  trans->overrun(trans->impl, dev);
1981:/home/lsk/paparazzi/var/include/messages.h **** }
1982:/home/lsk/paparazzi/var/include/messages.h **** 
1983:/home/lsk/paparazzi/var/include/messages.h **** #define DOWNLINK_SEND_ACTUATORS(_trans, _dev, nb_values, values) pprz_msg_send_ACTUATORS(&((_trans)
1984:/home/lsk/paparazzi/var/include/messages.h **** static inline void pprz_msg_send_ACTUATORS(struct transport_tx *trans, struct link_device *dev, uin
1985:/home/lsk/paparazzi/var/include/messages.h **** 	if (trans->check_available_space(trans->impl, dev, trans->size_of(trans->impl, 0+1+nb_values*2 +2 
1986:/home/lsk/paparazzi/var/include/messages.h **** 	  trans->count_bytes(trans->impl, dev, trans->size_of(trans->impl, 0+1+nb_values*2 +2 /* msg heade
1987:/home/lsk/paparazzi/var/include/messages.h **** 	  trans->start_message(trans->impl, dev, 0+1+nb_values*2 +2 /* msg header overhead */);
1988:/home/lsk/paparazzi/var/include/messages.h **** 	  trans->put_bytes(trans->impl, dev, DL_TYPE_UINT8, DL_FORMAT_SCALAR, 1, &ac_id);
1989:/home/lsk/paparazzi/var/include/messages.h **** 	  trans->put_named_byte(trans->impl, dev, DL_TYPE_UINT8, DL_FORMAT_SCALAR, DL_ACTUATORS, "ACTUATOR
1990:/home/lsk/paparazzi/var/include/messages.h **** 	  trans->put_bytes(trans->impl, dev, DL_TYPE_ARRAY_LENGTH, DL_FORMAT_SCALAR, 1, (void *) &nb_value
1991:/home/lsk/paparazzi/var/include/messages.h **** 	  trans->put_bytes(trans->impl, dev, DL_TYPE_INT16, DL_FORMAT_ARRAY, 2 * nb_values, (void *) _valu
1992:/home/lsk/paparazzi/var/include/messages.h **** 	  trans->end_message(trans->impl, dev);
1993:/home/lsk/paparazzi/var/include/messages.h **** 	} else
1994:/home/lsk/paparazzi/var/include/messages.h **** 	  trans->overrun(trans->impl, dev);
1995:/home/lsk/paparazzi/var/include/messages.h **** }
1996:/home/lsk/paparazzi/var/include/messages.h **** 
1997:/home/lsk/paparazzi/var/include/messages.h **** #define DOWNLINK_SEND_DC_SHOT(_trans, _dev, photo_nr, lat, lon, alt, hmsl, phi, theta, psi, course,
1998:/home/lsk/paparazzi/var/include/messages.h **** static inline void pprz_msg_send_DC_SHOT(struct transport_tx *trans, struct link_device *dev, uint8
1999:/home/lsk/paparazzi/var/include/messages.h **** 	if (trans->check_available_space(trans->impl, dev, trans->size_of(trans->impl, 0+2+4+4+4+4+2+2+2+2
2000:/home/lsk/paparazzi/var/include/messages.h **** 	  trans->count_bytes(trans->impl, dev, trans->size_of(trans->impl, 0+2+4+4+4+4+2+2+2+2+2+4 +2 /* m
2001:/home/lsk/paparazzi/var/include/messages.h **** 	  trans->start_message(trans->impl, dev, 0+2+4+4+4+4+2+2+2+2+2+4 +2 /* msg header overhead */);
2002:/home/lsk/paparazzi/var/include/messages.h **** 	  trans->put_bytes(trans->impl, dev, DL_TYPE_UINT8, DL_FORMAT_SCALAR, 1, &ac_id);
2003:/home/lsk/paparazzi/var/include/messages.h **** 	  trans->put_named_byte(trans->impl, dev, DL_TYPE_UINT8, DL_FORMAT_SCALAR, DL_DC_SHOT, "DC_SHOT");
2004:/home/lsk/paparazzi/var/include/messages.h **** 	  trans->put_bytes(trans->impl, dev, DL_TYPE_INT16, DL_FORMAT_SCALAR, 2, (void *) _photo_nr);
2005:/home/lsk/paparazzi/var/include/messages.h **** 	  trans->put_bytes(trans->impl, dev, DL_TYPE_INT32, DL_FORMAT_SCALAR, 4, (void *) _lat);
2006:/home/lsk/paparazzi/var/include/messages.h **** 	  trans->put_bytes(trans->impl, dev, DL_TYPE_INT32, DL_FORMAT_SCALAR, 4, (void *) _lon);
2007:/home/lsk/paparazzi/var/include/messages.h **** 	  trans->put_bytes(trans->impl, dev, DL_TYPE_INT32, DL_FORMAT_SCALAR, 4, (void *) _alt);
2008:/home/lsk/paparazzi/var/include/messages.h **** 	  trans->put_bytes(trans->impl, dev, DL_TYPE_INT32, DL_FORMAT_SCALAR, 4, (void *) _hmsl);
2009:/home/lsk/paparazzi/var/include/messages.h **** 	  trans->put_bytes(trans->impl, dev, DL_TYPE_INT16, DL_FORMAT_SCALAR, 2, (void *) _phi);
2010:/home/lsk/paparazzi/var/include/messages.h **** 	  trans->put_bytes(trans->impl, dev, DL_TYPE_INT16, DL_FORMAT_SCALAR, 2, (void *) _theta);
2011:/home/lsk/paparazzi/var/include/messages.h **** 	  trans->put_bytes(trans->impl, dev, DL_TYPE_INT16, DL_FORMAT_SCALAR, 2, (void *) _psi);
2012:/home/lsk/paparazzi/var/include/messages.h **** 	  trans->put_bytes(trans->impl, dev, DL_TYPE_INT16, DL_FORMAT_SCALAR, 2, (void *) _course);
2013:/home/lsk/paparazzi/var/include/messages.h **** 	  trans->put_bytes(trans->impl, dev, DL_TYPE_UINT16, DL_FORMAT_SCALAR, 2, (void *) _speed);
2014:/home/lsk/paparazzi/var/include/messages.h **** 	  trans->put_bytes(trans->impl, dev, DL_TYPE_UINT32, DL_FORMAT_SCALAR, 4, (void *) _itow);
2015:/home/lsk/paparazzi/var/include/messages.h **** 	  trans->end_message(trans->impl, dev);
2016:/home/lsk/paparazzi/var/include/messages.h **** 	} else
2017:/home/lsk/paparazzi/var/include/messages.h **** 	  trans->overrun(trans->impl, dev);
2018:/home/lsk/paparazzi/var/include/messages.h **** }
2019:/home/lsk/paparazzi/var/include/messages.h **** 
2020:/home/lsk/paparazzi/var/include/messages.h **** #define DOWNLINK_SEND_TEST_BOARD_RESULTS(_trans, _dev, uart, ppm, nb_servo, servo) pprz_msg_send_TE
2021:/home/lsk/paparazzi/var/include/messages.h **** static inline void pprz_msg_send_TEST_BOARD_RESULTS(struct transport_tx *trans, struct link_device 
2022:/home/lsk/paparazzi/var/include/messages.h **** 	if (trans->check_available_space(trans->impl, dev, trans->size_of(trans->impl, 0+1+1+1+nb_servo*2 
2023:/home/lsk/paparazzi/var/include/messages.h **** 	  trans->count_bytes(trans->impl, dev, trans->size_of(trans->impl, 0+1+1+1+nb_servo*2 +2 /* msg he
2024:/home/lsk/paparazzi/var/include/messages.h **** 	  trans->start_message(trans->impl, dev, 0+1+1+1+nb_servo*2 +2 /* msg header overhead */);
2025:/home/lsk/paparazzi/var/include/messages.h **** 	  trans->put_bytes(trans->impl, dev, DL_TYPE_UINT8, DL_FORMAT_SCALAR, 1, &ac_id);
2026:/home/lsk/paparazzi/var/include/messages.h **** 	  trans->put_named_byte(trans->impl, dev, DL_TYPE_UINT8, DL_FORMAT_SCALAR, DL_TEST_BOARD_RESULTS, 
2027:/home/lsk/paparazzi/var/include/messages.h **** 	  trans->put_bytes(trans->impl, dev, DL_TYPE_UINT8, DL_FORMAT_SCALAR, 1, (void *) _uart);
2028:/home/lsk/paparazzi/var/include/messages.h **** 	  trans->put_bytes(trans->impl, dev, DL_TYPE_UINT8, DL_FORMAT_SCALAR, 1, (void *) _ppm);
2029:/home/lsk/paparazzi/var/include/messages.h **** 	  trans->put_bytes(trans->impl, dev, DL_TYPE_ARRAY_LENGTH, DL_FORMAT_SCALAR, 1, (void *) &nb_servo
2030:/home/lsk/paparazzi/var/include/messages.h **** 	  trans->put_bytes(trans->impl, dev, DL_TYPE_UINT16, DL_FORMAT_ARRAY, 2 * nb_servo, (void *) _serv
2031:/home/lsk/paparazzi/var/include/messages.h **** 	  trans->end_message(trans->impl, dev);
2032:/home/lsk/paparazzi/var/include/messages.h **** 	} else
2033:/home/lsk/paparazzi/var/include/messages.h **** 	  trans->overrun(trans->impl, dev);
2034:/home/lsk/paparazzi/var/include/messages.h **** }
2035:/home/lsk/paparazzi/var/include/messages.h **** 
2036:/home/lsk/paparazzi/var/include/messages.h **** #define DOWNLINK_SEND_MLX_SERIAL(_trans, _dev, serial0, serial1) pprz_msg_send_MLX_SERIAL(&((_trans
2037:/home/lsk/paparazzi/var/include/messages.h **** static inline void pprz_msg_send_MLX_SERIAL(struct transport_tx *trans, struct link_device *dev, ui
2038:/home/lsk/paparazzi/var/include/messages.h **** 	if (trans->check_available_space(trans->impl, dev, trans->size_of(trans->impl, 0+4+4 +2 /* msg hea
2039:/home/lsk/paparazzi/var/include/messages.h **** 	  trans->count_bytes(trans->impl, dev, trans->size_of(trans->impl, 0+4+4 +2 /* msg header overhead
2040:/home/lsk/paparazzi/var/include/messages.h **** 	  trans->start_message(trans->impl, dev, 0+4+4 +2 /* msg header overhead */);
2041:/home/lsk/paparazzi/var/include/messages.h **** 	  trans->put_bytes(trans->impl, dev, DL_TYPE_UINT8, DL_FORMAT_SCALAR, 1, &ac_id);
2042:/home/lsk/paparazzi/var/include/messages.h **** 	  trans->put_named_byte(trans->impl, dev, DL_TYPE_UINT8, DL_FORMAT_SCALAR, DL_MLX_SERIAL, "MLX_SER
2043:/home/lsk/paparazzi/var/include/messages.h **** 	  trans->put_bytes(trans->impl, dev, DL_TYPE_UINT32, DL_FORMAT_SCALAR, 4, (void *) _serial0);
2044:/home/lsk/paparazzi/var/include/messages.h **** 	  trans->put_bytes(trans->impl, dev, DL_TYPE_UINT32, DL_FORMAT_SCALAR, 4, (void *) _serial1);
2045:/home/lsk/paparazzi/var/include/messages.h **** 	  trans->end_message(trans->impl, dev);
2046:/home/lsk/paparazzi/var/include/messages.h **** 	} else
2047:/home/lsk/paparazzi/var/include/messages.h **** 	  trans->overrun(trans->impl, dev);
2048:/home/lsk/paparazzi/var/include/messages.h **** }
2049:/home/lsk/paparazzi/var/include/messages.h **** 
2050:/home/lsk/paparazzi/var/include/messages.h **** #define DOWNLINK_SEND_PAYLOAD(_trans, _dev, nb_values, values) pprz_msg_send_PAYLOAD(&((_trans).tra
2051:/home/lsk/paparazzi/var/include/messages.h **** static inline void pprz_msg_send_PAYLOAD(struct transport_tx *trans, struct link_device *dev, uint8
2052:/home/lsk/paparazzi/var/include/messages.h **** 	if (trans->check_available_space(trans->impl, dev, trans->size_of(trans->impl, 0+1+nb_values*1 +2 
2053:/home/lsk/paparazzi/var/include/messages.h **** 	  trans->count_bytes(trans->impl, dev, trans->size_of(trans->impl, 0+1+nb_values*1 +2 /* msg heade
2054:/home/lsk/paparazzi/var/include/messages.h **** 	  trans->start_message(trans->impl, dev, 0+1+nb_values*1 +2 /* msg header overhead */);
2055:/home/lsk/paparazzi/var/include/messages.h **** 	  trans->put_bytes(trans->impl, dev, DL_TYPE_UINT8, DL_FORMAT_SCALAR, 1, &ac_id);
2056:/home/lsk/paparazzi/var/include/messages.h **** 	  trans->put_named_byte(trans->impl, dev, DL_TYPE_UINT8, DL_FORMAT_SCALAR, DL_PAYLOAD, "PAYLOAD");
2057:/home/lsk/paparazzi/var/include/messages.h **** 	  trans->put_bytes(trans->impl, dev, DL_TYPE_ARRAY_LENGTH, DL_FORMAT_SCALAR, 1, (void *) &nb_value
2058:/home/lsk/paparazzi/var/include/messages.h **** 	  trans->put_bytes(trans->impl, dev, DL_TYPE_UINT8, DL_FORMAT_ARRAY, 1 * nb_values, (void *) _valu
2059:/home/lsk/paparazzi/var/include/messages.h **** 	  trans->end_message(trans->impl, dev);
2060:/home/lsk/paparazzi/var/include/messages.h **** 	} else
2061:/home/lsk/paparazzi/var/include/messages.h **** 	  trans->overrun(trans->impl, dev);
2062:/home/lsk/paparazzi/var/include/messages.h **** }
2063:/home/lsk/paparazzi/var/include/messages.h **** 
2064:/home/lsk/paparazzi/var/include/messages.h **** #define DOWNLINK_SEND_HTM_STATUS(_trans, _dev, ihumid, itemp, humid, temp) pprz_msg_send_HTM_STATUS
2065:/home/lsk/paparazzi/var/include/messages.h **** static inline void pprz_msg_send_HTM_STATUS(struct transport_tx *trans, struct link_device *dev, ui
2066:/home/lsk/paparazzi/var/include/messages.h **** 	if (trans->check_available_space(trans->impl, dev, trans->size_of(trans->impl, 0+2+2+4+4 +2 /* msg
2067:/home/lsk/paparazzi/var/include/messages.h **** 	  trans->count_bytes(trans->impl, dev, trans->size_of(trans->impl, 0+2+2+4+4 +2 /* msg header over
2068:/home/lsk/paparazzi/var/include/messages.h **** 	  trans->start_message(trans->impl, dev, 0+2+2+4+4 +2 /* msg header overhead */);
2069:/home/lsk/paparazzi/var/include/messages.h **** 	  trans->put_bytes(trans->impl, dev, DL_TYPE_UINT8, DL_FORMAT_SCALAR, 1, &ac_id);
2070:/home/lsk/paparazzi/var/include/messages.h **** 	  trans->put_named_byte(trans->impl, dev, DL_TYPE_UINT8, DL_FORMAT_SCALAR, DL_HTM_STATUS, "HTM_STA
2071:/home/lsk/paparazzi/var/include/messages.h **** 	  trans->put_bytes(trans->impl, dev, DL_TYPE_UINT16, DL_FORMAT_SCALAR, 2, (void *) _ihumid);
2072:/home/lsk/paparazzi/var/include/messages.h **** 	  trans->put_bytes(trans->impl, dev, DL_TYPE_UINT16, DL_FORMAT_SCALAR, 2, (void *) _itemp);
2073:/home/lsk/paparazzi/var/include/messages.h **** 	  trans->put_bytes(trans->impl, dev, DL_TYPE_FLOAT, DL_FORMAT_SCALAR, 4, (void *) _humid);
2074:/home/lsk/paparazzi/var/include/messages.h **** 	  trans->put_bytes(trans->impl, dev, DL_TYPE_FLOAT, DL_FORMAT_SCALAR, 4, (void *) _temp);
2075:/home/lsk/paparazzi/var/include/messages.h **** 	  trans->end_message(trans->impl, dev);
2076:/home/lsk/paparazzi/var/include/messages.h **** 	} else
2077:/home/lsk/paparazzi/var/include/messages.h **** 	  trans->overrun(trans->impl, dev);
2078:/home/lsk/paparazzi/var/include/messages.h **** }
2079:/home/lsk/paparazzi/var/include/messages.h **** 
2080:/home/lsk/paparazzi/var/include/messages.h **** #define DOWNLINK_SEND_BARO_MS5611(_trans, _dev, d1, d2, pressure, temp) pprz_msg_send_BARO_MS5611(&
2081:/home/lsk/paparazzi/var/include/messages.h **** static inline void pprz_msg_send_BARO_MS5611(struct transport_tx *trans, struct link_device *dev, u
2082:/home/lsk/paparazzi/var/include/messages.h **** 	if (trans->check_available_space(trans->impl, dev, trans->size_of(trans->impl, 0+4+4+4+4 +2 /* msg
2083:/home/lsk/paparazzi/var/include/messages.h **** 	  trans->count_bytes(trans->impl, dev, trans->size_of(trans->impl, 0+4+4+4+4 +2 /* msg header over
2084:/home/lsk/paparazzi/var/include/messages.h **** 	  trans->start_message(trans->impl, dev, 0+4+4+4+4 +2 /* msg header overhead */);
2085:/home/lsk/paparazzi/var/include/messages.h **** 	  trans->put_bytes(trans->impl, dev, DL_TYPE_UINT8, DL_FORMAT_SCALAR, 1, &ac_id);
2086:/home/lsk/paparazzi/var/include/messages.h **** 	  trans->put_named_byte(trans->impl, dev, DL_TYPE_UINT8, DL_FORMAT_SCALAR, DL_BARO_MS5611, "BARO_M
2087:/home/lsk/paparazzi/var/include/messages.h **** 	  trans->put_bytes(trans->impl, dev, DL_TYPE_UINT32, DL_FORMAT_SCALAR, 4, (void *) _d1);
2088:/home/lsk/paparazzi/var/include/messages.h **** 	  trans->put_bytes(trans->impl, dev, DL_TYPE_UINT32, DL_FORMAT_SCALAR, 4, (void *) _d2);
2089:/home/lsk/paparazzi/var/include/messages.h **** 	  trans->put_bytes(trans->impl, dev, DL_TYPE_FLOAT, DL_FORMAT_SCALAR, 4, (void *) _pressure);
2090:/home/lsk/paparazzi/var/include/messages.h **** 	  trans->put_bytes(trans->impl, dev, DL_TYPE_FLOAT, DL_FORMAT_SCALAR, 4, (void *) _temp);
2091:/home/lsk/paparazzi/var/include/messages.h **** 	  trans->end_message(trans->impl, dev);
2092:/home/lsk/paparazzi/var/include/messages.h **** 	} else
2093:/home/lsk/paparazzi/var/include/messages.h **** 	  trans->overrun(trans->impl, dev);
2094:/home/lsk/paparazzi/var/include/messages.h **** }
2095:/home/lsk/paparazzi/var/include/messages.h **** 
2096:/home/lsk/paparazzi/var/include/messages.h **** #define DOWNLINK_SEND_MS5611_COEFF(_trans, _dev, c0, c1, c2, c3, c4, c5, c6, c7) pprz_msg_send_MS56
2097:/home/lsk/paparazzi/var/include/messages.h **** static inline void pprz_msg_send_MS5611_COEFF(struct transport_tx *trans, struct link_device *dev, 
2098:/home/lsk/paparazzi/var/include/messages.h **** 	if (trans->check_available_space(trans->impl, dev, trans->size_of(trans->impl, 0+2+2+2+2+2+2+2+2 +
2099:/home/lsk/paparazzi/var/include/messages.h **** 	  trans->count_bytes(trans->impl, dev, trans->size_of(trans->impl, 0+2+2+2+2+2+2+2+2 +2 /* msg hea
2100:/home/lsk/paparazzi/var/include/messages.h **** 	  trans->start_message(trans->impl, dev, 0+2+2+2+2+2+2+2+2 +2 /* msg header overhead */);
2101:/home/lsk/paparazzi/var/include/messages.h **** 	  trans->put_bytes(trans->impl, dev, DL_TYPE_UINT8, DL_FORMAT_SCALAR, 1, &ac_id);
2102:/home/lsk/paparazzi/var/include/messages.h **** 	  trans->put_named_byte(trans->impl, dev, DL_TYPE_UINT8, DL_FORMAT_SCALAR, DL_MS5611_COEFF, "MS561
2103:/home/lsk/paparazzi/var/include/messages.h **** 	  trans->put_bytes(trans->impl, dev, DL_TYPE_UINT16, DL_FORMAT_SCALAR, 2, (void *) _c0);
2104:/home/lsk/paparazzi/var/include/messages.h **** 	  trans->put_bytes(trans->impl, dev, DL_TYPE_UINT16, DL_FORMAT_SCALAR, 2, (void *) _c1);
2105:/home/lsk/paparazzi/var/include/messages.h **** 	  trans->put_bytes(trans->impl, dev, DL_TYPE_UINT16, DL_FORMAT_SCALAR, 2, (void *) _c2);
2106:/home/lsk/paparazzi/var/include/messages.h **** 	  trans->put_bytes(trans->impl, dev, DL_TYPE_UINT16, DL_FORMAT_SCALAR, 2, (void *) _c3);
2107:/home/lsk/paparazzi/var/include/messages.h **** 	  trans->put_bytes(trans->impl, dev, DL_TYPE_UINT16, DL_FORMAT_SCALAR, 2, (void *) _c4);
2108:/home/lsk/paparazzi/var/include/messages.h **** 	  trans->put_bytes(trans->impl, dev, DL_TYPE_UINT16, DL_FORMAT_SCALAR, 2, (void *) _c5);
2109:/home/lsk/paparazzi/var/include/messages.h **** 	  trans->put_bytes(trans->impl, dev, DL_TYPE_UINT16, DL_FORMAT_SCALAR, 2, (void *) _c6);
2110:/home/lsk/paparazzi/var/include/messages.h **** 	  trans->put_bytes(trans->impl, dev, DL_TYPE_UINT16, DL_FORMAT_SCALAR, 2, (void *) _c7);
2111:/home/lsk/paparazzi/var/include/messages.h **** 	  trans->end_message(trans->impl, dev);
2112:/home/lsk/paparazzi/var/include/messages.h **** 	} else
2113:/home/lsk/paparazzi/var/include/messages.h **** 	  trans->overrun(trans->impl, dev);
2114:/home/lsk/paparazzi/var/include/messages.h **** }
2115:/home/lsk/paparazzi/var/include/messages.h **** 
2116:/home/lsk/paparazzi/var/include/messages.h **** #define DOWNLINK_SEND_ATMOSPHERE_CHARGE(_trans, _dev, t0, t1, t2, t3, t4, t5, t6, t7, t8, t9) pprz_
2117:/home/lsk/paparazzi/var/include/messages.h **** static inline void pprz_msg_send_ATMOSPHERE_CHARGE(struct transport_tx *trans, struct link_device *
2118:/home/lsk/paparazzi/var/include/messages.h **** 	if (trans->check_available_space(trans->impl, dev, trans->size_of(trans->impl, 0+2+2+2+2+2+2+2+2+2
2119:/home/lsk/paparazzi/var/include/messages.h **** 	  trans->count_bytes(trans->impl, dev, trans->size_of(trans->impl, 0+2+2+2+2+2+2+2+2+2+2 +2 /* msg
2120:/home/lsk/paparazzi/var/include/messages.h **** 	  trans->start_message(trans->impl, dev, 0+2+2+2+2+2+2+2+2+2+2 +2 /* msg header overhead */);
2121:/home/lsk/paparazzi/var/include/messages.h **** 	  trans->put_bytes(trans->impl, dev, DL_TYPE_UINT8, DL_FORMAT_SCALAR, 1, &ac_id);
2122:/home/lsk/paparazzi/var/include/messages.h **** 	  trans->put_named_byte(trans->impl, dev, DL_TYPE_UINT8, DL_FORMAT_SCALAR, DL_ATMOSPHERE_CHARGE, "
2123:/home/lsk/paparazzi/var/include/messages.h **** 	  trans->put_bytes(trans->impl, dev, DL_TYPE_UINT16, DL_FORMAT_SCALAR, 2, (void *) _t0);
2124:/home/lsk/paparazzi/var/include/messages.h **** 	  trans->put_bytes(trans->impl, dev, DL_TYPE_UINT16, DL_FORMAT_SCALAR, 2, (void *) _t1);
2125:/home/lsk/paparazzi/var/include/messages.h **** 	  trans->put_bytes(trans->impl, dev, DL_TYPE_UINT16, DL_FORMAT_SCALAR, 2, (void *) _t2);
2126:/home/lsk/paparazzi/var/include/messages.h **** 	  trans->put_bytes(trans->impl, dev, DL_TYPE_UINT16, DL_FORMAT_SCALAR, 2, (void *) _t3);
2127:/home/lsk/paparazzi/var/include/messages.h **** 	  trans->put_bytes(trans->impl, dev, DL_TYPE_UINT16, DL_FORMAT_SCALAR, 2, (void *) _t4);
2128:/home/lsk/paparazzi/var/include/messages.h **** 	  trans->put_bytes(trans->impl, dev, DL_TYPE_UINT16, DL_FORMAT_SCALAR, 2, (void *) _t5);
2129:/home/lsk/paparazzi/var/include/messages.h **** 	  trans->put_bytes(trans->impl, dev, DL_TYPE_UINT16, DL_FORMAT_SCALAR, 2, (void *) _t6);
2130:/home/lsk/paparazzi/var/include/messages.h **** 	  trans->put_bytes(trans->impl, dev, DL_TYPE_UINT16, DL_FORMAT_SCALAR, 2, (void *) _t7);
2131:/home/lsk/paparazzi/var/include/messages.h **** 	  trans->put_bytes(trans->impl, dev, DL_TYPE_UINT16, DL_FORMAT_SCALAR, 2, (void *) _t8);
2132:/home/lsk/paparazzi/var/include/messages.h **** 	  trans->put_bytes(trans->impl, dev, DL_TYPE_UINT16, DL_FORMAT_SCALAR, 2, (void *) _t9);
2133:/home/lsk/paparazzi/var/include/messages.h **** 	  trans->end_message(trans->impl, dev);
2134:/home/lsk/paparazzi/var/include/messages.h **** 	} else
2135:/home/lsk/paparazzi/var/include/messages.h **** 	  trans->overrun(trans->impl, dev);
2136:/home/lsk/paparazzi/var/include/messages.h **** }
2137:/home/lsk/paparazzi/var/include/messages.h **** 
2138:/home/lsk/paparazzi/var/include/messages.h **** #define DOWNLINK_SEND_SOLAR_RADIATION(_trans, _dev, up_t0, dn_t0, up_t1, dn_t1, up_t2, dn_t2, up_t3
2139:/home/lsk/paparazzi/var/include/messages.h **** static inline void pprz_msg_send_SOLAR_RADIATION(struct transport_tx *trans, struct link_device *de
2140:/home/lsk/paparazzi/var/include/messages.h **** 	if (trans->check_available_space(trans->impl, dev, trans->size_of(trans->impl, 0+2+2+2+2+2+2+2+2+2
2141:/home/lsk/paparazzi/var/include/messages.h **** 	  trans->count_bytes(trans->impl, dev, trans->size_of(trans->impl, 0+2+2+2+2+2+2+2+2+2+2+2+2+2+2+2
2142:/home/lsk/paparazzi/var/include/messages.h **** 	  trans->start_message(trans->impl, dev, 0+2+2+2+2+2+2+2+2+2+2+2+2+2+2+2+2+2+2+2+2 +2 /* msg heade
2143:/home/lsk/paparazzi/var/include/messages.h **** 	  trans->put_bytes(trans->impl, dev, DL_TYPE_UINT8, DL_FORMAT_SCALAR, 1, &ac_id);
2144:/home/lsk/paparazzi/var/include/messages.h **** 	  trans->put_named_byte(trans->impl, dev, DL_TYPE_UINT8, DL_FORMAT_SCALAR, DL_SOLAR_RADIATION, "SO
2145:/home/lsk/paparazzi/var/include/messages.h **** 	  trans->put_bytes(trans->impl, dev, DL_TYPE_UINT16, DL_FORMAT_SCALAR, 2, (void *) _up_t0);
2146:/home/lsk/paparazzi/var/include/messages.h **** 	  trans->put_bytes(trans->impl, dev, DL_TYPE_UINT16, DL_FORMAT_SCALAR, 2, (void *) _dn_t0);
2147:/home/lsk/paparazzi/var/include/messages.h **** 	  trans->put_bytes(trans->impl, dev, DL_TYPE_UINT16, DL_FORMAT_SCALAR, 2, (void *) _up_t1);
2148:/home/lsk/paparazzi/var/include/messages.h **** 	  trans->put_bytes(trans->impl, dev, DL_TYPE_UINT16, DL_FORMAT_SCALAR, 2, (void *) _dn_t1);
2149:/home/lsk/paparazzi/var/include/messages.h **** 	  trans->put_bytes(trans->impl, dev, DL_TYPE_UINT16, DL_FORMAT_SCALAR, 2, (void *) _up_t2);
2150:/home/lsk/paparazzi/var/include/messages.h **** 	  trans->put_bytes(trans->impl, dev, DL_TYPE_UINT16, DL_FORMAT_SCALAR, 2, (void *) _dn_t2);
2151:/home/lsk/paparazzi/var/include/messages.h **** 	  trans->put_bytes(trans->impl, dev, DL_TYPE_UINT16, DL_FORMAT_SCALAR, 2, (void *) _up_t3);
2152:/home/lsk/paparazzi/var/include/messages.h **** 	  trans->put_bytes(trans->impl, dev, DL_TYPE_UINT16, DL_FORMAT_SCALAR, 2, (void *) _dn_t3);
2153:/home/lsk/paparazzi/var/include/messages.h **** 	  trans->put_bytes(trans->impl, dev, DL_TYPE_UINT16, DL_FORMAT_SCALAR, 2, (void *) _up_t4);
2154:/home/lsk/paparazzi/var/include/messages.h **** 	  trans->put_bytes(trans->impl, dev, DL_TYPE_UINT16, DL_FORMAT_SCALAR, 2, (void *) _dn_t4);
2155:/home/lsk/paparazzi/var/include/messages.h **** 	  trans->put_bytes(trans->impl, dev, DL_TYPE_UINT16, DL_FORMAT_SCALAR, 2, (void *) _up_t5);
2156:/home/lsk/paparazzi/var/include/messages.h **** 	  trans->put_bytes(trans->impl, dev, DL_TYPE_UINT16, DL_FORMAT_SCALAR, 2, (void *) _dn_t5);
2157:/home/lsk/paparazzi/var/include/messages.h **** 	  trans->put_bytes(trans->impl, dev, DL_TYPE_UINT16, DL_FORMAT_SCALAR, 2, (void *) _up_t6);
2158:/home/lsk/paparazzi/var/include/messages.h **** 	  trans->put_bytes(trans->impl, dev, DL_TYPE_UINT16, DL_FORMAT_SCALAR, 2, (void *) _dn_t6);
2159:/home/lsk/paparazzi/var/include/messages.h **** 	  trans->put_bytes(trans->impl, dev, DL_TYPE_UINT16, DL_FORMAT_SCALAR, 2, (void *) _up_t7);
2160:/home/lsk/paparazzi/var/include/messages.h **** 	  trans->put_bytes(trans->impl, dev, DL_TYPE_UINT16, DL_FORMAT_SCALAR, 2, (void *) _dn_t7);
2161:/home/lsk/paparazzi/var/include/messages.h **** 	  trans->put_bytes(trans->impl, dev, DL_TYPE_UINT16, DL_FORMAT_SCALAR, 2, (void *) _up_t8);
2162:/home/lsk/paparazzi/var/include/messages.h **** 	  trans->put_bytes(trans->impl, dev, DL_TYPE_UINT16, DL_FORMAT_SCALAR, 2, (void *) _dn_t8);
2163:/home/lsk/paparazzi/var/include/messages.h **** 	  trans->put_bytes(trans->impl, dev, DL_TYPE_UINT16, DL_FORMAT_SCALAR, 2, (void *) _up_t9);
2164:/home/lsk/paparazzi/var/include/messages.h **** 	  trans->put_bytes(trans->impl, dev, DL_TYPE_UINT16, DL_FORMAT_SCALAR, 2, (void *) _dn_t9);
2165:/home/lsk/paparazzi/var/include/messages.h **** 	  trans->end_message(trans->impl, dev);
2166:/home/lsk/paparazzi/var/include/messages.h **** 	} else
2167:/home/lsk/paparazzi/var/include/messages.h **** 	  trans->overrun(trans->impl, dev);
2168:/home/lsk/paparazzi/var/include/messages.h **** }
2169:/home/lsk/paparazzi/var/include/messages.h **** 
2170:/home/lsk/paparazzi/var/include/messages.h **** #define DOWNLINK_SEND_TCAS_TA(_trans, _dev, ac_id) pprz_msg_send_TCAS_TA(&((_trans).trans_tx), &((_
2171:/home/lsk/paparazzi/var/include/messages.h **** static inline void pprz_msg_send_TCAS_TA(struct transport_tx *trans, struct link_device *dev, uint8
2172:/home/lsk/paparazzi/var/include/messages.h **** 	if (trans->check_available_space(trans->impl, dev, trans->size_of(trans->impl, 0+1 +2 /* msg heade
2173:/home/lsk/paparazzi/var/include/messages.h **** 	  trans->count_bytes(trans->impl, dev, trans->size_of(trans->impl, 0+1 +2 /* msg header overhead *
2174:/home/lsk/paparazzi/var/include/messages.h **** 	  trans->start_message(trans->impl, dev, 0+1 +2 /* msg header overhead */);
2175:/home/lsk/paparazzi/var/include/messages.h **** 	  trans->put_bytes(trans->impl, dev, DL_TYPE_UINT8, DL_FORMAT_SCALAR, 1, &ac_id);
2176:/home/lsk/paparazzi/var/include/messages.h **** 	  trans->put_named_byte(trans->impl, dev, DL_TYPE_UINT8, DL_FORMAT_SCALAR, DL_TCAS_TA, "TCAS_TA");
2177:/home/lsk/paparazzi/var/include/messages.h **** 	  trans->put_bytes(trans->impl, dev, DL_TYPE_UINT8, DL_FORMAT_SCALAR, 1, (void *) _ac_id);
2178:/home/lsk/paparazzi/var/include/messages.h **** 	  trans->end_message(trans->impl, dev);
2179:/home/lsk/paparazzi/var/include/messages.h **** 	} else
2180:/home/lsk/paparazzi/var/include/messages.h **** 	  trans->overrun(trans->impl, dev);
2181:/home/lsk/paparazzi/var/include/messages.h **** }
2182:/home/lsk/paparazzi/var/include/messages.h **** 
2183:/home/lsk/paparazzi/var/include/messages.h **** #define DOWNLINK_SEND_TCAS_RA(_trans, _dev, ac_id, resolve) pprz_msg_send_TCAS_RA(&((_trans).trans_
2184:/home/lsk/paparazzi/var/include/messages.h **** static inline void pprz_msg_send_TCAS_RA(struct transport_tx *trans, struct link_device *dev, uint8
2185:/home/lsk/paparazzi/var/include/messages.h **** 	if (trans->check_available_space(trans->impl, dev, trans->size_of(trans->impl, 0+1+1 +2 /* msg hea
2186:/home/lsk/paparazzi/var/include/messages.h **** 	  trans->count_bytes(trans->impl, dev, trans->size_of(trans->impl, 0+1+1 +2 /* msg header overhead
2187:/home/lsk/paparazzi/var/include/messages.h **** 	  trans->start_message(trans->impl, dev, 0+1+1 +2 /* msg header overhead */);
2188:/home/lsk/paparazzi/var/include/messages.h **** 	  trans->put_bytes(trans->impl, dev, DL_TYPE_UINT8, DL_FORMAT_SCALAR, 1, &ac_id);
2189:/home/lsk/paparazzi/var/include/messages.h **** 	  trans->put_named_byte(trans->impl, dev, DL_TYPE_UINT8, DL_FORMAT_SCALAR, DL_TCAS_RA, "TCAS_RA");
2190:/home/lsk/paparazzi/var/include/messages.h **** 	  trans->put_bytes(trans->impl, dev, DL_TYPE_UINT8, DL_FORMAT_SCALAR, 1, (void *) _ac_id);
2191:/home/lsk/paparazzi/var/include/messages.h **** 	  trans->put_bytes(trans->impl, dev, DL_TYPE_UINT8, DL_FORMAT_SCALAR, 1, (void *) _resolve);
2192:/home/lsk/paparazzi/var/include/messages.h **** 	  trans->end_message(trans->impl, dev);
2193:/home/lsk/paparazzi/var/include/messages.h **** 	} else
2194:/home/lsk/paparazzi/var/include/messages.h **** 	  trans->overrun(trans->impl, dev);
2195:/home/lsk/paparazzi/var/include/messages.h **** }
2196:/home/lsk/paparazzi/var/include/messages.h **** 
2197:/home/lsk/paparazzi/var/include/messages.h **** #define DOWNLINK_SEND_TCAS_RESOLVED(_trans, _dev, ac_id) pprz_msg_send_TCAS_RESOLVED(&((_trans).tra
2198:/home/lsk/paparazzi/var/include/messages.h **** static inline void pprz_msg_send_TCAS_RESOLVED(struct transport_tx *trans, struct link_device *dev,
2199:/home/lsk/paparazzi/var/include/messages.h **** 	if (trans->check_available_space(trans->impl, dev, trans->size_of(trans->impl, 0+1 +2 /* msg heade
2200:/home/lsk/paparazzi/var/include/messages.h **** 	  trans->count_bytes(trans->impl, dev, trans->size_of(trans->impl, 0+1 +2 /* msg header overhead *
2201:/home/lsk/paparazzi/var/include/messages.h **** 	  trans->start_message(trans->impl, dev, 0+1 +2 /* msg header overhead */);
2202:/home/lsk/paparazzi/var/include/messages.h **** 	  trans->put_bytes(trans->impl, dev, DL_TYPE_UINT8, DL_FORMAT_SCALAR, 1, &ac_id);
2203:/home/lsk/paparazzi/var/include/messages.h **** 	  trans->put_named_byte(trans->impl, dev, DL_TYPE_UINT8, DL_FORMAT_SCALAR, DL_TCAS_RESOLVED, "TCAS
2204:/home/lsk/paparazzi/var/include/messages.h **** 	  trans->put_bytes(trans->impl, dev, DL_TYPE_UINT8, DL_FORMAT_SCALAR, 1, (void *) _ac_id);
2205:/home/lsk/paparazzi/var/include/messages.h **** 	  trans->end_message(trans->impl, dev);
2206:/home/lsk/paparazzi/var/include/messages.h **** 	} else
2207:/home/lsk/paparazzi/var/include/messages.h **** 	  trans->overrun(trans->impl, dev);
2208:/home/lsk/paparazzi/var/include/messages.h **** }
2209:/home/lsk/paparazzi/var/include/messages.h **** 
2210:/home/lsk/paparazzi/var/include/messages.h **** #define DOWNLINK_SEND_TCAS_DEBUG(_trans, _dev, ac_id, tau) pprz_msg_send_TCAS_DEBUG(&((_trans).tran
2211:/home/lsk/paparazzi/var/include/messages.h **** static inline void pprz_msg_send_TCAS_DEBUG(struct transport_tx *trans, struct link_device *dev, ui
2212:/home/lsk/paparazzi/var/include/messages.h **** 	if (trans->check_available_space(trans->impl, dev, trans->size_of(trans->impl, 0+1+4 +2 /* msg hea
2213:/home/lsk/paparazzi/var/include/messages.h **** 	  trans->count_bytes(trans->impl, dev, trans->size_of(trans->impl, 0+1+4 +2 /* msg header overhead
2214:/home/lsk/paparazzi/var/include/messages.h **** 	  trans->start_message(trans->impl, dev, 0+1+4 +2 /* msg header overhead */);
2215:/home/lsk/paparazzi/var/include/messages.h **** 	  trans->put_bytes(trans->impl, dev, DL_TYPE_UINT8, DL_FORMAT_SCALAR, 1, &ac_id);
2216:/home/lsk/paparazzi/var/include/messages.h **** 	  trans->put_named_byte(trans->impl, dev, DL_TYPE_UINT8, DL_FORMAT_SCALAR, DL_TCAS_DEBUG, "TCAS_DE
2217:/home/lsk/paparazzi/var/include/messages.h **** 	  trans->put_bytes(trans->impl, dev, DL_TYPE_UINT8, DL_FORMAT_SCALAR, 1, (void *) _ac_id);
2218:/home/lsk/paparazzi/var/include/messages.h **** 	  trans->put_bytes(trans->impl, dev, DL_TYPE_FLOAT, DL_FORMAT_SCALAR, 4, (void *) _tau);
2219:/home/lsk/paparazzi/var/include/messages.h **** 	  trans->end_message(trans->impl, dev);
2220:/home/lsk/paparazzi/var/include/messages.h **** 	} else
2221:/home/lsk/paparazzi/var/include/messages.h **** 	  trans->overrun(trans->impl, dev);
2222:/home/lsk/paparazzi/var/include/messages.h **** }
2223:/home/lsk/paparazzi/var/include/messages.h **** 
2224:/home/lsk/paparazzi/var/include/messages.h **** #define DOWNLINK_SEND_POTENTIAL(_trans, _dev, east, north, alt, speed, climb) pprz_msg_send_POTENTI
2225:/home/lsk/paparazzi/var/include/messages.h **** static inline void pprz_msg_send_POTENTIAL(struct transport_tx *trans, struct link_device *dev, uin
2226:/home/lsk/paparazzi/var/include/messages.h **** 	if (trans->check_available_space(trans->impl, dev, trans->size_of(trans->impl, 0+4+4+4+4+4 +2 /* m
2227:/home/lsk/paparazzi/var/include/messages.h **** 	  trans->count_bytes(trans->impl, dev, trans->size_of(trans->impl, 0+4+4+4+4+4 +2 /* msg header ov
2228:/home/lsk/paparazzi/var/include/messages.h **** 	  trans->start_message(trans->impl, dev, 0+4+4+4+4+4 +2 /* msg header overhead */);
2229:/home/lsk/paparazzi/var/include/messages.h **** 	  trans->put_bytes(trans->impl, dev, DL_TYPE_UINT8, DL_FORMAT_SCALAR, 1, &ac_id);
2230:/home/lsk/paparazzi/var/include/messages.h **** 	  trans->put_named_byte(trans->impl, dev, DL_TYPE_UINT8, DL_FORMAT_SCALAR, DL_POTENTIAL, "POTENTIA
2231:/home/lsk/paparazzi/var/include/messages.h **** 	  trans->put_bytes(trans->impl, dev, DL_TYPE_FLOAT, DL_FORMAT_SCALAR, 4, (void *) _east);
2232:/home/lsk/paparazzi/var/include/messages.h **** 	  trans->put_bytes(trans->impl, dev, DL_TYPE_FLOAT, DL_FORMAT_SCALAR, 4, (void *) _north);
2233:/home/lsk/paparazzi/var/include/messages.h **** 	  trans->put_bytes(trans->impl, dev, DL_TYPE_FLOAT, DL_FORMAT_SCALAR, 4, (void *) _alt);
2234:/home/lsk/paparazzi/var/include/messages.h **** 	  trans->put_bytes(trans->impl, dev, DL_TYPE_FLOAT, DL_FORMAT_SCALAR, 4, (void *) _speed);
2235:/home/lsk/paparazzi/var/include/messages.h **** 	  trans->put_bytes(trans->impl, dev, DL_TYPE_FLOAT, DL_FORMAT_SCALAR, 4, (void *) _climb);
2236:/home/lsk/paparazzi/var/include/messages.h **** 	  trans->end_message(trans->impl, dev);
2237:/home/lsk/paparazzi/var/include/messages.h **** 	} else
2238:/home/lsk/paparazzi/var/include/messages.h **** 	  trans->overrun(trans->impl, dev);
2239:/home/lsk/paparazzi/var/include/messages.h **** }
2240:/home/lsk/paparazzi/var/include/messages.h **** 
2241:/home/lsk/paparazzi/var/include/messages.h **** #define DOWNLINK_SEND_VERTICAL_ENERGY(_trans, _dev, Epot_err, Ekin_err, Etot_err, Edis_err, throttl
2242:/home/lsk/paparazzi/var/include/messages.h **** static inline void pprz_msg_send_VERTICAL_ENERGY(struct transport_tx *trans, struct link_device *de
2243:/home/lsk/paparazzi/var/include/messages.h **** 	if (trans->check_available_space(trans->impl, dev, trans->size_of(trans->impl, 0+4+4+4+4+4+4+4 +2 
2244:/home/lsk/paparazzi/var/include/messages.h **** 	  trans->count_bytes(trans->impl, dev, trans->size_of(trans->impl, 0+4+4+4+4+4+4+4 +2 /* msg heade
2245:/home/lsk/paparazzi/var/include/messages.h **** 	  trans->start_message(trans->impl, dev, 0+4+4+4+4+4+4+4 +2 /* msg header overhead */);
2246:/home/lsk/paparazzi/var/include/messages.h **** 	  trans->put_bytes(trans->impl, dev, DL_TYPE_UINT8, DL_FORMAT_SCALAR, 1, &ac_id);
2247:/home/lsk/paparazzi/var/include/messages.h **** 	  trans->put_named_byte(trans->impl, dev, DL_TYPE_UINT8, DL_FORMAT_SCALAR, DL_VERTICAL_ENERGY, "VE
2248:/home/lsk/paparazzi/var/include/messages.h **** 	  trans->put_bytes(trans->impl, dev, DL_TYPE_FLOAT, DL_FORMAT_SCALAR, 4, (void *) _Epot_err);
2249:/home/lsk/paparazzi/var/include/messages.h **** 	  trans->put_bytes(trans->impl, dev, DL_TYPE_FLOAT, DL_FORMAT_SCALAR, 4, (void *) _Ekin_err);
2250:/home/lsk/paparazzi/var/include/messages.h **** 	  trans->put_bytes(trans->impl, dev, DL_TYPE_FLOAT, DL_FORMAT_SCALAR, 4, (void *) _Etot_err);
2251:/home/lsk/paparazzi/var/include/messages.h **** 	  trans->put_bytes(trans->impl, dev, DL_TYPE_FLOAT, DL_FORMAT_SCALAR, 4, (void *) _Edis_err);
2252:/home/lsk/paparazzi/var/include/messages.h **** 	  trans->put_bytes(trans->impl, dev, DL_TYPE_FLOAT, DL_FORMAT_SCALAR, 4, (void *) _throttle);
2253:/home/lsk/paparazzi/var/include/messages.h **** 	  trans->put_bytes(trans->impl, dev, DL_TYPE_FLOAT, DL_FORMAT_SCALAR, 4, (void *) _nav_pitch);
2254:/home/lsk/paparazzi/var/include/messages.h **** 	  trans->put_bytes(trans->impl, dev, DL_TYPE_FLOAT, DL_FORMAT_SCALAR, 4, (void *) _speed_sp);
2255:/home/lsk/paparazzi/var/include/messages.h **** 	  trans->end_message(trans->impl, dev);
2256:/home/lsk/paparazzi/var/include/messages.h **** 	} else
2257:/home/lsk/paparazzi/var/include/messages.h **** 	  trans->overrun(trans->impl, dev);
2258:/home/lsk/paparazzi/var/include/messages.h **** }
2259:/home/lsk/paparazzi/var/include/messages.h **** 
2260:/home/lsk/paparazzi/var/include/messages.h **** #define DOWNLINK_SEND_TEMP_TCOUPLE(_trans, _dev, fval0, fval1, fval2, fval3, fref0, fref1, fref2, f
2261:/home/lsk/paparazzi/var/include/messages.h **** static inline void pprz_msg_send_TEMP_TCOUPLE(struct transport_tx *trans, struct link_device *dev, 
2262:/home/lsk/paparazzi/var/include/messages.h **** 	if (trans->check_available_space(trans->impl, dev, trans->size_of(trans->impl, 0+4+4+4+4+4+4+4+4+2
2263:/home/lsk/paparazzi/var/include/messages.h **** 	  trans->count_bytes(trans->impl, dev, trans->size_of(trans->impl, 0+4+4+4+4+4+4+4+4+2+2+2+2+2+2+2
2264:/home/lsk/paparazzi/var/include/messages.h **** 	  trans->start_message(trans->impl, dev, 0+4+4+4+4+4+4+4+4+2+2+2+2+2+2+2+2 +2 /* msg header overhe
2265:/home/lsk/paparazzi/var/include/messages.h **** 	  trans->put_bytes(trans->impl, dev, DL_TYPE_UINT8, DL_FORMAT_SCALAR, 1, &ac_id);
2266:/home/lsk/paparazzi/var/include/messages.h **** 	  trans->put_named_byte(trans->impl, dev, DL_TYPE_UINT8, DL_FORMAT_SCALAR, DL_TEMP_TCOUPLE, "TEMP_
2267:/home/lsk/paparazzi/var/include/messages.h **** 	  trans->put_bytes(trans->impl, dev, DL_TYPE_FLOAT, DL_FORMAT_SCALAR, 4, (void *) _fval0);
2268:/home/lsk/paparazzi/var/include/messages.h **** 	  trans->put_bytes(trans->impl, dev, DL_TYPE_FLOAT, DL_FORMAT_SCALAR, 4, (void *) _fval1);
2269:/home/lsk/paparazzi/var/include/messages.h **** 	  trans->put_bytes(trans->impl, dev, DL_TYPE_FLOAT, DL_FORMAT_SCALAR, 4, (void *) _fval2);
2270:/home/lsk/paparazzi/var/include/messages.h **** 	  trans->put_bytes(trans->impl, dev, DL_TYPE_FLOAT, DL_FORMAT_SCALAR, 4, (void *) _fval3);
2271:/home/lsk/paparazzi/var/include/messages.h **** 	  trans->put_bytes(trans->impl, dev, DL_TYPE_FLOAT, DL_FORMAT_SCALAR, 4, (void *) _fref0);
2272:/home/lsk/paparazzi/var/include/messages.h **** 	  trans->put_bytes(trans->impl, dev, DL_TYPE_FLOAT, DL_FORMAT_SCALAR, 4, (void *) _fref1);
2273:/home/lsk/paparazzi/var/include/messages.h **** 	  trans->put_bytes(trans->impl, dev, DL_TYPE_FLOAT, DL_FORMAT_SCALAR, 4, (void *) _fref2);
2274:/home/lsk/paparazzi/var/include/messages.h **** 	  trans->put_bytes(trans->impl, dev, DL_TYPE_FLOAT, DL_FORMAT_SCALAR, 4, (void *) _fref3);
2275:/home/lsk/paparazzi/var/include/messages.h **** 	  trans->put_bytes(trans->impl, dev, DL_TYPE_UINT16, DL_FORMAT_SCALAR, 2, (void *) _val0);
2276:/home/lsk/paparazzi/var/include/messages.h **** 	  trans->put_bytes(trans->impl, dev, DL_TYPE_UINT16, DL_FORMAT_SCALAR, 2, (void *) _val1);
2277:/home/lsk/paparazzi/var/include/messages.h **** 	  trans->put_bytes(trans->impl, dev, DL_TYPE_UINT16, DL_FORMAT_SCALAR, 2, (void *) _val2);
2278:/home/lsk/paparazzi/var/include/messages.h **** 	  trans->put_bytes(trans->impl, dev, DL_TYPE_UINT16, DL_FORMAT_SCALAR, 2, (void *) _val3);
2279:/home/lsk/paparazzi/var/include/messages.h **** 	  trans->put_bytes(trans->impl, dev, DL_TYPE_UINT16, DL_FORMAT_SCALAR, 2, (void *) _ref0);
2280:/home/lsk/paparazzi/var/include/messages.h **** 	  trans->put_bytes(trans->impl, dev, DL_TYPE_UINT16, DL_FORMAT_SCALAR, 2, (void *) _ref1);
2281:/home/lsk/paparazzi/var/include/messages.h **** 	  trans->put_bytes(trans->impl, dev, DL_TYPE_UINT16, DL_FORMAT_SCALAR, 2, (void *) _ref2);
2282:/home/lsk/paparazzi/var/include/messages.h **** 	  trans->put_bytes(trans->impl, dev, DL_TYPE_UINT16, DL_FORMAT_SCALAR, 2, (void *) _ref3);
2283:/home/lsk/paparazzi/var/include/messages.h **** 	  trans->end_message(trans->impl, dev);
2284:/home/lsk/paparazzi/var/include/messages.h **** 	} else
2285:/home/lsk/paparazzi/var/include/messages.h **** 	  trans->overrun(trans->impl, dev);
2286:/home/lsk/paparazzi/var/include/messages.h **** }
2287:/home/lsk/paparazzi/var/include/messages.h **** 
2288:/home/lsk/paparazzi/var/include/messages.h **** #define DOWNLINK_SEND_SHT_I2C_STATUS(_trans, _dev, ihumid, itemp, humid, temp) pprz_msg_send_SHT_I2
2289:/home/lsk/paparazzi/var/include/messages.h **** static inline void pprz_msg_send_SHT_I2C_STATUS(struct transport_tx *trans, struct link_device *dev
2290:/home/lsk/paparazzi/var/include/messages.h **** 	if (trans->check_available_space(trans->impl, dev, trans->size_of(trans->impl, 0+2+2+4+4 +2 /* msg
2291:/home/lsk/paparazzi/var/include/messages.h **** 	  trans->count_bytes(trans->impl, dev, trans->size_of(trans->impl, 0+2+2+4+4 +2 /* msg header over
2292:/home/lsk/paparazzi/var/include/messages.h **** 	  trans->start_message(trans->impl, dev, 0+2+2+4+4 +2 /* msg header overhead */);
2293:/home/lsk/paparazzi/var/include/messages.h **** 	  trans->put_bytes(trans->impl, dev, DL_TYPE_UINT8, DL_FORMAT_SCALAR, 1, &ac_id);
2294:/home/lsk/paparazzi/var/include/messages.h **** 	  trans->put_named_byte(trans->impl, dev, DL_TYPE_UINT8, DL_FORMAT_SCALAR, DL_SHT_I2C_STATUS, "SHT
2295:/home/lsk/paparazzi/var/include/messages.h **** 	  trans->put_bytes(trans->impl, dev, DL_TYPE_UINT16, DL_FORMAT_SCALAR, 2, (void *) _ihumid);
2296:/home/lsk/paparazzi/var/include/messages.h **** 	  trans->put_bytes(trans->impl, dev, DL_TYPE_UINT16, DL_FORMAT_SCALAR, 2, (void *) _itemp);
2297:/home/lsk/paparazzi/var/include/messages.h **** 	  trans->put_bytes(trans->impl, dev, DL_TYPE_FLOAT, DL_FORMAT_SCALAR, 4, (void *) _humid);
2298:/home/lsk/paparazzi/var/include/messages.h **** 	  trans->put_bytes(trans->impl, dev, DL_TYPE_FLOAT, DL_FORMAT_SCALAR, 4, (void *) _temp);
2299:/home/lsk/paparazzi/var/include/messages.h **** 	  trans->end_message(trans->impl, dev);
2300:/home/lsk/paparazzi/var/include/messages.h **** 	} else
2301:/home/lsk/paparazzi/var/include/messages.h **** 	  trans->overrun(trans->impl, dev);
2302:/home/lsk/paparazzi/var/include/messages.h **** }
2303:/home/lsk/paparazzi/var/include/messages.h **** 
2304:/home/lsk/paparazzi/var/include/messages.h **** #define DOWNLINK_SEND_CAMERA_SNAPSHOT(_trans, _dev, snapshot_image_number) pprz_msg_send_CAMERA_SNA
2305:/home/lsk/paparazzi/var/include/messages.h **** static inline void pprz_msg_send_CAMERA_SNAPSHOT(struct transport_tx *trans, struct link_device *de
2306:/home/lsk/paparazzi/var/include/messages.h **** 	if (trans->check_available_space(trans->impl, dev, trans->size_of(trans->impl, 0+2 +2 /* msg heade
2307:/home/lsk/paparazzi/var/include/messages.h **** 	  trans->count_bytes(trans->impl, dev, trans->size_of(trans->impl, 0+2 +2 /* msg header overhead *
2308:/home/lsk/paparazzi/var/include/messages.h **** 	  trans->start_message(trans->impl, dev, 0+2 +2 /* msg header overhead */);
2309:/home/lsk/paparazzi/var/include/messages.h **** 	  trans->put_bytes(trans->impl, dev, DL_TYPE_UINT8, DL_FORMAT_SCALAR, 1, &ac_id);
2310:/home/lsk/paparazzi/var/include/messages.h **** 	  trans->put_named_byte(trans->impl, dev, DL_TYPE_UINT8, DL_FORMAT_SCALAR, DL_CAMERA_SNAPSHOT, "CA
2311:/home/lsk/paparazzi/var/include/messages.h **** 	  trans->put_bytes(trans->impl, dev, DL_TYPE_UINT16, DL_FORMAT_SCALAR, 2, (void *) _snapshot_image
2312:/home/lsk/paparazzi/var/include/messages.h **** 	  trans->end_message(trans->impl, dev);
2313:/home/lsk/paparazzi/var/include/messages.h **** 	} else
2314:/home/lsk/paparazzi/var/include/messages.h **** 	  trans->overrun(trans->impl, dev);
2315:/home/lsk/paparazzi/var/include/messages.h **** }
2316:/home/lsk/paparazzi/var/include/messages.h **** 
2317:/home/lsk/paparazzi/var/include/messages.h **** #define DOWNLINK_SEND_TIMESTAMP(_trans, _dev, timestamp) pprz_msg_send_TIMESTAMP(&((_trans).trans_t
2318:/home/lsk/paparazzi/var/include/messages.h **** static inline void pprz_msg_send_TIMESTAMP(struct transport_tx *trans, struct link_device *dev, uin
2319:/home/lsk/paparazzi/var/include/messages.h **** 	if (trans->check_available_space(trans->impl, dev, trans->size_of(trans->impl, 0+4 +2 /* msg heade
2320:/home/lsk/paparazzi/var/include/messages.h **** 	  trans->count_bytes(trans->impl, dev, trans->size_of(trans->impl, 0+4 +2 /* msg header overhead *
2321:/home/lsk/paparazzi/var/include/messages.h **** 	  trans->start_message(trans->impl, dev, 0+4 +2 /* msg header overhead */);
2322:/home/lsk/paparazzi/var/include/messages.h **** 	  trans->put_bytes(trans->impl, dev, DL_TYPE_UINT8, DL_FORMAT_SCALAR, 1, &ac_id);
2323:/home/lsk/paparazzi/var/include/messages.h **** 	  trans->put_named_byte(trans->impl, dev, DL_TYPE_UINT8, DL_FORMAT_SCALAR, DL_TIMESTAMP, "TIMESTAM
2324:/home/lsk/paparazzi/var/include/messages.h **** 	  trans->put_bytes(trans->impl, dev, DL_TYPE_UINT32, DL_FORMAT_SCALAR, 4, (void *) _timestamp);
2325:/home/lsk/paparazzi/var/include/messages.h **** 	  trans->end_message(trans->impl, dev);
2326:/home/lsk/paparazzi/var/include/messages.h **** 	} else
2327:/home/lsk/paparazzi/var/include/messages.h **** 	  trans->overrun(trans->impl, dev);
2328:/home/lsk/paparazzi/var/include/messages.h **** }
2329:/home/lsk/paparazzi/var/include/messages.h **** 
2330:/home/lsk/paparazzi/var/include/messages.h **** #define DOWNLINK_SEND_STAB_ATTITUDE_FLOAT(_trans, _dev, est_p, est_q, est_r, est_phi, est_theta, es
2331:/home/lsk/paparazzi/var/include/messages.h **** static inline void pprz_msg_send_STAB_ATTITUDE_FLOAT(struct transport_tx *trans, struct link_device
2332:/home/lsk/paparazzi/var/include/messages.h **** 	if (trans->check_available_space(trans->impl, dev, trans->size_of(trans->impl, 0+4+4+4+4+4+4+4+4+4
2333:/home/lsk/paparazzi/var/include/messages.h **** 	  trans->count_bytes(trans->impl, dev, trans->size_of(trans->impl, 0+4+4+4+4+4+4+4+4+4+4+4+4+4+4+4
2334:/home/lsk/paparazzi/var/include/messages.h **** 	  trans->start_message(trans->impl, dev, 0+4+4+4+4+4+4+4+4+4+4+4+4+4+4+4+4+4+4+4+4+4+4+4+4 +2 /* m
2335:/home/lsk/paparazzi/var/include/messages.h **** 	  trans->put_bytes(trans->impl, dev, DL_TYPE_UINT8, DL_FORMAT_SCALAR, 1, &ac_id);
2336:/home/lsk/paparazzi/var/include/messages.h **** 	  trans->put_named_byte(trans->impl, dev, DL_TYPE_UINT8, DL_FORMAT_SCALAR, DL_STAB_ATTITUDE_FLOAT,
2337:/home/lsk/paparazzi/var/include/messages.h **** 	  trans->put_bytes(trans->impl, dev, DL_TYPE_FLOAT, DL_FORMAT_SCALAR, 4, (void *) _est_p);
2338:/home/lsk/paparazzi/var/include/messages.h **** 	  trans->put_bytes(trans->impl, dev, DL_TYPE_FLOAT, DL_FORMAT_SCALAR, 4, (void *) _est_q);
2339:/home/lsk/paparazzi/var/include/messages.h **** 	  trans->put_bytes(trans->impl, dev, DL_TYPE_FLOAT, DL_FORMAT_SCALAR, 4, (void *) _est_r);
2340:/home/lsk/paparazzi/var/include/messages.h **** 	  trans->put_bytes(trans->impl, dev, DL_TYPE_FLOAT, DL_FORMAT_SCALAR, 4, (void *) _est_phi);
2341:/home/lsk/paparazzi/var/include/messages.h **** 	  trans->put_bytes(trans->impl, dev, DL_TYPE_FLOAT, DL_FORMAT_SCALAR, 4, (void *) _est_theta);
2342:/home/lsk/paparazzi/var/include/messages.h **** 	  trans->put_bytes(trans->impl, dev, DL_TYPE_FLOAT, DL_FORMAT_SCALAR, 4, (void *) _est_psi);
2343:/home/lsk/paparazzi/var/include/messages.h **** 	  trans->put_bytes(trans->impl, dev, DL_TYPE_FLOAT, DL_FORMAT_SCALAR, 4, (void *) _ref_phi);
2344:/home/lsk/paparazzi/var/include/messages.h **** 	  trans->put_bytes(trans->impl, dev, DL_TYPE_FLOAT, DL_FORMAT_SCALAR, 4, (void *) _ref_theta);
2345:/home/lsk/paparazzi/var/include/messages.h **** 	  trans->put_bytes(trans->impl, dev, DL_TYPE_FLOAT, DL_FORMAT_SCALAR, 4, (void *) _ref_psi);
2346:/home/lsk/paparazzi/var/include/messages.h **** 	  trans->put_bytes(trans->impl, dev, DL_TYPE_FLOAT, DL_FORMAT_SCALAR, 4, (void *) _sum_err_phi);
2347:/home/lsk/paparazzi/var/include/messages.h **** 	  trans->put_bytes(trans->impl, dev, DL_TYPE_FLOAT, DL_FORMAT_SCALAR, 4, (void *) _sum_err_theta);
2348:/home/lsk/paparazzi/var/include/messages.h **** 	  trans->put_bytes(trans->impl, dev, DL_TYPE_FLOAT, DL_FORMAT_SCALAR, 4, (void *) _sum_err_psi);
2349:/home/lsk/paparazzi/var/include/messages.h **** 	  trans->put_bytes(trans->impl, dev, DL_TYPE_FLOAT, DL_FORMAT_SCALAR, 4, (void *) _delta_a_fb);
2350:/home/lsk/paparazzi/var/include/messages.h **** 	  trans->put_bytes(trans->impl, dev, DL_TYPE_FLOAT, DL_FORMAT_SCALAR, 4, (void *) _delta_e_fb);
2351:/home/lsk/paparazzi/var/include/messages.h **** 	  trans->put_bytes(trans->impl, dev, DL_TYPE_FLOAT, DL_FORMAT_SCALAR, 4, (void *) _delta_r_fb);
2352:/home/lsk/paparazzi/var/include/messages.h **** 	  trans->put_bytes(trans->impl, dev, DL_TYPE_FLOAT, DL_FORMAT_SCALAR, 4, (void *) _delta_a_ff);
2353:/home/lsk/paparazzi/var/include/messages.h **** 	  trans->put_bytes(trans->impl, dev, DL_TYPE_FLOAT, DL_FORMAT_SCALAR, 4, (void *) _delta_e_ff);
2354:/home/lsk/paparazzi/var/include/messages.h **** 	  trans->put_bytes(trans->impl, dev, DL_TYPE_FLOAT, DL_FORMAT_SCALAR, 4, (void *) _delta_r_ff);
2355:/home/lsk/paparazzi/var/include/messages.h **** 	  trans->put_bytes(trans->impl, dev, DL_TYPE_INT32, DL_FORMAT_SCALAR, 4, (void *) _delta_a);
2356:/home/lsk/paparazzi/var/include/messages.h **** 	  trans->put_bytes(trans->impl, dev, DL_TYPE_INT32, DL_FORMAT_SCALAR, 4, (void *) _delta_e);
2357:/home/lsk/paparazzi/var/include/messages.h **** 	  trans->put_bytes(trans->impl, dev, DL_TYPE_INT32, DL_FORMAT_SCALAR, 4, (void *) _delta_r);
2358:/home/lsk/paparazzi/var/include/messages.h **** 	  trans->put_bytes(trans->impl, dev, DL_TYPE_FLOAT, DL_FORMAT_SCALAR, 4, (void *) _est_p_d);
2359:/home/lsk/paparazzi/var/include/messages.h **** 	  trans->put_bytes(trans->impl, dev, DL_TYPE_FLOAT, DL_FORMAT_SCALAR, 4, (void *) _est_q_d);
2360:/home/lsk/paparazzi/var/include/messages.h **** 	  trans->put_bytes(trans->impl, dev, DL_TYPE_FLOAT, DL_FORMAT_SCALAR, 4, (void *) _est_r_d);
2361:/home/lsk/paparazzi/var/include/messages.h **** 	  trans->end_message(trans->impl, dev);
2362:/home/lsk/paparazzi/var/include/messages.h **** 	} else
2363:/home/lsk/paparazzi/var/include/messages.h **** 	  trans->overrun(trans->impl, dev);
2364:/home/lsk/paparazzi/var/include/messages.h **** }
2365:/home/lsk/paparazzi/var/include/messages.h **** 
2366:/home/lsk/paparazzi/var/include/messages.h **** #define DOWNLINK_SEND_IMU_GYRO_SCALED(_trans, _dev, gp, gq, gr) pprz_msg_send_IMU_GYRO_SCALED(&((_t
2367:/home/lsk/paparazzi/var/include/messages.h **** static inline void pprz_msg_send_IMU_GYRO_SCALED(struct transport_tx *trans, struct link_device *de
2368:/home/lsk/paparazzi/var/include/messages.h **** 	if (trans->check_available_space(trans->impl, dev, trans->size_of(trans->impl, 0+4+4+4 +2 /* msg h
2369:/home/lsk/paparazzi/var/include/messages.h **** 	  trans->count_bytes(trans->impl, dev, trans->size_of(trans->impl, 0+4+4+4 +2 /* msg header overhe
2370:/home/lsk/paparazzi/var/include/messages.h **** 	  trans->start_message(trans->impl, dev, 0+4+4+4 +2 /* msg header overhead */);
2371:/home/lsk/paparazzi/var/include/messages.h **** 	  trans->put_bytes(trans->impl, dev, DL_TYPE_UINT8, DL_FORMAT_SCALAR, 1, &ac_id);
2372:/home/lsk/paparazzi/var/include/messages.h **** 	  trans->put_named_byte(trans->impl, dev, DL_TYPE_UINT8, DL_FORMAT_SCALAR, DL_IMU_GYRO_SCALED, "IM
2373:/home/lsk/paparazzi/var/include/messages.h **** 	  trans->put_bytes(trans->impl, dev, DL_TYPE_INT32, DL_FORMAT_SCALAR, 4, (void *) _gp);
2374:/home/lsk/paparazzi/var/include/messages.h **** 	  trans->put_bytes(trans->impl, dev, DL_TYPE_INT32, DL_FORMAT_SCALAR, 4, (void *) _gq);
2375:/home/lsk/paparazzi/var/include/messages.h **** 	  trans->put_bytes(trans->impl, dev, DL_TYPE_INT32, DL_FORMAT_SCALAR, 4, (void *) _gr);
2376:/home/lsk/paparazzi/var/include/messages.h **** 	  trans->end_message(trans->impl, dev);
2377:/home/lsk/paparazzi/var/include/messages.h **** 	} else
2378:/home/lsk/paparazzi/var/include/messages.h **** 	  trans->overrun(trans->impl, dev);
2379:/home/lsk/paparazzi/var/include/messages.h **** }
2380:/home/lsk/paparazzi/var/include/messages.h **** 
2381:/home/lsk/paparazzi/var/include/messages.h **** #define DOWNLINK_SEND_IMU_ACCEL_SCALED(_trans, _dev, ax, ay, az) pprz_msg_send_IMU_ACCEL_SCALED(&((
2382:/home/lsk/paparazzi/var/include/messages.h **** static inline void pprz_msg_send_IMU_ACCEL_SCALED(struct transport_tx *trans, struct link_device *d
2383:/home/lsk/paparazzi/var/include/messages.h **** 	if (trans->check_available_space(trans->impl, dev, trans->size_of(trans->impl, 0+4+4+4 +2 /* msg h
2384:/home/lsk/paparazzi/var/include/messages.h **** 	  trans->count_bytes(trans->impl, dev, trans->size_of(trans->impl, 0+4+4+4 +2 /* msg header overhe
2385:/home/lsk/paparazzi/var/include/messages.h **** 	  trans->start_message(trans->impl, dev, 0+4+4+4 +2 /* msg header overhead */);
2386:/home/lsk/paparazzi/var/include/messages.h **** 	  trans->put_bytes(trans->impl, dev, DL_TYPE_UINT8, DL_FORMAT_SCALAR, 1, &ac_id);
2387:/home/lsk/paparazzi/var/include/messages.h **** 	  trans->put_named_byte(trans->impl, dev, DL_TYPE_UINT8, DL_FORMAT_SCALAR, DL_IMU_ACCEL_SCALED, "I
2388:/home/lsk/paparazzi/var/include/messages.h **** 	  trans->put_bytes(trans->impl, dev, DL_TYPE_INT32, DL_FORMAT_SCALAR, 4, (void *) _ax);
2389:/home/lsk/paparazzi/var/include/messages.h **** 	  trans->put_bytes(trans->impl, dev, DL_TYPE_INT32, DL_FORMAT_SCALAR, 4, (void *) _ay);
2390:/home/lsk/paparazzi/var/include/messages.h **** 	  trans->put_bytes(trans->impl, dev, DL_TYPE_INT32, DL_FORMAT_SCALAR, 4, (void *) _az);
2391:/home/lsk/paparazzi/var/include/messages.h **** 	  trans->end_message(trans->impl, dev);
2392:/home/lsk/paparazzi/var/include/messages.h **** 	} else
2393:/home/lsk/paparazzi/var/include/messages.h **** 	  trans->overrun(trans->impl, dev);
2394:/home/lsk/paparazzi/var/include/messages.h **** }
2395:/home/lsk/paparazzi/var/include/messages.h **** 
2396:/home/lsk/paparazzi/var/include/messages.h **** #define DOWNLINK_SEND_IMU_MAG_SCALED(_trans, _dev, mx, my, mz) pprz_msg_send_IMU_MAG_SCALED(&((_tra
2397:/home/lsk/paparazzi/var/include/messages.h **** static inline void pprz_msg_send_IMU_MAG_SCALED(struct transport_tx *trans, struct link_device *dev
2398:/home/lsk/paparazzi/var/include/messages.h **** 	if (trans->check_available_space(trans->impl, dev, trans->size_of(trans->impl, 0+4+4+4 +2 /* msg h
2399:/home/lsk/paparazzi/var/include/messages.h **** 	  trans->count_bytes(trans->impl, dev, trans->size_of(trans->impl, 0+4+4+4 +2 /* msg header overhe
2400:/home/lsk/paparazzi/var/include/messages.h **** 	  trans->start_message(trans->impl, dev, 0+4+4+4 +2 /* msg header overhead */);
2401:/home/lsk/paparazzi/var/include/messages.h **** 	  trans->put_bytes(trans->impl, dev, DL_TYPE_UINT8, DL_FORMAT_SCALAR, 1, &ac_id);
2402:/home/lsk/paparazzi/var/include/messages.h **** 	  trans->put_named_byte(trans->impl, dev, DL_TYPE_UINT8, DL_FORMAT_SCALAR, DL_IMU_MAG_SCALED, "IMU
2403:/home/lsk/paparazzi/var/include/messages.h **** 	  trans->put_bytes(trans->impl, dev, DL_TYPE_INT32, DL_FORMAT_SCALAR, 4, (void *) _mx);
2404:/home/lsk/paparazzi/var/include/messages.h **** 	  trans->put_bytes(trans->impl, dev, DL_TYPE_INT32, DL_FORMAT_SCALAR, 4, (void *) _my);
2405:/home/lsk/paparazzi/var/include/messages.h **** 	  trans->put_bytes(trans->impl, dev, DL_TYPE_INT32, DL_FORMAT_SCALAR, 4, (void *) _mz);
2406:/home/lsk/paparazzi/var/include/messages.h **** 	  trans->end_message(trans->impl, dev);
2407:/home/lsk/paparazzi/var/include/messages.h **** 	} else
2408:/home/lsk/paparazzi/var/include/messages.h **** 	  trans->overrun(trans->impl, dev);
2409:/home/lsk/paparazzi/var/include/messages.h **** }
2410:/home/lsk/paparazzi/var/include/messages.h **** 
2411:/home/lsk/paparazzi/var/include/messages.h **** #define DOWNLINK_SEND_FILTER(_trans, _dev, phi, theta, psi, measure_phi, measure_theta, measure_psi
2412:/home/lsk/paparazzi/var/include/messages.h **** static inline void pprz_msg_send_FILTER(struct transport_tx *trans, struct link_device *dev, uint8_
2413:/home/lsk/paparazzi/var/include/messages.h **** 	if (trans->check_available_space(trans->impl, dev, trans->size_of(trans->impl, 0+4+4+4+4+4+4+4+4+4
2414:/home/lsk/paparazzi/var/include/messages.h **** 	  trans->count_bytes(trans->impl, dev, trans->size_of(trans->impl, 0+4+4+4+4+4+4+4+4+4+4+4+4+4+4+4
2415:/home/lsk/paparazzi/var/include/messages.h **** 	  trans->start_message(trans->impl, dev, 0+4+4+4+4+4+4+4+4+4+4+4+4+4+4+4 +2 /* msg header overhead
2416:/home/lsk/paparazzi/var/include/messages.h **** 	  trans->put_bytes(trans->impl, dev, DL_TYPE_UINT8, DL_FORMAT_SCALAR, 1, &ac_id);
2417:/home/lsk/paparazzi/var/include/messages.h **** 	  trans->put_named_byte(trans->impl, dev, DL_TYPE_UINT8, DL_FORMAT_SCALAR, DL_FILTER, "FILTER");
2418:/home/lsk/paparazzi/var/include/messages.h **** 	  trans->put_bytes(trans->impl, dev, DL_TYPE_INT32, DL_FORMAT_SCALAR, 4, (void *) _phi);
2419:/home/lsk/paparazzi/var/include/messages.h **** 	  trans->put_bytes(trans->impl, dev, DL_TYPE_INT32, DL_FORMAT_SCALAR, 4, (void *) _theta);
2420:/home/lsk/paparazzi/var/include/messages.h **** 	  trans->put_bytes(trans->impl, dev, DL_TYPE_INT32, DL_FORMAT_SCALAR, 4, (void *) _psi);
2421:/home/lsk/paparazzi/var/include/messages.h **** 	  trans->put_bytes(trans->impl, dev, DL_TYPE_INT32, DL_FORMAT_SCALAR, 4, (void *) _measure_phi);
2422:/home/lsk/paparazzi/var/include/messages.h **** 	  trans->put_bytes(trans->impl, dev, DL_TYPE_INT32, DL_FORMAT_SCALAR, 4, (void *) _measure_theta);
2423:/home/lsk/paparazzi/var/include/messages.h **** 	  trans->put_bytes(trans->impl, dev, DL_TYPE_INT32, DL_FORMAT_SCALAR, 4, (void *) _measure_psi);
2424:/home/lsk/paparazzi/var/include/messages.h **** 	  trans->put_bytes(trans->impl, dev, DL_TYPE_INT32, DL_FORMAT_SCALAR, 4, (void *) _corrected_phi);
2425:/home/lsk/paparazzi/var/include/messages.h **** 	  trans->put_bytes(trans->impl, dev, DL_TYPE_INT32, DL_FORMAT_SCALAR, 4, (void *) _corrected_theta
2426:/home/lsk/paparazzi/var/include/messages.h **** 	  trans->put_bytes(trans->impl, dev, DL_TYPE_INT32, DL_FORMAT_SCALAR, 4, (void *) _corrected_psi);
2427:/home/lsk/paparazzi/var/include/messages.h **** 	  trans->put_bytes(trans->impl, dev, DL_TYPE_INT32, DL_FORMAT_SCALAR, 4, (void *) _correction_phi)
2428:/home/lsk/paparazzi/var/include/messages.h **** 	  trans->put_bytes(trans->impl, dev, DL_TYPE_INT32, DL_FORMAT_SCALAR, 4, (void *) _correction_thet
2429:/home/lsk/paparazzi/var/include/messages.h **** 	  trans->put_bytes(trans->impl, dev, DL_TYPE_INT32, DL_FORMAT_SCALAR, 4, (void *) _correction_psi)
2430:/home/lsk/paparazzi/var/include/messages.h **** 	  trans->put_bytes(trans->impl, dev, DL_TYPE_INT32, DL_FORMAT_SCALAR, 4, (void *) _bp);
2431:/home/lsk/paparazzi/var/include/messages.h **** 	  trans->put_bytes(trans->impl, dev, DL_TYPE_INT32, DL_FORMAT_SCALAR, 4, (void *) _bq);
2432:/home/lsk/paparazzi/var/include/messages.h **** 	  trans->put_bytes(trans->impl, dev, DL_TYPE_INT32, DL_FORMAT_SCALAR, 4, (void *) _br);
2433:/home/lsk/paparazzi/var/include/messages.h **** 	  trans->end_message(trans->impl, dev);
2434:/home/lsk/paparazzi/var/include/messages.h **** 	} else
2435:/home/lsk/paparazzi/var/include/messages.h **** 	  trans->overrun(trans->impl, dev);
2436:/home/lsk/paparazzi/var/include/messages.h **** }
2437:/home/lsk/paparazzi/var/include/messages.h **** 
2438:/home/lsk/paparazzi/var/include/messages.h **** #define DOWNLINK_SEND_FILTER2(_trans, _dev, px, py, pz, gsx, gsy, gsz) pprz_msg_send_FILTER2(&((_tr
2439:/home/lsk/paparazzi/var/include/messages.h **** static inline void pprz_msg_send_FILTER2(struct transport_tx *trans, struct link_device *dev, uint8
2440:/home/lsk/paparazzi/var/include/messages.h **** 	if (trans->check_available_space(trans->impl, dev, trans->size_of(trans->impl, 0+4+4+4+4+4+4 +2 /*
2441:/home/lsk/paparazzi/var/include/messages.h **** 	  trans->count_bytes(trans->impl, dev, trans->size_of(trans->impl, 0+4+4+4+4+4+4 +2 /* msg header 
2442:/home/lsk/paparazzi/var/include/messages.h **** 	  trans->start_message(trans->impl, dev, 0+4+4+4+4+4+4 +2 /* msg header overhead */);
2443:/home/lsk/paparazzi/var/include/messages.h **** 	  trans->put_bytes(trans->impl, dev, DL_TYPE_UINT8, DL_FORMAT_SCALAR, 1, &ac_id);
2444:/home/lsk/paparazzi/var/include/messages.h **** 	  trans->put_named_byte(trans->impl, dev, DL_TYPE_UINT8, DL_FORMAT_SCALAR, DL_FILTER2, "FILTER2");
2445:/home/lsk/paparazzi/var/include/messages.h **** 	  trans->put_bytes(trans->impl, dev, DL_TYPE_INT32, DL_FORMAT_SCALAR, 4, (void *) _px);
2446:/home/lsk/paparazzi/var/include/messages.h **** 	  trans->put_bytes(trans->impl, dev, DL_TYPE_INT32, DL_FORMAT_SCALAR, 4, (void *) _py);
2447:/home/lsk/paparazzi/var/include/messages.h **** 	  trans->put_bytes(trans->impl, dev, DL_TYPE_INT32, DL_FORMAT_SCALAR, 4, (void *) _pz);
2448:/home/lsk/paparazzi/var/include/messages.h **** 	  trans->put_bytes(trans->impl, dev, DL_TYPE_INT32, DL_FORMAT_SCALAR, 4, (void *) _gsx);
2449:/home/lsk/paparazzi/var/include/messages.h **** 	  trans->put_bytes(trans->impl, dev, DL_TYPE_INT32, DL_FORMAT_SCALAR, 4, (void *) _gsy);
2450:/home/lsk/paparazzi/var/include/messages.h **** 	  trans->put_bytes(trans->impl, dev, DL_TYPE_INT32, DL_FORMAT_SCALAR, 4, (void *) _gsz);
2451:/home/lsk/paparazzi/var/include/messages.h **** 	  trans->end_message(trans->impl, dev);
2452:/home/lsk/paparazzi/var/include/messages.h **** 	} else
2453:/home/lsk/paparazzi/var/include/messages.h **** 	  trans->overrun(trans->impl, dev);
2454:/home/lsk/paparazzi/var/include/messages.h **** }
2455:/home/lsk/paparazzi/var/include/messages.h **** 
2456:/home/lsk/paparazzi/var/include/messages.h **** #define DOWNLINK_SEND_RATE_LOOP(_trans, _dev, sp_p, sp_q, sp_r, ref_p, ref_q, ref_r, refdot_p, refd
2457:/home/lsk/paparazzi/var/include/messages.h **** static inline void pprz_msg_send_RATE_LOOP(struct transport_tx *trans, struct link_device *dev, uin
2458:/home/lsk/paparazzi/var/include/messages.h **** 	if (trans->check_available_space(trans->impl, dev, trans->size_of(trans->impl, 0+4+4+4+4+4+4+4+4+4
2459:/home/lsk/paparazzi/var/include/messages.h **** 	  trans->count_bytes(trans->impl, dev, trans->size_of(trans->impl, 0+4+4+4+4+4+4+4+4+4+4+4+4+4+4+4
2460:/home/lsk/paparazzi/var/include/messages.h **** 	  trans->start_message(trans->impl, dev, 0+4+4+4+4+4+4+4+4+4+4+4+4+4+4+4+4+4+4+4 +2 /* msg header 
2461:/home/lsk/paparazzi/var/include/messages.h **** 	  trans->put_bytes(trans->impl, dev, DL_TYPE_UINT8, DL_FORMAT_SCALAR, 1, &ac_id);
2462:/home/lsk/paparazzi/var/include/messages.h **** 	  trans->put_named_byte(trans->impl, dev, DL_TYPE_UINT8, DL_FORMAT_SCALAR, DL_RATE_LOOP, "RATE_LOO
2463:/home/lsk/paparazzi/var/include/messages.h **** 	  trans->put_bytes(trans->impl, dev, DL_TYPE_INT32, DL_FORMAT_SCALAR, 4, (void *) _sp_p);
2464:/home/lsk/paparazzi/var/include/messages.h **** 	  trans->put_bytes(trans->impl, dev, DL_TYPE_INT32, DL_FORMAT_SCALAR, 4, (void *) _sp_q);
2465:/home/lsk/paparazzi/var/include/messages.h **** 	  trans->put_bytes(trans->impl, dev, DL_TYPE_INT32, DL_FORMAT_SCALAR, 4, (void *) _sp_r);
2466:/home/lsk/paparazzi/var/include/messages.h **** 	  trans->put_bytes(trans->impl, dev, DL_TYPE_INT32, DL_FORMAT_SCALAR, 4, (void *) _ref_p);
2467:/home/lsk/paparazzi/var/include/messages.h **** 	  trans->put_bytes(trans->impl, dev, DL_TYPE_INT32, DL_FORMAT_SCALAR, 4, (void *) _ref_q);
2468:/home/lsk/paparazzi/var/include/messages.h **** 	  trans->put_bytes(trans->impl, dev, DL_TYPE_INT32, DL_FORMAT_SCALAR, 4, (void *) _ref_r);
2469:/home/lsk/paparazzi/var/include/messages.h **** 	  trans->put_bytes(trans->impl, dev, DL_TYPE_INT32, DL_FORMAT_SCALAR, 4, (void *) _refdot_p);
2470:/home/lsk/paparazzi/var/include/messages.h **** 	  trans->put_bytes(trans->impl, dev, DL_TYPE_INT32, DL_FORMAT_SCALAR, 4, (void *) _refdot_q);
2471:/home/lsk/paparazzi/var/include/messages.h **** 	  trans->put_bytes(trans->impl, dev, DL_TYPE_INT32, DL_FORMAT_SCALAR, 4, (void *) _refdot_r);
2472:/home/lsk/paparazzi/var/include/messages.h **** 	  trans->put_bytes(trans->impl, dev, DL_TYPE_INT32, DL_FORMAT_SCALAR, 4, (void *) _sumerr_p);
2473:/home/lsk/paparazzi/var/include/messages.h **** 	  trans->put_bytes(trans->impl, dev, DL_TYPE_INT32, DL_FORMAT_SCALAR, 4, (void *) _sumerr_q);
2474:/home/lsk/paparazzi/var/include/messages.h **** 	  trans->put_bytes(trans->impl, dev, DL_TYPE_INT32, DL_FORMAT_SCALAR, 4, (void *) _sumerr_r);
2475:/home/lsk/paparazzi/var/include/messages.h **** 	  trans->put_bytes(trans->impl, dev, DL_TYPE_INT32, DL_FORMAT_SCALAR, 4, (void *) _ff_p);
2476:/home/lsk/paparazzi/var/include/messages.h **** 	  trans->put_bytes(trans->impl, dev, DL_TYPE_INT32, DL_FORMAT_SCALAR, 4, (void *) _ff_q);
2477:/home/lsk/paparazzi/var/include/messages.h **** 	  trans->put_bytes(trans->impl, dev, DL_TYPE_INT32, DL_FORMAT_SCALAR, 4, (void *) _ff_r);
2478:/home/lsk/paparazzi/var/include/messages.h **** 	  trans->put_bytes(trans->impl, dev, DL_TYPE_INT32, DL_FORMAT_SCALAR, 4, (void *) _fb_p);
2479:/home/lsk/paparazzi/var/include/messages.h **** 	  trans->put_bytes(trans->impl, dev, DL_TYPE_INT32, DL_FORMAT_SCALAR, 4, (void *) _fb_q);
2480:/home/lsk/paparazzi/var/include/messages.h **** 	  trans->put_bytes(trans->impl, dev, DL_TYPE_INT32, DL_FORMAT_SCALAR, 4, (void *) _fb_r);
2481:/home/lsk/paparazzi/var/include/messages.h **** 	  trans->put_bytes(trans->impl, dev, DL_TYPE_INT32, DL_FORMAT_SCALAR, 4, (void *) _delta_t);
2482:/home/lsk/paparazzi/var/include/messages.h **** 	  trans->end_message(trans->impl, dev);
2483:/home/lsk/paparazzi/var/include/messages.h **** 	} else
2484:/home/lsk/paparazzi/var/include/messages.h **** 	  trans->overrun(trans->impl, dev);
2485:/home/lsk/paparazzi/var/include/messages.h **** }
2486:/home/lsk/paparazzi/var/include/messages.h **** 
2487:/home/lsk/paparazzi/var/include/messages.h **** #define DOWNLINK_SEND_FILTER_ALIGNER(_trans, _dev, lp_gp, lp_gq, lp_gr, gp, gq, gr, noise, cnt, sta
2488:/home/lsk/paparazzi/var/include/messages.h **** static inline void pprz_msg_send_FILTER_ALIGNER(struct transport_tx *trans, struct link_device *dev
2489:/home/lsk/paparazzi/var/include/messages.h **** 	if (trans->check_available_space(trans->impl, dev, trans->size_of(trans->impl, 0+4+4+4+4+4+4+4+4+1
2490:/home/lsk/paparazzi/var/include/messages.h **** 	  trans->count_bytes(trans->impl, dev, trans->size_of(trans->impl, 0+4+4+4+4+4+4+4+4+1 +2 /* msg h
2491:/home/lsk/paparazzi/var/include/messages.h **** 	  trans->start_message(trans->impl, dev, 0+4+4+4+4+4+4+4+4+1 +2 /* msg header overhead */);
2492:/home/lsk/paparazzi/var/include/messages.h **** 	  trans->put_bytes(trans->impl, dev, DL_TYPE_UINT8, DL_FORMAT_SCALAR, 1, &ac_id);
2493:/home/lsk/paparazzi/var/include/messages.h **** 	  trans->put_named_byte(trans->impl, dev, DL_TYPE_UINT8, DL_FORMAT_SCALAR, DL_FILTER_ALIGNER, "FIL
2494:/home/lsk/paparazzi/var/include/messages.h **** 	  trans->put_bytes(trans->impl, dev, DL_TYPE_INT32, DL_FORMAT_SCALAR, 4, (void *) _lp_gp);
2495:/home/lsk/paparazzi/var/include/messages.h **** 	  trans->put_bytes(trans->impl, dev, DL_TYPE_INT32, DL_FORMAT_SCALAR, 4, (void *) _lp_gq);
2496:/home/lsk/paparazzi/var/include/messages.h **** 	  trans->put_bytes(trans->impl, dev, DL_TYPE_INT32, DL_FORMAT_SCALAR, 4, (void *) _lp_gr);
2497:/home/lsk/paparazzi/var/include/messages.h **** 	  trans->put_bytes(trans->impl, dev, DL_TYPE_INT32, DL_FORMAT_SCALAR, 4, (void *) _gp);
2498:/home/lsk/paparazzi/var/include/messages.h **** 	  trans->put_bytes(trans->impl, dev, DL_TYPE_INT32, DL_FORMAT_SCALAR, 4, (void *) _gq);
2499:/home/lsk/paparazzi/var/include/messages.h **** 	  trans->put_bytes(trans->impl, dev, DL_TYPE_INT32, DL_FORMAT_SCALAR, 4, (void *) _gr);
2500:/home/lsk/paparazzi/var/include/messages.h **** 	  trans->put_bytes(trans->impl, dev, DL_TYPE_INT32, DL_FORMAT_SCALAR, 4, (void *) _noise);
2501:/home/lsk/paparazzi/var/include/messages.h **** 	  trans->put_bytes(trans->impl, dev, DL_TYPE_INT32, DL_FORMAT_SCALAR, 4, (void *) _cnt);
2502:/home/lsk/paparazzi/var/include/messages.h **** 	  trans->put_bytes(trans->impl, dev, DL_TYPE_UINT8, DL_FORMAT_SCALAR, 1, (void *) _status);
2503:/home/lsk/paparazzi/var/include/messages.h **** 	  trans->end_message(trans->impl, dev);
2504:/home/lsk/paparazzi/var/include/messages.h **** 	} else
2505:/home/lsk/paparazzi/var/include/messages.h **** 	  trans->overrun(trans->impl, dev);
2506:/home/lsk/paparazzi/var/include/messages.h **** }
2507:/home/lsk/paparazzi/var/include/messages.h **** 
2508:/home/lsk/paparazzi/var/include/messages.h **** #define DOWNLINK_SEND_AIRSPEED_MS45XX(_trans, _dev, diffPress, temperature, airspeed) pprz_msg_send
2509:/home/lsk/paparazzi/var/include/messages.h **** static inline void pprz_msg_send_AIRSPEED_MS45XX(struct transport_tx *trans, struct link_device *de
2510:/home/lsk/paparazzi/var/include/messages.h **** 	if (trans->check_available_space(trans->impl, dev, trans->size_of(trans->impl, 0+4+2+4 +2 /* msg h
2511:/home/lsk/paparazzi/var/include/messages.h **** 	  trans->count_bytes(trans->impl, dev, trans->size_of(trans->impl, 0+4+2+4 +2 /* msg header overhe
2512:/home/lsk/paparazzi/var/include/messages.h **** 	  trans->start_message(trans->impl, dev, 0+4+2+4 +2 /* msg header overhead */);
2513:/home/lsk/paparazzi/var/include/messages.h **** 	  trans->put_bytes(trans->impl, dev, DL_TYPE_UINT8, DL_FORMAT_SCALAR, 1, &ac_id);
2514:/home/lsk/paparazzi/var/include/messages.h **** 	  trans->put_named_byte(trans->impl, dev, DL_TYPE_UINT8, DL_FORMAT_SCALAR, DL_AIRSPEED_MS45XX, "AI
2515:/home/lsk/paparazzi/var/include/messages.h **** 	  trans->put_bytes(trans->impl, dev, DL_TYPE_FLOAT, DL_FORMAT_SCALAR, 4, (void *) _diffPress);
2516:/home/lsk/paparazzi/var/include/messages.h **** 	  trans->put_bytes(trans->impl, dev, DL_TYPE_INT16, DL_FORMAT_SCALAR, 2, (void *) _temperature);
2517:/home/lsk/paparazzi/var/include/messages.h **** 	  trans->put_bytes(trans->impl, dev, DL_TYPE_FLOAT, DL_FORMAT_SCALAR, 4, (void *) _airspeed);
2518:/home/lsk/paparazzi/var/include/messages.h **** 	  trans->end_message(trans->impl, dev);
2519:/home/lsk/paparazzi/var/include/messages.h **** 	} else
2520:/home/lsk/paparazzi/var/include/messages.h **** 	  trans->overrun(trans->impl, dev);
2521:/home/lsk/paparazzi/var/include/messages.h **** }
2522:/home/lsk/paparazzi/var/include/messages.h **** 
2523:/home/lsk/paparazzi/var/include/messages.h **** #define DOWNLINK_SEND_FILTER_COR(_trans, _dev, mphi, mtheta, mpsi, qi, qx, qy, qz) pprz_msg_send_FI
2524:/home/lsk/paparazzi/var/include/messages.h **** static inline void pprz_msg_send_FILTER_COR(struct transport_tx *trans, struct link_device *dev, ui
2525:/home/lsk/paparazzi/var/include/messages.h **** 	if (trans->check_available_space(trans->impl, dev, trans->size_of(trans->impl, 0+4+4+4+4+4+4+4 +2 
2526:/home/lsk/paparazzi/var/include/messages.h **** 	  trans->count_bytes(trans->impl, dev, trans->size_of(trans->impl, 0+4+4+4+4+4+4+4 +2 /* msg heade
2527:/home/lsk/paparazzi/var/include/messages.h **** 	  trans->start_message(trans->impl, dev, 0+4+4+4+4+4+4+4 +2 /* msg header overhead */);
2528:/home/lsk/paparazzi/var/include/messages.h **** 	  trans->put_bytes(trans->impl, dev, DL_TYPE_UINT8, DL_FORMAT_SCALAR, 1, &ac_id);
2529:/home/lsk/paparazzi/var/include/messages.h **** 	  trans->put_named_byte(trans->impl, dev, DL_TYPE_UINT8, DL_FORMAT_SCALAR, DL_FILTER_COR, "FILTER_
2530:/home/lsk/paparazzi/var/include/messages.h **** 	  trans->put_bytes(trans->impl, dev, DL_TYPE_INT32, DL_FORMAT_SCALAR, 4, (void *) _mphi);
2531:/home/lsk/paparazzi/var/include/messages.h **** 	  trans->put_bytes(trans->impl, dev, DL_TYPE_INT32, DL_FORMAT_SCALAR, 4, (void *) _mtheta);
2532:/home/lsk/paparazzi/var/include/messages.h **** 	  trans->put_bytes(trans->impl, dev, DL_TYPE_INT32, DL_FORMAT_SCALAR, 4, (void *) _mpsi);
2533:/home/lsk/paparazzi/var/include/messages.h **** 	  trans->put_bytes(trans->impl, dev, DL_TYPE_INT32, DL_FORMAT_SCALAR, 4, (void *) _qi);
2534:/home/lsk/paparazzi/var/include/messages.h **** 	  trans->put_bytes(trans->impl, dev, DL_TYPE_INT32, DL_FORMAT_SCALAR, 4, (void *) _qx);
2535:/home/lsk/paparazzi/var/include/messages.h **** 	  trans->put_bytes(trans->impl, dev, DL_TYPE_INT32, DL_FORMAT_SCALAR, 4, (void *) _qy);
2536:/home/lsk/paparazzi/var/include/messages.h **** 	  trans->put_bytes(trans->impl, dev, DL_TYPE_INT32, DL_FORMAT_SCALAR, 4, (void *) _qz);
2537:/home/lsk/paparazzi/var/include/messages.h **** 	  trans->end_message(trans->impl, dev);
2538:/home/lsk/paparazzi/var/include/messages.h **** 	} else
2539:/home/lsk/paparazzi/var/include/messages.h **** 	  trans->overrun(trans->impl, dev);
2540:/home/lsk/paparazzi/var/include/messages.h **** }
2541:/home/lsk/paparazzi/var/include/messages.h **** 
2542:/home/lsk/paparazzi/var/include/messages.h **** #define DOWNLINK_SEND_STAB_ATTITUDE_INT(_trans, _dev, est_p, est_q, est_r, est_phi, est_theta, est_
2543:/home/lsk/paparazzi/var/include/messages.h **** static inline void pprz_msg_send_STAB_ATTITUDE_INT(struct transport_tx *trans, struct link_device *
2544:/home/lsk/paparazzi/var/include/messages.h **** 	if (trans->check_available_space(trans->impl, dev, trans->size_of(trans->impl, 0+4+4+4+4+4+4+4+4+4
2545:/home/lsk/paparazzi/var/include/messages.h **** 	  trans->count_bytes(trans->impl, dev, trans->size_of(trans->impl, 0+4+4+4+4+4+4+4+4+4+4+4+4+4+4+4
2546:/home/lsk/paparazzi/var/include/messages.h **** 	  trans->start_message(trans->impl, dev, 0+4+4+4+4+4+4+4+4+4+4+4+4+4+4+4+4+4+4+4+4+4 +2 /* msg hea
2547:/home/lsk/paparazzi/var/include/messages.h **** 	  trans->put_bytes(trans->impl, dev, DL_TYPE_UINT8, DL_FORMAT_SCALAR, 1, &ac_id);
2548:/home/lsk/paparazzi/var/include/messages.h **** 	  trans->put_named_byte(trans->impl, dev, DL_TYPE_UINT8, DL_FORMAT_SCALAR, DL_STAB_ATTITUDE_INT, "
2549:/home/lsk/paparazzi/var/include/messages.h **** 	  trans->put_bytes(trans->impl, dev, DL_TYPE_INT32, DL_FORMAT_SCALAR, 4, (void *) _est_p);
2550:/home/lsk/paparazzi/var/include/messages.h **** 	  trans->put_bytes(trans->impl, dev, DL_TYPE_INT32, DL_FORMAT_SCALAR, 4, (void *) _est_q);
2551:/home/lsk/paparazzi/var/include/messages.h **** 	  trans->put_bytes(trans->impl, dev, DL_TYPE_INT32, DL_FORMAT_SCALAR, 4, (void *) _est_r);
2552:/home/lsk/paparazzi/var/include/messages.h **** 	  trans->put_bytes(trans->impl, dev, DL_TYPE_INT32, DL_FORMAT_SCALAR, 4, (void *) _est_phi);
2553:/home/lsk/paparazzi/var/include/messages.h **** 	  trans->put_bytes(trans->impl, dev, DL_TYPE_INT32, DL_FORMAT_SCALAR, 4, (void *) _est_theta);
2554:/home/lsk/paparazzi/var/include/messages.h **** 	  trans->put_bytes(trans->impl, dev, DL_TYPE_INT32, DL_FORMAT_SCALAR, 4, (void *) _est_psi);
2555:/home/lsk/paparazzi/var/include/messages.h **** 	  trans->put_bytes(trans->impl, dev, DL_TYPE_INT32, DL_FORMAT_SCALAR, 4, (void *) _sp_phi);
2556:/home/lsk/paparazzi/var/include/messages.h **** 	  trans->put_bytes(trans->impl, dev, DL_TYPE_INT32, DL_FORMAT_SCALAR, 4, (void *) _sp_theta);
2557:/home/lsk/paparazzi/var/include/messages.h **** 	  trans->put_bytes(trans->impl, dev, DL_TYPE_INT32, DL_FORMAT_SCALAR, 4, (void *) _sp_psi);
2558:/home/lsk/paparazzi/var/include/messages.h **** 	  trans->put_bytes(trans->impl, dev, DL_TYPE_INT32, DL_FORMAT_SCALAR, 4, (void *) _sum_err_phi);
2559:/home/lsk/paparazzi/var/include/messages.h **** 	  trans->put_bytes(trans->impl, dev, DL_TYPE_INT32, DL_FORMAT_SCALAR, 4, (void *) _sum_err_theta);
2560:/home/lsk/paparazzi/var/include/messages.h **** 	  trans->put_bytes(trans->impl, dev, DL_TYPE_INT32, DL_FORMAT_SCALAR, 4, (void *) _sum_err_psi);
2561:/home/lsk/paparazzi/var/include/messages.h **** 	  trans->put_bytes(trans->impl, dev, DL_TYPE_INT32, DL_FORMAT_SCALAR, 4, (void *) _delta_a_fb);
2562:/home/lsk/paparazzi/var/include/messages.h **** 	  trans->put_bytes(trans->impl, dev, DL_TYPE_INT32, DL_FORMAT_SCALAR, 4, (void *) _delta_e_fb);
2563:/home/lsk/paparazzi/var/include/messages.h **** 	  trans->put_bytes(trans->impl, dev, DL_TYPE_INT32, DL_FORMAT_SCALAR, 4, (void *) _delta_r_fb);
2564:/home/lsk/paparazzi/var/include/messages.h **** 	  trans->put_bytes(trans->impl, dev, DL_TYPE_INT32, DL_FORMAT_SCALAR, 4, (void *) _delta_a_ff);
2565:/home/lsk/paparazzi/var/include/messages.h **** 	  trans->put_bytes(trans->impl, dev, DL_TYPE_INT32, DL_FORMAT_SCALAR, 4, (void *) _delta_e_ff);
2566:/home/lsk/paparazzi/var/include/messages.h **** 	  trans->put_bytes(trans->impl, dev, DL_TYPE_INT32, DL_FORMAT_SCALAR, 4, (void *) _delta_r_ff);
2567:/home/lsk/paparazzi/var/include/messages.h **** 	  trans->put_bytes(trans->impl, dev, DL_TYPE_INT32, DL_FORMAT_SCALAR, 4, (void *) _delta_a);
2568:/home/lsk/paparazzi/var/include/messages.h **** 	  trans->put_bytes(trans->impl, dev, DL_TYPE_INT32, DL_FORMAT_SCALAR, 4, (void *) _delta_e);
2569:/home/lsk/paparazzi/var/include/messages.h **** 	  trans->put_bytes(trans->impl, dev, DL_TYPE_INT32, DL_FORMAT_SCALAR, 4, (void *) _delta_r);
2570:/home/lsk/paparazzi/var/include/messages.h **** 	  trans->end_message(trans->impl, dev);
2571:/home/lsk/paparazzi/var/include/messages.h **** 	} else
2572:/home/lsk/paparazzi/var/include/messages.h **** 	  trans->overrun(trans->impl, dev);
2573:/home/lsk/paparazzi/var/include/messages.h **** }
2574:/home/lsk/paparazzi/var/include/messages.h **** 
2575:/home/lsk/paparazzi/var/include/messages.h **** #define DOWNLINK_SEND_STAB_ATTITUDE_REF_INT(_trans, _dev, sp_phi, sp_theta, sp_psi, ref_phi, ref_th
2576:/home/lsk/paparazzi/var/include/messages.h **** static inline void pprz_msg_send_STAB_ATTITUDE_REF_INT(struct transport_tx *trans, struct link_devi
2577:/home/lsk/paparazzi/var/include/messages.h **** 	if (trans->check_available_space(trans->impl, dev, trans->size_of(trans->impl, 0+4+4+4+4+4+4+4+4+4
2578:/home/lsk/paparazzi/var/include/messages.h **** 	  trans->count_bytes(trans->impl, dev, trans->size_of(trans->impl, 0+4+4+4+4+4+4+4+4+4+4+4+4 +2 /*
2579:/home/lsk/paparazzi/var/include/messages.h **** 	  trans->start_message(trans->impl, dev, 0+4+4+4+4+4+4+4+4+4+4+4+4 +2 /* msg header overhead */);
2580:/home/lsk/paparazzi/var/include/messages.h **** 	  trans->put_bytes(trans->impl, dev, DL_TYPE_UINT8, DL_FORMAT_SCALAR, 1, &ac_id);
2581:/home/lsk/paparazzi/var/include/messages.h **** 	  trans->put_named_byte(trans->impl, dev, DL_TYPE_UINT8, DL_FORMAT_SCALAR, DL_STAB_ATTITUDE_REF_IN
2582:/home/lsk/paparazzi/var/include/messages.h **** 	  trans->put_bytes(trans->impl, dev, DL_TYPE_INT32, DL_FORMAT_SCALAR, 4, (void *) _sp_phi);
2583:/home/lsk/paparazzi/var/include/messages.h **** 	  trans->put_bytes(trans->impl, dev, DL_TYPE_INT32, DL_FORMAT_SCALAR, 4, (void *) _sp_theta);
2584:/home/lsk/paparazzi/var/include/messages.h **** 	  trans->put_bytes(trans->impl, dev, DL_TYPE_INT32, DL_FORMAT_SCALAR, 4, (void *) _sp_psi);
2585:/home/lsk/paparazzi/var/include/messages.h **** 	  trans->put_bytes(trans->impl, dev, DL_TYPE_INT32, DL_FORMAT_SCALAR, 4, (void *) _ref_phi);
2586:/home/lsk/paparazzi/var/include/messages.h **** 	  trans->put_bytes(trans->impl, dev, DL_TYPE_INT32, DL_FORMAT_SCALAR, 4, (void *) _ref_theta);
2587:/home/lsk/paparazzi/var/include/messages.h **** 	  trans->put_bytes(trans->impl, dev, DL_TYPE_INT32, DL_FORMAT_SCALAR, 4, (void *) _ref_psi);
2588:/home/lsk/paparazzi/var/include/messages.h **** 	  trans->put_bytes(trans->impl, dev, DL_TYPE_INT32, DL_FORMAT_SCALAR, 4, (void *) _ref_p);
2589:/home/lsk/paparazzi/var/include/messages.h **** 	  trans->put_bytes(trans->impl, dev, DL_TYPE_INT32, DL_FORMAT_SCALAR, 4, (void *) _ref_q);
2590:/home/lsk/paparazzi/var/include/messages.h **** 	  trans->put_bytes(trans->impl, dev, DL_TYPE_INT32, DL_FORMAT_SCALAR, 4, (void *) _ref_r);
2591:/home/lsk/paparazzi/var/include/messages.h **** 	  trans->put_bytes(trans->impl, dev, DL_TYPE_INT32, DL_FORMAT_SCALAR, 4, (void *) _ref_pd);
2592:/home/lsk/paparazzi/var/include/messages.h **** 	  trans->put_bytes(trans->impl, dev, DL_TYPE_INT32, DL_FORMAT_SCALAR, 4, (void *) _ref_qd);
2593:/home/lsk/paparazzi/var/include/messages.h **** 	  trans->put_bytes(trans->impl, dev, DL_TYPE_INT32, DL_FORMAT_SCALAR, 4, (void *) _ref_rd);
2594:/home/lsk/paparazzi/var/include/messages.h **** 	  trans->end_message(trans->impl, dev);
2595:/home/lsk/paparazzi/var/include/messages.h **** 	} else
2596:/home/lsk/paparazzi/var/include/messages.h **** 	  trans->overrun(trans->impl, dev);
2597:/home/lsk/paparazzi/var/include/messages.h **** }
2598:/home/lsk/paparazzi/var/include/messages.h **** 
2599:/home/lsk/paparazzi/var/include/messages.h **** #define DOWNLINK_SEND_STAB_ATTITUDE_REF_FLOAT(_trans, _dev, sp_phi, sp_theta, sp_psi, ref_phi, ref_
2600:/home/lsk/paparazzi/var/include/messages.h **** static inline void pprz_msg_send_STAB_ATTITUDE_REF_FLOAT(struct transport_tx *trans, struct link_de
2601:/home/lsk/paparazzi/var/include/messages.h **** 	if (trans->check_available_space(trans->impl, dev, trans->size_of(trans->impl, 0+4+4+4+4+4+4+4+4+4
2602:/home/lsk/paparazzi/var/include/messages.h **** 	  trans->count_bytes(trans->impl, dev, trans->size_of(trans->impl, 0+4+4+4+4+4+4+4+4+4+4+4+4 +2 /*
2603:/home/lsk/paparazzi/var/include/messages.h **** 	  trans->start_message(trans->impl, dev, 0+4+4+4+4+4+4+4+4+4+4+4+4 +2 /* msg header overhead */);
2604:/home/lsk/paparazzi/var/include/messages.h **** 	  trans->put_bytes(trans->impl, dev, DL_TYPE_UINT8, DL_FORMAT_SCALAR, 1, &ac_id);
2605:/home/lsk/paparazzi/var/include/messages.h **** 	  trans->put_named_byte(trans->impl, dev, DL_TYPE_UINT8, DL_FORMAT_SCALAR, DL_STAB_ATTITUDE_REF_FL
2606:/home/lsk/paparazzi/var/include/messages.h **** 	  trans->put_bytes(trans->impl, dev, DL_TYPE_FLOAT, DL_FORMAT_SCALAR, 4, (void *) _sp_phi);
2607:/home/lsk/paparazzi/var/include/messages.h **** 	  trans->put_bytes(trans->impl, dev, DL_TYPE_FLOAT, DL_FORMAT_SCALAR, 4, (void *) _sp_theta);
2608:/home/lsk/paparazzi/var/include/messages.h **** 	  trans->put_bytes(trans->impl, dev, DL_TYPE_FLOAT, DL_FORMAT_SCALAR, 4, (void *) _sp_psi);
2609:/home/lsk/paparazzi/var/include/messages.h **** 	  trans->put_bytes(trans->impl, dev, DL_TYPE_FLOAT, DL_FORMAT_SCALAR, 4, (void *) _ref_phi);
2610:/home/lsk/paparazzi/var/include/messages.h **** 	  trans->put_bytes(trans->impl, dev, DL_TYPE_FLOAT, DL_FORMAT_SCALAR, 4, (void *) _ref_theta);
2611:/home/lsk/paparazzi/var/include/messages.h **** 	  trans->put_bytes(trans->impl, dev, DL_TYPE_FLOAT, DL_FORMAT_SCALAR, 4, (void *) _ref_psi);
2612:/home/lsk/paparazzi/var/include/messages.h **** 	  trans->put_bytes(trans->impl, dev, DL_TYPE_FLOAT, DL_FORMAT_SCALAR, 4, (void *) _ref_p);
2613:/home/lsk/paparazzi/var/include/messages.h **** 	  trans->put_bytes(trans->impl, dev, DL_TYPE_FLOAT, DL_FORMAT_SCALAR, 4, (void *) _ref_q);
2614:/home/lsk/paparazzi/var/include/messages.h **** 	  trans->put_bytes(trans->impl, dev, DL_TYPE_FLOAT, DL_FORMAT_SCALAR, 4, (void *) _ref_r);
2615:/home/lsk/paparazzi/var/include/messages.h **** 	  trans->put_bytes(trans->impl, dev, DL_TYPE_FLOAT, DL_FORMAT_SCALAR, 4, (void *) _ref_pd);
2616:/home/lsk/paparazzi/var/include/messages.h **** 	  trans->put_bytes(trans->impl, dev, DL_TYPE_FLOAT, DL_FORMAT_SCALAR, 4, (void *) _ref_qd);
2617:/home/lsk/paparazzi/var/include/messages.h **** 	  trans->put_bytes(trans->impl, dev, DL_TYPE_FLOAT, DL_FORMAT_SCALAR, 4, (void *) _ref_rd);
2618:/home/lsk/paparazzi/var/include/messages.h **** 	  trans->end_message(trans->impl, dev);
2619:/home/lsk/paparazzi/var/include/messages.h **** 	} else
2620:/home/lsk/paparazzi/var/include/messages.h **** 	  trans->overrun(trans->impl, dev);
2621:/home/lsk/paparazzi/var/include/messages.h **** }
2622:/home/lsk/paparazzi/var/include/messages.h **** 
2623:/home/lsk/paparazzi/var/include/messages.h **** #define DOWNLINK_SEND_ROTORCRAFT_CMD(_trans, _dev, cmd_roll, cmd_pitch, cmd_yaw, cmd_thrust) pprz_m
2624:/home/lsk/paparazzi/var/include/messages.h **** static inline void pprz_msg_send_ROTORCRAFT_CMD(struct transport_tx *trans, struct link_device *dev
2625:/home/lsk/paparazzi/var/include/messages.h **** 	if (trans->check_available_space(trans->impl, dev, trans->size_of(trans->impl, 0+4+4+4+4 +2 /* msg
2626:/home/lsk/paparazzi/var/include/messages.h **** 	  trans->count_bytes(trans->impl, dev, trans->size_of(trans->impl, 0+4+4+4+4 +2 /* msg header over
2627:/home/lsk/paparazzi/var/include/messages.h **** 	  trans->start_message(trans->impl, dev, 0+4+4+4+4 +2 /* msg header overhead */);
2628:/home/lsk/paparazzi/var/include/messages.h **** 	  trans->put_bytes(trans->impl, dev, DL_TYPE_UINT8, DL_FORMAT_SCALAR, 1, &ac_id);
2629:/home/lsk/paparazzi/var/include/messages.h **** 	  trans->put_named_byte(trans->impl, dev, DL_TYPE_UINT8, DL_FORMAT_SCALAR, DL_ROTORCRAFT_CMD, "ROT
2630:/home/lsk/paparazzi/var/include/messages.h **** 	  trans->put_bytes(trans->impl, dev, DL_TYPE_INT32, DL_FORMAT_SCALAR, 4, (void *) _cmd_roll);
2631:/home/lsk/paparazzi/var/include/messages.h **** 	  trans->put_bytes(trans->impl, dev, DL_TYPE_INT32, DL_FORMAT_SCALAR, 4, (void *) _cmd_pitch);
2632:/home/lsk/paparazzi/var/include/messages.h **** 	  trans->put_bytes(trans->impl, dev, DL_TYPE_INT32, DL_FORMAT_SCALAR, 4, (void *) _cmd_yaw);
2633:/home/lsk/paparazzi/var/include/messages.h **** 	  trans->put_bytes(trans->impl, dev, DL_TYPE_INT32, DL_FORMAT_SCALAR, 4, (void *) _cmd_thrust);
2634:/home/lsk/paparazzi/var/include/messages.h **** 	  trans->end_message(trans->impl, dev);
2635:/home/lsk/paparazzi/var/include/messages.h **** 	} else
2636:/home/lsk/paparazzi/var/include/messages.h **** 	  trans->overrun(trans->impl, dev);
2637:/home/lsk/paparazzi/var/include/messages.h **** }
2638:/home/lsk/paparazzi/var/include/messages.h **** 
2639:/home/lsk/paparazzi/var/include/messages.h **** #define DOWNLINK_SEND_GUIDANCE_H_INT(_trans, _dev, sp_x, sp_y, ref_x, ref_y, est_x, est_y) pprz_msg
2640:/home/lsk/paparazzi/var/include/messages.h **** static inline void pprz_msg_send_GUIDANCE_H_INT(struct transport_tx *trans, struct link_device *dev
2641:/home/lsk/paparazzi/var/include/messages.h **** 	if (trans->check_available_space(trans->impl, dev, trans->size_of(trans->impl, 0+4+4+4+4+4+4 +2 /*
2642:/home/lsk/paparazzi/var/include/messages.h **** 	  trans->count_bytes(trans->impl, dev, trans->size_of(trans->impl, 0+4+4+4+4+4+4 +2 /* msg header 
2643:/home/lsk/paparazzi/var/include/messages.h **** 	  trans->start_message(trans->impl, dev, 0+4+4+4+4+4+4 +2 /* msg header overhead */);
2644:/home/lsk/paparazzi/var/include/messages.h **** 	  trans->put_bytes(trans->impl, dev, DL_TYPE_UINT8, DL_FORMAT_SCALAR, 1, &ac_id);
2645:/home/lsk/paparazzi/var/include/messages.h **** 	  trans->put_named_byte(trans->impl, dev, DL_TYPE_UINT8, DL_FORMAT_SCALAR, DL_GUIDANCE_H_INT, "GUI
2646:/home/lsk/paparazzi/var/include/messages.h **** 	  trans->put_bytes(trans->impl, dev, DL_TYPE_INT32, DL_FORMAT_SCALAR, 4, (void *) _sp_x);
2647:/home/lsk/paparazzi/var/include/messages.h **** 	  trans->put_bytes(trans->impl, dev, DL_TYPE_INT32, DL_FORMAT_SCALAR, 4, (void *) _sp_y);
2648:/home/lsk/paparazzi/var/include/messages.h **** 	  trans->put_bytes(trans->impl, dev, DL_TYPE_INT32, DL_FORMAT_SCALAR, 4, (void *) _ref_x);
2649:/home/lsk/paparazzi/var/include/messages.h **** 	  trans->put_bytes(trans->impl, dev, DL_TYPE_INT32, DL_FORMAT_SCALAR, 4, (void *) _ref_y);
2650:/home/lsk/paparazzi/var/include/messages.h **** 	  trans->put_bytes(trans->impl, dev, DL_TYPE_INT32, DL_FORMAT_SCALAR, 4, (void *) _est_x);
2651:/home/lsk/paparazzi/var/include/messages.h **** 	  trans->put_bytes(trans->impl, dev, DL_TYPE_INT32, DL_FORMAT_SCALAR, 4, (void *) _est_y);
2652:/home/lsk/paparazzi/var/include/messages.h **** 	  trans->end_message(trans->impl, dev);
2653:/home/lsk/paparazzi/var/include/messages.h **** 	} else
2654:/home/lsk/paparazzi/var/include/messages.h **** 	  trans->overrun(trans->impl, dev);
2655:/home/lsk/paparazzi/var/include/messages.h **** }
2656:/home/lsk/paparazzi/var/include/messages.h **** 
2657:/home/lsk/paparazzi/var/include/messages.h **** #define DOWNLINK_SEND_VERT_LOOP(_trans, _dev, z_sp, zd_sp, est_z, est_zd, est_zdd, ref_z, ref_zd, r
2658:/home/lsk/paparazzi/var/include/messages.h **** static inline void pprz_msg_send_VERT_LOOP(struct transport_tx *trans, struct link_device *dev, uin
2659:/home/lsk/paparazzi/var/include/messages.h **** 	if (trans->check_available_space(trans->impl, dev, trans->size_of(trans->impl, 0+4+4+4+4+4+4+4+4+4
2660:/home/lsk/paparazzi/var/include/messages.h **** 	  trans->count_bytes(trans->impl, dev, trans->size_of(trans->impl, 0+4+4+4+4+4+4+4+4+4+4+4+4+4+4+4
2661:/home/lsk/paparazzi/var/include/messages.h **** 	  trans->start_message(trans->impl, dev, 0+4+4+4+4+4+4+4+4+4+4+4+4+4+4+4 +2 /* msg header overhead
2662:/home/lsk/paparazzi/var/include/messages.h **** 	  trans->put_bytes(trans->impl, dev, DL_TYPE_UINT8, DL_FORMAT_SCALAR, 1, &ac_id);
2663:/home/lsk/paparazzi/var/include/messages.h **** 	  trans->put_named_byte(trans->impl, dev, DL_TYPE_UINT8, DL_FORMAT_SCALAR, DL_VERT_LOOP, "VERT_LOO
2664:/home/lsk/paparazzi/var/include/messages.h **** 	  trans->put_bytes(trans->impl, dev, DL_TYPE_INT32, DL_FORMAT_SCALAR, 4, (void *) _z_sp);
2665:/home/lsk/paparazzi/var/include/messages.h **** 	  trans->put_bytes(trans->impl, dev, DL_TYPE_INT32, DL_FORMAT_SCALAR, 4, (void *) _zd_sp);
2666:/home/lsk/paparazzi/var/include/messages.h **** 	  trans->put_bytes(trans->impl, dev, DL_TYPE_INT32, DL_FORMAT_SCALAR, 4, (void *) _est_z);
2667:/home/lsk/paparazzi/var/include/messages.h **** 	  trans->put_bytes(trans->impl, dev, DL_TYPE_INT32, DL_FORMAT_SCALAR, 4, (void *) _est_zd);
2668:/home/lsk/paparazzi/var/include/messages.h **** 	  trans->put_bytes(trans->impl, dev, DL_TYPE_INT32, DL_FORMAT_SCALAR, 4, (void *) _est_zdd);
2669:/home/lsk/paparazzi/var/include/messages.h **** 	  trans->put_bytes(trans->impl, dev, DL_TYPE_INT32, DL_FORMAT_SCALAR, 4, (void *) _ref_z);
2670:/home/lsk/paparazzi/var/include/messages.h **** 	  trans->put_bytes(trans->impl, dev, DL_TYPE_INT32, DL_FORMAT_SCALAR, 4, (void *) _ref_zd);
2671:/home/lsk/paparazzi/var/include/messages.h **** 	  trans->put_bytes(trans->impl, dev, DL_TYPE_INT32, DL_FORMAT_SCALAR, 4, (void *) _ref_zdd);
2672:/home/lsk/paparazzi/var/include/messages.h **** 	  trans->put_bytes(trans->impl, dev, DL_TYPE_INT32, DL_FORMAT_SCALAR, 4, (void *) _adp_inv_m);
2673:/home/lsk/paparazzi/var/include/messages.h **** 	  trans->put_bytes(trans->impl, dev, DL_TYPE_INT32, DL_FORMAT_SCALAR, 4, (void *) _adp_cov);
2674:/home/lsk/paparazzi/var/include/messages.h **** 	  trans->put_bytes(trans->impl, dev, DL_TYPE_INT32, DL_FORMAT_SCALAR, 4, (void *) _adp_meas);
2675:/home/lsk/paparazzi/var/include/messages.h **** 	  trans->put_bytes(trans->impl, dev, DL_TYPE_INT32, DL_FORMAT_SCALAR, 4, (void *) _sum_err);
2676:/home/lsk/paparazzi/var/include/messages.h **** 	  trans->put_bytes(trans->impl, dev, DL_TYPE_INT32, DL_FORMAT_SCALAR, 4, (void *) _ff_cmd);
2677:/home/lsk/paparazzi/var/include/messages.h **** 	  trans->put_bytes(trans->impl, dev, DL_TYPE_INT32, DL_FORMAT_SCALAR, 4, (void *) _fb_cmd);
2678:/home/lsk/paparazzi/var/include/messages.h **** 	  trans->put_bytes(trans->impl, dev, DL_TYPE_INT32, DL_FORMAT_SCALAR, 4, (void *) _delta_t);
2679:/home/lsk/paparazzi/var/include/messages.h **** 	  trans->end_message(trans->impl, dev);
2680:/home/lsk/paparazzi/var/include/messages.h **** 	} else
2681:/home/lsk/paparazzi/var/include/messages.h **** 	  trans->overrun(trans->impl, dev);
2682:/home/lsk/paparazzi/var/include/messages.h **** }
2683:/home/lsk/paparazzi/var/include/messages.h **** 
2684:/home/lsk/paparazzi/var/include/messages.h **** #define DOWNLINK_SEND_HOVER_LOOP(_trans, _dev, sp_x, sp_y, est_x, est_y, est_xd, est_yd, est_xdd, e
2685:/home/lsk/paparazzi/var/include/messages.h **** static inline void pprz_msg_send_HOVER_LOOP(struct transport_tx *trans, struct link_device *dev, ui
2686:/home/lsk/paparazzi/var/include/messages.h **** 	if (trans->check_available_space(trans->impl, dev, trans->size_of(trans->impl, 0+4+4+4+4+4+4+4+4+4
2687:/home/lsk/paparazzi/var/include/messages.h **** 	  trans->count_bytes(trans->impl, dev, trans->size_of(trans->impl, 0+4+4+4+4+4+4+4+4+4+4+4+4+4+4+4
2688:/home/lsk/paparazzi/var/include/messages.h **** 	  trans->start_message(trans->impl, dev, 0+4+4+4+4+4+4+4+4+4+4+4+4+4+4+4+4+4 +2 /* msg header over
2689:/home/lsk/paparazzi/var/include/messages.h **** 	  trans->put_bytes(trans->impl, dev, DL_TYPE_UINT8, DL_FORMAT_SCALAR, 1, &ac_id);
2690:/home/lsk/paparazzi/var/include/messages.h **** 	  trans->put_named_byte(trans->impl, dev, DL_TYPE_UINT8, DL_FORMAT_SCALAR, DL_HOVER_LOOP, "HOVER_L
2691:/home/lsk/paparazzi/var/include/messages.h **** 	  trans->put_bytes(trans->impl, dev, DL_TYPE_INT32, DL_FORMAT_SCALAR, 4, (void *) _sp_x);
2692:/home/lsk/paparazzi/var/include/messages.h **** 	  trans->put_bytes(trans->impl, dev, DL_TYPE_INT32, DL_FORMAT_SCALAR, 4, (void *) _sp_y);
2693:/home/lsk/paparazzi/var/include/messages.h **** 	  trans->put_bytes(trans->impl, dev, DL_TYPE_INT32, DL_FORMAT_SCALAR, 4, (void *) _est_x);
2694:/home/lsk/paparazzi/var/include/messages.h **** 	  trans->put_bytes(trans->impl, dev, DL_TYPE_INT32, DL_FORMAT_SCALAR, 4, (void *) _est_y);
2695:/home/lsk/paparazzi/var/include/messages.h **** 	  trans->put_bytes(trans->impl, dev, DL_TYPE_INT32, DL_FORMAT_SCALAR, 4, (void *) _est_xd);
2696:/home/lsk/paparazzi/var/include/messages.h **** 	  trans->put_bytes(trans->impl, dev, DL_TYPE_INT32, DL_FORMAT_SCALAR, 4, (void *) _est_yd);
2697:/home/lsk/paparazzi/var/include/messages.h **** 	  trans->put_bytes(trans->impl, dev, DL_TYPE_INT32, DL_FORMAT_SCALAR, 4, (void *) _est_xdd);
2698:/home/lsk/paparazzi/var/include/messages.h **** 	  trans->put_bytes(trans->impl, dev, DL_TYPE_INT32, DL_FORMAT_SCALAR, 4, (void *) _est_ydd);
2699:/home/lsk/paparazzi/var/include/messages.h **** 	  trans->put_bytes(trans->impl, dev, DL_TYPE_INT32, DL_FORMAT_SCALAR, 4, (void *) _err_x);
2700:/home/lsk/paparazzi/var/include/messages.h **** 	  trans->put_bytes(trans->impl, dev, DL_TYPE_INT32, DL_FORMAT_SCALAR, 4, (void *) _err_y);
2701:/home/lsk/paparazzi/var/include/messages.h **** 	  trans->put_bytes(trans->impl, dev, DL_TYPE_INT32, DL_FORMAT_SCALAR, 4, (void *) _err_xd);
2702:/home/lsk/paparazzi/var/include/messages.h **** 	  trans->put_bytes(trans->impl, dev, DL_TYPE_INT32, DL_FORMAT_SCALAR, 4, (void *) _err_yd);
2703:/home/lsk/paparazzi/var/include/messages.h **** 	  trans->put_bytes(trans->impl, dev, DL_TYPE_INT32, DL_FORMAT_SCALAR, 4, (void *) _err_sum_x);
2704:/home/lsk/paparazzi/var/include/messages.h **** 	  trans->put_bytes(trans->impl, dev, DL_TYPE_INT32, DL_FORMAT_SCALAR, 4, (void *) _err_sum_y);
2705:/home/lsk/paparazzi/var/include/messages.h **** 	  trans->put_bytes(trans->impl, dev, DL_TYPE_INT32, DL_FORMAT_SCALAR, 4, (void *) _cmd_x);
2706:/home/lsk/paparazzi/var/include/messages.h **** 	  trans->put_bytes(trans->impl, dev, DL_TYPE_INT32, DL_FORMAT_SCALAR, 4, (void *) _cmd_y);
2707:/home/lsk/paparazzi/var/include/messages.h **** 	  trans->put_bytes(trans->impl, dev, DL_TYPE_INT32, DL_FORMAT_SCALAR, 4, (void *) _cmd_heading);
2708:/home/lsk/paparazzi/var/include/messages.h **** 	  trans->end_message(trans->impl, dev);
2709:/home/lsk/paparazzi/var/include/messages.h **** 	} else
2710:/home/lsk/paparazzi/var/include/messages.h **** 	  trans->overrun(trans->impl, dev);
2711:/home/lsk/paparazzi/var/include/messages.h **** }
2712:/home/lsk/paparazzi/var/include/messages.h **** 
2713:/home/lsk/paparazzi/var/include/messages.h **** #define DOWNLINK_SEND_ROTORCRAFT_FP(_trans, _dev, east, north, up, veast, vnorth, vup, phi, theta, 
2714:/home/lsk/paparazzi/var/include/messages.h **** static inline void pprz_msg_send_ROTORCRAFT_FP(struct transport_tx *trans, struct link_device *dev,
2715:/home/lsk/paparazzi/var/include/messages.h **** 	if (trans->check_available_space(trans->impl, dev, trans->size_of(trans->impl, 0+4+4+4+4+4+4+4+4+4
2716:/home/lsk/paparazzi/var/include/messages.h **** 	  trans->count_bytes(trans->impl, dev, trans->size_of(trans->impl, 0+4+4+4+4+4+4+4+4+4+4+4+4+4+4+2
2717:/home/lsk/paparazzi/var/include/messages.h **** 	  trans->start_message(trans->impl, dev, 0+4+4+4+4+4+4+4+4+4+4+4+4+4+4+2 +2 /* msg header overhead
2718:/home/lsk/paparazzi/var/include/messages.h **** 	  trans->put_bytes(trans->impl, dev, DL_TYPE_UINT8, DL_FORMAT_SCALAR, 1, &ac_id);
2719:/home/lsk/paparazzi/var/include/messages.h **** 	  trans->put_named_byte(trans->impl, dev, DL_TYPE_UINT8, DL_FORMAT_SCALAR, DL_ROTORCRAFT_FP, "ROTO
2720:/home/lsk/paparazzi/var/include/messages.h **** 	  trans->put_bytes(trans->impl, dev, DL_TYPE_INT32, DL_FORMAT_SCALAR, 4, (void *) _east);
2721:/home/lsk/paparazzi/var/include/messages.h **** 	  trans->put_bytes(trans->impl, dev, DL_TYPE_INT32, DL_FORMAT_SCALAR, 4, (void *) _north);
2722:/home/lsk/paparazzi/var/include/messages.h **** 	  trans->put_bytes(trans->impl, dev, DL_TYPE_INT32, DL_FORMAT_SCALAR, 4, (void *) _up);
2723:/home/lsk/paparazzi/var/include/messages.h **** 	  trans->put_bytes(trans->impl, dev, DL_TYPE_INT32, DL_FORMAT_SCALAR, 4, (void *) _veast);
2724:/home/lsk/paparazzi/var/include/messages.h **** 	  trans->put_bytes(trans->impl, dev, DL_TYPE_INT32, DL_FORMAT_SCALAR, 4, (void *) _vnorth);
2725:/home/lsk/paparazzi/var/include/messages.h **** 	  trans->put_bytes(trans->impl, dev, DL_TYPE_INT32, DL_FORMAT_SCALAR, 4, (void *) _vup);
2726:/home/lsk/paparazzi/var/include/messages.h **** 	  trans->put_bytes(trans->impl, dev, DL_TYPE_INT32, DL_FORMAT_SCALAR, 4, (void *) _phi);
2727:/home/lsk/paparazzi/var/include/messages.h **** 	  trans->put_bytes(trans->impl, dev, DL_TYPE_INT32, DL_FORMAT_SCALAR, 4, (void *) _theta);
2728:/home/lsk/paparazzi/var/include/messages.h **** 	  trans->put_bytes(trans->impl, dev, DL_TYPE_INT32, DL_FORMAT_SCALAR, 4, (void *) _psi);
2729:/home/lsk/paparazzi/var/include/messages.h **** 	  trans->put_bytes(trans->impl, dev, DL_TYPE_INT32, DL_FORMAT_SCALAR, 4, (void *) _carrot_east);
2730:/home/lsk/paparazzi/var/include/messages.h **** 	  trans->put_bytes(trans->impl, dev, DL_TYPE_INT32, DL_FORMAT_SCALAR, 4, (void *) _carrot_north);
2731:/home/lsk/paparazzi/var/include/messages.h **** 	  trans->put_bytes(trans->impl, dev, DL_TYPE_INT32, DL_FORMAT_SCALAR, 4, (void *) _carrot_up);
2732:/home/lsk/paparazzi/var/include/messages.h **** 	  trans->put_bytes(trans->impl, dev, DL_TYPE_INT32, DL_FORMAT_SCALAR, 4, (void *) _carrot_psi);
2733:/home/lsk/paparazzi/var/include/messages.h **** 	  trans->put_bytes(trans->impl, dev, DL_TYPE_INT32, DL_FORMAT_SCALAR, 4, (void *) _thrust);
2734:/home/lsk/paparazzi/var/include/messages.h **** 	  trans->put_bytes(trans->impl, dev, DL_TYPE_UINT16, DL_FORMAT_SCALAR, 2, (void *) _flight_time);
2735:/home/lsk/paparazzi/var/include/messages.h **** 	  trans->end_message(trans->impl, dev);
2736:/home/lsk/paparazzi/var/include/messages.h **** 	} else
2737:/home/lsk/paparazzi/var/include/messages.h **** 	  trans->overrun(trans->impl, dev);
2738:/home/lsk/paparazzi/var/include/messages.h **** }
2739:/home/lsk/paparazzi/var/include/messages.h **** 
2740:/home/lsk/paparazzi/var/include/messages.h **** #define DOWNLINK_SEND_TEMP_ADC(_trans, _dev, temp1, temp2, temp3) pprz_msg_send_TEMP_ADC(&((_trans)
2741:/home/lsk/paparazzi/var/include/messages.h **** static inline void pprz_msg_send_TEMP_ADC(struct transport_tx *trans, struct link_device *dev, uint
2742:/home/lsk/paparazzi/var/include/messages.h **** 	if (trans->check_available_space(trans->impl, dev, trans->size_of(trans->impl, 0+4+4+4 +2 /* msg h
2743:/home/lsk/paparazzi/var/include/messages.h **** 	  trans->count_bytes(trans->impl, dev, trans->size_of(trans->impl, 0+4+4+4 +2 /* msg header overhe
2744:/home/lsk/paparazzi/var/include/messages.h **** 	  trans->start_message(trans->impl, dev, 0+4+4+4 +2 /* msg header overhead */);
2745:/home/lsk/paparazzi/var/include/messages.h **** 	  trans->put_bytes(trans->impl, dev, DL_TYPE_UINT8, DL_FORMAT_SCALAR, 1, &ac_id);
2746:/home/lsk/paparazzi/var/include/messages.h **** 	  trans->put_named_byte(trans->impl, dev, DL_TYPE_UINT8, DL_FORMAT_SCALAR, DL_TEMP_ADC, "TEMP_ADC"
2747:/home/lsk/paparazzi/var/include/messages.h **** 	  trans->put_bytes(trans->impl, dev, DL_TYPE_FLOAT, DL_FORMAT_SCALAR, 4, (void *) _temp1);
2748:/home/lsk/paparazzi/var/include/messages.h **** 	  trans->put_bytes(trans->impl, dev, DL_TYPE_FLOAT, DL_FORMAT_SCALAR, 4, (void *) _temp2);
2749:/home/lsk/paparazzi/var/include/messages.h **** 	  trans->put_bytes(trans->impl, dev, DL_TYPE_FLOAT, DL_FORMAT_SCALAR, 4, (void *) _temp3);
2750:/home/lsk/paparazzi/var/include/messages.h **** 	  trans->end_message(trans->impl, dev);
2751:/home/lsk/paparazzi/var/include/messages.h **** 	} else
2752:/home/lsk/paparazzi/var/include/messages.h **** 	  trans->overrun(trans->impl, dev);
2753:/home/lsk/paparazzi/var/include/messages.h **** }
2754:/home/lsk/paparazzi/var/include/messages.h **** 
2755:/home/lsk/paparazzi/var/include/messages.h **** #define DOWNLINK_SEND_GUIDANCE_H_REF_INT(_trans, _dev, sp_x, ref_x, sp_xd, ref_xd, ref_xdd, sp_y, r
2756:/home/lsk/paparazzi/var/include/messages.h **** static inline void pprz_msg_send_GUIDANCE_H_REF_INT(struct transport_tx *trans, struct link_device 
2757:/home/lsk/paparazzi/var/include/messages.h **** 	if (trans->check_available_space(trans->impl, dev, trans->size_of(trans->impl, 0+4+4+4+4+4+4+4+4+4
2758:/home/lsk/paparazzi/var/include/messages.h **** 	  trans->count_bytes(trans->impl, dev, trans->size_of(trans->impl, 0+4+4+4+4+4+4+4+4+4+4 +2 /* msg
2759:/home/lsk/paparazzi/var/include/messages.h **** 	  trans->start_message(trans->impl, dev, 0+4+4+4+4+4+4+4+4+4+4 +2 /* msg header overhead */);
2760:/home/lsk/paparazzi/var/include/messages.h **** 	  trans->put_bytes(trans->impl, dev, DL_TYPE_UINT8, DL_FORMAT_SCALAR, 1, &ac_id);
2761:/home/lsk/paparazzi/var/include/messages.h **** 	  trans->put_named_byte(trans->impl, dev, DL_TYPE_UINT8, DL_FORMAT_SCALAR, DL_GUIDANCE_H_REF_INT, 
2762:/home/lsk/paparazzi/var/include/messages.h **** 	  trans->put_bytes(trans->impl, dev, DL_TYPE_INT32, DL_FORMAT_SCALAR, 4, (void *) _sp_x);
2763:/home/lsk/paparazzi/var/include/messages.h **** 	  trans->put_bytes(trans->impl, dev, DL_TYPE_INT32, DL_FORMAT_SCALAR, 4, (void *) _ref_x);
2764:/home/lsk/paparazzi/var/include/messages.h **** 	  trans->put_bytes(trans->impl, dev, DL_TYPE_INT32, DL_FORMAT_SCALAR, 4, (void *) _sp_xd);
2765:/home/lsk/paparazzi/var/include/messages.h **** 	  trans->put_bytes(trans->impl, dev, DL_TYPE_INT32, DL_FORMAT_SCALAR, 4, (void *) _ref_xd);
2766:/home/lsk/paparazzi/var/include/messages.h **** 	  trans->put_bytes(trans->impl, dev, DL_TYPE_INT32, DL_FORMAT_SCALAR, 4, (void *) _ref_xdd);
2767:/home/lsk/paparazzi/var/include/messages.h **** 	  trans->put_bytes(trans->impl, dev, DL_TYPE_INT32, DL_FORMAT_SCALAR, 4, (void *) _sp_y);
2768:/home/lsk/paparazzi/var/include/messages.h **** 	  trans->put_bytes(trans->impl, dev, DL_TYPE_INT32, DL_FORMAT_SCALAR, 4, (void *) _ref_y);
2769:/home/lsk/paparazzi/var/include/messages.h **** 	  trans->put_bytes(trans->impl, dev, DL_TYPE_INT32, DL_FORMAT_SCALAR, 4, (void *) _sp_yd);
2770:/home/lsk/paparazzi/var/include/messages.h **** 	  trans->put_bytes(trans->impl, dev, DL_TYPE_INT32, DL_FORMAT_SCALAR, 4, (void *) _ref_yd);
2771:/home/lsk/paparazzi/var/include/messages.h **** 	  trans->put_bytes(trans->impl, dev, DL_TYPE_INT32, DL_FORMAT_SCALAR, 4, (void *) _ref_ydd);
2772:/home/lsk/paparazzi/var/include/messages.h **** 	  trans->end_message(trans->impl, dev);
2773:/home/lsk/paparazzi/var/include/messages.h **** 	} else
2774:/home/lsk/paparazzi/var/include/messages.h **** 	  trans->overrun(trans->impl, dev);
2775:/home/lsk/paparazzi/var/include/messages.h **** }
2776:/home/lsk/paparazzi/var/include/messages.h **** 
2777:/home/lsk/paparazzi/var/include/messages.h **** #define DOWNLINK_SEND_ROTORCRAFT_TUNE_HOVER(_trans, _dev, rc_roll, rc_pitch, rc_yaw, cmd_roll, cmd_
2778:/home/lsk/paparazzi/var/include/messages.h **** static inline void pprz_msg_send_ROTORCRAFT_TUNE_HOVER(struct transport_tx *trans, struct link_devi
2779:/home/lsk/paparazzi/var/include/messages.h **** 	if (trans->check_available_space(trans->impl, dev, trans->size_of(trans->impl, 0+2+2+2+4+4+4+4+4+4
2780:/home/lsk/paparazzi/var/include/messages.h **** 	  trans->count_bytes(trans->impl, dev, trans->size_of(trans->impl, 0+2+2+2+4+4+4+4+4+4+4 +2 /* msg
2781:/home/lsk/paparazzi/var/include/messages.h **** 	  trans->start_message(trans->impl, dev, 0+2+2+2+4+4+4+4+4+4+4 +2 /* msg header overhead */);
2782:/home/lsk/paparazzi/var/include/messages.h **** 	  trans->put_bytes(trans->impl, dev, DL_TYPE_UINT8, DL_FORMAT_SCALAR, 1, &ac_id);
2783:/home/lsk/paparazzi/var/include/messages.h **** 	  trans->put_named_byte(trans->impl, dev, DL_TYPE_UINT8, DL_FORMAT_SCALAR, DL_ROTORCRAFT_TUNE_HOVE
2784:/home/lsk/paparazzi/var/include/messages.h **** 	  trans->put_bytes(trans->impl, dev, DL_TYPE_INT16, DL_FORMAT_SCALAR, 2, (void *) _rc_roll);
2785:/home/lsk/paparazzi/var/include/messages.h **** 	  trans->put_bytes(trans->impl, dev, DL_TYPE_INT16, DL_FORMAT_SCALAR, 2, (void *) _rc_pitch);
2786:/home/lsk/paparazzi/var/include/messages.h **** 	  trans->put_bytes(trans->impl, dev, DL_TYPE_INT16, DL_FORMAT_SCALAR, 2, (void *) _rc_yaw);
2787:/home/lsk/paparazzi/var/include/messages.h **** 	  trans->put_bytes(trans->impl, dev, DL_TYPE_INT32, DL_FORMAT_SCALAR, 4, (void *) _cmd_roll);
2788:/home/lsk/paparazzi/var/include/messages.h **** 	  trans->put_bytes(trans->impl, dev, DL_TYPE_INT32, DL_FORMAT_SCALAR, 4, (void *) _cmd_pitch);
2789:/home/lsk/paparazzi/var/include/messages.h **** 	  trans->put_bytes(trans->impl, dev, DL_TYPE_INT32, DL_FORMAT_SCALAR, 4, (void *) _cmd_yaw);
2790:/home/lsk/paparazzi/var/include/messages.h **** 	  trans->put_bytes(trans->impl, dev, DL_TYPE_INT32, DL_FORMAT_SCALAR, 4, (void *) _cmd_thrust);
2791:/home/lsk/paparazzi/var/include/messages.h **** 	  trans->put_bytes(trans->impl, dev, DL_TYPE_INT32, DL_FORMAT_SCALAR, 4, (void *) _body_phi);
2792:/home/lsk/paparazzi/var/include/messages.h **** 	  trans->put_bytes(trans->impl, dev, DL_TYPE_INT32, DL_FORMAT_SCALAR, 4, (void *) _body_theta);
2793:/home/lsk/paparazzi/var/include/messages.h **** 	  trans->put_bytes(trans->impl, dev, DL_TYPE_INT32, DL_FORMAT_SCALAR, 4, (void *) _body_psi);
2794:/home/lsk/paparazzi/var/include/messages.h **** 	  trans->end_message(trans->impl, dev);
2795:/home/lsk/paparazzi/var/include/messages.h **** 	} else
2796:/home/lsk/paparazzi/var/include/messages.h **** 	  trans->overrun(trans->impl, dev);
2797:/home/lsk/paparazzi/var/include/messages.h **** }
2798:/home/lsk/paparazzi/var/include/messages.h **** 
2799:/home/lsk/paparazzi/var/include/messages.h **** #define DOWNLINK_SEND_INS_Z(_trans, _dev, baro_z, ins_z, ins_zd, ins_zdd) pprz_msg_send_INS_Z(&((_t
2800:/home/lsk/paparazzi/var/include/messages.h **** static inline void pprz_msg_send_INS_Z(struct transport_tx *trans, struct link_device *dev, uint8_t
2801:/home/lsk/paparazzi/var/include/messages.h **** 	if (trans->check_available_space(trans->impl, dev, trans->size_of(trans->impl, 0+4+4+4+4 +2 /* msg
2802:/home/lsk/paparazzi/var/include/messages.h **** 	  trans->count_bytes(trans->impl, dev, trans->size_of(trans->impl, 0+4+4+4+4 +2 /* msg header over
2803:/home/lsk/paparazzi/var/include/messages.h **** 	  trans->start_message(trans->impl, dev, 0+4+4+4+4 +2 /* msg header overhead */);
2804:/home/lsk/paparazzi/var/include/messages.h **** 	  trans->put_bytes(trans->impl, dev, DL_TYPE_UINT8, DL_FORMAT_SCALAR, 1, &ac_id);
2805:/home/lsk/paparazzi/var/include/messages.h **** 	  trans->put_named_byte(trans->impl, dev, DL_TYPE_UINT8, DL_FORMAT_SCALAR, DL_INS_Z, "INS_Z");
2806:/home/lsk/paparazzi/var/include/messages.h **** 	  trans->put_bytes(trans->impl, dev, DL_TYPE_FLOAT, DL_FORMAT_SCALAR, 4, (void *) _baro_z);
2807:/home/lsk/paparazzi/var/include/messages.h **** 	  trans->put_bytes(trans->impl, dev, DL_TYPE_INT32, DL_FORMAT_SCALAR, 4, (void *) _ins_z);
2808:/home/lsk/paparazzi/var/include/messages.h **** 	  trans->put_bytes(trans->impl, dev, DL_TYPE_INT32, DL_FORMAT_SCALAR, 4, (void *) _ins_zd);
2809:/home/lsk/paparazzi/var/include/messages.h **** 	  trans->put_bytes(trans->impl, dev, DL_TYPE_INT32, DL_FORMAT_SCALAR, 4, (void *) _ins_zdd);
2810:/home/lsk/paparazzi/var/include/messages.h **** 	  trans->end_message(trans->impl, dev);
2811:/home/lsk/paparazzi/var/include/messages.h **** 	} else
2812:/home/lsk/paparazzi/var/include/messages.h **** 	  trans->overrun(trans->impl, dev);
2813:/home/lsk/paparazzi/var/include/messages.h **** }
2814:/home/lsk/paparazzi/var/include/messages.h **** 
2815:/home/lsk/paparazzi/var/include/messages.h **** #define DOWNLINK_SEND_PCAP01_STATUS(_trans, _dev, ihumid, itemp, humid, temp) pprz_msg_send_PCAP01_
2816:/home/lsk/paparazzi/var/include/messages.h **** static inline void pprz_msg_send_PCAP01_STATUS(struct transport_tx *trans, struct link_device *dev,
2817:/home/lsk/paparazzi/var/include/messages.h **** 	if (trans->check_available_space(trans->impl, dev, trans->size_of(trans->impl, 0+4+4+4+4 +2 /* msg
2818:/home/lsk/paparazzi/var/include/messages.h **** 	  trans->count_bytes(trans->impl, dev, trans->size_of(trans->impl, 0+4+4+4+4 +2 /* msg header over
2819:/home/lsk/paparazzi/var/include/messages.h **** 	  trans->start_message(trans->impl, dev, 0+4+4+4+4 +2 /* msg header overhead */);
2820:/home/lsk/paparazzi/var/include/messages.h **** 	  trans->put_bytes(trans->impl, dev, DL_TYPE_UINT8, DL_FORMAT_SCALAR, 1, &ac_id);
2821:/home/lsk/paparazzi/var/include/messages.h **** 	  trans->put_named_byte(trans->impl, dev, DL_TYPE_UINT8, DL_FORMAT_SCALAR, DL_PCAP01_STATUS, "PCAP
2822:/home/lsk/paparazzi/var/include/messages.h **** 	  trans->put_bytes(trans->impl, dev, DL_TYPE_UINT32, DL_FORMAT_SCALAR, 4, (void *) _ihumid);
2823:/home/lsk/paparazzi/var/include/messages.h **** 	  trans->put_bytes(trans->impl, dev, DL_TYPE_UINT32, DL_FORMAT_SCALAR, 4, (void *) _itemp);
2824:/home/lsk/paparazzi/var/include/messages.h **** 	  trans->put_bytes(trans->impl, dev, DL_TYPE_FLOAT, DL_FORMAT_SCALAR, 4, (void *) _humid);
2825:/home/lsk/paparazzi/var/include/messages.h **** 	  trans->put_bytes(trans->impl, dev, DL_TYPE_FLOAT, DL_FORMAT_SCALAR, 4, (void *) _temp);
2826:/home/lsk/paparazzi/var/include/messages.h **** 	  trans->end_message(trans->impl, dev);
2827:/home/lsk/paparazzi/var/include/messages.h **** 	} else
2828:/home/lsk/paparazzi/var/include/messages.h **** 	  trans->overrun(trans->impl, dev);
2829:/home/lsk/paparazzi/var/include/messages.h **** }
2830:/home/lsk/paparazzi/var/include/messages.h **** 
2831:/home/lsk/paparazzi/var/include/messages.h **** #define DOWNLINK_SEND_GEIGER_COUNTER(_trans, _dev, tube1, tube2, vsupply) pprz_msg_send_GEIGER_COUN
2832:/home/lsk/paparazzi/var/include/messages.h **** static inline void pprz_msg_send_GEIGER_COUNTER(struct transport_tx *trans, struct link_device *dev
2833:/home/lsk/paparazzi/var/include/messages.h **** 	if (trans->check_available_space(trans->impl, dev, trans->size_of(trans->impl, 0+4+4+2 +2 /* msg h
2834:/home/lsk/paparazzi/var/include/messages.h **** 	  trans->count_bytes(trans->impl, dev, trans->size_of(trans->impl, 0+4+4+2 +2 /* msg header overhe
2835:/home/lsk/paparazzi/var/include/messages.h **** 	  trans->start_message(trans->impl, dev, 0+4+4+2 +2 /* msg header overhead */);
2836:/home/lsk/paparazzi/var/include/messages.h **** 	  trans->put_bytes(trans->impl, dev, DL_TYPE_UINT8, DL_FORMAT_SCALAR, 1, &ac_id);
2837:/home/lsk/paparazzi/var/include/messages.h **** 	  trans->put_named_byte(trans->impl, dev, DL_TYPE_UINT8, DL_FORMAT_SCALAR, DL_GEIGER_COUNTER, "GEI
2838:/home/lsk/paparazzi/var/include/messages.h **** 	  trans->put_bytes(trans->impl, dev, DL_TYPE_UINT32, DL_FORMAT_SCALAR, 4, (void *) _tube1);
2839:/home/lsk/paparazzi/var/include/messages.h **** 	  trans->put_bytes(trans->impl, dev, DL_TYPE_UINT32, DL_FORMAT_SCALAR, 4, (void *) _tube2);
2840:/home/lsk/paparazzi/var/include/messages.h **** 	  trans->put_bytes(trans->impl, dev, DL_TYPE_UINT16, DL_FORMAT_SCALAR, 2, (void *) _vsupply);
2841:/home/lsk/paparazzi/var/include/messages.h **** 	  trans->end_message(trans->impl, dev);
2842:/home/lsk/paparazzi/var/include/messages.h **** 	} else
2843:/home/lsk/paparazzi/var/include/messages.h **** 	  trans->overrun(trans->impl, dev);
2844:/home/lsk/paparazzi/var/include/messages.h **** }
2845:/home/lsk/paparazzi/var/include/messages.h **** 
2846:/home/lsk/paparazzi/var/include/messages.h **** #define DOWNLINK_SEND_INS_REF(_trans, _dev, ecef_x0, ecef_y0, ecef_z0, lat0, lon0, alt0, hmsl0, bar
2847:/home/lsk/paparazzi/var/include/messages.h **** static inline void pprz_msg_send_INS_REF(struct transport_tx *trans, struct link_device *dev, uint8
2848:/home/lsk/paparazzi/var/include/messages.h **** 	if (trans->check_available_space(trans->impl, dev, trans->size_of(trans->impl, 0+4+4+4+4+4+4+4+4 +
2849:/home/lsk/paparazzi/var/include/messages.h **** 	  trans->count_bytes(trans->impl, dev, trans->size_of(trans->impl, 0+4+4+4+4+4+4+4+4 +2 /* msg hea
2850:/home/lsk/paparazzi/var/include/messages.h **** 	  trans->start_message(trans->impl, dev, 0+4+4+4+4+4+4+4+4 +2 /* msg header overhead */);
2851:/home/lsk/paparazzi/var/include/messages.h **** 	  trans->put_bytes(trans->impl, dev, DL_TYPE_UINT8, DL_FORMAT_SCALAR, 1, &ac_id);
2852:/home/lsk/paparazzi/var/include/messages.h **** 	  trans->put_named_byte(trans->impl, dev, DL_TYPE_UINT8, DL_FORMAT_SCALAR, DL_INS_REF, "INS_REF");
2853:/home/lsk/paparazzi/var/include/messages.h **** 	  trans->put_bytes(trans->impl, dev, DL_TYPE_INT32, DL_FORMAT_SCALAR, 4, (void *) _ecef_x0);
2854:/home/lsk/paparazzi/var/include/messages.h **** 	  trans->put_bytes(trans->impl, dev, DL_TYPE_INT32, DL_FORMAT_SCALAR, 4, (void *) _ecef_y0);
2855:/home/lsk/paparazzi/var/include/messages.h **** 	  trans->put_bytes(trans->impl, dev, DL_TYPE_INT32, DL_FORMAT_SCALAR, 4, (void *) _ecef_z0);
2856:/home/lsk/paparazzi/var/include/messages.h **** 	  trans->put_bytes(trans->impl, dev, DL_TYPE_INT32, DL_FORMAT_SCALAR, 4, (void *) _lat0);
2857:/home/lsk/paparazzi/var/include/messages.h **** 	  trans->put_bytes(trans->impl, dev, DL_TYPE_INT32, DL_FORMAT_SCALAR, 4, (void *) _lon0);
2858:/home/lsk/paparazzi/var/include/messages.h **** 	  trans->put_bytes(trans->impl, dev, DL_TYPE_INT32, DL_FORMAT_SCALAR, 4, (void *) _alt0);
2859:/home/lsk/paparazzi/var/include/messages.h **** 	  trans->put_bytes(trans->impl, dev, DL_TYPE_INT32, DL_FORMAT_SCALAR, 4, (void *) _hmsl0);
2860:/home/lsk/paparazzi/var/include/messages.h **** 	  trans->put_bytes(trans->impl, dev, DL_TYPE_FLOAT, DL_FORMAT_SCALAR, 4, (void *) _baro_qfe);
2861:/home/lsk/paparazzi/var/include/messages.h **** 	  trans->end_message(trans->impl, dev);
2862:/home/lsk/paparazzi/var/include/messages.h **** 	} else
2863:/home/lsk/paparazzi/var/include/messages.h **** 	  trans->overrun(trans->impl, dev);
2864:/home/lsk/paparazzi/var/include/messages.h **** }
2865:/home/lsk/paparazzi/var/include/messages.h **** 
2866:/home/lsk/paparazzi/var/include/messages.h **** #define DOWNLINK_SEND_GPS_INT(_trans, _dev, ecef_x, ecef_y, ecef_z, lat, lon, alt, hmsl, ecef_xd, e
2867:/home/lsk/paparazzi/var/include/messages.h **** static inline void pprz_msg_send_GPS_INT(struct transport_tx *trans, struct link_device *dev, uint8
2868:/home/lsk/paparazzi/var/include/messages.h **** 	if (trans->check_available_space(trans->impl, dev, trans->size_of(trans->impl, 0+4+4+4+4+4+4+4+4+4
 697              		.loc 2 2868 0
 698 0004 056A     		ldr	r5, [r0, #32]
 699 0006 4668     		ldr	r6, [r0, #4]
 700 0008 0368     		ldr	r3, [r0]
 701 000a 4FF00108 		mov	r8, #1
 702              	.LBE31:
 703              	.LBE30:
 102:subsystems/gps.c **** {
 704              		.loc 1 102 0
 705 000e 0C46     		mov	r4, r1
 706              	.LVL68:
 707 0010 0746     		mov	r7, r0
 708              	.LBB33:
 709              	.LBB32:
 710              		.loc 2 2868 0
 711 0012 3A21     		movs	r1, #58
 712              	.LVL69:
 713 0014 8DF80F80 		strb	r8, [sp, #15]
 714              	.LVL70:
 715 0018 2846     		mov	r0, r5
 716              	.LVL71:
 717 001a 9847     		blx	r3
 718              	.LVL72:
 719 001c 2146     		mov	r1, r4
 720 001e 0246     		mov	r2, r0
 721 0020 2846     		mov	r0, r5
 722 0022 B047     		blx	r6
 723              	.LVL73:
 724 0024 0028     		cmp	r0, #0
 725 0026 00F0D880 		beq	.L25
2869:/home/lsk/paparazzi/var/include/messages.h **** 	  trans->count_bytes(trans->impl, dev, trans->size_of(trans->impl, 0+4+4+4+4+4+4+4+4+4+4+4+4+4+2+1
 726              		.loc 2 2869 0
 727 002a 3D6A     		ldr	r5, [r7, #32]
 728 002c 3B68     		ldr	r3, [r7]
 729 002e FE69     		ldr	r6, [r7, #28]
 730 0030 2846     		mov	r0, r5
 731 0032 3A21     		movs	r1, #58
 732 0034 9847     		blx	r3
 733              	.LVL74:
 734 0036 2146     		mov	r1, r4
 735 0038 0246     		mov	r2, r0
 736 003a 2846     		mov	r0, r5
 737 003c B047     		blx	r6
 738              	.LVL75:
2870:/home/lsk/paparazzi/var/include/messages.h **** 	  trans->start_message(trans->impl, dev, 0+4+4+4+4+4+4+4+4+4+4+4+4+4+2+1+1 +2 /* msg header overhe
 739              		.loc 2 2870 0
 740 003e 3B69     		ldr	r3, [r7, #16]
 741 0040 386A     		ldr	r0, [r7, #32]
 742 0042 2146     		mov	r1, r4
 743 0044 3A22     		movs	r2, #58
 744 0046 9847     		blx	r3
 745              	.LVL76:
2871:/home/lsk/paparazzi/var/include/messages.h **** 	  trans->put_bytes(trans->impl, dev, DL_TYPE_UINT8, DL_FORMAT_SCALAR, 1, &ac_id);
 746              		.loc 2 2871 0
 747 0048 0DF10F03 		add	r3, sp, #15
 748 004c 0193     		str	r3, [sp, #4]
 749 004e CDF80080 		str	r8, [sp]
 750 0052 BD68     		ldr	r5, [r7, #8]
 751 0054 386A     		ldr	r0, [r7, #32]
 752 0056 2146     		mov	r1, r4
 753 0058 0222     		movs	r2, #2
 754 005a 0023     		movs	r3, #0
 755 005c A847     		blx	r5
 756              	.LVL77:
2872:/home/lsk/paparazzi/var/include/messages.h **** 	  trans->put_named_byte(trans->impl, dev, DL_TYPE_UINT8, DL_FORMAT_SCALAR, DL_GPS_INT, "GPS_INT");
 757              		.loc 2 2872 0
 758 005e 9B23     		movs	r3, #155
 759 0060 0093     		str	r3, [sp]
 760 0062 634B     		ldr	r3, .L28
 761 0064 0193     		str	r3, [sp, #4]
 762 0066 FD68     		ldr	r5, [r7, #12]
 763 0068 386A     		ldr	r0, [r7, #32]
 764 006a 2146     		mov	r1, r4
 765 006c 0222     		movs	r2, #2
 766 006e 0023     		movs	r3, #0
2873:/home/lsk/paparazzi/var/include/messages.h **** 	  trans->put_bytes(trans->impl, dev, DL_TYPE_INT32, DL_FORMAT_SCALAR, 4, (void *) _ecef_x);
 767              		.loc 2 2873 0
 768 0070 4FF00409 		mov	r9, #4
2872:/home/lsk/paparazzi/var/include/messages.h **** 	  trans->put_named_byte(trans->impl, dev, DL_TYPE_UINT8, DL_FORMAT_SCALAR, DL_GPS_INT, "GPS_INT");
 769              		.loc 2 2872 0
 770 0074 A847     		blx	r5
 771              	.LVL78:
 772              		.loc 2 2873 0
 773 0076 5F4D     		ldr	r5, .L28+4
 774 0078 0195     		str	r5, [sp, #4]
 775 007a CDF80090 		str	r9, [sp]
 776 007e 386A     		ldr	r0, [r7, #32]
 777 0080 BE68     		ldr	r6, [r7, #8]
 778 0082 2146     		mov	r1, r4
 779 0084 0722     		movs	r2, #7
 780 0086 0023     		movs	r3, #0
 781 0088 B047     		blx	r6
 782              	.LVL79:
2874:/home/lsk/paparazzi/var/include/messages.h **** 	  trans->put_bytes(trans->impl, dev, DL_TYPE_INT32, DL_FORMAT_SCALAR, 4, (void *) _ecef_y);
 783              		.loc 2 2874 0
 784 008a 05EB0903 		add	r3, r5, r9
 785 008e 0193     		str	r3, [sp, #4]
 786 0090 CDF80090 		str	r9, [sp]
 787 0094 386A     		ldr	r0, [r7, #32]
 788 0096 BE68     		ldr	r6, [r7, #8]
 789 0098 2146     		mov	r1, r4
 790 009a 0722     		movs	r2, #7
 791 009c 0023     		movs	r3, #0
 792 009e B047     		blx	r6
 793              	.LVL80:
2875:/home/lsk/paparazzi/var/include/messages.h **** 	  trans->put_bytes(trans->impl, dev, DL_TYPE_INT32, DL_FORMAT_SCALAR, 4, (void *) _ecef_z);
 794              		.loc 2 2875 0
 795 00a0 05F10803 		add	r3, r5, #8
 796 00a4 0193     		str	r3, [sp, #4]
 797 00a6 CDF80090 		str	r9, [sp]
 798 00aa 386A     		ldr	r0, [r7, #32]
 799 00ac BE68     		ldr	r6, [r7, #8]
 800 00ae 2146     		mov	r1, r4
 801 00b0 0722     		movs	r2, #7
 802 00b2 0023     		movs	r3, #0
 803 00b4 B047     		blx	r6
 804              	.LVL81:
2876:/home/lsk/paparazzi/var/include/messages.h **** 	  trans->put_bytes(trans->impl, dev, DL_TYPE_INT32, DL_FORMAT_SCALAR, 4, (void *) _lat);
 805              		.loc 2 2876 0
 806 00b6 05F10C03 		add	r3, r5, #12
 807 00ba 0193     		str	r3, [sp, #4]
 808 00bc CDF80090 		str	r9, [sp]
 809 00c0 386A     		ldr	r0, [r7, #32]
 810 00c2 BE68     		ldr	r6, [r7, #8]
 811 00c4 2146     		mov	r1, r4
 812 00c6 0722     		movs	r2, #7
 813 00c8 0023     		movs	r3, #0
 814 00ca B047     		blx	r6
 815              	.LVL82:
2877:/home/lsk/paparazzi/var/include/messages.h **** 	  trans->put_bytes(trans->impl, dev, DL_TYPE_INT32, DL_FORMAT_SCALAR, 4, (void *) _lon);
 816              		.loc 2 2877 0
 817 00cc 05F11003 		add	r3, r5, #16
 818 00d0 0193     		str	r3, [sp, #4]
 819 00d2 CDF80090 		str	r9, [sp]
 820 00d6 386A     		ldr	r0, [r7, #32]
 821 00d8 BE68     		ldr	r6, [r7, #8]
 822 00da 2146     		mov	r1, r4
 823 00dc 0722     		movs	r2, #7
 824 00de 0023     		movs	r3, #0
 825 00e0 B047     		blx	r6
 826              	.LVL83:
2878:/home/lsk/paparazzi/var/include/messages.h **** 	  trans->put_bytes(trans->impl, dev, DL_TYPE_INT32, DL_FORMAT_SCALAR, 4, (void *) _alt);
 827              		.loc 2 2878 0
 828 00e2 05F11403 		add	r3, r5, #20
 829 00e6 0193     		str	r3, [sp, #4]
 830 00e8 CDF80090 		str	r9, [sp]
 831 00ec 386A     		ldr	r0, [r7, #32]
 832 00ee BE68     		ldr	r6, [r7, #8]
 833 00f0 2146     		mov	r1, r4
 834 00f2 0722     		movs	r2, #7
 835 00f4 0023     		movs	r3, #0
 836 00f6 B047     		blx	r6
 837              	.LVL84:
2879:/home/lsk/paparazzi/var/include/messages.h **** 	  trans->put_bytes(trans->impl, dev, DL_TYPE_INT32, DL_FORMAT_SCALAR, 4, (void *) _hmsl);
 838              		.loc 2 2879 0
 839 00f8 05F12803 		add	r3, r5, #40
 840 00fc 0193     		str	r3, [sp, #4]
 841 00fe CDF80090 		str	r9, [sp]
 842 0102 386A     		ldr	r0, [r7, #32]
 843 0104 BE68     		ldr	r6, [r7, #8]
 844 0106 2146     		mov	r1, r4
 845 0108 0722     		movs	r2, #7
 846 010a 0023     		movs	r3, #0
 847 010c B047     		blx	r6
 848              	.LVL85:
2880:/home/lsk/paparazzi/var/include/messages.h **** 	  trans->put_bytes(trans->impl, dev, DL_TYPE_INT32, DL_FORMAT_SCALAR, 4, (void *) _ecef_xd);
 849              		.loc 2 2880 0
 850 010e 05F12C03 		add	r3, r5, #44
 851 0112 0193     		str	r3, [sp, #4]
 852 0114 CDF80090 		str	r9, [sp]
 853 0118 386A     		ldr	r0, [r7, #32]
 854 011a BE68     		ldr	r6, [r7, #8]
 855 011c 2146     		mov	r1, r4
 856 011e 0722     		movs	r2, #7
 857 0120 0023     		movs	r3, #0
 858 0122 B047     		blx	r6
 859              	.LVL86:
2881:/home/lsk/paparazzi/var/include/messages.h **** 	  trans->put_bytes(trans->impl, dev, DL_TYPE_INT32, DL_FORMAT_SCALAR, 4, (void *) _ecef_yd);
 860              		.loc 2 2881 0
 861 0124 05F13003 		add	r3, r5, #48
 862 0128 0193     		str	r3, [sp, #4]
 863 012a CDF80090 		str	r9, [sp]
 864 012e 386A     		ldr	r0, [r7, #32]
 865 0130 BE68     		ldr	r6, [r7, #8]
 866 0132 2146     		mov	r1, r4
 867 0134 0722     		movs	r2, #7
 868 0136 0023     		movs	r3, #0
 869 0138 B047     		blx	r6
 870              	.LVL87:
2882:/home/lsk/paparazzi/var/include/messages.h **** 	  trans->put_bytes(trans->impl, dev, DL_TYPE_INT32, DL_FORMAT_SCALAR, 4, (void *) _ecef_zd);
 871              		.loc 2 2882 0
 872 013a 05F13403 		add	r3, r5, #52
 873 013e 0193     		str	r3, [sp, #4]
 874 0140 CDF80090 		str	r9, [sp]
 875 0144 386A     		ldr	r0, [r7, #32]
 876 0146 BE68     		ldr	r6, [r7, #8]
 877 0148 2146     		mov	r1, r4
 878 014a 0722     		movs	r2, #7
 879 014c 0023     		movs	r3, #0
 880 014e B047     		blx	r6
 881              	.LVL88:
2883:/home/lsk/paparazzi/var/include/messages.h **** 	  trans->put_bytes(trans->impl, dev, DL_TYPE_UINT32, DL_FORMAT_SCALAR, 4, (void *) _pacc);
 882              		.loc 2 2883 0
 883 0150 05F14C03 		add	r3, r5, #76
 884 0154 0193     		str	r3, [sp, #4]
 885 0156 CDF80090 		str	r9, [sp]
 886 015a 386A     		ldr	r0, [r7, #32]
 887 015c BE68     		ldr	r6, [r7, #8]
 888 015e 2146     		mov	r1, r4
 889 0160 0622     		movs	r2, #6
 890 0162 0023     		movs	r3, #0
 891 0164 B047     		blx	r6
 892              	.LVL89:
2884:/home/lsk/paparazzi/var/include/messages.h **** 	  trans->put_bytes(trans->impl, dev, DL_TYPE_UINT32, DL_FORMAT_SCALAR, 4, (void *) _sacc);
 893              		.loc 2 2884 0
 894 0166 05F15003 		add	r3, r5, #80
 895 016a 0193     		str	r3, [sp, #4]
 896 016c CDF80090 		str	r9, [sp]
 897 0170 386A     		ldr	r0, [r7, #32]
 898 0172 BE68     		ldr	r6, [r7, #8]
 899 0174 2146     		mov	r1, r4
 900 0176 0622     		movs	r2, #6
 901 0178 0023     		movs	r3, #0
 902 017a B047     		blx	r6
 903              	.LVL90:
2885:/home/lsk/paparazzi/var/include/messages.h **** 	  trans->put_bytes(trans->impl, dev, DL_TYPE_UINT32, DL_FORMAT_SCALAR, 4, (void *) _tow);
 904              		.loc 2 2885 0
 905 017c 05F16003 		add	r3, r5, #96
 906 0180 0193     		str	r3, [sp, #4]
 907 0182 CDF80090 		str	r9, [sp]
 908 0186 386A     		ldr	r0, [r7, #32]
 909 0188 BE68     		ldr	r6, [r7, #8]
 910 018a 2146     		mov	r1, r4
 911 018c 0622     		movs	r2, #6
 912 018e 0023     		movs	r3, #0
 913 0190 B047     		blx	r6
 914              	.LVL91:
2886:/home/lsk/paparazzi/var/include/messages.h **** 	  trans->put_bytes(trans->impl, dev, DL_TYPE_UINT16, DL_FORMAT_SCALAR, 2, (void *) _pdop);
 915              		.loc 2 2886 0
 916 0192 4FF0020A 		mov	r10, #2
 917 0196 05F15803 		add	r3, r5, #88
 918 019a 0193     		str	r3, [sp, #4]
 919 019c CDF800A0 		str	r10, [sp]
 920 01a0 386A     		ldr	r0, [r7, #32]
 921 01a2 BE68     		ldr	r6, [r7, #8]
 922 01a4 2146     		mov	r1, r4
 923 01a6 4A46     		mov	r2, r9
 924 01a8 0023     		movs	r3, #0
 925 01aa B047     		blx	r6
 926              	.LVL92:
2887:/home/lsk/paparazzi/var/include/messages.h **** 	  trans->put_bytes(trans->impl, dev, DL_TYPE_UINT8, DL_FORMAT_SCALAR, 1, (void *) _numsv);
 927              		.loc 2 2887 0
 928 01ac 05F15A03 		add	r3, r5, #90
 929 01b0 0193     		str	r3, [sp, #4]
 930 01b2 CDF80080 		str	r8, [sp]
 931 01b6 386A     		ldr	r0, [r7, #32]
 932 01b8 BE68     		ldr	r6, [r7, #8]
 933 01ba 2146     		mov	r1, r4
 934 01bc 5246     		mov	r2, r10
 935 01be 0023     		movs	r3, #0
2888:/home/lsk/paparazzi/var/include/messages.h **** 	  trans->put_bytes(trans->impl, dev, DL_TYPE_UINT8, DL_FORMAT_SCALAR, 1, (void *) _fix);
 936              		.loc 2 2888 0
 937 01c0 5B35     		adds	r5, r5, #91
2887:/home/lsk/paparazzi/var/include/messages.h **** 	  trans->put_bytes(trans->impl, dev, DL_TYPE_UINT8, DL_FORMAT_SCALAR, 1, (void *) _numsv);
 938              		.loc 2 2887 0
 939 01c2 B047     		blx	r6
 940              	.LVL93:
 941              		.loc 2 2888 0
 942 01c4 CDF80080 		str	r8, [sp]
 943 01c8 0195     		str	r5, [sp, #4]
 944 01ca 0023     		movs	r3, #0
 945 01cc BD68     		ldr	r5, [r7, #8]
 946 01ce 386A     		ldr	r0, [r7, #32]
 947 01d0 2146     		mov	r1, r4
 948 01d2 5246     		mov	r2, r10
 949 01d4 A847     		blx	r5
 950              	.LVL94:
2889:/home/lsk/paparazzi/var/include/messages.h **** 	  trans->end_message(trans->impl, dev);
 951              		.loc 2 2889 0
 952 01d6 7B69     		ldr	r3, [r7, #20]
 953 01d8 00E0     		b	.L27
 954              	.L25:
2890:/home/lsk/paparazzi/var/include/messages.h **** 	} else
2891:/home/lsk/paparazzi/var/include/messages.h **** 	  trans->overrun(trans->impl, dev);
 955              		.loc 2 2891 0
 956 01da BB69     		ldr	r3, [r7, #24]
 957              	.L27:
 958 01dc 386A     		ldr	r0, [r7, #32]
 959 01de 2146     		mov	r1, r4
 960 01e0 9847     		blx	r3
 961              	.LVL95:
 962              	.LBE32:
 963              	.LBE33:
 114:subsystems/gps.c ****   send_svinfo_available(trans, dev);
 964              		.loc 1 114 0
 965 01e2 3846     		mov	r0, r7
 966 01e4 2146     		mov	r1, r4
 967 01e6 FFF7FEFF 		bl	send_svinfo_available
 968              	.LVL96:
 115:subsystems/gps.c **** }
 969              		.loc 1 115 0
 970 01ea 04B0     		add	sp, sp, #16
 971              		@ sp needed
 972 01ec BDE8F087 		pop	{r4, r5, r6, r7, r8, r9, r10, pc}
 973              	.LVL97:
 974              	.L29:
 975              		.align	2
 976              	.L28:
 977 01f0 0F000000 		.word	.LC2
 978 01f4 00000000 		.word	.LANCHOR0
 979              		.cfi_endproc
 980              	.LFE366:
 982              		.section	.text.send_gps_sol,"ax",%progbits
 983              		.align	1
 984              		.thumb
 985              		.thumb_func
 987              	send_gps_sol:
 988              	.LFB368:
 128:subsystems/gps.c **** 
 129:subsystems/gps.c **** static void send_gps_sol(struct transport_tx *trans, struct link_device *dev)
 130:subsystems/gps.c **** {
 989              		.loc 1 130 0
 990              		.cfi_startproc
 991              		@ args = 0, pretend = 0, frame = 8
 992              		@ frame_needed = 0, uses_anonymous_args = 0
 993              	.LVL98:
 994 0000 2DE9FF47 		push	{r0, r1, r2, r3, r4, r5, r6, r7, r8, r9, r10, lr}
 995              		.cfi_def_cfa_offset 48
 996              		.cfi_offset 0, -48
 997              		.cfi_offset 1, -44
 998              		.cfi_offset 2, -40
 999              		.cfi_offset 3, -36
 1000              		.cfi_offset 4, -32
 1001              		.cfi_offset 5, -28
 1002              		.cfi_offset 6, -24
 1003              		.cfi_offset 7, -20
 1004              		.cfi_offset 8, -16
 1005              		.cfi_offset 9, -12
 1006              		.cfi_offset 10, -8
 1007              		.cfi_offset 14, -4
 1008              	.LBB36:
 1009              	.LBB37:
 539:/home/lsk/paparazzi/var/include/messages.h **** 	if (trans->check_available_space(trans->impl, dev, trans->size_of(trans->impl, 0+4+4+2+1 +2 /* msg
 1010              		.loc 2 539 0
 1011 0004 066A     		ldr	r6, [r0, #32]
 1012 0006 4768     		ldr	r7, [r0, #4]
 1013 0008 0368     		ldr	r3, [r0]
 1014 000a 4FF00108 		mov	r8, #1
 1015              	.LBE37:
 1016              	.LBE36:
 1017              		.loc 1 130 0
 1018 000e 0D46     		mov	r5, r1
 1019              	.LVL99:
 1020 0010 0446     		mov	r4, r0
 1021              	.LBB39:
 1022              	.LBB38:
 539:/home/lsk/paparazzi/var/include/messages.h **** 	if (trans->check_available_space(trans->impl, dev, trans->size_of(trans->impl, 0+4+4+2+1 +2 /* msg
 1023              		.loc 2 539 0
 1024 0012 0D21     		movs	r1, #13
 1025              	.LVL100:
 1026 0014 8DF80F80 		strb	r8, [sp, #15]
 1027              	.LVL101:
 1028 0018 3046     		mov	r0, r6
 1029              	.LVL102:
 1030 001a 9847     		blx	r3
 1031              	.LVL103:
 1032 001c 2946     		mov	r1, r5
 1033 001e 0246     		mov	r2, r0
 1034 0020 3046     		mov	r0, r6
 1035 0022 B847     		blx	r7
 1036              	.LVL104:
 1037 0024 0028     		cmp	r0, #0
 1038 0026 53D0     		beq	.L31
 540:/home/lsk/paparazzi/var/include/messages.h **** 	  trans->count_bytes(trans->impl, dev, trans->size_of(trans->impl, 0+4+4+2+1 +2 /* msg header over
 1039              		.loc 2 540 0
 1040 0028 266A     		ldr	r6, [r4, #32]
 1041 002a 2368     		ldr	r3, [r4]
 1042 002c E769     		ldr	r7, [r4, #28]
 1043 002e 3046     		mov	r0, r6
 1044 0030 0D21     		movs	r1, #13
 1045 0032 9847     		blx	r3
 1046              	.LVL105:
 1047 0034 2946     		mov	r1, r5
 1048 0036 0246     		mov	r2, r0
 1049 0038 3046     		mov	r0, r6
 1050 003a B847     		blx	r7
 1051              	.LVL106:
 541:/home/lsk/paparazzi/var/include/messages.h **** 	  trans->start_message(trans->impl, dev, 0+4+4+2+1 +2 /* msg header overhead */);
 1052              		.loc 2 541 0
 1053 003c 2369     		ldr	r3, [r4, #16]
 1054 003e 206A     		ldr	r0, [r4, #32]
 1055 0040 2946     		mov	r1, r5
 1056 0042 0D22     		movs	r2, #13
 1057 0044 9847     		blx	r3
 1058              	.LVL107:
 542:/home/lsk/paparazzi/var/include/messages.h **** 	  trans->put_bytes(trans->impl, dev, DL_TYPE_UINT8, DL_FORMAT_SCALAR, 1, &ac_id);
 1059              		.loc 2 542 0
 1060 0046 0DF10F03 		add	r3, sp, #15
 1061 004a 0193     		str	r3, [sp, #4]
 1062 004c A668     		ldr	r6, [r4, #8]
 1063 004e 206A     		ldr	r0, [r4, #32]
 1064 0050 CDF80080 		str	r8, [sp]
 1065 0054 2946     		mov	r1, r5
 1066 0056 0222     		movs	r2, #2
 1067 0058 0023     		movs	r3, #0
 1068 005a B047     		blx	r6
 1069              	.LVL108:
 543:/home/lsk/paparazzi/var/include/messages.h **** 	  trans->put_named_byte(trans->impl, dev, DL_TYPE_UINT8, DL_FORMAT_SCALAR, DL_GPS_SOL, "GPS_SOL");
 1070              		.loc 2 543 0
 1071 005c 1123     		movs	r3, #17
 1072 005e 0093     		str	r3, [sp]
 1073 0060 1F4B     		ldr	r3, .L34
 1074 0062 0193     		str	r3, [sp, #4]
 1075 0064 E668     		ldr	r6, [r4, #12]
 1076 0066 206A     		ldr	r0, [r4, #32]
 1077 0068 2946     		mov	r1, r5
 1078 006a 0222     		movs	r2, #2
 1079 006c 0023     		movs	r3, #0
 1080 006e B047     		blx	r6
 1081              	.LVL109:
 544:/home/lsk/paparazzi/var/include/messages.h **** 	  trans->put_bytes(trans->impl, dev, DL_TYPE_UINT32, DL_FORMAT_SCALAR, 4, (void *) _Pacc);
 1082              		.loc 2 544 0
 1083 0070 4FF00409 		mov	r9, #4
 1084 0074 1B4E     		ldr	r6, .L34+4
 1085 0076 0196     		str	r6, [sp, #4]
 1086 0078 A768     		ldr	r7, [r4, #8]
 1087 007a 206A     		ldr	r0, [r4, #32]
 1088 007c CDF80090 		str	r9, [sp]
 1089 0080 2946     		mov	r1, r5
 1090 0082 0622     		movs	r2, #6
 1091 0084 0023     		movs	r3, #0
 1092 0086 B847     		blx	r7
 1093              	.LVL110:
 545:/home/lsk/paparazzi/var/include/messages.h **** 	  trans->put_bytes(trans->impl, dev, DL_TYPE_UINT32, DL_FORMAT_SCALAR, 4, (void *) _Sacc);
 1094              		.loc 2 545 0
 1095 0088 06EB0903 		add	r3, r6, r9
 1096 008c 0193     		str	r3, [sp, #4]
 1097 008e A768     		ldr	r7, [r4, #8]
 1098 0090 206A     		ldr	r0, [r4, #32]
 1099 0092 CDF80090 		str	r9, [sp]
 1100 0096 2946     		mov	r1, r5
 1101 0098 0622     		movs	r2, #6
 1102 009a 0023     		movs	r3, #0
 1103 009c B847     		blx	r7
 1104              	.LVL111:
 546:/home/lsk/paparazzi/var/include/messages.h **** 	  trans->put_bytes(trans->impl, dev, DL_TYPE_UINT16, DL_FORMAT_SCALAR, 2, (void *) _PDOP);
 1105              		.loc 2 546 0
 1106 009e 4FF0020A 		mov	r10, #2
 1107 00a2 06F10C03 		add	r3, r6, #12
 1108 00a6 0193     		str	r3, [sp, #4]
 1109 00a8 206A     		ldr	r0, [r4, #32]
 1110 00aa CDF800A0 		str	r10, [sp]
 1111 00ae 2946     		mov	r1, r5
 1112 00b0 4A46     		mov	r2, r9
 1113 00b2 0023     		movs	r3, #0
 547:/home/lsk/paparazzi/var/include/messages.h **** 	  trans->put_bytes(trans->impl, dev, DL_TYPE_UINT8, DL_FORMAT_SCALAR, 1, (void *) _numSV);
 1114              		.loc 2 547 0
 1115 00b4 0E36     		adds	r6, r6, #14
 546:/home/lsk/paparazzi/var/include/messages.h **** 	  trans->put_bytes(trans->impl, dev, DL_TYPE_UINT16, DL_FORMAT_SCALAR, 2, (void *) _PDOP);
 1116              		.loc 2 546 0
 1117 00b6 A768     		ldr	r7, [r4, #8]
 1118 00b8 B847     		blx	r7
 1119              	.LVL112:
 547:/home/lsk/paparazzi/var/include/messages.h **** 	  trans->put_bytes(trans->impl, dev, DL_TYPE_UINT8, DL_FORMAT_SCALAR, 1, (void *) _numSV);
 1120              		.loc 2 547 0
 1121 00ba 0196     		str	r6, [sp, #4]
 1122 00bc 0023     		movs	r3, #0
 1123 00be CDF80080 		str	r8, [sp]
 1124 00c2 A668     		ldr	r6, [r4, #8]
 1125 00c4 206A     		ldr	r0, [r4, #32]
 1126 00c6 2946     		mov	r1, r5
 1127 00c8 5246     		mov	r2, r10
 1128 00ca B047     		blx	r6
 1129              	.LVL113:
 548:/home/lsk/paparazzi/var/include/messages.h **** 	  trans->end_message(trans->impl, dev);
 1130              		.loc 2 548 0
 1131 00cc 6369     		ldr	r3, [r4, #20]
 1132 00ce 00E0     		b	.L33
 1133              	.L31:
 550:/home/lsk/paparazzi/var/include/messages.h **** 	  trans->overrun(trans->impl, dev);
 1134              		.loc 2 550 0
 1135 00d0 A369     		ldr	r3, [r4, #24]
 1136              	.L33:
 1137 00d2 206A     		ldr	r0, [r4, #32]
 1138 00d4 2946     		mov	r1, r5
 1139 00d6 9847     		blx	r3
 1140              	.LVL114:
 1141              	.LBE38:
 1142              	.LBE39:
 131:subsystems/gps.c ****   pprz_msg_send_GPS_SOL(trans, dev, AC_ID, &gps.pacc, &gps.sacc, &gps.pdop, &gps.num_sv);
 132:subsystems/gps.c **** }
 1143              		.loc 1 132 0
 1144 00d8 04B0     		add	sp, sp, #16
 1145              		@ sp needed
 1146 00da BDE8F087 		pop	{r4, r5, r6, r7, r8, r9, r10, pc}
 1147              	.LVL115:
 1148              	.L35:
 1149 00de 00BF     		.align	2
 1150              	.L34:
 1151 00e0 17000000 		.word	.LC3
 1152 00e4 4C000000 		.word	.LANCHOR0+76
 1153              		.cfi_endproc
 1154              	.LFE368:
 1156              		.section	.text.send_gps,"ax",%progbits
 1157              		.align	1
 1158              		.thumb
 1159              		.thumb_func
 1161              	send_gps:
 1162              	.LFB365:
  89:subsystems/gps.c **** {
 1163              		.loc 1 89 0
 1164              		.cfi_startproc
 1165              		@ args = 0, pretend = 0, frame = 8
 1166              		@ frame_needed = 0, uses_anonymous_args = 0
 1167              	.LVL116:
 1168 0000 2DE9F04F 		push	{r4, r5, r6, r7, r8, r9, r10, fp, lr}
 1169              		.cfi_def_cfa_offset 36
 1170              		.cfi_offset 4, -36
 1171              		.cfi_offset 5, -32
 1172              		.cfi_offset 6, -28
 1173              		.cfi_offset 7, -24
 1174              		.cfi_offset 8, -20
 1175              		.cfi_offset 9, -16
 1176              		.cfi_offset 10, -12
 1177              		.cfi_offset 11, -8
 1178              		.cfi_offset 14, -4
  91:subsystems/gps.c ****   int16_t climb = -gps.ned_vel.z;
 1179              		.loc 1 91 0
 1180 0004 DFF8D4B1 		ldr	fp, .L40+20
 1181 0008 DBF84030 		ldr	r3, [fp, #64]
  89:subsystems/gps.c **** {
 1182              		.loc 1 89 0
 1183 000c 85B0     		sub	sp, sp, #20
 1184              		.cfi_def_cfa_offset 56
  89:subsystems/gps.c **** {
 1185              		.loc 1 89 0
 1186 000e 0746     		mov	r7, r0
  91:subsystems/gps.c ****   int16_t climb = -gps.ned_vel.z;
 1187              		.loc 1 91 0
 1188 0010 5B42     		negs	r3, r3
  92:subsystems/gps.c ****   int16_t course = (DegOfRad(gps.course) / ((int32_t)1e6));
 1189              		.loc 1 92 0
 1190 0012 DBF84800 		ldr	r0, [fp, #72]
 1191              	.LVL117:
  91:subsystems/gps.c ****   int16_t climb = -gps.ned_vel.z;
 1192              		.loc 1 91 0
 1193 0016 ADF80C30 		strh	r3, [sp, #12]	@ movhi
  90:subsystems/gps.c ****   uint8_t zero = 0;
 1194              		.loc 1 90 0
 1195 001a 0025     		movs	r5, #0
  89:subsystems/gps.c **** {
 1196              		.loc 1 89 0
 1197 001c 0C46     		mov	r4, r1
  90:subsystems/gps.c ****   uint8_t zero = 0;
 1198              		.loc 1 90 0
 1199 001e 8DF80A50 		strb	r5, [sp, #10]
  92:subsystems/gps.c ****   int16_t course = (DegOfRad(gps.course) / ((int32_t)1e6));
 1200              		.loc 1 92 0
 1201 0022 FFF7FEFF 		bl	__aeabi_i2d
 1202              	.LVL118:
 1203 0026 69A3     		adr	r3, .L40+4
 1204 0028 D3E90023 		ldrd	r2, [r3]
 1205 002c FFF7FEFF 		bl	__aeabi_dmul
 1206              	.LVL119:
 1207 0030 68A3     		adr	r3, .L40+12
 1208 0032 D3E90023 		ldrd	r2, [r3]
 1209 0036 FFF7FEFF 		bl	__aeabi_ddiv
 1210              	.LVL120:
 1211 003a FFF7FEFF 		bl	__aeabi_d2iz
 1212              	.LVL121:
 1213              	.LBB42:
 1214              	.LBB43:
 379:/home/lsk/paparazzi/var/include/messages.h **** 	if (trans->check_available_space(trans->impl, dev, trans->size_of(trans->impl, 0+1+4+4+2+4+2+2+2+4
 1215              		.loc 2 379 0
 1216 003e D7F82090 		ldr	r9, [r7, #32]
 1217              	.LBE43:
 1218              	.LBE42:
  92:subsystems/gps.c ****   int16_t course = (DegOfRad(gps.course) / ((int32_t)1e6));
 1219              		.loc 1 92 0
 1220 0042 ADF80E00 		strh	r0, [sp, #14]	@ movhi
 1221              	.LVL122:
 1222 0046 4FF0010A 		mov	r10, #1
 1223              	.LBB45:
 1224              	.LBB44:
 379:/home/lsk/paparazzi/var/include/messages.h **** 	if (trans->check_available_space(trans->impl, dev, trans->size_of(trans->impl, 0+1+4+4+2+4+2+2+2+4
 1225              		.loc 2 379 0
 1226 004a 1D21     		movs	r1, #29
 1227 004c 8DF80BA0 		strb	r10, [sp, #11]
 1228              	.LVL123:
 1229 0050 3B68     		ldr	r3, [r7]
 1230 0052 D7F80480 		ldr	r8, [r7, #4]
 1231 0056 4846     		mov	r0, r9
 1232 0058 9847     		blx	r3
 1233              	.LVL124:
 1234 005a 2146     		mov	r1, r4
 1235 005c 0246     		mov	r2, r0
 1236 005e 4846     		mov	r0, r9
 1237 0060 C047     		blx	r8
 1238              	.LVL125:
 1239 0062 0028     		cmp	r0, #0
 1240 0064 00F0A480 		beq	.L37
 380:/home/lsk/paparazzi/var/include/messages.h **** 	  trans->count_bytes(trans->impl, dev, trans->size_of(trans->impl, 0+1+4+4+2+4+2+2+2+4+1+1 +2 /* m
 1241              		.loc 2 380 0
 1242 0068 D7F82090 		ldr	r9, [r7, #32]
 1243 006c 3B68     		ldr	r3, [r7]
 1244 006e D7F81C80 		ldr	r8, [r7, #28]
 1245 0072 4846     		mov	r0, r9
 1246 0074 1D21     		movs	r1, #29
 1247 0076 9847     		blx	r3
 1248              	.LVL126:
 1249 0078 2146     		mov	r1, r4
 1250 007a 0246     		mov	r2, r0
 1251 007c 4846     		mov	r0, r9
 1252 007e C047     		blx	r8
 1253              	.LVL127:
 381:/home/lsk/paparazzi/var/include/messages.h **** 	  trans->start_message(trans->impl, dev, 0+1+4+4+2+4+2+2+2+4+1+1 +2 /* msg header overhead */);
 1254              		.loc 2 381 0
 1255 0080 3B69     		ldr	r3, [r7, #16]
 1256 0082 386A     		ldr	r0, [r7, #32]
 1257 0084 2146     		mov	r1, r4
 1258 0086 1D22     		movs	r2, #29
 1259 0088 9847     		blx	r3
 1260              	.LVL128:
 382:/home/lsk/paparazzi/var/include/messages.h **** 	  trans->put_bytes(trans->impl, dev, DL_TYPE_UINT8, DL_FORMAT_SCALAR, 1, &ac_id);
 1261              		.loc 2 382 0
 1262 008a 0DF10B03 		add	r3, sp, #11
 1263 008e 0193     		str	r3, [sp, #4]
 1264 0090 CDF800A0 		str	r10, [sp]
 1265 0094 386A     		ldr	r0, [r7, #32]
 1266 0096 BE68     		ldr	r6, [r7, #8]
 1267 0098 2146     		mov	r1, r4
 1268 009a 0222     		movs	r2, #2
 1269 009c 2B46     		mov	r3, r5
 1270 009e B047     		blx	r6
 1271              	.LVL129:
 383:/home/lsk/paparazzi/var/include/messages.h **** 	  trans->put_named_byte(trans->impl, dev, DL_TYPE_UINT8, DL_FORMAT_SCALAR, DL_GPS, "GPS");
 1272              		.loc 2 383 0
 1273 00a0 0823     		movs	r3, #8
 1274 00a2 0093     		str	r3, [sp]
 1275 00a4 484B     		ldr	r3, .L40
 1276 00a6 0193     		str	r3, [sp, #4]
 1277 00a8 386A     		ldr	r0, [r7, #32]
 1278 00aa FE68     		ldr	r6, [r7, #12]
 1279 00ac 2146     		mov	r1, r4
 1280 00ae 0222     		movs	r2, #2
 1281 00b0 2B46     		mov	r3, r5
 1282 00b2 B047     		blx	r6
 1283              	.LVL130:
 384:/home/lsk/paparazzi/var/include/messages.h **** 	  trans->put_bytes(trans->impl, dev, DL_TYPE_UINT8, DL_FORMAT_SCALAR, 1, (void *) _mode);
 1284              		.loc 2 384 0
 1285 00b4 0BF15B03 		add	r3, fp, #91
 1286 00b8 0193     		str	r3, [sp, #4]
 1287 00ba CDF800A0 		str	r10, [sp]
 1288 00be 386A     		ldr	r0, [r7, #32]
 1289 00c0 BE68     		ldr	r6, [r7, #8]
 1290 00c2 2146     		mov	r1, r4
 1291 00c4 0222     		movs	r2, #2
 1292 00c6 2B46     		mov	r3, r5
 1293 00c8 B047     		blx	r6
 1294              	.LVL131:
 385:/home/lsk/paparazzi/var/include/messages.h **** 	  trans->put_bytes(trans->impl, dev, DL_TYPE_INT32, DL_FORMAT_SCALAR, 4, (void *) _utm_east);
 1295              		.loc 2 385 0
 1296 00ca 4FF00409 		mov	r9, #4
 1297 00ce 0BF11C03 		add	r3, fp, #28
 1298 00d2 0193     		str	r3, [sp, #4]
 1299 00d4 CDF80090 		str	r9, [sp]
 1300 00d8 386A     		ldr	r0, [r7, #32]
 1301 00da BE68     		ldr	r6, [r7, #8]
 1302 00dc 2146     		mov	r1, r4
 1303 00de 0722     		movs	r2, #7
 1304 00e0 2B46     		mov	r3, r5
 1305 00e2 B047     		blx	r6
 1306              	.LVL132:
 386:/home/lsk/paparazzi/var/include/messages.h **** 	  trans->put_bytes(trans->impl, dev, DL_TYPE_INT32, DL_FORMAT_SCALAR, 4, (void *) _utm_north);
 1307              		.loc 2 386 0
 1308 00e4 0BF11803 		add	r3, fp, #24
 1309 00e8 0193     		str	r3, [sp, #4]
 1310 00ea CDF80090 		str	r9, [sp]
 1311 00ee 386A     		ldr	r0, [r7, #32]
 1312 00f0 BE68     		ldr	r6, [r7, #8]
 1313 00f2 2146     		mov	r1, r4
 1314 00f4 0722     		movs	r2, #7
 1315 00f6 2B46     		mov	r3, r5
 1316 00f8 B047     		blx	r6
 1317              	.LVL133:
 387:/home/lsk/paparazzi/var/include/messages.h **** 	  trans->put_bytes(trans->impl, dev, DL_TYPE_INT16, DL_FORMAT_SCALAR, 2, (void *) _course);
 1318              		.loc 2 387 0
 1319 00fa 4FF00208 		mov	r8, #2
 1320 00fe 0DF10E03 		add	r3, sp, #14
 1321              	.LVL134:
 1322 0102 0193     		str	r3, [sp, #4]
 1323 0104 CDF80080 		str	r8, [sp]
 1324 0108 386A     		ldr	r0, [r7, #32]
 1325 010a BE68     		ldr	r6, [r7, #8]
 1326 010c 2146     		mov	r1, r4
 1327 010e 0522     		movs	r2, #5
 1328 0110 2B46     		mov	r3, r5
 1329              	.LVL135:
 1330 0112 B047     		blx	r6
 1331              	.LVL136:
 388:/home/lsk/paparazzi/var/include/messages.h **** 	  trans->put_bytes(trans->impl, dev, DL_TYPE_INT32, DL_FORMAT_SCALAR, 4, (void *) _alt);
 1332              		.loc 2 388 0
 1333 0114 0BF12803 		add	r3, fp, #40
 1334 0118 0193     		str	r3, [sp, #4]
 1335 011a CDF80090 		str	r9, [sp]
 1336 011e 386A     		ldr	r0, [r7, #32]
 1337 0120 BE68     		ldr	r6, [r7, #8]
 1338 0122 2146     		mov	r1, r4
 1339 0124 0722     		movs	r2, #7
 1340 0126 2B46     		mov	r3, r5
 1341 0128 B047     		blx	r6
 1342              	.LVL137:
 389:/home/lsk/paparazzi/var/include/messages.h **** 	  trans->put_bytes(trans->impl, dev, DL_TYPE_UINT16, DL_FORMAT_SCALAR, 2, (void *) _speed);
 1343              		.loc 2 389 0
 1344 012a 0BF14403 		add	r3, fp, #68
 1345 012e 0193     		str	r3, [sp, #4]
 1346 0130 CDF80080 		str	r8, [sp]
 1347 0134 386A     		ldr	r0, [r7, #32]
 1348 0136 BE68     		ldr	r6, [r7, #8]
 1349 0138 2146     		mov	r1, r4
 1350 013a 4A46     		mov	r2, r9
 1351 013c 2B46     		mov	r3, r5
 1352 013e B047     		blx	r6
 1353              	.LVL138:
 390:/home/lsk/paparazzi/var/include/messages.h **** 	  trans->put_bytes(trans->impl, dev, DL_TYPE_INT16, DL_FORMAT_SCALAR, 2, (void *) _climb);
 1354              		.loc 2 390 0
 1355 0140 03AB     		add	r3, sp, #12
 1356              	.LVL139:
 1357 0142 0193     		str	r3, [sp, #4]
 1358 0144 CDF80080 		str	r8, [sp]
 1359 0148 386A     		ldr	r0, [r7, #32]
 1360 014a BE68     		ldr	r6, [r7, #8]
 1361 014c 2146     		mov	r1, r4
 1362 014e 0522     		movs	r2, #5
 1363 0150 2B46     		mov	r3, r5
 1364              	.LVL140:
 1365 0152 B047     		blx	r6
 1366              	.LVL141:
 391:/home/lsk/paparazzi/var/include/messages.h **** 	  trans->put_bytes(trans->impl, dev, DL_TYPE_UINT16, DL_FORMAT_SCALAR, 2, (void *) _week);
 1367              		.loc 2 391 0
 1368 0154 0BF15C03 		add	r3, fp, #92
 1369 0158 0193     		str	r3, [sp, #4]
 1370 015a CDF80080 		str	r8, [sp]
 1371 015e 386A     		ldr	r0, [r7, #32]
 1372 0160 BE68     		ldr	r6, [r7, #8]
 1373 0162 2146     		mov	r1, r4
 1374 0164 4A46     		mov	r2, r9
 1375 0166 2B46     		mov	r3, r5
 1376 0168 B047     		blx	r6
 1377              	.LVL142:
 392:/home/lsk/paparazzi/var/include/messages.h **** 	  trans->put_bytes(trans->impl, dev, DL_TYPE_UINT32, DL_FORMAT_SCALAR, 4, (void *) _itow);
 1378              		.loc 2 392 0
 1379 016a 0BF16003 		add	r3, fp, #96
 1380 016e 0193     		str	r3, [sp, #4]
 1381 0170 CDF80090 		str	r9, [sp]
 1382 0174 386A     		ldr	r0, [r7, #32]
 1383 0176 BE68     		ldr	r6, [r7, #8]
 1384 0178 2146     		mov	r1, r4
 1385 017a 0622     		movs	r2, #6
 1386 017c 2B46     		mov	r3, r5
 1387 017e B047     		blx	r6
 1388              	.LVL143:
 393:/home/lsk/paparazzi/var/include/messages.h **** 	  trans->put_bytes(trans->impl, dev, DL_TYPE_UINT8, DL_FORMAT_SCALAR, 1, (void *) _utm_zone);
 1389              		.loc 2 393 0
 1390 0180 0BF12406 		add	r6, fp, #36
 1391 0184 CDF800A0 		str	r10, [sp]
 1392 0188 0196     		str	r6, [sp, #4]
 1393 018a BE68     		ldr	r6, [r7, #8]
 1394 018c 386A     		ldr	r0, [r7, #32]
 1395 018e 2146     		mov	r1, r4
 1396 0190 4246     		mov	r2, r8
 1397 0192 2B46     		mov	r3, r5
 1398 0194 B047     		blx	r6
 1399              	.LVL144:
 394:/home/lsk/paparazzi/var/include/messages.h **** 	  trans->put_bytes(trans->impl, dev, DL_TYPE_UINT8, DL_FORMAT_SCALAR, 1, (void *) _gps_nb_err);
 1400              		.loc 2 394 0
 1401 0196 0DF10A03 		add	r3, sp, #10
 1402              	.LVL145:
 1403 019a 0193     		str	r3, [sp, #4]
 1404 019c CDF800A0 		str	r10, [sp]
 1405 01a0 2B46     		mov	r3, r5
 1406              	.LVL146:
 1407 01a2 BE68     		ldr	r6, [r7, #8]
 1408 01a4 386A     		ldr	r0, [r7, #32]
 1409 01a6 2146     		mov	r1, r4
 1410 01a8 4246     		mov	r2, r8
 1411 01aa B047     		blx	r6
 1412              	.LVL147:
 395:/home/lsk/paparazzi/var/include/messages.h **** 	  trans->end_message(trans->impl, dev);
 1413              		.loc 2 395 0
 1414 01ac 7B69     		ldr	r3, [r7, #20]
 1415 01ae 00E0     		b	.L39
 1416              	.L37:
 397:/home/lsk/paparazzi/var/include/messages.h **** 	  trans->overrun(trans->impl, dev);
 1417              		.loc 2 397 0
 1418 01b0 BB69     		ldr	r3, [r7, #24]
 1419              	.L39:
 1420 01b2 386A     		ldr	r0, [r7, #32]
 1421 01b4 2146     		mov	r1, r4
 1422 01b6 9847     		blx	r3
 1423              	.LVL148:
 1424              	.LBE44:
 1425              	.LBE45:
  98:subsystems/gps.c ****   send_svinfo_available(trans, dev);
 1426              		.loc 1 98 0
 1427 01b8 3846     		mov	r0, r7
 1428 01ba 2146     		mov	r1, r4
 1429 01bc FFF7FEFF 		bl	send_svinfo_available
 1430              	.LVL149:
  99:subsystems/gps.c **** }
 1431              		.loc 1 99 0
 1432 01c0 05B0     		add	sp, sp, #20
 1433              		@ sp needed
 1434 01c2 BDE8F08F 		pop	{r4, r5, r6, r7, r8, r9, r10, fp, pc}
 1435              	.LVL150:
 1436              	.L41:
 1437 01c6 00BF     		.align	3
 1438              	.L40:
 1439 01c8 1F000000 		.word	.LC4
 1440 01cc F8C1631A 		.word	442745336
 1441 01d0 DCA54C40 		.word	1078765020
 1442 01d4 00000000 		.word	0
 1443 01d8 80842E41 		.word	1093567616
 1444 01dc 00000000 		.word	.LANCHOR0
 1445              		.cfi_endproc
 1446              	.LFE365:
 1448              		.section	.text.gps_init,"ax",%progbits
 1449              		.align	1
 1450              		.global	gps_init
 1451              		.thumb
 1452              		.thumb_func
 1454              	gps_init:
 1455              	.LFB369:
 133:subsystems/gps.c **** #endif
 134:subsystems/gps.c **** 
 135:subsystems/gps.c **** void gps_init(void)
 136:subsystems/gps.c **** {
 1456              		.loc 1 136 0
 1457              		.cfi_startproc
 1458              		@ args = 0, pretend = 0, frame = 0
 1459              		@ frame_needed = 0, uses_anonymous_args = 0
 1460 0000 10B5     		push	{r4, lr}
 1461              		.cfi_def_cfa_offset 8
 1462              		.cfi_offset 4, -8
 1463              		.cfi_offset 14, -4
 137:subsystems/gps.c ****   gps.fix = GPS_FIX_NONE;
 1464              		.loc 1 137 0
 1465 0002 194B     		ldr	r3, .L43
 138:subsystems/gps.c ****   gps.week = 0;
 139:subsystems/gps.c ****   gps.tow = 0;
 140:subsystems/gps.c ****   gps.cacc = 0;
 141:subsystems/gps.c **** 
 142:subsystems/gps.c ****   gps.last_3dfix_ticks = 0;
 143:subsystems/gps.c ****   gps.last_3dfix_time = 0;
 144:subsystems/gps.c ****   gps.last_msg_ticks = 0;
 145:subsystems/gps.c ****   gps.last_msg_time = 0;
 146:subsystems/gps.c **** #ifdef GPS_POWER_GPIO
 147:subsystems/gps.c ****   gpio_setup_output(GPS_POWER_GPIO);
 148:subsystems/gps.c ****   GPS_POWER_GPIO_ON(GPS_POWER_GPIO);
 149:subsystems/gps.c **** #endif
 150:subsystems/gps.c **** #ifdef GPS_LED
 151:subsystems/gps.c ****   LED_OFF(GPS_LED);
 152:subsystems/gps.c **** #endif
 153:subsystems/gps.c **** #ifdef GPS_TYPE_H
 154:subsystems/gps.c ****   gps_impl_init();
 155:subsystems/gps.c **** #endif
 156:subsystems/gps.c **** 
 157:subsystems/gps.c **** #if PERIODIC_TELEMETRY
 158:subsystems/gps.c ****   register_periodic_telemetry(DefaultPeriodic, "GPS", send_gps);
 1466              		.loc 1 158 0
 1467 0004 194C     		ldr	r4, .L43+4
 151:subsystems/gps.c ****   LED_OFF(GPS_LED);
 1468              		.loc 1 151 0
 1469 0006 1A48     		ldr	r0, .L43+8
 137:subsystems/gps.c ****   gps.fix = GPS_FIX_NONE;
 1470              		.loc 1 137 0
 1471 0008 0022     		movs	r2, #0
 151:subsystems/gps.c ****   LED_OFF(GPS_LED);
 1472              		.loc 1 151 0
 1473 000a 4FF40051 		mov	r1, #8192
 137:subsystems/gps.c ****   gps.fix = GPS_FIX_NONE;
 1474              		.loc 1 137 0
 1475 000e 83F85B20 		strb	r2, [r3, #91]
 138:subsystems/gps.c ****   gps.week = 0;
 1476              		.loc 1 138 0
 1477 0012 A3F85C20 		strh	r2, [r3, #92]	@ movhi
 139:subsystems/gps.c ****   gps.tow = 0;
 1478              		.loc 1 139 0
 1479 0016 1A66     		str	r2, [r3, #96]
 140:subsystems/gps.c ****   gps.cacc = 0;
 1480              		.loc 1 140 0
 1481 0018 5A65     		str	r2, [r3, #84]
 142:subsystems/gps.c ****   gps.last_3dfix_ticks = 0;
 1482              		.loc 1 142 0
 1483 001a C3F8E820 		str	r2, [r3, #232]
 143:subsystems/gps.c ****   gps.last_3dfix_time = 0;
 1484              		.loc 1 143 0
 1485 001e C3F8EC20 		str	r2, [r3, #236]
 144:subsystems/gps.c ****   gps.last_msg_ticks = 0;
 1486              		.loc 1 144 0
 1487 0022 C3F8F020 		str	r2, [r3, #240]
 145:subsystems/gps.c ****   gps.last_msg_time = 0;
 1488              		.loc 1 145 0
 1489 0026 C3F8F420 		str	r2, [r3, #244]
 151:subsystems/gps.c ****   LED_OFF(GPS_LED);
 1490              		.loc 1 151 0
 1491 002a FFF7FEFF 		bl	gpio_set
 1492              	.LVL151:
 154:subsystems/gps.c ****   gps_impl_init();
 1493              		.loc 1 154 0
 1494 002e FFF7FEFF 		bl	gps_impl_init
 1495              	.LVL152:
 1496              		.loc 1 158 0
 1497 0032 2046     		mov	r0, r4
 1498 0034 0F49     		ldr	r1, .L43+12
 1499 0036 104A     		ldr	r2, .L43+16
 1500 0038 FFF7FEFF 		bl	register_periodic_telemetry
 1501              	.LVL153:
 159:subsystems/gps.c ****   register_periodic_telemetry(DefaultPeriodic, "GPS_INT", send_gps_int);
 1502              		.loc 1 159 0
 1503 003c 2046     		mov	r0, r4
 1504 003e 0F49     		ldr	r1, .L43+20
 1505 0040 0F4A     		ldr	r2, .L43+24
 1506 0042 FFF7FEFF 		bl	register_periodic_telemetry
 1507              	.LVL154:
 160:subsystems/gps.c ****   register_periodic_telemetry(DefaultPeriodic, "GPS_LLA", send_gps_lla);
 1508              		.loc 1 160 0
 1509 0046 2046     		mov	r0, r4
 1510 0048 0E49     		ldr	r1, .L43+28
 1511 004a 0F4A     		ldr	r2, .L43+32
 1512 004c FFF7FEFF 		bl	register_periodic_telemetry
 1513              	.LVL155:
 161:subsystems/gps.c ****   register_periodic_telemetry(DefaultPeriodic, "GPS_SOL", send_gps_sol);
 1514              		.loc 1 161 0
 1515 0050 2046     		mov	r0, r4
 1516 0052 0E49     		ldr	r1, .L43+36
 1517 0054 0E4A     		ldr	r2, .L43+40
 1518 0056 FFF7FEFF 		bl	register_periodic_telemetry
 1519              	.LVL156:
 162:subsystems/gps.c ****   register_periodic_telemetry(DefaultPeriodic, "SVINFO", send_svinfo);
 1520              		.loc 1 162 0
 1521 005a 2046     		mov	r0, r4
 1522 005c 0D49     		ldr	r1, .L43+44
 1523 005e 0E4A     		ldr	r2, .L43+48
 163:subsystems/gps.c **** #endif
 164:subsystems/gps.c **** }
 1524              		.loc 1 164 0
 1525 0060 BDE81040 		pop	{r4, lr}
 162:subsystems/gps.c ****   register_periodic_telemetry(DefaultPeriodic, "SVINFO", send_svinfo);
 1526              		.loc 1 162 0
 1527 0064 FFF7FEBF 		b	register_periodic_telemetry
 1528              	.LVL157:
 1529              	.L44:
 1530              		.align	2
 1531              	.L43:
 1532 0068 00000000 		.word	.LANCHOR0
 1533 006c 00000000 		.word	pprz_telemetry
 1534 0070 00000240 		.word	1073872896
 1535 0074 1F000000 		.word	.LC4
 1536 0078 00000000 		.word	send_gps
 1537 007c 0F000000 		.word	.LC2
 1538 0080 00000000 		.word	send_gps_int
 1539 0084 00000000 		.word	.LC0
 1540 0088 00000000 		.word	send_gps_lla
 1541 008c 17000000 		.word	.LC3
 1542 0090 00000000 		.word	send_gps_sol
 1543 0094 08000000 		.word	.LC1
 1544 0098 00000000 		.word	send_svinfo
 1545              		.cfi_endproc
 1546              	.LFE369:
 1548              		.section	.text.gps_periodic_check,"ax",%progbits
 1549              		.align	1
 1550              		.global	gps_periodic_check
 1551              		.thumb
 1552              		.thumb_func
 1554              	gps_periodic_check:
 1555              	.LFB370:
 165:subsystems/gps.c **** 
 166:subsystems/gps.c **** void gps_periodic_check(void)
 167:subsystems/gps.c **** {
 1556              		.loc 1 167 0
 1557              		.cfi_startproc
 1558              		@ args = 0, pretend = 0, frame = 0
 1559              		@ frame_needed = 0, uses_anonymous_args = 0
 1560              		@ link register save eliminated.
 168:subsystems/gps.c ****   if (sys_time.nb_sec - gps.last_msg_time > GPS_TIMEOUT) {
 1561              		.loc 1 168 0
 1562 0000 054B     		ldr	r3, .L47
 1563 0002 1968     		ldr	r1, [r3]
 1564 0004 054B     		ldr	r3, .L47+4
 1565 0006 D3F8F420 		ldr	r2, [r3, #244]
 1566 000a 8A1A     		subs	r2, r1, r2
 1567 000c 022A     		cmp	r2, #2
 169:subsystems/gps.c ****     gps.fix = GPS_FIX_NONE;
 1568              		.loc 1 169 0
 1569 000e 84BF     		itt	hi
 1570 0010 0022     		movhi	r2, #0
 1571 0012 83F85B20 		strbhi	r2, [r3, #91]
 1572 0016 7047     		bx	lr
 1573              	.L48:
 1574              		.align	2
 1575              	.L47:
 1576 0018 00000000 		.word	sys_time
 1577 001c 00000000 		.word	.LANCHOR0
 1578              		.cfi_endproc
 1579              	.LFE370:
 1581              		.section	.text.gps_tow_from_sys_ticks,"ax",%progbits
 1582              		.align	1
 1583              		.global	gps_tow_from_sys_ticks
 1584              		.thumb
 1585              		.thumb_func
 1587              	gps_tow_from_sys_ticks:
 1588              	.LFB371:
 170:subsystems/gps.c ****   }
 171:subsystems/gps.c **** }
 172:subsystems/gps.c **** 
 173:subsystems/gps.c **** uint32_t gps_tow_from_sys_ticks(uint32_t sys_ticks)
 174:subsystems/gps.c **** {
 1589              		.loc 1 174 0
 1590              		.cfi_startproc
 1591              		@ args = 0, pretend = 0, frame = 0
 1592              		@ frame_needed = 0, uses_anonymous_args = 0
 1593              		@ link register save eliminated.
 1594              	.LVL158:
 175:subsystems/gps.c ****   uint32_t clock_delta;
 176:subsystems/gps.c ****   uint32_t time_delta;
 177:subsystems/gps.c ****   uint32_t itow_now;
 178:subsystems/gps.c **** 
 179:subsystems/gps.c ****   if (sys_ticks < gps_time_sync.t0_ticks) {
 1595              		.loc 1 179 0
 1596 0000 0C4A     		ldr	r2, .L53
 1597 0002 9368     		ldr	r3, [r2, #8]
 180:subsystems/gps.c ****     clock_delta = (0xFFFFFFFF - sys_ticks) + gps_time_sync.t0_ticks + 1;
 181:subsystems/gps.c ****   } else {
 182:subsystems/gps.c ****     clock_delta = sys_ticks - gps_time_sync.t0_ticks;
 183:subsystems/gps.c ****   }
 184:subsystems/gps.c **** 
 185:subsystems/gps.c ****   time_delta = msec_of_sys_time_ticks(clock_delta);
 186:subsystems/gps.c **** 
 187:subsystems/gps.c ****   itow_now = gps_time_sync.t0_tow + time_delta;
 1598              		.loc 1 187 0
 1599 0004 1268     		ldr	r2, [r2]
 179:subsystems/gps.c ****   if (sys_ticks < gps_time_sync.t0_ticks) {
 1600              		.loc 1 179 0
 1601 0006 9842     		cmp	r0, r3
 180:subsystems/gps.c ****     clock_delta = (0xFFFFFFFF - sys_ticks) + gps_time_sync.t0_ticks + 1;
 1602              		.loc 1 180 0
 1603 0008 34BF     		ite	cc
 1604 000a C0EB0303 		rsbcc	r3, r0, r3
 1605              	.LVL159:
 182:subsystems/gps.c ****     clock_delta = sys_ticks - gps_time_sync.t0_ticks;
 1606              		.loc 1 182 0
 1607 000e C3EB0003 		rsbcs	r3, r3, r0
 1608              	.LVL160:
 1609              	.LBB46:
 1610              	.LBB47:
 1611              		.file 3 "./mcu_periph/sys_time.h"
   1:./mcu_periph/sys_time.h **** /*
   2:./mcu_periph/sys_time.h ****  *
   3:./mcu_periph/sys_time.h ****  * Copyright (C) 2009-2011 The Paparazzi Team
   4:./mcu_periph/sys_time.h ****  *
   5:./mcu_periph/sys_time.h ****  * This file is part of paparazzi.
   6:./mcu_periph/sys_time.h ****  *
   7:./mcu_periph/sys_time.h ****  * paparazzi is free software; you can redistribute it and/or modify
   8:./mcu_periph/sys_time.h ****  * it under the terms of the GNU General Public License as published by
   9:./mcu_periph/sys_time.h ****  * the Free Software Foundation; either version 2, or (at your option)
  10:./mcu_periph/sys_time.h ****  * any later version.
  11:./mcu_periph/sys_time.h ****  *
  12:./mcu_periph/sys_time.h ****  * paparazzi is distributed in the hope that it will be useful,
  13:./mcu_periph/sys_time.h ****  * but WITHOUT ANY WARRANTY; without even the implied warranty of
  14:./mcu_periph/sys_time.h ****  * MERCHANTABILITY or FITNESS FOR A PARTICULAR PURPOSE.  See the
  15:./mcu_periph/sys_time.h ****  * GNU General Public License for more details.
  16:./mcu_periph/sys_time.h ****  *
  17:./mcu_periph/sys_time.h ****  * You should have received a copy of the GNU General Public License
  18:./mcu_periph/sys_time.h ****  * along with paparazzi; see the file COPYING.  If not, write to
  19:./mcu_periph/sys_time.h ****  * the Free Software Foundation, 59 Temple Place - Suite 330,
  20:./mcu_periph/sys_time.h ****  * Boston, MA 02111-1307, USA.
  21:./mcu_periph/sys_time.h ****  *
  22:./mcu_periph/sys_time.h ****  */
  23:./mcu_periph/sys_time.h **** 
  24:./mcu_periph/sys_time.h **** /**
  25:./mcu_periph/sys_time.h ****  * @file mcu_periph/sys_time.h
  26:./mcu_periph/sys_time.h ****  * @brief Architecture independent timing functions.
  27:./mcu_periph/sys_time.h ****  *
  28:./mcu_periph/sys_time.h ****  */
  29:./mcu_periph/sys_time.h **** 
  30:./mcu_periph/sys_time.h **** #ifndef SYS_TIME_H
  31:./mcu_periph/sys_time.h **** #define SYS_TIME_H
  32:./mcu_periph/sys_time.h **** 
  33:./mcu_periph/sys_time.h **** #include <inttypes.h>
  34:./mcu_periph/sys_time.h **** #include <stdlib.h>
  35:./mcu_periph/sys_time.h **** #include "std.h"
  36:./mcu_periph/sys_time.h **** 
  37:./mcu_periph/sys_time.h **** #include BOARD_CONFIG
  38:./mcu_periph/sys_time.h **** 
  39:./mcu_periph/sys_time.h **** #ifndef SYS_TIME_NB_TIMER
  40:./mcu_periph/sys_time.h **** #define SYS_TIME_NB_TIMER 16
  41:./mcu_periph/sys_time.h **** #endif
  42:./mcu_periph/sys_time.h **** 
  43:./mcu_periph/sys_time.h **** 
  44:./mcu_periph/sys_time.h **** /**
  45:./mcu_periph/sys_time.h ****  * (Default) sys_time timer frequency in Hz.
  46:./mcu_periph/sys_time.h ****  * sys_time.resolution is set from this define.
  47:./mcu_periph/sys_time.h ****  */
  48:./mcu_periph/sys_time.h **** #ifndef SYS_TIME_FREQUENCY
  49:./mcu_periph/sys_time.h **** #if defined PERIODIC_FREQUENCY
  50:./mcu_periph/sys_time.h **** #define SYS_TIME_FREQUENCY (2 * PERIODIC_FREQUENCY)
  51:./mcu_periph/sys_time.h **** #else
  52:./mcu_periph/sys_time.h **** #define SYS_TIME_FREQUENCY 1000
  53:./mcu_periph/sys_time.h **** #endif
  54:./mcu_periph/sys_time.h **** #endif
  55:./mcu_periph/sys_time.h **** 
  56:./mcu_periph/sys_time.h **** 
  57:./mcu_periph/sys_time.h **** typedef uint8_t tid_t; ///< sys_time timer id type
  58:./mcu_periph/sys_time.h **** typedef void (*sys_time_cb)(uint8_t id);
  59:./mcu_periph/sys_time.h **** 
  60:./mcu_periph/sys_time.h **** struct sys_time_timer {
  61:./mcu_periph/sys_time.h ****   bool_t          in_use;
  62:./mcu_periph/sys_time.h ****   sys_time_cb     cb;
  63:./mcu_periph/sys_time.h ****   volatile bool_t elapsed;
  64:./mcu_periph/sys_time.h ****   uint32_t        end_time; ///< in SYS_TIME_TICKS
  65:./mcu_periph/sys_time.h ****   uint32_t        duration; ///< in SYS_TIME_TICKS
  66:./mcu_periph/sys_time.h **** };
  67:./mcu_periph/sys_time.h **** 
  68:./mcu_periph/sys_time.h **** struct sys_time {
  69:./mcu_periph/sys_time.h ****   volatile uint32_t nb_sec;       ///< full seconds since startup
  70:./mcu_periph/sys_time.h ****   volatile uint32_t nb_sec_rem;   ///< remainder of seconds since startup in CPU_TICKS
  71:./mcu_periph/sys_time.h ****   volatile uint32_t nb_tick;      ///< SYS_TIME_TICKS since startup
  72:./mcu_periph/sys_time.h ****   struct sys_time_timer timer[SYS_TIME_NB_TIMER];
  73:./mcu_periph/sys_time.h **** 
  74:./mcu_periph/sys_time.h ****   float resolution;               ///< sys_time_timer resolution in seconds
  75:./mcu_periph/sys_time.h ****   uint32_t ticks_per_sec;         ///< sys_time ticks per second (SYS_TIME_FREQUENCY)
  76:./mcu_periph/sys_time.h ****   uint32_t resolution_cpu_ticks;  ///< sys_time_timer resolution in cpu ticks
  77:./mcu_periph/sys_time.h ****   uint32_t cpu_ticks_per_sec;     ///< cpu ticks per second
  78:./mcu_periph/sys_time.h **** };
  79:./mcu_periph/sys_time.h **** 
  80:./mcu_periph/sys_time.h **** extern struct sys_time sys_time;
  81:./mcu_periph/sys_time.h **** 
  82:./mcu_periph/sys_time.h **** 
  83:./mcu_periph/sys_time.h **** extern void sys_time_init(void);
  84:./mcu_periph/sys_time.h **** 
  85:./mcu_periph/sys_time.h **** /**
  86:./mcu_periph/sys_time.h ****  * Register a new system timer.
  87:./mcu_periph/sys_time.h ****  * @param duration Duration in seconds until the timer elapses.
  88:./mcu_periph/sys_time.h ****  * @param cb Callback function that is called from the ISR when timer elapses, or NULL
  89:./mcu_periph/sys_time.h ****  * @return -1 if it failed, the timer id otherwise
  90:./mcu_periph/sys_time.h ****  */
  91:./mcu_periph/sys_time.h **** extern int sys_time_register_timer(float duration, sys_time_cb cb);
  92:./mcu_periph/sys_time.h **** 
  93:./mcu_periph/sys_time.h **** /**
  94:./mcu_periph/sys_time.h ****  * Cancel a system timer by id.
  95:./mcu_periph/sys_time.h ****  * @param id Timer id.
  96:./mcu_periph/sys_time.h ****  */
  97:./mcu_periph/sys_time.h **** extern void sys_time_cancel_timer(tid_t id);
  98:./mcu_periph/sys_time.h **** 
  99:./mcu_periph/sys_time.h **** /**
 100:./mcu_periph/sys_time.h ****  * Update the duration until a timer elapses.
 101:./mcu_periph/sys_time.h ****  * @param id Timer id
 102:./mcu_periph/sys_time.h ****  * @param duration Duration in seconds until the timer elapses.
 103:./mcu_periph/sys_time.h ****  */
 104:./mcu_periph/sys_time.h **** extern void sys_time_update_timer(tid_t id, float duration);
 105:./mcu_periph/sys_time.h **** 
 106:./mcu_periph/sys_time.h **** /**
 107:./mcu_periph/sys_time.h ****  * Check if timer has elapsed.
 108:./mcu_periph/sys_time.h ****  * @param id Timer id
 109:./mcu_periph/sys_time.h ****  * @return TRUE if timer has elapsed
 110:./mcu_periph/sys_time.h ****  */
 111:./mcu_periph/sys_time.h **** static inline bool_t sys_time_check_and_ack_timer(tid_t id)
 112:./mcu_periph/sys_time.h **** {
 113:./mcu_periph/sys_time.h ****   if (sys_time.timer[id].elapsed) {
 114:./mcu_periph/sys_time.h ****     sys_time.timer[id].elapsed = FALSE;
 115:./mcu_periph/sys_time.h ****     return TRUE;
 116:./mcu_periph/sys_time.h ****   }
 117:./mcu_periph/sys_time.h ****   return FALSE;
 118:./mcu_periph/sys_time.h **** }
 119:./mcu_periph/sys_time.h **** 
 120:./mcu_periph/sys_time.h **** /**
 121:./mcu_periph/sys_time.h ****  * Get the time in seconds since startup.
 122:./mcu_periph/sys_time.h ****  * @return current system time as float with sys_time.resolution
 123:./mcu_periph/sys_time.h ****  */
 124:./mcu_periph/sys_time.h **** static inline float get_sys_time_float(void)
 125:./mcu_periph/sys_time.h **** {
 126:./mcu_periph/sys_time.h ****   return (float)(sys_time.nb_sec + (float)(sys_time.nb_sec_rem) / sys_time.cpu_ticks_per_sec);
 127:./mcu_periph/sys_time.h **** }
 128:./mcu_periph/sys_time.h **** 
 129:./mcu_periph/sys_time.h **** 
 130:./mcu_periph/sys_time.h **** /*
 131:./mcu_periph/sys_time.h ****  * Convenience functions to convert between seconds and sys_time ticks.
 132:./mcu_periph/sys_time.h ****  */
 133:./mcu_periph/sys_time.h **** static inline uint32_t sys_time_ticks_of_sec(float seconds)
 134:./mcu_periph/sys_time.h **** {
 135:./mcu_periph/sys_time.h ****   return (uint32_t)(seconds * sys_time.ticks_per_sec + 0.5);
 136:./mcu_periph/sys_time.h **** }
 137:./mcu_periph/sys_time.h **** 
 138:./mcu_periph/sys_time.h **** static inline uint32_t sys_time_ticks_of_msec(uint32_t msec)
 139:./mcu_periph/sys_time.h **** {
 140:./mcu_periph/sys_time.h ****   return msec * sys_time.ticks_per_sec / 1000;
 141:./mcu_periph/sys_time.h **** }
 142:./mcu_periph/sys_time.h **** 
 143:./mcu_periph/sys_time.h **** static inline uint32_t sys_time_ticks_of_usec(uint32_t usec)
 144:./mcu_periph/sys_time.h **** {
 145:./mcu_periph/sys_time.h ****   return usec * sys_time.ticks_per_sec / 1000000;
 146:./mcu_periph/sys_time.h **** }
 147:./mcu_periph/sys_time.h **** 
 148:./mcu_periph/sys_time.h **** static inline float sec_of_sys_time_ticks(uint32_t ticks)
 149:./mcu_periph/sys_time.h **** {
 150:./mcu_periph/sys_time.h ****   return (float)ticks * sys_time.resolution;
 151:./mcu_periph/sys_time.h **** }
 152:./mcu_periph/sys_time.h **** 
 153:./mcu_periph/sys_time.h **** static inline uint32_t msec_of_sys_time_ticks(uint32_t ticks)
 154:./mcu_periph/sys_time.h **** {
 155:./mcu_periph/sys_time.h ****   return ticks * 1000 / sys_time.ticks_per_sec;
 1612              		.loc 3 155 0
 1613 0012 4FF47A70 		mov	r0, #1000
 1614              	.LVL161:
 1615 0016 5843     		muls	r0, r3, r0
 1616 0018 074B     		ldr	r3, .L53+4
 1617              	.LVL162:
 1618 001a D3F85011 		ldr	r1, [r3, #336]
 1619              	.LBE47:
 1620              	.LBE46:
 188:subsystems/gps.c ****   if (itow_now > MSEC_PER_WEEK) {
 1621              		.loc 1 188 0
 1622 001e 074B     		ldr	r3, .L53+8
 1623              	.LBB49:
 1624              	.LBB48:
 1625              		.loc 3 155 0
 1626 0020 B0FBF1F0 		udiv	r0, r0, r1
 1627              	.LBE48:
 1628              	.LBE49:
 187:subsystems/gps.c ****   itow_now = gps_time_sync.t0_tow + time_delta;
 1629              		.loc 1 187 0
 1630 0024 1044     		add	r0, r0, r2
 1631              	.LVL163:
 1632              		.loc 1 188 0
 1633 0026 9842     		cmp	r0, r3
 1634              	.LVL164:
 189:subsystems/gps.c ****     itow_now %= MSEC_PER_WEEK;
 1635              		.loc 1 189 0
 1636 0028 84BF     		itt	hi
 1637 002a B0FBF3F2 		udivhi	r2, r0, r3
 1638 002e 03FB1200 		mlshi	r0, r3, r2, r0
 1639              	.LVL165:
 190:subsystems/gps.c ****   }
 191:subsystems/gps.c **** 
 192:subsystems/gps.c ****   return itow_now;
 193:subsystems/gps.c **** }
 1640              		.loc 1 193 0
 1641 0032 7047     		bx	lr
 1642              	.L54:
 1643              		.align	2
 1644              	.L53:
 1645 0034 00000000 		.word	.LANCHOR4
 1646 0038 00000000 		.word	sys_time
 1647 003c 00840C24 		.word	604800000
 1648              		.cfi_endproc
 1649              	.LFE371:
 1651              		.global	gps_time_sync
 1652              		.global	gps
 1653              		.section	.bss.gps_time_sync,"aw",%nobits
 1654              		.align	2
 1655              		.set	.LANCHOR4,. + 0
 1658              	gps_time_sync:
 1659 0000 00000000 		.space	12
 1659      00000000 
 1659      00000000 
 1660              		.section	.bss.i.10282,"aw",%nobits
 1661              		.set	.LANCHOR2,. + 0
 1664              	i.10282:
 1665 0000 00       		.space	1
 1666              		.section	.bss.last_cnos.10283,"aw",%nobits
 1667              		.set	.LANCHOR3,. + 0
 1670              	last_cnos.10283:
 1671 0000 00000000 		.space	16
 1671      00000000 
 1671      00000000 
 1671      00000000 
 1672              		.section	.bss.gps,"aw",%nobits
 1673              		.align	2
 1674              		.set	.LANCHOR0,. + 0
 1677              	gps:
 1678 0000 00000000 		.space	252
 1678      00000000 
 1678      00000000 
 1678      00000000 
 1678      00000000 
 1679              		.section	.rodata.str1.1,"aMS",%progbits,1
 1680              	.LC0:
 1681 0000 4750535F 		.ascii	"GPS_LLA\000"
 1681      4C4C4100 
 1682              	.LC1:
 1683 0008 5356494E 		.ascii	"SVINFO\000"
 1683      464F00
 1684              	.LC2:
 1685 000f 4750535F 		.ascii	"GPS_INT\000"
 1685      494E5400 
 1686              	.LC3:
 1687 0017 4750535F 		.ascii	"GPS_SOL\000"
 1687      534F4C00 
 1688              	.LC4:
 1689 001f 47505300 		.ascii	"GPS\000"
 1690              		.section	.bss.i.10277,"aw",%nobits
 1691              		.set	.LANCHOR1,. + 0
 1694              	i.10277:
 1695 0000 00       		.space	1
 1696              		.text
 1697              	.Letext0:
 1698              		.file 4 "/home/lsk/gcc-arm-none-eabi-4_8-2014q3/arm-none-eabi/include/machine/_default_types.h"
 1699              		.file 5 "/home/lsk/gcc-arm-none-eabi-4_8-2014q3/arm-none-eabi/include/stdint.h"
 1700              		.file 6 "/home/lsk/paparazzi/sw/include/std.h"
 1701              		.file 7 "./math/pprz_geodetic_int.h"
 1702              		.file 8 "./mcu_periph/link_device.h"
 1703              		.file 9 "./mcu_periph/uart.h"
 1704              		.file 10 "./subsystems/gps/gps_ubx.h"
 1705              		.file 11 "./subsystems/gps.h"
 1706              		.file 12 "./subsystems/datalink/transport.h"
 1707              		.file 13 "./subsystems/datalink/xbee.h"
 1708              		.file 14 "./subsystems/datalink/telemetry_common.h"
 1709              		.file 15 "./subsystems/datalink/datalink.h"
 1710              		.file 16 "./subsystems/datalink/w5100.h"
 1711              		.file 17 "/home/lsk/paparazzi/var/aircrafts/kroozsd_lsk/ap/generated/periodic_telemetry.h"
 1712              		.file 18 "./subsystems/datalink/telemetry.h"
 1713              		.file 19 "../ext/libopencm3/include/libopencm3/stm32/f4/rcc.h"
 1714              		.file 20 "../ext/libopencm3/include/libopencm3/stm32/common/gpio_common_all.h"
DEFINED SYMBOLS
                            *ABS*:00000000 gps.c
     /tmp/ccKbARjk.s:24     .text.send_gps_lla:00000000 $t
     /tmp/ccKbARjk.s:28     .text.send_gps_lla:00000000 send_gps_lla
     /tmp/ccKbARjk.s:292    .text.send_gps_lla:000001a8 $d
     /tmp/ccKbARjk.s:302    .text.send_svinfo_id:00000000 $t
     /tmp/ccKbARjk.s:306    .text.send_svinfo_id:00000000 send_svinfo_id
     /tmp/ccKbARjk.s:546    .text.send_svinfo_id:00000128 $d
     /tmp/ccKbARjk.s:552    .text.send_svinfo:00000000 $t
     /tmp/ccKbARjk.s:556    .text.send_svinfo:00000000 send_svinfo
     /tmp/ccKbARjk.s:588    .text.send_svinfo:00000024 $d
     /tmp/ccKbARjk.s:594    .text.send_svinfo_available:00000000 $t
     /tmp/ccKbARjk.s:598    .text.send_svinfo_available:00000000 send_svinfo_available
     /tmp/ccKbARjk.s:663    .text.send_svinfo_available:00000050 $d
     /tmp/ccKbARjk.s:670    .text.send_gps_int:00000000 $t
     /tmp/ccKbARjk.s:674    .text.send_gps_int:00000000 send_gps_int
     /tmp/ccKbARjk.s:977    .text.send_gps_int:000001f0 $d
     /tmp/ccKbARjk.s:983    .text.send_gps_sol:00000000 $t
     /tmp/ccKbARjk.s:987    .text.send_gps_sol:00000000 send_gps_sol
     /tmp/ccKbARjk.s:1151   .text.send_gps_sol:000000e0 $d
     /tmp/ccKbARjk.s:1157   .text.send_gps:00000000 $t
     /tmp/ccKbARjk.s:1161   .text.send_gps:00000000 send_gps
     /tmp/ccKbARjk.s:1439   .text.send_gps:000001c8 $d
     /tmp/ccKbARjk.s:1449   .text.gps_init:00000000 $t
     /tmp/ccKbARjk.s:1454   .text.gps_init:00000000 gps_init
     /tmp/ccKbARjk.s:1532   .text.gps_init:00000068 $d
     /tmp/ccKbARjk.s:1549   .text.gps_periodic_check:00000000 $t
     /tmp/ccKbARjk.s:1554   .text.gps_periodic_check:00000000 gps_periodic_check
     /tmp/ccKbARjk.s:1576   .text.gps_periodic_check:00000018 $d
     /tmp/ccKbARjk.s:1582   .text.gps_tow_from_sys_ticks:00000000 $t
     /tmp/ccKbARjk.s:1587   .text.gps_tow_from_sys_ticks:00000000 gps_tow_from_sys_ticks
     /tmp/ccKbARjk.s:1645   .text.gps_tow_from_sys_ticks:00000034 $d
     /tmp/ccKbARjk.s:1658   .bss.gps_time_sync:00000000 gps_time_sync
     /tmp/ccKbARjk.s:1677   .bss.gps:00000000 gps
     /tmp/ccKbARjk.s:1654   .bss.gps_time_sync:00000000 $d
     /tmp/ccKbARjk.s:1664   .bss.i.10282:00000000 i.10282
     /tmp/ccKbARjk.s:1665   .bss.i.10282:00000000 $d
     /tmp/ccKbARjk.s:1670   .bss.last_cnos.10283:00000000 last_cnos.10283
     /tmp/ccKbARjk.s:1671   .bss.last_cnos.10283:00000000 $d
     /tmp/ccKbARjk.s:1673   .bss.gps:00000000 $d
     /tmp/ccKbARjk.s:1694   .bss.i.10277:00000000 i.10277
     /tmp/ccKbARjk.s:1695   .bss.i.10277:00000000 $d
                     .debug_frame:00000010 $d
                           .group:00000000 wm4.0.61e172dafa1e7adfbd840ee8b103061f
                           .group:00000000 wm4.features.h.22.6a4ca7cd053637cc1d0db6c16f39b2d7
                           .group:00000000 wm4._default_types.h.6.9e4229723f5523536bc8f574589d6a99
                           .group:00000000 wm4.stdint.h.20.796e373797e732130a803d4c0338fa1b
                           .group:00000000 wm4.stddef.h.263.49e44f5ee9cdd8820580fc4aa239e32a
                           .group:00000000 wm4.inttypes.h.24.4db40689d622c4d3b547b5801303bdae
                           .group:00000000 wm4.stdbool.h.29.1c9ee6859ce8145f7838a4f2549ccec2
                           .group:00000000 wm4.newlib.h.8.fec018e441fee7bfa1923812ad010f97
                           .group:00000000 wm4.config.h.212.4163ef2871a828c674038d036b081cfd
                           .group:00000000 wm4._ansi.h.23.2147fde150631f5584b9dc29b914d1b8
                           .group:00000000 wm4.stddef.h.39.2b75ea897b59bf67f50e970d678806e4
                           .group:00000000 wm4.lock.h.2.9bc98482741e5e2a9450b12934a684ea
                           .group:00000000 wm4._types.h.54.d3d34a3b7f3cc230cd159baf022b4b08
                           .group:00000000 wm4.stddef.h.158.61317cdbfb4026324507d123a50b0fd6
                           .group:00000000 wm4.reent.h.17.8bd9e4098e0428508c282cad794fae43
                           .group:00000000 wm4.math.h.35.13c5bec129ef04ad1bb0a1152b29c624
                           .group:00000000 wm4.message_pragmas.h.2.a703592919ab94db061a475289156c21
                           .group:00000000 wm4.std.h.37.c94f17957e155d4dda789b7ad0549a32
                           .group:00000000 wm4.pprz_geodetic.h.35.f7fdb5d11659b92d11c7ce67b6317005
                           .group:00000000 wm4.float.h.29.1cf88a0527b6b1225d49fbee2b32acb7
                           .group:00000000 wm4.cdefs.h.56.a2d04de9d47039852021e66fca39bb58
                           .group:00000000 wm4.string.h.15.dab3980bf35408a4c507182805e2de3a
                           .group:00000000 wm4.stddef.h.158.a7efb00f6cbc6f43213b50e183c9830c
                           .group:00000000 wm4.string.h.126.6ff3aa59129e7f66b2c273baf353e066
                           .group:00000000 wm4.pprz_algebra.h.47.d249264ea6bacf2198e290d461cf6dbe
                           .group:00000000 wm4.pprz_trig_int.h.28.b756be608c9d9f3092a41321446e5fa2
                           .group:00000000 wm4.stdlib.h.13.4ed386f5c1a80d71e72172885d946ef2
                           .group:00000000 wm4.alloca.h.8.dfc0c703c47ec3e69746825b17d9e66d
                           .group:00000000 wm4.stdlib.h.53.1a82a3cc35cb0a04319c41bcf41d2a02
                           .group:00000000 wm4.pprz_algebra_int.h.68.04ac162ae1e1d94f716d0bb402062624
                           .group:00000000 wm4.pprz_geodetic_int.h.127.8e737bed5ba4468e470311184b1fca7f
                           .group:00000000 wm4.krooz_sd.h.2.013366a614baabbe44cc2bbd3205e3d1
                           .group:00000000 wm4.sys_time.h.40.92f532b5cea824e0ec5ea845e7275d34
                           .group:00000000 wm4.common.h.21.22efaac882611267214d0a36f6f15e74
                           .group:00000000 wm4.memorymap.h.21.0c01d18fc5814f65c6ceb1822d4030fa
                           .group:00000000 wm4.memorymap.h.28.85f6f5de65b1d4294c70f79052a0b8c0
                           .group:00000000 wm4.gpio_common_all.h.37.fedbbcb9179f773c905aa3c3e4b7dbdd
                           .group:00000000 wm4.gpio_common_f234.h.48.ee30692f386eaf6801df27cae93943b1
                           .group:00000000 wm4.gpio_common_f24.h.48.4e4be5e3ebe26aee10d604e2d0fecde8
                           .group:00000000 wm4.rcc.h.46.c4bbaa886b7ca1bd1829424ae12e70af
                           .group:00000000 wm4.systick.h.44.34e759e1f218a187b07e9a617cb1d556
                           .group:00000000 wm4.sys_time.h.213.4ee43452c5934214134db56488f53299
                           .group:00000000 wm4.uart_arch.h.30.cb8e70feae0b6afe250750f6c1439671
                           .group:00000000 wm4.uart.h.35.4345324d45fae43faace58e743d48e42
                           .group:00000000 wm4.gps_ubx.h.36.d4183b0b154441c99ce352aae50967b5
                           .group:00000000 wm4.gps.h.41.79d1c69e44dd427f855100ff8e932fbe
                           .group:00000000 wm4.led_hw.h.40.8014fb3594847a9d275099fc6ed94641
                           .group:00000000 wm4.led.h.99.0116146560b22524df8538874a4f60bf
                           .group:00000000 wm4.transport.h.27.9215bbc09b6a8d08d228c20740408d47
                           .group:00000000 wm4.messages.h.9.6fd66bc411dd06866b086a1b57e0f309
                           .group:00000000 wm4.modules.h.5.be642dc363672736d1d1e45a75aad0cf
                           .group:00000000 wm4.gps_ubx_ucenter.h.29.30a3f1ed020dbc7085e412c29746d829
                           .group:00000000 wm4.pprz_algebra_float.h.32.544614e70075e1ed5693f00f6a441312
                           .group:00000000 wm4.pprz_algebra_double.h.91.82ca62ae962f4b4f295322d977f2dad5
                           .group:00000000 wm4.modules.h.24.27c8342510f0f30e64a55f4e4778474a
                           .group:00000000 wm4.airframe.h.5.1b65f22e2c90217dfc42bdae27fe483a
                           .group:00000000 wm4.actuators_pwm_arch.h.27.274c2fe245167861139e341fd233f9ea
                           .group:00000000 wm4.airframe.h.14.f46e30d413878b482f16a5abf2127a4b
                           .group:00000000 wm4.datalink.h.28.0d234a7c203533b2ec538be3e18eddf4
                           .group:00000000 wm4.dl_protocol.h.5.a12fe27a4b4a3cbb46fbca8acf33e3dd
                           .group:00000000 wm4.datalink.h.46.36a5e0f36fb7d0784f1e7af767537c84
                           .group:00000000 wm4.pprz_transport.h.57.167db0ee96032e142f5d6e570b3339aa
                           .group:00000000 wm4.xbee24.h.29.a6677f8bcb71d3b07e11290a2de0e179
                           .group:00000000 wm4.xbee.h.41.f36be817f95b74f883aef9324b53817b
                           .group:00000000 wm4.w5100.h.29.d3529bed8de657ab3944b343be960f10
                           .group:00000000 wm4.downlink.h.76.41034157e32fc9012166fd95ec7418fc
                           .group:00000000 wm4.periodic_telemetry.h.11.45a44616e39ae884c5a68828f6bf143a

UNDEFINED SYMBOLS
__aeabi_i2d
__aeabi_dmul
__aeabi_ddiv
__aeabi_d2iz
gpio_set
gps_impl_init
register_periodic_telemetry
pprz_telemetry
sys_time
