   1              		.syntax unified
   2              		.cpu cortex-m4
   3              		.eabi_attribute 27, 3
   4              		.fpu fpv4-sp-d16
   5              		.eabi_attribute 20, 1
   6              		.eabi_attribute 21, 1
   7              		.eabi_attribute 23, 3
   8              		.eabi_attribute 24, 1
   9              		.eabi_attribute 25, 1
  10              		.eabi_attribute 26, 1
  11              		.eabi_attribute 30, 4
  12              		.eabi_attribute 34, 1
  13              		.eabi_attribute 18, 4
  14              		.thumb
  15              		.file	"gps.c"
  16              		.text
  17              	.Ltext0:
  18              		.cfi_sections	.debug_frame
  19              		.global	__aeabi_i2d
  20              		.global	__aeabi_dmul
  21              		.global	__aeabi_ddiv
  22              		.global	__aeabi_d2iz
  23              		.section	.text.send_gps_lla,"ax",%progbits
  24              		.align	1
  25              		.thumb
  26              		.thumb_func
  28              	send_gps_lla:
  29              	.LFB367:
  30              		.file 1 "subsystems/gps.c"
   1:subsystems/gps.c **** /*
   2:subsystems/gps.c ****  * Copyright (C) 2008-2011 The Paparazzi Team
   3:subsystems/gps.c ****  *
   4:subsystems/gps.c ****  * This file is part of paparazzi.
   5:subsystems/gps.c ****  *
   6:subsystems/gps.c ****  * paparazzi is free software; you can redistribute it and/or modify
   7:subsystems/gps.c ****  * it under the terms of the GNU General Public License as published by
   8:subsystems/gps.c ****  * the Free Software Foundation; either version 2, or (at your option)
   9:subsystems/gps.c ****  * any later version.
  10:subsystems/gps.c ****  *
  11:subsystems/gps.c ****  * paparazzi is distributed in the hope that it will be useful,
  12:subsystems/gps.c ****  * but WITHOUT ANY WARRANTY; without even the implied warranty of
  13:subsystems/gps.c ****  * MERCHANTABILITY or FITNESS FOR A PARTICULAR PURPOSE.  See the
  14:subsystems/gps.c ****  * GNU General Public License for more details.
  15:subsystems/gps.c ****  *
  16:subsystems/gps.c ****  * You should have received a copy of the GNU General Public License
  17:subsystems/gps.c ****  * along with paparazzi; see the file COPYING.  If not, write to
  18:subsystems/gps.c ****  * the Free Software Foundation, 59 Temple Place - Suite 330,
  19:subsystems/gps.c ****  * Boston, MA 02111-1307, USA.
  20:subsystems/gps.c ****  */
  21:subsystems/gps.c **** 
  22:subsystems/gps.c **** /** @file gps.c
  23:subsystems/gps.c ****  *  @brief Device independent GPS code
  24:subsystems/gps.c ****  *
  25:subsystems/gps.c ****  */
  26:subsystems/gps.c **** 
  27:subsystems/gps.c **** #include "subsystems/gps.h"
  28:subsystems/gps.c **** 
  29:subsystems/gps.c **** #include "led.h"
  30:subsystems/gps.c **** 
  31:subsystems/gps.c **** #ifdef GPS_POWER_GPIO
  32:subsystems/gps.c **** #include "mcu_periph/gpio.h"
  33:subsystems/gps.c **** 
  34:subsystems/gps.c **** #ifndef GPS_POWER_GPIO_ON
  35:subsystems/gps.c **** #define GPS_POWER_GPIO_ON gpio_set
  36:subsystems/gps.c **** #endif
  37:subsystems/gps.c **** #endif
  38:subsystems/gps.c **** 
  39:subsystems/gps.c **** #define MSEC_PER_WEEK (1000*60*60*24*7)
  40:subsystems/gps.c **** 
  41:subsystems/gps.c **** struct GpsState gps;
  42:subsystems/gps.c **** 
  43:subsystems/gps.c **** struct GpsTimeSync gps_time_sync;
  44:subsystems/gps.c **** 
  45:subsystems/gps.c **** #if PERIODIC_TELEMETRY
  46:subsystems/gps.c **** #include "subsystems/datalink/telemetry.h"
  47:subsystems/gps.c **** 
  48:subsystems/gps.c **** static void send_svinfo_id(struct transport_tx *trans, struct link_device *dev,
  49:subsystems/gps.c ****                            uint8_t svid)
  50:subsystems/gps.c **** {
  51:subsystems/gps.c ****   if (svid < GPS_NB_CHANNELS) {
  52:subsystems/gps.c ****     pprz_msg_send_SVINFO(trans, dev, AC_ID, &svid,
  53:subsystems/gps.c ****                          &gps.svinfos[svid].svid, &gps.svinfos[svid].flags,
  54:subsystems/gps.c ****                          &gps.svinfos[svid].qi, &gps.svinfos[svid].cno,
  55:subsystems/gps.c ****                          &gps.svinfos[svid].elev, &gps.svinfos[svid].azim);
  56:subsystems/gps.c ****   }
  57:subsystems/gps.c **** }
  58:subsystems/gps.c **** 
  59:subsystems/gps.c **** /** send SVINFO message (regardless of state) */
  60:subsystems/gps.c **** static void send_svinfo(struct transport_tx *trans, struct link_device *dev)
  61:subsystems/gps.c **** {
  62:subsystems/gps.c ****   static uint8_t i = 0;
  63:subsystems/gps.c ****   if (i == gps.nb_channels) { i = 0; }
  64:subsystems/gps.c ****   send_svinfo_id(trans, dev, i);
  65:subsystems/gps.c ****   i++;
  66:subsystems/gps.c **** }
  67:subsystems/gps.c **** 
  68:subsystems/gps.c **** /** send SVINFO message if updated.
  69:subsystems/gps.c ****  * send SVINFO for all satellites while no GPS fix,
  70:subsystems/gps.c ****  * after 3D fix, send avialable sats only when there is new information
  71:subsystems/gps.c ****  */
  72:subsystems/gps.c **** static inline void send_svinfo_available(struct transport_tx *trans, struct link_device *dev)
  73:subsystems/gps.c **** {
  74:subsystems/gps.c ****   static uint8_t i = 0;
  75:subsystems/gps.c ****   static uint8_t last_cnos[GPS_NB_CHANNELS];
  76:subsystems/gps.c ****   if (i >= gps.nb_channels) { i = 0; }
  77:subsystems/gps.c ****   // send SVINFO for all satellites while no GPS fix,
  78:subsystems/gps.c ****   // after 3D fix, send avialable sats if they were updated
  79:subsystems/gps.c ****   if (gps.fix != GPS_FIX_3D) {
  80:subsystems/gps.c ****     send_svinfo_id(trans, dev, i);
  81:subsystems/gps.c ****   } else if (gps.svinfos[i].cno != last_cnos[i]) {
  82:subsystems/gps.c ****     send_svinfo_id(trans, dev, i);
  83:subsystems/gps.c ****     last_cnos[i] = gps.svinfos[i].cno;
  84:subsystems/gps.c ****   }
  85:subsystems/gps.c ****   i++;
  86:subsystems/gps.c **** }
  87:subsystems/gps.c **** 
  88:subsystems/gps.c **** static void send_gps(struct transport_tx *trans, struct link_device *dev)
  89:subsystems/gps.c **** {
  90:subsystems/gps.c ****   uint8_t zero = 0;
  91:subsystems/gps.c ****   int16_t climb = -gps.ned_vel.z;
  92:subsystems/gps.c ****   int16_t course = (DegOfRad(gps.course) / ((int32_t)1e6));
  93:subsystems/gps.c ****   pprz_msg_send_GPS(trans, dev, AC_ID, &gps.fix,
  94:subsystems/gps.c ****                     &gps.utm_pos.east, &gps.utm_pos.north,
  95:subsystems/gps.c ****                     &course, &gps.hmsl, &gps.gspeed, &climb,
  96:subsystems/gps.c ****                     &gps.week, &gps.tow, &gps.utm_pos.zone, &zero);
  97:subsystems/gps.c ****   // send SVINFO for available satellites that have new data
  98:subsystems/gps.c ****   send_svinfo_available(trans, dev);
  99:subsystems/gps.c **** }
 100:subsystems/gps.c **** 
 101:subsystems/gps.c **** static void send_gps_int(struct transport_tx *trans, struct link_device *dev)
 102:subsystems/gps.c **** {
 103:subsystems/gps.c ****   pprz_msg_send_GPS_INT(trans, dev, AC_ID,
 104:subsystems/gps.c ****                         &gps.ecef_pos.x, &gps.ecef_pos.y, &gps.ecef_pos.z,
 105:subsystems/gps.c ****                         &gps.lla_pos.lat, &gps.lla_pos.lon, &gps.lla_pos.alt,
 106:subsystems/gps.c ****                         &gps.hmsl,
 107:subsystems/gps.c ****                         &gps.ecef_vel.x, &gps.ecef_vel.y, &gps.ecef_vel.z,
 108:subsystems/gps.c ****                         &gps.pacc, &gps.sacc,
 109:subsystems/gps.c ****                         &gps.tow,
 110:subsystems/gps.c ****                         &gps.pdop,
 111:subsystems/gps.c ****                         &gps.num_sv,
 112:subsystems/gps.c ****                         &gps.fix);
 113:subsystems/gps.c ****   // send SVINFO for available satellites that have new data
 114:subsystems/gps.c ****   send_svinfo_available(trans, dev);
 115:subsystems/gps.c **** }
 116:subsystems/gps.c **** 
 117:subsystems/gps.c **** static void send_gps_lla(struct transport_tx *trans, struct link_device *dev)
 118:subsystems/gps.c **** {
  31              		.loc 1 118 0
  32              		.cfi_startproc
  33              		@ args = 0, pretend = 0, frame = 8
  34              		@ frame_needed = 0, uses_anonymous_args = 0
  35              	.LVL0:
  36 0000 2DE9F04F 		push	{r4, r5, r6, r7, r8, r9, r10, fp, lr}
  37              		.cfi_def_cfa_offset 36
  38              		.cfi_offset 4, -36
  39              		.cfi_offset 5, -32
  40              		.cfi_offset 6, -28
  41              		.cfi_offset 7, -24
  42              		.cfi_offset 8, -20
  43              		.cfi_offset 9, -16
  44              		.cfi_offset 10, -12
  45              		.cfi_offset 11, -8
  46              		.cfi_offset 14, -4
 119:subsystems/gps.c ****   uint8_t err = 0;
 120:subsystems/gps.c ****   int16_t climb = -gps.ned_vel.z;
  47              		.loc 1 120 0
  48 0004 DFF8B4B1 		ldr	fp, .L6+20
  49 0008 DBF84030 		ldr	r3, [fp, #64]
 118:subsystems/gps.c **** {
  50              		.loc 1 118 0
  51 000c 85B0     		sub	sp, sp, #20
  52              		.cfi_def_cfa_offset 56
 118:subsystems/gps.c **** {
  53              		.loc 1 118 0
  54 000e 0746     		mov	r7, r0
  55              		.loc 1 120 0
  56 0010 5B42     		negs	r3, r3
 121:subsystems/gps.c ****   int16_t course = (DegOfRad(gps.course) / ((int32_t)1e6));
  57              		.loc 1 121 0
  58 0012 DBF84800 		ldr	r0, [fp, #72]
  59              	.LVL1:
 120:subsystems/gps.c ****   int16_t climb = -gps.ned_vel.z;
  60              		.loc 1 120 0
  61 0016 ADF80C30 		strh	r3, [sp, #12]	@ movhi
 119:subsystems/gps.c ****   uint8_t err = 0;
  62              		.loc 1 119 0
  63 001a 0025     		movs	r5, #0
 118:subsystems/gps.c **** {
  64              		.loc 1 118 0
  65 001c 0C46     		mov	r4, r1
 119:subsystems/gps.c ****   uint8_t err = 0;
  66              		.loc 1 119 0
  67 001e 8DF80A50 		strb	r5, [sp, #10]
  68              		.loc 1 121 0
  69 0022 FFF7FEFF 		bl	__aeabi_i2d
  70              	.LVL2:
  71 0026 61A3     		adr	r3, .L6+4
  72 0028 D3E90023 		ldrd	r2, [r3]
  73 002c FFF7FEFF 		bl	__aeabi_dmul
  74              	.LVL3:
  75 0030 60A3     		adr	r3, .L6+12
  76 0032 D3E90023 		ldrd	r2, [r3]
  77 0036 FFF7FEFF 		bl	__aeabi_ddiv
  78              	.LVL4:
  79 003a FFF7FEFF 		bl	__aeabi_d2iz
  80              	.LVL5:
  81              	.LBB6:
  82              	.LBB7:
  83              		.file 2 "/home/lsk/paparazzi/var/include/messages.h"
   1:/home/lsk/paparazzi/var/include/messages.h **** /* Automatically generated by gen_messages from /home/lsk/paparazzi/conf/messages.xml */
   2:/home/lsk/paparazzi/var/include/messages.h **** /* Please DO NOT EDIT */
   3:/home/lsk/paparazzi/var/include/messages.h **** /* Macros to send and receive messages of class telemetry */
   4:/home/lsk/paparazzi/var/include/messages.h **** #ifndef _VAR_MESSAGES_telemetry_H_
   5:/home/lsk/paparazzi/var/include/messages.h **** #define _VAR_MESSAGES_telemetry_H_
   6:/home/lsk/paparazzi/var/include/messages.h **** #include "subsystems/datalink/transport.h"
   7:/home/lsk/paparazzi/var/include/messages.h **** #include "mcu_periph/link_device.h"
   8:/home/lsk/paparazzi/var/include/messages.h **** #if DOWNLINK
   9:/home/lsk/paparazzi/var/include/messages.h **** #define DL_AUTOPILOT_VERSION 1
  10:/home/lsk/paparazzi/var/include/messages.h **** #define DL_ALIVE 2
  11:/home/lsk/paparazzi/var/include/messages.h **** #define DL_PONG 3
  12:/home/lsk/paparazzi/var/include/messages.h **** #define DL_TAKEOFF 4
  13:/home/lsk/paparazzi/var/include/messages.h **** #define DL_ARDRONE_NAVDATA 5
  14:/home/lsk/paparazzi/var/include/messages.h **** #define DL_ATTITUDE 6
  15:/home/lsk/paparazzi/var/include/messages.h **** #define DL_IR_SENSORS 7
  16:/home/lsk/paparazzi/var/include/messages.h **** #define DL_GPS 8
  17:/home/lsk/paparazzi/var/include/messages.h **** #define DL_NAVIGATION_REF 9
  18:/home/lsk/paparazzi/var/include/messages.h **** #define DL_NAVIGATION 10
  19:/home/lsk/paparazzi/var/include/messages.h **** #define DL_PPRZ_MODE 11
  20:/home/lsk/paparazzi/var/include/messages.h **** #define DL_BAT 12
  21:/home/lsk/paparazzi/var/include/messages.h **** #define DL_DEBUG_MCU_LINK 13
  22:/home/lsk/paparazzi/var/include/messages.h **** #define DL_CALIBRATION 14
  23:/home/lsk/paparazzi/var/include/messages.h **** #define DL_SETTINGS 15
  24:/home/lsk/paparazzi/var/include/messages.h **** #define DL_DESIRED 16
  25:/home/lsk/paparazzi/var/include/messages.h **** #define DL_GPS_SOL 17
  26:/home/lsk/paparazzi/var/include/messages.h **** #define DL_ADC_GENERIC 18
  27:/home/lsk/paparazzi/var/include/messages.h **** #define DL_TEST_FORMAT 19
  28:/home/lsk/paparazzi/var/include/messages.h **** #define DL_CAM 20
  29:/home/lsk/paparazzi/var/include/messages.h **** #define DL_CIRCLE 21
  30:/home/lsk/paparazzi/var/include/messages.h **** #define DL_SEGMENT 22
  31:/home/lsk/paparazzi/var/include/messages.h **** #define DL_SVINFO 25
  32:/home/lsk/paparazzi/var/include/messages.h **** #define DL_DEBUG 26
  33:/home/lsk/paparazzi/var/include/messages.h **** #define DL_SURVEY 27
  34:/home/lsk/paparazzi/var/include/messages.h **** #define DL_WC_RSSI 28
  35:/home/lsk/paparazzi/var/include/messages.h **** #define DL_RANGEFINDER 29
  36:/home/lsk/paparazzi/var/include/messages.h **** #define DL_DATALINK_REPORT 30
  37:/home/lsk/paparazzi/var/include/messages.h **** #define DL_DL_VALUE 31
  38:/home/lsk/paparazzi/var/include/messages.h **** #define DL_MARK 32
  39:/home/lsk/paparazzi/var/include/messages.h **** #define DL_SYS_MON 33
  40:/home/lsk/paparazzi/var/include/messages.h **** #define DL_MOTOR 34
  41:/home/lsk/paparazzi/var/include/messages.h **** #define DL_WP_MOVED 35
  42:/home/lsk/paparazzi/var/include/messages.h **** #define DL_MKK 36
  43:/home/lsk/paparazzi/var/include/messages.h **** #define DL_ENERGY 37
  44:/home/lsk/paparazzi/var/include/messages.h **** #define DL_BARO_BMP85_CALIB 38
  45:/home/lsk/paparazzi/var/include/messages.h **** #define DL_BARO_BMP85 39
  46:/home/lsk/paparazzi/var/include/messages.h **** #define DL_SPEED_LOOP 40
  47:/home/lsk/paparazzi/var/include/messages.h **** #define DL_ALT_KALMAN 41
  48:/home/lsk/paparazzi/var/include/messages.h **** #define DL_ESTIMATOR 42
  49:/home/lsk/paparazzi/var/include/messages.h **** #define DL_TUNE_ROLL 43
  50:/home/lsk/paparazzi/var/include/messages.h **** #define DL_BARO_MS5534A 44
  51:/home/lsk/paparazzi/var/include/messages.h **** #define DL_PRESSURE 45
  52:/home/lsk/paparazzi/var/include/messages.h **** #define DL_BARO_WORDS 46
  53:/home/lsk/paparazzi/var/include/messages.h **** #define DL_WP_MOVED_LLA 47
  54:/home/lsk/paparazzi/var/include/messages.h **** #define DL_CHRONO 48
  55:/home/lsk/paparazzi/var/include/messages.h **** #define DL_WP_MOVED_ENU 49
  56:/home/lsk/paparazzi/var/include/messages.h **** #define DL_WINDTURBINE_STATUS_ 50
  57:/home/lsk/paparazzi/var/include/messages.h **** #define DL_RC_3CH_ 51
  58:/home/lsk/paparazzi/var/include/messages.h **** #define DL_MPPT 52
  59:/home/lsk/paparazzi/var/include/messages.h **** #define DL_DEBUG_IR_I2C 53
  60:/home/lsk/paparazzi/var/include/messages.h **** #define DL_AIRSPEED 54
  61:/home/lsk/paparazzi/var/include/messages.h **** #define DL_XSENS 55
  62:/home/lsk/paparazzi/var/include/messages.h **** #define DL_BARO_ETS 56
  63:/home/lsk/paparazzi/var/include/messages.h **** #define DL_AIRSPEED_ETS 57
  64:/home/lsk/paparazzi/var/include/messages.h **** #define DL_PBN 58
  65:/home/lsk/paparazzi/var/include/messages.h **** #define DL_GPS_LLA 59
  66:/home/lsk/paparazzi/var/include/messages.h **** #define DL_H_CTL_A 60
  67:/home/lsk/paparazzi/var/include/messages.h **** #define DL_TURB_PRESSURE_RAW 61
  68:/home/lsk/paparazzi/var/include/messages.h **** #define DL_TURB_PRESSURE_VOLTAGE 62
  69:/home/lsk/paparazzi/var/include/messages.h **** #define DL_CAM_POINT 63
  70:/home/lsk/paparazzi/var/include/messages.h **** #define DL_DC_INFO 64
  71:/home/lsk/paparazzi/var/include/messages.h **** #define DL_AMSYS_BARO 65
  72:/home/lsk/paparazzi/var/include/messages.h **** #define DL_AMSYS_AIRSPEED 66
  73:/home/lsk/paparazzi/var/include/messages.h **** #define DL_FLIGHT_BENCHMARK 67
  74:/home/lsk/paparazzi/var/include/messages.h **** #define DL_MPL3115_BARO 68
  75:/home/lsk/paparazzi/var/include/messages.h **** #define DL_AOA_ADC 69
  76:/home/lsk/paparazzi/var/include/messages.h **** #define DL_XTEND_RSSI 70
  77:/home/lsk/paparazzi/var/include/messages.h **** #define DL_SUPERBITRF 72
  78:/home/lsk/paparazzi/var/include/messages.h **** #define DL_GX3_INFO 73
  79:/home/lsk/paparazzi/var/include/messages.h **** #define DL_EXPLAIN 74
  80:/home/lsk/paparazzi/var/include/messages.h **** #define DL_VIDEO_TELEMETRY 75
  81:/home/lsk/paparazzi/var/include/messages.h **** #define DL_VF_UPDATE 76
  82:/home/lsk/paparazzi/var/include/messages.h **** #define DL_VF_PREDICT 77
  83:/home/lsk/paparazzi/var/include/messages.h **** #define DL_INV_FILTER 78
  84:/home/lsk/paparazzi/var/include/messages.h **** #define DL_MISSION_STATUS 79
  85:/home/lsk/paparazzi/var/include/messages.h **** #define DL_CROSS_TRACK_ERROR 80
  86:/home/lsk/paparazzi/var/include/messages.h **** #define DL_GENERIC_COM 81
  87:/home/lsk/paparazzi/var/include/messages.h **** #define DL_FORMATION_SLOT_TM 82
  88:/home/lsk/paparazzi/var/include/messages.h **** #define DL_FORMATION_STATUS_TM 83
  89:/home/lsk/paparazzi/var/include/messages.h **** #define DL_BMP_STATUS 84
  90:/home/lsk/paparazzi/var/include/messages.h **** #define DL_MLX_STATUS 85
  91:/home/lsk/paparazzi/var/include/messages.h **** #define DL_TMP_STATUS 86
  92:/home/lsk/paparazzi/var/include/messages.h **** #define DL_WIND_INFO_RET 87
  93:/home/lsk/paparazzi/var/include/messages.h **** #define DL_SCP_STATUS 88
  94:/home/lsk/paparazzi/var/include/messages.h **** #define DL_SHT_STATUS 89
  95:/home/lsk/paparazzi/var/include/messages.h **** #define DL_ENOSE_STATUS 90
  96:/home/lsk/paparazzi/var/include/messages.h **** #define DL_DPICCO_STATUS 91
  97:/home/lsk/paparazzi/var/include/messages.h **** #define DL_ANTENNA_DEBUG 92
  98:/home/lsk/paparazzi/var/include/messages.h **** #define DL_ANTENNA_STATUS 93
  99:/home/lsk/paparazzi/var/include/messages.h **** #define DL_MOTOR_BENCH_STATUS 94
 100:/home/lsk/paparazzi/var/include/messages.h **** #define DL_MOTOR_BENCH_STATIC 95
 101:/home/lsk/paparazzi/var/include/messages.h **** #define DL_HIH_STATUS 96
 102:/home/lsk/paparazzi/var/include/messages.h **** #define DL_TEMT_STATUS 97
 103:/home/lsk/paparazzi/var/include/messages.h **** #define DL_GP2Y_STATUS 98
 104:/home/lsk/paparazzi/var/include/messages.h **** #define DL_SHT_I2C_SERIAL 99
 105:/home/lsk/paparazzi/var/include/messages.h **** #define DL_PPM 100
 106:/home/lsk/paparazzi/var/include/messages.h **** #define DL_RC 101
 107:/home/lsk/paparazzi/var/include/messages.h **** #define DL_COMMANDS 102
 108:/home/lsk/paparazzi/var/include/messages.h **** #define DL_FBW_STATUS 103
 109:/home/lsk/paparazzi/var/include/messages.h **** #define DL_ADC 104
 110:/home/lsk/paparazzi/var/include/messages.h **** #define DL_ACTUATORS 105
 111:/home/lsk/paparazzi/var/include/messages.h **** #define DL_DC_SHOT 110
 112:/home/lsk/paparazzi/var/include/messages.h **** #define DL_TEST_BOARD_RESULTS 111
 113:/home/lsk/paparazzi/var/include/messages.h **** #define DL_MLX_SERIAL 113
 114:/home/lsk/paparazzi/var/include/messages.h **** #define DL_PAYLOAD 114
 115:/home/lsk/paparazzi/var/include/messages.h **** #define DL_HTM_STATUS 115
 116:/home/lsk/paparazzi/var/include/messages.h **** #define DL_BARO_MS5611 116
 117:/home/lsk/paparazzi/var/include/messages.h **** #define DL_MS5611_COEFF 117
 118:/home/lsk/paparazzi/var/include/messages.h **** #define DL_ATMOSPHERE_CHARGE 118
 119:/home/lsk/paparazzi/var/include/messages.h **** #define DL_SOLAR_RADIATION 119
 120:/home/lsk/paparazzi/var/include/messages.h **** #define DL_TCAS_TA 120
 121:/home/lsk/paparazzi/var/include/messages.h **** #define DL_TCAS_RA 121
 122:/home/lsk/paparazzi/var/include/messages.h **** #define DL_TCAS_RESOLVED 122
 123:/home/lsk/paparazzi/var/include/messages.h **** #define DL_TCAS_DEBUG 123
 124:/home/lsk/paparazzi/var/include/messages.h **** #define DL_POTENTIAL 124
 125:/home/lsk/paparazzi/var/include/messages.h **** #define DL_VERTICAL_ENERGY 125
 126:/home/lsk/paparazzi/var/include/messages.h **** #define DL_TEMP_TCOUPLE 126
 127:/home/lsk/paparazzi/var/include/messages.h **** #define DL_SHT_I2C_STATUS 127
 128:/home/lsk/paparazzi/var/include/messages.h **** #define DL_CAMERA_SNAPSHOT 128
 129:/home/lsk/paparazzi/var/include/messages.h **** #define DL_TIMESTAMP 129
 130:/home/lsk/paparazzi/var/include/messages.h **** #define DL_STAB_ATTITUDE_FLOAT 130
 131:/home/lsk/paparazzi/var/include/messages.h **** #define DL_IMU_GYRO_SCALED 131
 132:/home/lsk/paparazzi/var/include/messages.h **** #define DL_IMU_ACCEL_SCALED 132
 133:/home/lsk/paparazzi/var/include/messages.h **** #define DL_IMU_MAG_SCALED 133
 134:/home/lsk/paparazzi/var/include/messages.h **** #define DL_FILTER 134
 135:/home/lsk/paparazzi/var/include/messages.h **** #define DL_FILTER2 135
 136:/home/lsk/paparazzi/var/include/messages.h **** #define DL_RATE_LOOP 136
 137:/home/lsk/paparazzi/var/include/messages.h **** #define DL_FILTER_ALIGNER 137
 138:/home/lsk/paparazzi/var/include/messages.h **** #define DL_AIRSPEED_MS45XX 138
 139:/home/lsk/paparazzi/var/include/messages.h **** #define DL_FILTER_COR 139
 140:/home/lsk/paparazzi/var/include/messages.h **** #define DL_STAB_ATTITUDE_INT 140
 141:/home/lsk/paparazzi/var/include/messages.h **** #define DL_STAB_ATTITUDE_REF_INT 141
 142:/home/lsk/paparazzi/var/include/messages.h **** #define DL_STAB_ATTITUDE_REF_FLOAT 142
 143:/home/lsk/paparazzi/var/include/messages.h **** #define DL_ROTORCRAFT_CMD 143
 144:/home/lsk/paparazzi/var/include/messages.h **** #define DL_GUIDANCE_H_INT 144
 145:/home/lsk/paparazzi/var/include/messages.h **** #define DL_VERT_LOOP 145
 146:/home/lsk/paparazzi/var/include/messages.h **** #define DL_HOVER_LOOP 146
 147:/home/lsk/paparazzi/var/include/messages.h **** #define DL_ROTORCRAFT_FP 147
 148:/home/lsk/paparazzi/var/include/messages.h **** #define DL_TEMP_ADC 148
 149:/home/lsk/paparazzi/var/include/messages.h **** #define DL_GUIDANCE_H_REF_INT 149
 150:/home/lsk/paparazzi/var/include/messages.h **** #define DL_ROTORCRAFT_TUNE_HOVER 150
 151:/home/lsk/paparazzi/var/include/messages.h **** #define DL_INS_Z 151
 152:/home/lsk/paparazzi/var/include/messages.h **** #define DL_PCAP01_STATUS 152
 153:/home/lsk/paparazzi/var/include/messages.h **** #define DL_GEIGER_COUNTER 153
 154:/home/lsk/paparazzi/var/include/messages.h **** #define DL_INS_REF 154
 155:/home/lsk/paparazzi/var/include/messages.h **** #define DL_GPS_INT 155
 156:/home/lsk/paparazzi/var/include/messages.h **** #define DL_AHRS_EULER_INT 156
 157:/home/lsk/paparazzi/var/include/messages.h **** #define DL_AHRS_QUAT_INT 157
 158:/home/lsk/paparazzi/var/include/messages.h **** #define DL_AHRS_RMAT_INT 158
 159:/home/lsk/paparazzi/var/include/messages.h **** #define DL_ROTORCRAFT_NAV_STATUS 159
 160:/home/lsk/paparazzi/var/include/messages.h **** #define DL_ROTORCRAFT_RADIO_CONTROL 160
 161:/home/lsk/paparazzi/var/include/messages.h **** #define DL_VFF_EXTENDED 161
 162:/home/lsk/paparazzi/var/include/messages.h **** #define DL_VFF 162
 163:/home/lsk/paparazzi/var/include/messages.h **** #define DL_GEO_MAG 163
 164:/home/lsk/paparazzi/var/include/messages.h **** #define DL_HFF 164
 165:/home/lsk/paparazzi/var/include/messages.h **** #define DL_HFF_DBG 165
 166:/home/lsk/paparazzi/var/include/messages.h **** #define DL_HFF_GPS 166
 167:/home/lsk/paparazzi/var/include/messages.h **** #define DL_INS_SONAR 167
 168:/home/lsk/paparazzi/var/include/messages.h **** #define DL_ROTORCRAFT_CAM 168
 169:/home/lsk/paparazzi/var/include/messages.h **** #define DL_AHRS_REF_QUAT 169
 170:/home/lsk/paparazzi/var/include/messages.h **** #define DL_EKF7_XHAT 170
 171:/home/lsk/paparazzi/var/include/messages.h **** #define DL_EKF7_Y 171
 172:/home/lsk/paparazzi/var/include/messages.h **** #define DL_EKF7_P_DIAG 172
 173:/home/lsk/paparazzi/var/include/messages.h **** #define DL_AHRS_EULER 173
 174:/home/lsk/paparazzi/var/include/messages.h **** #define DL_AHRS_MEASUREMENT_EULER 174
 175:/home/lsk/paparazzi/var/include/messages.h **** #define DL_WT 175
 176:/home/lsk/paparazzi/var/include/messages.h **** #define DL_CSC_CAN_DEBUG 176
 177:/home/lsk/paparazzi/var/include/messages.h **** #define DL_CSC_CAN_MSG 177
 178:/home/lsk/paparazzi/var/include/messages.h **** #define DL_AHRS_GYRO_BIAS_INT 178
 179:/home/lsk/paparazzi/var/include/messages.h **** #define DL_FLOW_AP_OTF 179
 180:/home/lsk/paparazzi/var/include/messages.h **** #define DL_FMS_TIME 180
 181:/home/lsk/paparazzi/var/include/messages.h **** #define DL_LOADCELL 181
 182:/home/lsk/paparazzi/var/include/messages.h **** #define DL_FLA_DEBUG 182
 183:/home/lsk/paparazzi/var/include/messages.h **** #define DL_BLMC_FAULT_STATUS 183
 184:/home/lsk/paparazzi/var/include/messages.h **** #define DL_BLMC_SPEEDS 184
 185:/home/lsk/paparazzi/var/include/messages.h **** #define DL_AHRS_DEBUG_QUAT 185
 186:/home/lsk/paparazzi/var/include/messages.h **** #define DL_BLMC_BUSVOLTS 186
 187:/home/lsk/paparazzi/var/include/messages.h **** #define DL_SYSTEM_STATUS 187
 188:/home/lsk/paparazzi/var/include/messages.h **** #define DL_DYNAMIXEL 188
 189:/home/lsk/paparazzi/var/include/messages.h **** #define DL_RMAT_DEBUG 189
 190:/home/lsk/paparazzi/var/include/messages.h **** #define DL_SIMPLE_COMMANDS 190
 191:/home/lsk/paparazzi/var/include/messages.h **** #define DL_VANE_SENSOR 191
 192:/home/lsk/paparazzi/var/include/messages.h **** #define DL_CONTROLLER_GAINS 192
 193:/home/lsk/paparazzi/var/include/messages.h **** #define DL_AHRS_LKF 193
 194:/home/lsk/paparazzi/var/include/messages.h **** #define DL_AHRS_LKF_DEBUG 194
 195:/home/lsk/paparazzi/var/include/messages.h **** #define DL_AHRS_LKF_ACC_DBG 195
 196:/home/lsk/paparazzi/var/include/messages.h **** #define DL_AHRS_LKF_MAG_DBG 196
 197:/home/lsk/paparazzi/var/include/messages.h **** #define DL_NPS_SENSORS_SCALED 197
 198:/home/lsk/paparazzi/var/include/messages.h **** #define DL_INS 198
 199:/home/lsk/paparazzi/var/include/messages.h **** #define DL_GPS_ERROR 199
 200:/home/lsk/paparazzi/var/include/messages.h **** #define DL_IMU_GYRO 200
 201:/home/lsk/paparazzi/var/include/messages.h **** #define DL_IMU_MAG 201
 202:/home/lsk/paparazzi/var/include/messages.h **** #define DL_IMU_ACCEL 202
 203:/home/lsk/paparazzi/var/include/messages.h **** #define DL_IMU_GYRO_RAW 203
 204:/home/lsk/paparazzi/var/include/messages.h **** #define DL_IMU_ACCEL_RAW 204
 205:/home/lsk/paparazzi/var/include/messages.h **** #define DL_IMU_MAG_RAW 205
 206:/home/lsk/paparazzi/var/include/messages.h **** #define DL_IMU_MAG_SETTINGS 206
 207:/home/lsk/paparazzi/var/include/messages.h **** #define DL_IMU_MAG_CURRENT_CALIBRATION 207
 208:/home/lsk/paparazzi/var/include/messages.h **** #define DL_UART_ERRORS 208
 209:/home/lsk/paparazzi/var/include/messages.h **** #define DL_IMU_GYRO_LP 209
 210:/home/lsk/paparazzi/var/include/messages.h **** #define DL_IMU_PRESSURE 210
 211:/home/lsk/paparazzi/var/include/messages.h **** #define DL_IMU_HS_GYRO 211
 212:/home/lsk/paparazzi/var/include/messages.h **** #define DL_TEST_PASSTHROUGH_STATUS 212
 213:/home/lsk/paparazzi/var/include/messages.h **** #define DL_TUNE_VERT 213
 214:/home/lsk/paparazzi/var/include/messages.h **** #define DL_MF_DAQ_STATE 214
 215:/home/lsk/paparazzi/var/include/messages.h **** #define DL_INFO_MSG 215
 216:/home/lsk/paparazzi/var/include/messages.h **** #define DL_BEBOP_ACTUATORS 218
 217:/home/lsk/paparazzi/var/include/messages.h **** #define DL_WEATHER 219
 218:/home/lsk/paparazzi/var/include/messages.h **** #define DL_IMU_TURNTABLE 220
 219:/home/lsk/paparazzi/var/include/messages.h **** #define DL_BARO_RAW 221
 220:/home/lsk/paparazzi/var/include/messages.h **** #define DL_AIR_DATA 222
 221:/home/lsk/paparazzi/var/include/messages.h **** #define DL_AMSL 223
 222:/home/lsk/paparazzi/var/include/messages.h **** #define DL_VIDEO_SYNC 225
 223:/home/lsk/paparazzi/var/include/messages.h **** #define DL_PERIODIC_TELEMETRY_ERR 226
 224:/home/lsk/paparazzi/var/include/messages.h **** #define DL_TIME 227
 225:/home/lsk/paparazzi/var/include/messages.h **** #define DL_OPTIC_FLOW_EST 228
 226:/home/lsk/paparazzi/var/include/messages.h **** #define DL_AHRS_ARDRONE2 230
 227:/home/lsk/paparazzi/var/include/messages.h **** #define DL_ROTORCRAFT_STATUS 231
 228:/home/lsk/paparazzi/var/include/messages.h **** #define DL_STATE_FILTER_STATUS 232
 229:/home/lsk/paparazzi/var/include/messages.h **** #define DL_PX4FLOW 233
 230:/home/lsk/paparazzi/var/include/messages.h **** #define DL_OPTICFLOW 234
 231:/home/lsk/paparazzi/var/include/messages.h **** #define DL_VISUALTARGET 235
 232:/home/lsk/paparazzi/var/include/messages.h **** #define DL_SONAR 236
 233:/home/lsk/paparazzi/var/include/messages.h **** #define DL_PAYLOAD_FLOAT 237
 234:/home/lsk/paparazzi/var/include/messages.h **** #define DL_NPS_POS_LLH 238
 235:/home/lsk/paparazzi/var/include/messages.h **** #define DL_NPS_RPMS 239
 236:/home/lsk/paparazzi/var/include/messages.h **** #define DL_NPS_SPEED_POS 240
 237:/home/lsk/paparazzi/var/include/messages.h **** #define DL_NPS_RATE_ATTITUDE 241
 238:/home/lsk/paparazzi/var/include/messages.h **** #define DL_NPS_GYRO_BIAS 242
 239:/home/lsk/paparazzi/var/include/messages.h **** #define DL_NPS_RANGE_METER 243
 240:/home/lsk/paparazzi/var/include/messages.h **** #define DL_NPS_WIND 244
 241:/home/lsk/paparazzi/var/include/messages.h **** #define DL_PPRZ_DEBUG 247
 242:/home/lsk/paparazzi/var/include/messages.h **** #define DL_NPS_ACCEL_LTP 248
 243:/home/lsk/paparazzi/var/include/messages.h **** #define DL_LOOSE_INS_GPS 249
 244:/home/lsk/paparazzi/var/include/messages.h **** #define DL_AFL_COEFFS 250
 245:/home/lsk/paparazzi/var/include/messages.h **** #define DL_I2C_ERRORS 253
 246:/home/lsk/paparazzi/var/include/messages.h **** #define DL_RDYB_TRAJECTORY 254
 247:/home/lsk/paparazzi/var/include/messages.h **** #define DL_HENRY_GNSS 255
 248:/home/lsk/paparazzi/var/include/messages.h **** #define DL_MSG_telemetry_NB 239
 249:/home/lsk/paparazzi/var/include/messages.h **** 
 250:/home/lsk/paparazzi/var/include/messages.h **** #define DOWNLINK_SEND_AUTOPILOT_VERSION(_trans, _dev, version, nb_desc, desc) pprz_msg_send_AUTOPIL
 251:/home/lsk/paparazzi/var/include/messages.h **** static inline void pprz_msg_send_AUTOPILOT_VERSION(struct transport_tx *trans, struct link_device *
 252:/home/lsk/paparazzi/var/include/messages.h **** 	if (trans->check_available_space(trans->impl, dev, trans->size_of(trans->impl, 0+4+1+nb_desc*1 +2 
 253:/home/lsk/paparazzi/var/include/messages.h **** 	  trans->count_bytes(trans->impl, dev, trans->size_of(trans->impl, 0+4+1+nb_desc*1 +2 /* msg heade
 254:/home/lsk/paparazzi/var/include/messages.h **** 	  trans->start_message(trans->impl, dev, 0+4+1+nb_desc*1 +2 /* msg header overhead */);
 255:/home/lsk/paparazzi/var/include/messages.h **** 	  trans->put_bytes(trans->impl, dev, DL_TYPE_UINT8, DL_FORMAT_SCALAR, 1, &ac_id);
 256:/home/lsk/paparazzi/var/include/messages.h **** 	  trans->put_named_byte(trans->impl, dev, DL_TYPE_UINT8, DL_FORMAT_SCALAR, DL_AUTOPILOT_VERSION, "
 257:/home/lsk/paparazzi/var/include/messages.h **** 	  trans->put_bytes(trans->impl, dev, DL_TYPE_UINT32, DL_FORMAT_SCALAR, 4, (void *) _version);
 258:/home/lsk/paparazzi/var/include/messages.h **** 	  trans->put_bytes(trans->impl, dev, DL_TYPE_ARRAY_LENGTH, DL_FORMAT_SCALAR, 1, (void *) &nb_desc)
 259:/home/lsk/paparazzi/var/include/messages.h **** 	  trans->put_bytes(trans->impl, dev, DL_TYPE_CHAR, DL_FORMAT_ARRAY, 1 * nb_desc, (void *) _desc);
 260:/home/lsk/paparazzi/var/include/messages.h **** 	  trans->end_message(trans->impl, dev);
 261:/home/lsk/paparazzi/var/include/messages.h **** 	} else
 262:/home/lsk/paparazzi/var/include/messages.h **** 	  trans->overrun(trans->impl, dev);
 263:/home/lsk/paparazzi/var/include/messages.h **** }
 264:/home/lsk/paparazzi/var/include/messages.h **** 
 265:/home/lsk/paparazzi/var/include/messages.h **** #define DOWNLINK_SEND_ALIVE(_trans, _dev, nb_md5sum, md5sum) pprz_msg_send_ALIVE(&((_trans).trans_t
 266:/home/lsk/paparazzi/var/include/messages.h **** static inline void pprz_msg_send_ALIVE(struct transport_tx *trans, struct link_device *dev, uint8_t
 267:/home/lsk/paparazzi/var/include/messages.h **** 	if (trans->check_available_space(trans->impl, dev, trans->size_of(trans->impl, 0+1+nb_md5sum*1 +2 
 268:/home/lsk/paparazzi/var/include/messages.h **** 	  trans->count_bytes(trans->impl, dev, trans->size_of(trans->impl, 0+1+nb_md5sum*1 +2 /* msg heade
 269:/home/lsk/paparazzi/var/include/messages.h **** 	  trans->start_message(trans->impl, dev, 0+1+nb_md5sum*1 +2 /* msg header overhead */);
 270:/home/lsk/paparazzi/var/include/messages.h **** 	  trans->put_bytes(trans->impl, dev, DL_TYPE_UINT8, DL_FORMAT_SCALAR, 1, &ac_id);
 271:/home/lsk/paparazzi/var/include/messages.h **** 	  trans->put_named_byte(trans->impl, dev, DL_TYPE_UINT8, DL_FORMAT_SCALAR, DL_ALIVE, "ALIVE");
 272:/home/lsk/paparazzi/var/include/messages.h **** 	  trans->put_bytes(trans->impl, dev, DL_TYPE_ARRAY_LENGTH, DL_FORMAT_SCALAR, 1, (void *) &nb_md5su
 273:/home/lsk/paparazzi/var/include/messages.h **** 	  trans->put_bytes(trans->impl, dev, DL_TYPE_UINT8, DL_FORMAT_ARRAY, 1 * nb_md5sum, (void *) _md5s
 274:/home/lsk/paparazzi/var/include/messages.h **** 	  trans->end_message(trans->impl, dev);
 275:/home/lsk/paparazzi/var/include/messages.h **** 	} else
 276:/home/lsk/paparazzi/var/include/messages.h **** 	  trans->overrun(trans->impl, dev);
 277:/home/lsk/paparazzi/var/include/messages.h **** }
 278:/home/lsk/paparazzi/var/include/messages.h **** 
 279:/home/lsk/paparazzi/var/include/messages.h **** #define DOWNLINK_SEND_PONG(_trans, _dev) pprz_msg_send_PONG(&((_trans).trans_tx), &((_dev).device),
 280:/home/lsk/paparazzi/var/include/messages.h **** static inline void pprz_msg_send_PONG(struct transport_tx *trans, struct link_device *dev, uint8_t 
 281:/home/lsk/paparazzi/var/include/messages.h **** 	if (trans->check_available_space(trans->impl, dev, trans->size_of(trans->impl, 0 +2 /* msg header 
 282:/home/lsk/paparazzi/var/include/messages.h **** 	  trans->count_bytes(trans->impl, dev, trans->size_of(trans->impl, 0 +2 /* msg header overhead */)
 283:/home/lsk/paparazzi/var/include/messages.h **** 	  trans->start_message(trans->impl, dev, 0 +2 /* msg header overhead */);
 284:/home/lsk/paparazzi/var/include/messages.h **** 	  trans->put_bytes(trans->impl, dev, DL_TYPE_UINT8, DL_FORMAT_SCALAR, 1, &ac_id);
 285:/home/lsk/paparazzi/var/include/messages.h **** 	  trans->put_named_byte(trans->impl, dev, DL_TYPE_UINT8, DL_FORMAT_SCALAR, DL_PONG, "PONG");
 286:/home/lsk/paparazzi/var/include/messages.h **** 	  trans->end_message(trans->impl, dev);
 287:/home/lsk/paparazzi/var/include/messages.h **** 	} else
 288:/home/lsk/paparazzi/var/include/messages.h **** 	  trans->overrun(trans->impl, dev);
 289:/home/lsk/paparazzi/var/include/messages.h **** }
 290:/home/lsk/paparazzi/var/include/messages.h **** 
 291:/home/lsk/paparazzi/var/include/messages.h **** #define DOWNLINK_SEND_TAKEOFF(_trans, _dev, cpu_time) pprz_msg_send_TAKEOFF(&((_trans).trans_tx), &
 292:/home/lsk/paparazzi/var/include/messages.h **** static inline void pprz_msg_send_TAKEOFF(struct transport_tx *trans, struct link_device *dev, uint8
 293:/home/lsk/paparazzi/var/include/messages.h **** 	if (trans->check_available_space(trans->impl, dev, trans->size_of(trans->impl, 0+2 +2 /* msg heade
 294:/home/lsk/paparazzi/var/include/messages.h **** 	  trans->count_bytes(trans->impl, dev, trans->size_of(trans->impl, 0+2 +2 /* msg header overhead *
 295:/home/lsk/paparazzi/var/include/messages.h **** 	  trans->start_message(trans->impl, dev, 0+2 +2 /* msg header overhead */);
 296:/home/lsk/paparazzi/var/include/messages.h **** 	  trans->put_bytes(trans->impl, dev, DL_TYPE_UINT8, DL_FORMAT_SCALAR, 1, &ac_id);
 297:/home/lsk/paparazzi/var/include/messages.h **** 	  trans->put_named_byte(trans->impl, dev, DL_TYPE_UINT8, DL_FORMAT_SCALAR, DL_TAKEOFF, "TAKEOFF");
 298:/home/lsk/paparazzi/var/include/messages.h **** 	  trans->put_bytes(trans->impl, dev, DL_TYPE_UINT16, DL_FORMAT_SCALAR, 2, (void *) _cpu_time);
 299:/home/lsk/paparazzi/var/include/messages.h **** 	  trans->end_message(trans->impl, dev);
 300:/home/lsk/paparazzi/var/include/messages.h **** 	} else
 301:/home/lsk/paparazzi/var/include/messages.h **** 	  trans->overrun(trans->impl, dev);
 302:/home/lsk/paparazzi/var/include/messages.h **** }
 303:/home/lsk/paparazzi/var/include/messages.h **** 
 304:/home/lsk/paparazzi/var/include/messages.h **** #define DOWNLINK_SEND_ARDRONE_NAVDATA(_trans, _dev, taille, nu_trame, ax, ay, az, vx, vy, vz, tempe
 305:/home/lsk/paparazzi/var/include/messages.h **** static inline void pprz_msg_send_ARDRONE_NAVDATA(struct transport_tx *trans, struct link_device *de
 306:/home/lsk/paparazzi/var/include/messages.h **** 	if (trans->check_available_space(trans->impl, dev, trans->size_of(trans->impl, 0+2+2+2+2+2+2+2+2+2
 307:/home/lsk/paparazzi/var/include/messages.h **** 	  trans->count_bytes(trans->impl, dev, trans->size_of(trans->impl, 0+2+2+2+2+2+2+2+2+2+2+2+2+2+2+2
 308:/home/lsk/paparazzi/var/include/messages.h **** 	  trans->start_message(trans->impl, dev, 0+2+2+2+2+2+2+2+2+2+2+2+2+2+2+2+2+2+2+2+4+2+2+4+2+2+2+2+2
 309:/home/lsk/paparazzi/var/include/messages.h **** 	  trans->put_bytes(trans->impl, dev, DL_TYPE_UINT8, DL_FORMAT_SCALAR, 1, &ac_id);
 310:/home/lsk/paparazzi/var/include/messages.h **** 	  trans->put_named_byte(trans->impl, dev, DL_TYPE_UINT8, DL_FORMAT_SCALAR, DL_ARDRONE_NAVDATA, "AR
 311:/home/lsk/paparazzi/var/include/messages.h **** 	  trans->put_bytes(trans->impl, dev, DL_TYPE_UINT16, DL_FORMAT_SCALAR, 2, (void *) _taille);
 312:/home/lsk/paparazzi/var/include/messages.h **** 	  trans->put_bytes(trans->impl, dev, DL_TYPE_UINT16, DL_FORMAT_SCALAR, 2, (void *) _nu_trame);
 313:/home/lsk/paparazzi/var/include/messages.h **** 	  trans->put_bytes(trans->impl, dev, DL_TYPE_UINT16, DL_FORMAT_SCALAR, 2, (void *) _ax);
 314:/home/lsk/paparazzi/var/include/messages.h **** 	  trans->put_bytes(trans->impl, dev, DL_TYPE_UINT16, DL_FORMAT_SCALAR, 2, (void *) _ay);
 315:/home/lsk/paparazzi/var/include/messages.h **** 	  trans->put_bytes(trans->impl, dev, DL_TYPE_UINT16, DL_FORMAT_SCALAR, 2, (void *) _az);
 316:/home/lsk/paparazzi/var/include/messages.h **** 	  trans->put_bytes(trans->impl, dev, DL_TYPE_INT16, DL_FORMAT_SCALAR, 2, (void *) _vx);
 317:/home/lsk/paparazzi/var/include/messages.h **** 	  trans->put_bytes(trans->impl, dev, DL_TYPE_INT16, DL_FORMAT_SCALAR, 2, (void *) _vy);
 318:/home/lsk/paparazzi/var/include/messages.h **** 	  trans->put_bytes(trans->impl, dev, DL_TYPE_INT16, DL_FORMAT_SCALAR, 2, (void *) _vz);
 319:/home/lsk/paparazzi/var/include/messages.h **** 	  trans->put_bytes(trans->impl, dev, DL_TYPE_UINT16, DL_FORMAT_SCALAR, 2, (void *) _temperature_ac
 320:/home/lsk/paparazzi/var/include/messages.h **** 	  trans->put_bytes(trans->impl, dev, DL_TYPE_UINT16, DL_FORMAT_SCALAR, 2, (void *) _temperature_gy
 321:/home/lsk/paparazzi/var/include/messages.h **** 	  trans->put_bytes(trans->impl, dev, DL_TYPE_UINT16, DL_FORMAT_SCALAR, 2, (void *) _ultrasound);
 322:/home/lsk/paparazzi/var/include/messages.h **** 	  trans->put_bytes(trans->impl, dev, DL_TYPE_UINT16, DL_FORMAT_SCALAR, 2, (void *) _us_debut_echo)
 323:/home/lsk/paparazzi/var/include/messages.h **** 	  trans->put_bytes(trans->impl, dev, DL_TYPE_UINT16, DL_FORMAT_SCALAR, 2, (void *) _us_fin_echo);
 324:/home/lsk/paparazzi/var/include/messages.h **** 	  trans->put_bytes(trans->impl, dev, DL_TYPE_UINT16, DL_FORMAT_SCALAR, 2, (void *) _us_association
 325:/home/lsk/paparazzi/var/include/messages.h **** 	  trans->put_bytes(trans->impl, dev, DL_TYPE_UINT16, DL_FORMAT_SCALAR, 2, (void *) _us_distance_ec
 326:/home/lsk/paparazzi/var/include/messages.h **** 	  trans->put_bytes(trans->impl, dev, DL_TYPE_UINT16, DL_FORMAT_SCALAR, 2, (void *) _us_curve_time)
 327:/home/lsk/paparazzi/var/include/messages.h **** 	  trans->put_bytes(trans->impl, dev, DL_TYPE_UINT16, DL_FORMAT_SCALAR, 2, (void *) _us_curve_value
 328:/home/lsk/paparazzi/var/include/messages.h **** 	  trans->put_bytes(trans->impl, dev, DL_TYPE_UINT16, DL_FORMAT_SCALAR, 2, (void *) _us_curve_ref);
 329:/home/lsk/paparazzi/var/include/messages.h **** 	  trans->put_bytes(trans->impl, dev, DL_TYPE_UINT16, DL_FORMAT_SCALAR, 2, (void *) _nb_echo);
 330:/home/lsk/paparazzi/var/include/messages.h **** 	  trans->put_bytes(trans->impl, dev, DL_TYPE_UINT32, DL_FORMAT_SCALAR, 4, (void *) _sum_echo);
 331:/home/lsk/paparazzi/var/include/messages.h **** 	  trans->put_bytes(trans->impl, dev, DL_TYPE_INT16, DL_FORMAT_SCALAR, 2, (void *) _gradient);
 332:/home/lsk/paparazzi/var/include/messages.h **** 	  trans->put_bytes(trans->impl, dev, DL_TYPE_UINT16, DL_FORMAT_SCALAR, 2, (void *) _flag_echo_ini)
 333:/home/lsk/paparazzi/var/include/messages.h **** 	  trans->put_bytes(trans->impl, dev, DL_TYPE_INT32, DL_FORMAT_SCALAR, 4, (void *) _pressure);
 334:/home/lsk/paparazzi/var/include/messages.h **** 	  trans->put_bytes(trans->impl, dev, DL_TYPE_UINT16, DL_FORMAT_SCALAR, 2, (void *) _temperature_pr
 335:/home/lsk/paparazzi/var/include/messages.h **** 	  trans->put_bytes(trans->impl, dev, DL_TYPE_INT16, DL_FORMAT_SCALAR, 2, (void *) _mx);
 336:/home/lsk/paparazzi/var/include/messages.h **** 	  trans->put_bytes(trans->impl, dev, DL_TYPE_INT16, DL_FORMAT_SCALAR, 2, (void *) _my);
 337:/home/lsk/paparazzi/var/include/messages.h **** 	  trans->put_bytes(trans->impl, dev, DL_TYPE_INT16, DL_FORMAT_SCALAR, 2, (void *) _mz);
 338:/home/lsk/paparazzi/var/include/messages.h **** 	  trans->put_bytes(trans->impl, dev, DL_TYPE_UINT16, DL_FORMAT_SCALAR, 2, (void *) _chksum);
 339:/home/lsk/paparazzi/var/include/messages.h **** 	  trans->put_bytes(trans->impl, dev, DL_TYPE_UINT32, DL_FORMAT_SCALAR, 4, (void *) _checksum_error
 340:/home/lsk/paparazzi/var/include/messages.h **** 	  trans->end_message(trans->impl, dev);
 341:/home/lsk/paparazzi/var/include/messages.h **** 	} else
 342:/home/lsk/paparazzi/var/include/messages.h **** 	  trans->overrun(trans->impl, dev);
 343:/home/lsk/paparazzi/var/include/messages.h **** }
 344:/home/lsk/paparazzi/var/include/messages.h **** 
 345:/home/lsk/paparazzi/var/include/messages.h **** #define DOWNLINK_SEND_ATTITUDE(_trans, _dev, phi, psi, theta) pprz_msg_send_ATTITUDE(&((_trans).tra
 346:/home/lsk/paparazzi/var/include/messages.h **** static inline void pprz_msg_send_ATTITUDE(struct transport_tx *trans, struct link_device *dev, uint
 347:/home/lsk/paparazzi/var/include/messages.h **** 	if (trans->check_available_space(trans->impl, dev, trans->size_of(trans->impl, 0+4+4+4 +2 /* msg h
 348:/home/lsk/paparazzi/var/include/messages.h **** 	  trans->count_bytes(trans->impl, dev, trans->size_of(trans->impl, 0+4+4+4 +2 /* msg header overhe
 349:/home/lsk/paparazzi/var/include/messages.h **** 	  trans->start_message(trans->impl, dev, 0+4+4+4 +2 /* msg header overhead */);
 350:/home/lsk/paparazzi/var/include/messages.h **** 	  trans->put_bytes(trans->impl, dev, DL_TYPE_UINT8, DL_FORMAT_SCALAR, 1, &ac_id);
 351:/home/lsk/paparazzi/var/include/messages.h **** 	  trans->put_named_byte(trans->impl, dev, DL_TYPE_UINT8, DL_FORMAT_SCALAR, DL_ATTITUDE, "ATTITUDE"
 352:/home/lsk/paparazzi/var/include/messages.h **** 	  trans->put_bytes(trans->impl, dev, DL_TYPE_FLOAT, DL_FORMAT_SCALAR, 4, (void *) _phi);
 353:/home/lsk/paparazzi/var/include/messages.h **** 	  trans->put_bytes(trans->impl, dev, DL_TYPE_FLOAT, DL_FORMAT_SCALAR, 4, (void *) _psi);
 354:/home/lsk/paparazzi/var/include/messages.h **** 	  trans->put_bytes(trans->impl, dev, DL_TYPE_FLOAT, DL_FORMAT_SCALAR, 4, (void *) _theta);
 355:/home/lsk/paparazzi/var/include/messages.h **** 	  trans->end_message(trans->impl, dev);
 356:/home/lsk/paparazzi/var/include/messages.h **** 	} else
 357:/home/lsk/paparazzi/var/include/messages.h **** 	  trans->overrun(trans->impl, dev);
 358:/home/lsk/paparazzi/var/include/messages.h **** }
 359:/home/lsk/paparazzi/var/include/messages.h **** 
 360:/home/lsk/paparazzi/var/include/messages.h **** #define DOWNLINK_SEND_IR_SENSORS(_trans, _dev, ir1, ir2, longitudinal, lateral, vertical) pprz_msg_
 361:/home/lsk/paparazzi/var/include/messages.h **** static inline void pprz_msg_send_IR_SENSORS(struct transport_tx *trans, struct link_device *dev, ui
 362:/home/lsk/paparazzi/var/include/messages.h **** 	if (trans->check_available_space(trans->impl, dev, trans->size_of(trans->impl, 0+2+2+2+2+2 +2 /* m
 363:/home/lsk/paparazzi/var/include/messages.h **** 	  trans->count_bytes(trans->impl, dev, trans->size_of(trans->impl, 0+2+2+2+2+2 +2 /* msg header ov
 364:/home/lsk/paparazzi/var/include/messages.h **** 	  trans->start_message(trans->impl, dev, 0+2+2+2+2+2 +2 /* msg header overhead */);
 365:/home/lsk/paparazzi/var/include/messages.h **** 	  trans->put_bytes(trans->impl, dev, DL_TYPE_UINT8, DL_FORMAT_SCALAR, 1, &ac_id);
 366:/home/lsk/paparazzi/var/include/messages.h **** 	  trans->put_named_byte(trans->impl, dev, DL_TYPE_UINT8, DL_FORMAT_SCALAR, DL_IR_SENSORS, "IR_SENS
 367:/home/lsk/paparazzi/var/include/messages.h **** 	  trans->put_bytes(trans->impl, dev, DL_TYPE_INT16, DL_FORMAT_SCALAR, 2, (void *) _ir1);
 368:/home/lsk/paparazzi/var/include/messages.h **** 	  trans->put_bytes(trans->impl, dev, DL_TYPE_INT16, DL_FORMAT_SCALAR, 2, (void *) _ir2);
 369:/home/lsk/paparazzi/var/include/messages.h **** 	  trans->put_bytes(trans->impl, dev, DL_TYPE_INT16, DL_FORMAT_SCALAR, 2, (void *) _longitudinal);
 370:/home/lsk/paparazzi/var/include/messages.h **** 	  trans->put_bytes(trans->impl, dev, DL_TYPE_INT16, DL_FORMAT_SCALAR, 2, (void *) _lateral);
 371:/home/lsk/paparazzi/var/include/messages.h **** 	  trans->put_bytes(trans->impl, dev, DL_TYPE_INT16, DL_FORMAT_SCALAR, 2, (void *) _vertical);
 372:/home/lsk/paparazzi/var/include/messages.h **** 	  trans->end_message(trans->impl, dev);
 373:/home/lsk/paparazzi/var/include/messages.h **** 	} else
 374:/home/lsk/paparazzi/var/include/messages.h **** 	  trans->overrun(trans->impl, dev);
 375:/home/lsk/paparazzi/var/include/messages.h **** }
 376:/home/lsk/paparazzi/var/include/messages.h **** 
 377:/home/lsk/paparazzi/var/include/messages.h **** #define DOWNLINK_SEND_GPS(_trans, _dev, mode, utm_east, utm_north, course, alt, speed, climb, week,
 378:/home/lsk/paparazzi/var/include/messages.h **** static inline void pprz_msg_send_GPS(struct transport_tx *trans, struct link_device *dev, uint8_t a
 379:/home/lsk/paparazzi/var/include/messages.h **** 	if (trans->check_available_space(trans->impl, dev, trans->size_of(trans->impl, 0+1+4+4+2+4+2+2+2+4
 380:/home/lsk/paparazzi/var/include/messages.h **** 	  trans->count_bytes(trans->impl, dev, trans->size_of(trans->impl, 0+1+4+4+2+4+2+2+2+4+1+1 +2 /* m
 381:/home/lsk/paparazzi/var/include/messages.h **** 	  trans->start_message(trans->impl, dev, 0+1+4+4+2+4+2+2+2+4+1+1 +2 /* msg header overhead */);
 382:/home/lsk/paparazzi/var/include/messages.h **** 	  trans->put_bytes(trans->impl, dev, DL_TYPE_UINT8, DL_FORMAT_SCALAR, 1, &ac_id);
 383:/home/lsk/paparazzi/var/include/messages.h **** 	  trans->put_named_byte(trans->impl, dev, DL_TYPE_UINT8, DL_FORMAT_SCALAR, DL_GPS, "GPS");
 384:/home/lsk/paparazzi/var/include/messages.h **** 	  trans->put_bytes(trans->impl, dev, DL_TYPE_UINT8, DL_FORMAT_SCALAR, 1, (void *) _mode);
 385:/home/lsk/paparazzi/var/include/messages.h **** 	  trans->put_bytes(trans->impl, dev, DL_TYPE_INT32, DL_FORMAT_SCALAR, 4, (void *) _utm_east);
 386:/home/lsk/paparazzi/var/include/messages.h **** 	  trans->put_bytes(trans->impl, dev, DL_TYPE_INT32, DL_FORMAT_SCALAR, 4, (void *) _utm_north);
 387:/home/lsk/paparazzi/var/include/messages.h **** 	  trans->put_bytes(trans->impl, dev, DL_TYPE_INT16, DL_FORMAT_SCALAR, 2, (void *) _course);
 388:/home/lsk/paparazzi/var/include/messages.h **** 	  trans->put_bytes(trans->impl, dev, DL_TYPE_INT32, DL_FORMAT_SCALAR, 4, (void *) _alt);
 389:/home/lsk/paparazzi/var/include/messages.h **** 	  trans->put_bytes(trans->impl, dev, DL_TYPE_UINT16, DL_FORMAT_SCALAR, 2, (void *) _speed);
 390:/home/lsk/paparazzi/var/include/messages.h **** 	  trans->put_bytes(trans->impl, dev, DL_TYPE_INT16, DL_FORMAT_SCALAR, 2, (void *) _climb);
 391:/home/lsk/paparazzi/var/include/messages.h **** 	  trans->put_bytes(trans->impl, dev, DL_TYPE_UINT16, DL_FORMAT_SCALAR, 2, (void *) _week);
 392:/home/lsk/paparazzi/var/include/messages.h **** 	  trans->put_bytes(trans->impl, dev, DL_TYPE_UINT32, DL_FORMAT_SCALAR, 4, (void *) _itow);
 393:/home/lsk/paparazzi/var/include/messages.h **** 	  trans->put_bytes(trans->impl, dev, DL_TYPE_UINT8, DL_FORMAT_SCALAR, 1, (void *) _utm_zone);
 394:/home/lsk/paparazzi/var/include/messages.h **** 	  trans->put_bytes(trans->impl, dev, DL_TYPE_UINT8, DL_FORMAT_SCALAR, 1, (void *) _gps_nb_err);
 395:/home/lsk/paparazzi/var/include/messages.h **** 	  trans->end_message(trans->impl, dev);
 396:/home/lsk/paparazzi/var/include/messages.h **** 	} else
 397:/home/lsk/paparazzi/var/include/messages.h **** 	  trans->overrun(trans->impl, dev);
 398:/home/lsk/paparazzi/var/include/messages.h **** }
 399:/home/lsk/paparazzi/var/include/messages.h **** 
 400:/home/lsk/paparazzi/var/include/messages.h **** #define DOWNLINK_SEND_NAVIGATION_REF(_trans, _dev, utm_east, utm_north, utm_zone, ground_alt) pprz_
 401:/home/lsk/paparazzi/var/include/messages.h **** static inline void pprz_msg_send_NAVIGATION_REF(struct transport_tx *trans, struct link_device *dev
 402:/home/lsk/paparazzi/var/include/messages.h **** 	if (trans->check_available_space(trans->impl, dev, trans->size_of(trans->impl, 0+4+4+1+4 +2 /* msg
 403:/home/lsk/paparazzi/var/include/messages.h **** 	  trans->count_bytes(trans->impl, dev, trans->size_of(trans->impl, 0+4+4+1+4 +2 /* msg header over
 404:/home/lsk/paparazzi/var/include/messages.h **** 	  trans->start_message(trans->impl, dev, 0+4+4+1+4 +2 /* msg header overhead */);
 405:/home/lsk/paparazzi/var/include/messages.h **** 	  trans->put_bytes(trans->impl, dev, DL_TYPE_UINT8, DL_FORMAT_SCALAR, 1, &ac_id);
 406:/home/lsk/paparazzi/var/include/messages.h **** 	  trans->put_named_byte(trans->impl, dev, DL_TYPE_UINT8, DL_FORMAT_SCALAR, DL_NAVIGATION_REF, "NAV
 407:/home/lsk/paparazzi/var/include/messages.h **** 	  trans->put_bytes(trans->impl, dev, DL_TYPE_INT32, DL_FORMAT_SCALAR, 4, (void *) _utm_east);
 408:/home/lsk/paparazzi/var/include/messages.h **** 	  trans->put_bytes(trans->impl, dev, DL_TYPE_INT32, DL_FORMAT_SCALAR, 4, (void *) _utm_north);
 409:/home/lsk/paparazzi/var/include/messages.h **** 	  trans->put_bytes(trans->impl, dev, DL_TYPE_UINT8, DL_FORMAT_SCALAR, 1, (void *) _utm_zone);
 410:/home/lsk/paparazzi/var/include/messages.h **** 	  trans->put_bytes(trans->impl, dev, DL_TYPE_FLOAT, DL_FORMAT_SCALAR, 4, (void *) _ground_alt);
 411:/home/lsk/paparazzi/var/include/messages.h **** 	  trans->end_message(trans->impl, dev);
 412:/home/lsk/paparazzi/var/include/messages.h **** 	} else
 413:/home/lsk/paparazzi/var/include/messages.h **** 	  trans->overrun(trans->impl, dev);
 414:/home/lsk/paparazzi/var/include/messages.h **** }
 415:/home/lsk/paparazzi/var/include/messages.h **** 
 416:/home/lsk/paparazzi/var/include/messages.h **** #define DOWNLINK_SEND_NAVIGATION(_trans, _dev, cur_block, cur_stage, pos_x, pos_y, dist_wp, dist_ho
 417:/home/lsk/paparazzi/var/include/messages.h **** static inline void pprz_msg_send_NAVIGATION(struct transport_tx *trans, struct link_device *dev, ui
 418:/home/lsk/paparazzi/var/include/messages.h **** 	if (trans->check_available_space(trans->impl, dev, trans->size_of(trans->impl, 0+1+1+4+4+4+4+1+1 +
 419:/home/lsk/paparazzi/var/include/messages.h **** 	  trans->count_bytes(trans->impl, dev, trans->size_of(trans->impl, 0+1+1+4+4+4+4+1+1 +2 /* msg hea
 420:/home/lsk/paparazzi/var/include/messages.h **** 	  trans->start_message(trans->impl, dev, 0+1+1+4+4+4+4+1+1 +2 /* msg header overhead */);
 421:/home/lsk/paparazzi/var/include/messages.h **** 	  trans->put_bytes(trans->impl, dev, DL_TYPE_UINT8, DL_FORMAT_SCALAR, 1, &ac_id);
 422:/home/lsk/paparazzi/var/include/messages.h **** 	  trans->put_named_byte(trans->impl, dev, DL_TYPE_UINT8, DL_FORMAT_SCALAR, DL_NAVIGATION, "NAVIGAT
 423:/home/lsk/paparazzi/var/include/messages.h **** 	  trans->put_bytes(trans->impl, dev, DL_TYPE_UINT8, DL_FORMAT_SCALAR, 1, (void *) _cur_block);
 424:/home/lsk/paparazzi/var/include/messages.h **** 	  trans->put_bytes(trans->impl, dev, DL_TYPE_UINT8, DL_FORMAT_SCALAR, 1, (void *) _cur_stage);
 425:/home/lsk/paparazzi/var/include/messages.h **** 	  trans->put_bytes(trans->impl, dev, DL_TYPE_FLOAT, DL_FORMAT_SCALAR, 4, (void *) _pos_x);
 426:/home/lsk/paparazzi/var/include/messages.h **** 	  trans->put_bytes(trans->impl, dev, DL_TYPE_FLOAT, DL_FORMAT_SCALAR, 4, (void *) _pos_y);
 427:/home/lsk/paparazzi/var/include/messages.h **** 	  trans->put_bytes(trans->impl, dev, DL_TYPE_FLOAT, DL_FORMAT_SCALAR, 4, (void *) _dist_wp);
 428:/home/lsk/paparazzi/var/include/messages.h **** 	  trans->put_bytes(trans->impl, dev, DL_TYPE_FLOAT, DL_FORMAT_SCALAR, 4, (void *) _dist_home);
 429:/home/lsk/paparazzi/var/include/messages.h **** 	  trans->put_bytes(trans->impl, dev, DL_TYPE_UINT8, DL_FORMAT_SCALAR, 1, (void *) _circle_count);
 430:/home/lsk/paparazzi/var/include/messages.h **** 	  trans->put_bytes(trans->impl, dev, DL_TYPE_UINT8, DL_FORMAT_SCALAR, 1, (void *) _oval_count);
 431:/home/lsk/paparazzi/var/include/messages.h **** 	  trans->end_message(trans->impl, dev);
 432:/home/lsk/paparazzi/var/include/messages.h **** 	} else
 433:/home/lsk/paparazzi/var/include/messages.h **** 	  trans->overrun(trans->impl, dev);
 434:/home/lsk/paparazzi/var/include/messages.h **** }
 435:/home/lsk/paparazzi/var/include/messages.h **** 
 436:/home/lsk/paparazzi/var/include/messages.h **** #define DOWNLINK_SEND_PPRZ_MODE(_trans, _dev, ap_mode, ap_gaz, ap_lateral, ap_horizontal, if_calib_
 437:/home/lsk/paparazzi/var/include/messages.h **** static inline void pprz_msg_send_PPRZ_MODE(struct transport_tx *trans, struct link_device *dev, uin
 438:/home/lsk/paparazzi/var/include/messages.h **** 	if (trans->check_available_space(trans->impl, dev, trans->size_of(trans->impl, 0+1+1+1+1+1+1 +2 /*
 439:/home/lsk/paparazzi/var/include/messages.h **** 	  trans->count_bytes(trans->impl, dev, trans->size_of(trans->impl, 0+1+1+1+1+1+1 +2 /* msg header 
 440:/home/lsk/paparazzi/var/include/messages.h **** 	  trans->start_message(trans->impl, dev, 0+1+1+1+1+1+1 +2 /* msg header overhead */);
 441:/home/lsk/paparazzi/var/include/messages.h **** 	  trans->put_bytes(trans->impl, dev, DL_TYPE_UINT8, DL_FORMAT_SCALAR, 1, &ac_id);
 442:/home/lsk/paparazzi/var/include/messages.h **** 	  trans->put_named_byte(trans->impl, dev, DL_TYPE_UINT8, DL_FORMAT_SCALAR, DL_PPRZ_MODE, "PPRZ_MOD
 443:/home/lsk/paparazzi/var/include/messages.h **** 	  trans->put_bytes(trans->impl, dev, DL_TYPE_UINT8, DL_FORMAT_SCALAR, 1, (void *) _ap_mode);
 444:/home/lsk/paparazzi/var/include/messages.h **** 	  trans->put_bytes(trans->impl, dev, DL_TYPE_UINT8, DL_FORMAT_SCALAR, 1, (void *) _ap_gaz);
 445:/home/lsk/paparazzi/var/include/messages.h **** 	  trans->put_bytes(trans->impl, dev, DL_TYPE_UINT8, DL_FORMAT_SCALAR, 1, (void *) _ap_lateral);
 446:/home/lsk/paparazzi/var/include/messages.h **** 	  trans->put_bytes(trans->impl, dev, DL_TYPE_UINT8, DL_FORMAT_SCALAR, 1, (void *) _ap_horizontal);
 447:/home/lsk/paparazzi/var/include/messages.h **** 	  trans->put_bytes(trans->impl, dev, DL_TYPE_UINT8, DL_FORMAT_SCALAR, 1, (void *) _if_calib_mode);
 448:/home/lsk/paparazzi/var/include/messages.h **** 	  trans->put_bytes(trans->impl, dev, DL_TYPE_UINT8, DL_FORMAT_SCALAR, 1, (void *) _mcu1_status);
 449:/home/lsk/paparazzi/var/include/messages.h **** 	  trans->end_message(trans->impl, dev);
 450:/home/lsk/paparazzi/var/include/messages.h **** 	} else
 451:/home/lsk/paparazzi/var/include/messages.h **** 	  trans->overrun(trans->impl, dev);
 452:/home/lsk/paparazzi/var/include/messages.h **** }
 453:/home/lsk/paparazzi/var/include/messages.h **** 
 454:/home/lsk/paparazzi/var/include/messages.h **** #define DOWNLINK_SEND_BAT(_trans, _dev, throttle, voltage, amps, flight_time, kill_auto_throttle, b
 455:/home/lsk/paparazzi/var/include/messages.h **** static inline void pprz_msg_send_BAT(struct transport_tx *trans, struct link_device *dev, uint8_t a
 456:/home/lsk/paparazzi/var/include/messages.h **** 	if (trans->check_available_space(trans->impl, dev, trans->size_of(trans->impl, 0+2+2+2+2+1+2+2+2 +
 457:/home/lsk/paparazzi/var/include/messages.h **** 	  trans->count_bytes(trans->impl, dev, trans->size_of(trans->impl, 0+2+2+2+2+1+2+2+2 +2 /* msg hea
 458:/home/lsk/paparazzi/var/include/messages.h **** 	  trans->start_message(trans->impl, dev, 0+2+2+2+2+1+2+2+2 +2 /* msg header overhead */);
 459:/home/lsk/paparazzi/var/include/messages.h **** 	  trans->put_bytes(trans->impl, dev, DL_TYPE_UINT8, DL_FORMAT_SCALAR, 1, &ac_id);
 460:/home/lsk/paparazzi/var/include/messages.h **** 	  trans->put_named_byte(trans->impl, dev, DL_TYPE_UINT8, DL_FORMAT_SCALAR, DL_BAT, "BAT");
 461:/home/lsk/paparazzi/var/include/messages.h **** 	  trans->put_bytes(trans->impl, dev, DL_TYPE_INT16, DL_FORMAT_SCALAR, 2, (void *) _throttle);
 462:/home/lsk/paparazzi/var/include/messages.h **** 	  trans->put_bytes(trans->impl, dev, DL_TYPE_UINT16, DL_FORMAT_SCALAR, 2, (void *) _voltage);
 463:/home/lsk/paparazzi/var/include/messages.h **** 	  trans->put_bytes(trans->impl, dev, DL_TYPE_INT16, DL_FORMAT_SCALAR, 2, (void *) _amps);
 464:/home/lsk/paparazzi/var/include/messages.h **** 	  trans->put_bytes(trans->impl, dev, DL_TYPE_UINT16, DL_FORMAT_SCALAR, 2, (void *) _flight_time);
 465:/home/lsk/paparazzi/var/include/messages.h **** 	  trans->put_bytes(trans->impl, dev, DL_TYPE_UINT8, DL_FORMAT_SCALAR, 1, (void *) _kill_auto_throt
 466:/home/lsk/paparazzi/var/include/messages.h **** 	  trans->put_bytes(trans->impl, dev, DL_TYPE_UINT16, DL_FORMAT_SCALAR, 2, (void *) _block_time);
 467:/home/lsk/paparazzi/var/include/messages.h **** 	  trans->put_bytes(trans->impl, dev, DL_TYPE_UINT16, DL_FORMAT_SCALAR, 2, (void *) _stage_time);
 468:/home/lsk/paparazzi/var/include/messages.h **** 	  trans->put_bytes(trans->impl, dev, DL_TYPE_INT16, DL_FORMAT_SCALAR, 2, (void *) _energy);
 469:/home/lsk/paparazzi/var/include/messages.h **** 	  trans->end_message(trans->impl, dev);
 470:/home/lsk/paparazzi/var/include/messages.h **** 	} else
 471:/home/lsk/paparazzi/var/include/messages.h **** 	  trans->overrun(trans->impl, dev);
 472:/home/lsk/paparazzi/var/include/messages.h **** }
 473:/home/lsk/paparazzi/var/include/messages.h **** 
 474:/home/lsk/paparazzi/var/include/messages.h **** #define DOWNLINK_SEND_DEBUG_MCU_LINK(_trans, _dev, i2c_nb_err, i2c_mcu1_nb_err, ppm_rate) pprz_msg_
 475:/home/lsk/paparazzi/var/include/messages.h **** static inline void pprz_msg_send_DEBUG_MCU_LINK(struct transport_tx *trans, struct link_device *dev
 476:/home/lsk/paparazzi/var/include/messages.h **** 	if (trans->check_available_space(trans->impl, dev, trans->size_of(trans->impl, 0+1+1+1 +2 /* msg h
 477:/home/lsk/paparazzi/var/include/messages.h **** 	  trans->count_bytes(trans->impl, dev, trans->size_of(trans->impl, 0+1+1+1 +2 /* msg header overhe
 478:/home/lsk/paparazzi/var/include/messages.h **** 	  trans->start_message(trans->impl, dev, 0+1+1+1 +2 /* msg header overhead */);
 479:/home/lsk/paparazzi/var/include/messages.h **** 	  trans->put_bytes(trans->impl, dev, DL_TYPE_UINT8, DL_FORMAT_SCALAR, 1, &ac_id);
 480:/home/lsk/paparazzi/var/include/messages.h **** 	  trans->put_named_byte(trans->impl, dev, DL_TYPE_UINT8, DL_FORMAT_SCALAR, DL_DEBUG_MCU_LINK, "DEB
 481:/home/lsk/paparazzi/var/include/messages.h **** 	  trans->put_bytes(trans->impl, dev, DL_TYPE_UINT8, DL_FORMAT_SCALAR, 1, (void *) _i2c_nb_err);
 482:/home/lsk/paparazzi/var/include/messages.h **** 	  trans->put_bytes(trans->impl, dev, DL_TYPE_UINT8, DL_FORMAT_SCALAR, 1, (void *) _i2c_mcu1_nb_err
 483:/home/lsk/paparazzi/var/include/messages.h **** 	  trans->put_bytes(trans->impl, dev, DL_TYPE_UINT8, DL_FORMAT_SCALAR, 1, (void *) _ppm_rate);
 484:/home/lsk/paparazzi/var/include/messages.h **** 	  trans->end_message(trans->impl, dev);
 485:/home/lsk/paparazzi/var/include/messages.h **** 	} else
 486:/home/lsk/paparazzi/var/include/messages.h **** 	  trans->overrun(trans->impl, dev);
 487:/home/lsk/paparazzi/var/include/messages.h **** }
 488:/home/lsk/paparazzi/var/include/messages.h **** 
 489:/home/lsk/paparazzi/var/include/messages.h **** #define DOWNLINK_SEND_CALIBRATION(_trans, _dev, climb_sum_err, climb_gaz_submode) pprz_msg_send_CAL
 490:/home/lsk/paparazzi/var/include/messages.h **** static inline void pprz_msg_send_CALIBRATION(struct transport_tx *trans, struct link_device *dev, u
 491:/home/lsk/paparazzi/var/include/messages.h **** 	if (trans->check_available_space(trans->impl, dev, trans->size_of(trans->impl, 0+4+1 +2 /* msg hea
 492:/home/lsk/paparazzi/var/include/messages.h **** 	  trans->count_bytes(trans->impl, dev, trans->size_of(trans->impl, 0+4+1 +2 /* msg header overhead
 493:/home/lsk/paparazzi/var/include/messages.h **** 	  trans->start_message(trans->impl, dev, 0+4+1 +2 /* msg header overhead */);
 494:/home/lsk/paparazzi/var/include/messages.h **** 	  trans->put_bytes(trans->impl, dev, DL_TYPE_UINT8, DL_FORMAT_SCALAR, 1, &ac_id);
 495:/home/lsk/paparazzi/var/include/messages.h **** 	  trans->put_named_byte(trans->impl, dev, DL_TYPE_UINT8, DL_FORMAT_SCALAR, DL_CALIBRATION, "CALIBR
 496:/home/lsk/paparazzi/var/include/messages.h **** 	  trans->put_bytes(trans->impl, dev, DL_TYPE_FLOAT, DL_FORMAT_SCALAR, 4, (void *) _climb_sum_err);
 497:/home/lsk/paparazzi/var/include/messages.h **** 	  trans->put_bytes(trans->impl, dev, DL_TYPE_UINT8, DL_FORMAT_SCALAR, 1, (void *) _climb_gaz_submo
 498:/home/lsk/paparazzi/var/include/messages.h **** 	  trans->end_message(trans->impl, dev);
 499:/home/lsk/paparazzi/var/include/messages.h **** 	} else
 500:/home/lsk/paparazzi/var/include/messages.h **** 	  trans->overrun(trans->impl, dev);
 501:/home/lsk/paparazzi/var/include/messages.h **** }
 502:/home/lsk/paparazzi/var/include/messages.h **** 
 503:/home/lsk/paparazzi/var/include/messages.h **** #define DOWNLINK_SEND_SETTINGS(_trans, _dev, slider_1_val, slider_2_val) pprz_msg_send_SETTINGS(&((
 504:/home/lsk/paparazzi/var/include/messages.h **** static inline void pprz_msg_send_SETTINGS(struct transport_tx *trans, struct link_device *dev, uint
 505:/home/lsk/paparazzi/var/include/messages.h **** 	if (trans->check_available_space(trans->impl, dev, trans->size_of(trans->impl, 0+4+4 +2 /* msg hea
 506:/home/lsk/paparazzi/var/include/messages.h **** 	  trans->count_bytes(trans->impl, dev, trans->size_of(trans->impl, 0+4+4 +2 /* msg header overhead
 507:/home/lsk/paparazzi/var/include/messages.h **** 	  trans->start_message(trans->impl, dev, 0+4+4 +2 /* msg header overhead */);
 508:/home/lsk/paparazzi/var/include/messages.h **** 	  trans->put_bytes(trans->impl, dev, DL_TYPE_UINT8, DL_FORMAT_SCALAR, 1, &ac_id);
 509:/home/lsk/paparazzi/var/include/messages.h **** 	  trans->put_named_byte(trans->impl, dev, DL_TYPE_UINT8, DL_FORMAT_SCALAR, DL_SETTINGS, "SETTINGS"
 510:/home/lsk/paparazzi/var/include/messages.h **** 	  trans->put_bytes(trans->impl, dev, DL_TYPE_FLOAT, DL_FORMAT_SCALAR, 4, (void *) _slider_1_val);
 511:/home/lsk/paparazzi/var/include/messages.h **** 	  trans->put_bytes(trans->impl, dev, DL_TYPE_FLOAT, DL_FORMAT_SCALAR, 4, (void *) _slider_2_val);
 512:/home/lsk/paparazzi/var/include/messages.h **** 	  trans->end_message(trans->impl, dev);
 513:/home/lsk/paparazzi/var/include/messages.h **** 	} else
 514:/home/lsk/paparazzi/var/include/messages.h **** 	  trans->overrun(trans->impl, dev);
 515:/home/lsk/paparazzi/var/include/messages.h **** }
 516:/home/lsk/paparazzi/var/include/messages.h **** 
 517:/home/lsk/paparazzi/var/include/messages.h **** #define DOWNLINK_SEND_DESIRED(_trans, _dev, roll, pitch, course, x, y, altitude, climb, airspeed) p
 518:/home/lsk/paparazzi/var/include/messages.h **** static inline void pprz_msg_send_DESIRED(struct transport_tx *trans, struct link_device *dev, uint8
 519:/home/lsk/paparazzi/var/include/messages.h **** 	if (trans->check_available_space(trans->impl, dev, trans->size_of(trans->impl, 0+4+4+4+4+4+4+4+4 +
 520:/home/lsk/paparazzi/var/include/messages.h **** 	  trans->count_bytes(trans->impl, dev, trans->size_of(trans->impl, 0+4+4+4+4+4+4+4+4 +2 /* msg hea
 521:/home/lsk/paparazzi/var/include/messages.h **** 	  trans->start_message(trans->impl, dev, 0+4+4+4+4+4+4+4+4 +2 /* msg header overhead */);
 522:/home/lsk/paparazzi/var/include/messages.h **** 	  trans->put_bytes(trans->impl, dev, DL_TYPE_UINT8, DL_FORMAT_SCALAR, 1, &ac_id);
 523:/home/lsk/paparazzi/var/include/messages.h **** 	  trans->put_named_byte(trans->impl, dev, DL_TYPE_UINT8, DL_FORMAT_SCALAR, DL_DESIRED, "DESIRED");
 524:/home/lsk/paparazzi/var/include/messages.h **** 	  trans->put_bytes(trans->impl, dev, DL_TYPE_FLOAT, DL_FORMAT_SCALAR, 4, (void *) _roll);
 525:/home/lsk/paparazzi/var/include/messages.h **** 	  trans->put_bytes(trans->impl, dev, DL_TYPE_FLOAT, DL_FORMAT_SCALAR, 4, (void *) _pitch);
 526:/home/lsk/paparazzi/var/include/messages.h **** 	  trans->put_bytes(trans->impl, dev, DL_TYPE_FLOAT, DL_FORMAT_SCALAR, 4, (void *) _course);
 527:/home/lsk/paparazzi/var/include/messages.h **** 	  trans->put_bytes(trans->impl, dev, DL_TYPE_FLOAT, DL_FORMAT_SCALAR, 4, (void *) _x);
 528:/home/lsk/paparazzi/var/include/messages.h **** 	  trans->put_bytes(trans->impl, dev, DL_TYPE_FLOAT, DL_FORMAT_SCALAR, 4, (void *) _y);
 529:/home/lsk/paparazzi/var/include/messages.h **** 	  trans->put_bytes(trans->impl, dev, DL_TYPE_FLOAT, DL_FORMAT_SCALAR, 4, (void *) _altitude);
 530:/home/lsk/paparazzi/var/include/messages.h **** 	  trans->put_bytes(trans->impl, dev, DL_TYPE_FLOAT, DL_FORMAT_SCALAR, 4, (void *) _climb);
 531:/home/lsk/paparazzi/var/include/messages.h **** 	  trans->put_bytes(trans->impl, dev, DL_TYPE_FLOAT, DL_FORMAT_SCALAR, 4, (void *) _airspeed);
 532:/home/lsk/paparazzi/var/include/messages.h **** 	  trans->end_message(trans->impl, dev);
 533:/home/lsk/paparazzi/var/include/messages.h **** 	} else
 534:/home/lsk/paparazzi/var/include/messages.h **** 	  trans->overrun(trans->impl, dev);
 535:/home/lsk/paparazzi/var/include/messages.h **** }
 536:/home/lsk/paparazzi/var/include/messages.h **** 
 537:/home/lsk/paparazzi/var/include/messages.h **** #define DOWNLINK_SEND_GPS_SOL(_trans, _dev, Pacc, Sacc, PDOP, numSV) pprz_msg_send_GPS_SOL(&((_tran
 538:/home/lsk/paparazzi/var/include/messages.h **** static inline void pprz_msg_send_GPS_SOL(struct transport_tx *trans, struct link_device *dev, uint8
 539:/home/lsk/paparazzi/var/include/messages.h **** 	if (trans->check_available_space(trans->impl, dev, trans->size_of(trans->impl, 0+4+4+2+1 +2 /* msg
 540:/home/lsk/paparazzi/var/include/messages.h **** 	  trans->count_bytes(trans->impl, dev, trans->size_of(trans->impl, 0+4+4+2+1 +2 /* msg header over
 541:/home/lsk/paparazzi/var/include/messages.h **** 	  trans->start_message(trans->impl, dev, 0+4+4+2+1 +2 /* msg header overhead */);
 542:/home/lsk/paparazzi/var/include/messages.h **** 	  trans->put_bytes(trans->impl, dev, DL_TYPE_UINT8, DL_FORMAT_SCALAR, 1, &ac_id);
 543:/home/lsk/paparazzi/var/include/messages.h **** 	  trans->put_named_byte(trans->impl, dev, DL_TYPE_UINT8, DL_FORMAT_SCALAR, DL_GPS_SOL, "GPS_SOL");
 544:/home/lsk/paparazzi/var/include/messages.h **** 	  trans->put_bytes(trans->impl, dev, DL_TYPE_UINT32, DL_FORMAT_SCALAR, 4, (void *) _Pacc);
 545:/home/lsk/paparazzi/var/include/messages.h **** 	  trans->put_bytes(trans->impl, dev, DL_TYPE_UINT32, DL_FORMAT_SCALAR, 4, (void *) _Sacc);
 546:/home/lsk/paparazzi/var/include/messages.h **** 	  trans->put_bytes(trans->impl, dev, DL_TYPE_UINT16, DL_FORMAT_SCALAR, 2, (void *) _PDOP);
 547:/home/lsk/paparazzi/var/include/messages.h **** 	  trans->put_bytes(trans->impl, dev, DL_TYPE_UINT8, DL_FORMAT_SCALAR, 1, (void *) _numSV);
 548:/home/lsk/paparazzi/var/include/messages.h **** 	  trans->end_message(trans->impl, dev);
 549:/home/lsk/paparazzi/var/include/messages.h **** 	} else
 550:/home/lsk/paparazzi/var/include/messages.h **** 	  trans->overrun(trans->impl, dev);
 551:/home/lsk/paparazzi/var/include/messages.h **** }
 552:/home/lsk/paparazzi/var/include/messages.h **** 
 553:/home/lsk/paparazzi/var/include/messages.h **** #define DOWNLINK_SEND_ADC_GENERIC(_trans, _dev, val1, val2) pprz_msg_send_ADC_GENERIC(&((_trans).tr
 554:/home/lsk/paparazzi/var/include/messages.h **** static inline void pprz_msg_send_ADC_GENERIC(struct transport_tx *trans, struct link_device *dev, u
 555:/home/lsk/paparazzi/var/include/messages.h **** 	if (trans->check_available_space(trans->impl, dev, trans->size_of(trans->impl, 0+2+2 +2 /* msg hea
 556:/home/lsk/paparazzi/var/include/messages.h **** 	  trans->count_bytes(trans->impl, dev, trans->size_of(trans->impl, 0+2+2 +2 /* msg header overhead
 557:/home/lsk/paparazzi/var/include/messages.h **** 	  trans->start_message(trans->impl, dev, 0+2+2 +2 /* msg header overhead */);
 558:/home/lsk/paparazzi/var/include/messages.h **** 	  trans->put_bytes(trans->impl, dev, DL_TYPE_UINT8, DL_FORMAT_SCALAR, 1, &ac_id);
 559:/home/lsk/paparazzi/var/include/messages.h **** 	  trans->put_named_byte(trans->impl, dev, DL_TYPE_UINT8, DL_FORMAT_SCALAR, DL_ADC_GENERIC, "ADC_GE
 560:/home/lsk/paparazzi/var/include/messages.h **** 	  trans->put_bytes(trans->impl, dev, DL_TYPE_UINT16, DL_FORMAT_SCALAR, 2, (void *) _val1);
 561:/home/lsk/paparazzi/var/include/messages.h **** 	  trans->put_bytes(trans->impl, dev, DL_TYPE_UINT16, DL_FORMAT_SCALAR, 2, (void *) _val2);
 562:/home/lsk/paparazzi/var/include/messages.h **** 	  trans->end_message(trans->impl, dev);
 563:/home/lsk/paparazzi/var/include/messages.h **** 	} else
 564:/home/lsk/paparazzi/var/include/messages.h **** 	  trans->overrun(trans->impl, dev);
 565:/home/lsk/paparazzi/var/include/messages.h **** }
 566:/home/lsk/paparazzi/var/include/messages.h **** 
 567:/home/lsk/paparazzi/var/include/messages.h **** #define DOWNLINK_SEND_TEST_FORMAT(_trans, _dev, val1, val2) pprz_msg_send_TEST_FORMAT(&((_trans).tr
 568:/home/lsk/paparazzi/var/include/messages.h **** static inline void pprz_msg_send_TEST_FORMAT(struct transport_tx *trans, struct link_device *dev, u
 569:/home/lsk/paparazzi/var/include/messages.h **** 	if (trans->check_available_space(trans->impl, dev, trans->size_of(trans->impl, 0+8+4 +2 /* msg hea
 570:/home/lsk/paparazzi/var/include/messages.h **** 	  trans->count_bytes(trans->impl, dev, trans->size_of(trans->impl, 0+8+4 +2 /* msg header overhead
 571:/home/lsk/paparazzi/var/include/messages.h **** 	  trans->start_message(trans->impl, dev, 0+8+4 +2 /* msg header overhead */);
 572:/home/lsk/paparazzi/var/include/messages.h **** 	  trans->put_bytes(trans->impl, dev, DL_TYPE_UINT8, DL_FORMAT_SCALAR, 1, &ac_id);
 573:/home/lsk/paparazzi/var/include/messages.h **** 	  trans->put_named_byte(trans->impl, dev, DL_TYPE_UINT8, DL_FORMAT_SCALAR, DL_TEST_FORMAT, "TEST_F
 574:/home/lsk/paparazzi/var/include/messages.h **** 	  trans->put_bytes(trans->impl, dev, DL_TYPE_DOUBLE, DL_FORMAT_SCALAR, 8, (void *) _val1);
 575:/home/lsk/paparazzi/var/include/messages.h **** 	  trans->put_bytes(trans->impl, dev, DL_TYPE_FLOAT, DL_FORMAT_SCALAR, 4, (void *) _val2);
 576:/home/lsk/paparazzi/var/include/messages.h **** 	  trans->end_message(trans->impl, dev);
 577:/home/lsk/paparazzi/var/include/messages.h **** 	} else
 578:/home/lsk/paparazzi/var/include/messages.h **** 	  trans->overrun(trans->impl, dev);
 579:/home/lsk/paparazzi/var/include/messages.h **** }
 580:/home/lsk/paparazzi/var/include/messages.h **** 
 581:/home/lsk/paparazzi/var/include/messages.h **** #define DOWNLINK_SEND_CAM(_trans, _dev, phi, theta, target_x, target_y) pprz_msg_send_CAM(&((_trans
 582:/home/lsk/paparazzi/var/include/messages.h **** static inline void pprz_msg_send_CAM(struct transport_tx *trans, struct link_device *dev, uint8_t a
 583:/home/lsk/paparazzi/var/include/messages.h **** 	if (trans->check_available_space(trans->impl, dev, trans->size_of(trans->impl, 0+2+2+2+2 +2 /* msg
 584:/home/lsk/paparazzi/var/include/messages.h **** 	  trans->count_bytes(trans->impl, dev, trans->size_of(trans->impl, 0+2+2+2+2 +2 /* msg header over
 585:/home/lsk/paparazzi/var/include/messages.h **** 	  trans->start_message(trans->impl, dev, 0+2+2+2+2 +2 /* msg header overhead */);
 586:/home/lsk/paparazzi/var/include/messages.h **** 	  trans->put_bytes(trans->impl, dev, DL_TYPE_UINT8, DL_FORMAT_SCALAR, 1, &ac_id);
 587:/home/lsk/paparazzi/var/include/messages.h **** 	  trans->put_named_byte(trans->impl, dev, DL_TYPE_UINT8, DL_FORMAT_SCALAR, DL_CAM, "CAM");
 588:/home/lsk/paparazzi/var/include/messages.h **** 	  trans->put_bytes(trans->impl, dev, DL_TYPE_INT16, DL_FORMAT_SCALAR, 2, (void *) _phi);
 589:/home/lsk/paparazzi/var/include/messages.h **** 	  trans->put_bytes(trans->impl, dev, DL_TYPE_INT16, DL_FORMAT_SCALAR, 2, (void *) _theta);
 590:/home/lsk/paparazzi/var/include/messages.h **** 	  trans->put_bytes(trans->impl, dev, DL_TYPE_INT16, DL_FORMAT_SCALAR, 2, (void *) _target_x);
 591:/home/lsk/paparazzi/var/include/messages.h **** 	  trans->put_bytes(trans->impl, dev, DL_TYPE_INT16, DL_FORMAT_SCALAR, 2, (void *) _target_y);
 592:/home/lsk/paparazzi/var/include/messages.h **** 	  trans->end_message(trans->impl, dev);
 593:/home/lsk/paparazzi/var/include/messages.h **** 	} else
 594:/home/lsk/paparazzi/var/include/messages.h **** 	  trans->overrun(trans->impl, dev);
 595:/home/lsk/paparazzi/var/include/messages.h **** }
 596:/home/lsk/paparazzi/var/include/messages.h **** 
 597:/home/lsk/paparazzi/var/include/messages.h **** #define DOWNLINK_SEND_CIRCLE(_trans, _dev, center_east, center_north, radius) pprz_msg_send_CIRCLE(
 598:/home/lsk/paparazzi/var/include/messages.h **** static inline void pprz_msg_send_CIRCLE(struct transport_tx *trans, struct link_device *dev, uint8_
 599:/home/lsk/paparazzi/var/include/messages.h **** 	if (trans->check_available_space(trans->impl, dev, trans->size_of(trans->impl, 0+4+4+4 +2 /* msg h
 600:/home/lsk/paparazzi/var/include/messages.h **** 	  trans->count_bytes(trans->impl, dev, trans->size_of(trans->impl, 0+4+4+4 +2 /* msg header overhe
 601:/home/lsk/paparazzi/var/include/messages.h **** 	  trans->start_message(trans->impl, dev, 0+4+4+4 +2 /* msg header overhead */);
 602:/home/lsk/paparazzi/var/include/messages.h **** 	  trans->put_bytes(trans->impl, dev, DL_TYPE_UINT8, DL_FORMAT_SCALAR, 1, &ac_id);
 603:/home/lsk/paparazzi/var/include/messages.h **** 	  trans->put_named_byte(trans->impl, dev, DL_TYPE_UINT8, DL_FORMAT_SCALAR, DL_CIRCLE, "CIRCLE");
 604:/home/lsk/paparazzi/var/include/messages.h **** 	  trans->put_bytes(trans->impl, dev, DL_TYPE_FLOAT, DL_FORMAT_SCALAR, 4, (void *) _center_east);
 605:/home/lsk/paparazzi/var/include/messages.h **** 	  trans->put_bytes(trans->impl, dev, DL_TYPE_FLOAT, DL_FORMAT_SCALAR, 4, (void *) _center_north);
 606:/home/lsk/paparazzi/var/include/messages.h **** 	  trans->put_bytes(trans->impl, dev, DL_TYPE_FLOAT, DL_FORMAT_SCALAR, 4, (void *) _radius);
 607:/home/lsk/paparazzi/var/include/messages.h **** 	  trans->end_message(trans->impl, dev);
 608:/home/lsk/paparazzi/var/include/messages.h **** 	} else
 609:/home/lsk/paparazzi/var/include/messages.h **** 	  trans->overrun(trans->impl, dev);
 610:/home/lsk/paparazzi/var/include/messages.h **** }
 611:/home/lsk/paparazzi/var/include/messages.h **** 
 612:/home/lsk/paparazzi/var/include/messages.h **** #define DOWNLINK_SEND_SEGMENT(_trans, _dev, segment_east_1, segment_north_1, segment_east_2, segmen
 613:/home/lsk/paparazzi/var/include/messages.h **** static inline void pprz_msg_send_SEGMENT(struct transport_tx *trans, struct link_device *dev, uint8
 614:/home/lsk/paparazzi/var/include/messages.h **** 	if (trans->check_available_space(trans->impl, dev, trans->size_of(trans->impl, 0+4+4+4+4 +2 /* msg
 615:/home/lsk/paparazzi/var/include/messages.h **** 	  trans->count_bytes(trans->impl, dev, trans->size_of(trans->impl, 0+4+4+4+4 +2 /* msg header over
 616:/home/lsk/paparazzi/var/include/messages.h **** 	  trans->start_message(trans->impl, dev, 0+4+4+4+4 +2 /* msg header overhead */);
 617:/home/lsk/paparazzi/var/include/messages.h **** 	  trans->put_bytes(trans->impl, dev, DL_TYPE_UINT8, DL_FORMAT_SCALAR, 1, &ac_id);
 618:/home/lsk/paparazzi/var/include/messages.h **** 	  trans->put_named_byte(trans->impl, dev, DL_TYPE_UINT8, DL_FORMAT_SCALAR, DL_SEGMENT, "SEGMENT");
 619:/home/lsk/paparazzi/var/include/messages.h **** 	  trans->put_bytes(trans->impl, dev, DL_TYPE_FLOAT, DL_FORMAT_SCALAR, 4, (void *) _segment_east_1)
 620:/home/lsk/paparazzi/var/include/messages.h **** 	  trans->put_bytes(trans->impl, dev, DL_TYPE_FLOAT, DL_FORMAT_SCALAR, 4, (void *) _segment_north_1
 621:/home/lsk/paparazzi/var/include/messages.h **** 	  trans->put_bytes(trans->impl, dev, DL_TYPE_FLOAT, DL_FORMAT_SCALAR, 4, (void *) _segment_east_2)
 622:/home/lsk/paparazzi/var/include/messages.h **** 	  trans->put_bytes(trans->impl, dev, DL_TYPE_FLOAT, DL_FORMAT_SCALAR, 4, (void *) _segment_north_2
 623:/home/lsk/paparazzi/var/include/messages.h **** 	  trans->end_message(trans->impl, dev);
 624:/home/lsk/paparazzi/var/include/messages.h **** 	} else
 625:/home/lsk/paparazzi/var/include/messages.h **** 	  trans->overrun(trans->impl, dev);
 626:/home/lsk/paparazzi/var/include/messages.h **** }
 627:/home/lsk/paparazzi/var/include/messages.h **** 
 628:/home/lsk/paparazzi/var/include/messages.h **** #define DOWNLINK_SEND_SVINFO(_trans, _dev, chn, SVID, Flags, QI, CNO, Elev, Azim) pprz_msg_send_SVI
 629:/home/lsk/paparazzi/var/include/messages.h **** static inline void pprz_msg_send_SVINFO(struct transport_tx *trans, struct link_device *dev, uint8_
 630:/home/lsk/paparazzi/var/include/messages.h **** 	if (trans->check_available_space(trans->impl, dev, trans->size_of(trans->impl, 0+1+1+1+1+1+1+2 +2 
 631:/home/lsk/paparazzi/var/include/messages.h **** 	  trans->count_bytes(trans->impl, dev, trans->size_of(trans->impl, 0+1+1+1+1+1+1+2 +2 /* msg heade
 632:/home/lsk/paparazzi/var/include/messages.h **** 	  trans->start_message(trans->impl, dev, 0+1+1+1+1+1+1+2 +2 /* msg header overhead */);
 633:/home/lsk/paparazzi/var/include/messages.h **** 	  trans->put_bytes(trans->impl, dev, DL_TYPE_UINT8, DL_FORMAT_SCALAR, 1, &ac_id);
 634:/home/lsk/paparazzi/var/include/messages.h **** 	  trans->put_named_byte(trans->impl, dev, DL_TYPE_UINT8, DL_FORMAT_SCALAR, DL_SVINFO, "SVINFO");
 635:/home/lsk/paparazzi/var/include/messages.h **** 	  trans->put_bytes(trans->impl, dev, DL_TYPE_UINT8, DL_FORMAT_SCALAR, 1, (void *) _chn);
 636:/home/lsk/paparazzi/var/include/messages.h **** 	  trans->put_bytes(trans->impl, dev, DL_TYPE_UINT8, DL_FORMAT_SCALAR, 1, (void *) _SVID);
 637:/home/lsk/paparazzi/var/include/messages.h **** 	  trans->put_bytes(trans->impl, dev, DL_TYPE_UINT8, DL_FORMAT_SCALAR, 1, (void *) _Flags);
 638:/home/lsk/paparazzi/var/include/messages.h **** 	  trans->put_bytes(trans->impl, dev, DL_TYPE_UINT8, DL_FORMAT_SCALAR, 1, (void *) _QI);
 639:/home/lsk/paparazzi/var/include/messages.h **** 	  trans->put_bytes(trans->impl, dev, DL_TYPE_UINT8, DL_FORMAT_SCALAR, 1, (void *) _CNO);
 640:/home/lsk/paparazzi/var/include/messages.h **** 	  trans->put_bytes(trans->impl, dev, DL_TYPE_INT8, DL_FORMAT_SCALAR, 1, (void *) _Elev);
 641:/home/lsk/paparazzi/var/include/messages.h **** 	  trans->put_bytes(trans->impl, dev, DL_TYPE_INT16, DL_FORMAT_SCALAR, 2, (void *) _Azim);
 642:/home/lsk/paparazzi/var/include/messages.h **** 	  trans->end_message(trans->impl, dev);
 643:/home/lsk/paparazzi/var/include/messages.h **** 	} else
 644:/home/lsk/paparazzi/var/include/messages.h **** 	  trans->overrun(trans->impl, dev);
 645:/home/lsk/paparazzi/var/include/messages.h **** }
 646:/home/lsk/paparazzi/var/include/messages.h **** 
 647:/home/lsk/paparazzi/var/include/messages.h **** #define DOWNLINK_SEND_DEBUG(_trans, _dev, nb_msg, msg) pprz_msg_send_DEBUG(&((_trans).trans_tx), &(
 648:/home/lsk/paparazzi/var/include/messages.h **** static inline void pprz_msg_send_DEBUG(struct transport_tx *trans, struct link_device *dev, uint8_t
 649:/home/lsk/paparazzi/var/include/messages.h **** 	if (trans->check_available_space(trans->impl, dev, trans->size_of(trans->impl, 0+1+nb_msg*1 +2 /* 
 650:/home/lsk/paparazzi/var/include/messages.h **** 	  trans->count_bytes(trans->impl, dev, trans->size_of(trans->impl, 0+1+nb_msg*1 +2 /* msg header o
 651:/home/lsk/paparazzi/var/include/messages.h **** 	  trans->start_message(trans->impl, dev, 0+1+nb_msg*1 +2 /* msg header overhead */);
 652:/home/lsk/paparazzi/var/include/messages.h **** 	  trans->put_bytes(trans->impl, dev, DL_TYPE_UINT8, DL_FORMAT_SCALAR, 1, &ac_id);
 653:/home/lsk/paparazzi/var/include/messages.h **** 	  trans->put_named_byte(trans->impl, dev, DL_TYPE_UINT8, DL_FORMAT_SCALAR, DL_DEBUG, "DEBUG");
 654:/home/lsk/paparazzi/var/include/messages.h **** 	  trans->put_bytes(trans->impl, dev, DL_TYPE_ARRAY_LENGTH, DL_FORMAT_SCALAR, 1, (void *) &nb_msg);
 655:/home/lsk/paparazzi/var/include/messages.h **** 	  trans->put_bytes(trans->impl, dev, DL_TYPE_UINT8, DL_FORMAT_ARRAY, 1 * nb_msg, (void *) _msg);
 656:/home/lsk/paparazzi/var/include/messages.h **** 	  trans->end_message(trans->impl, dev);
 657:/home/lsk/paparazzi/var/include/messages.h **** 	} else
 658:/home/lsk/paparazzi/var/include/messages.h **** 	  trans->overrun(trans->impl, dev);
 659:/home/lsk/paparazzi/var/include/messages.h **** }
 660:/home/lsk/paparazzi/var/include/messages.h **** 
 661:/home/lsk/paparazzi/var/include/messages.h **** #define DOWNLINK_SEND_SURVEY(_trans, _dev, east, north, west, south) pprz_msg_send_SURVEY(&((_trans
 662:/home/lsk/paparazzi/var/include/messages.h **** static inline void pprz_msg_send_SURVEY(struct transport_tx *trans, struct link_device *dev, uint8_
 663:/home/lsk/paparazzi/var/include/messages.h **** 	if (trans->check_available_space(trans->impl, dev, trans->size_of(trans->impl, 0+4+4+4+4 +2 /* msg
 664:/home/lsk/paparazzi/var/include/messages.h **** 	  trans->count_bytes(trans->impl, dev, trans->size_of(trans->impl, 0+4+4+4+4 +2 /* msg header over
 665:/home/lsk/paparazzi/var/include/messages.h **** 	  trans->start_message(trans->impl, dev, 0+4+4+4+4 +2 /* msg header overhead */);
 666:/home/lsk/paparazzi/var/include/messages.h **** 	  trans->put_bytes(trans->impl, dev, DL_TYPE_UINT8, DL_FORMAT_SCALAR, 1, &ac_id);
 667:/home/lsk/paparazzi/var/include/messages.h **** 	  trans->put_named_byte(trans->impl, dev, DL_TYPE_UINT8, DL_FORMAT_SCALAR, DL_SURVEY, "SURVEY");
 668:/home/lsk/paparazzi/var/include/messages.h **** 	  trans->put_bytes(trans->impl, dev, DL_TYPE_FLOAT, DL_FORMAT_SCALAR, 4, (void *) _east);
 669:/home/lsk/paparazzi/var/include/messages.h **** 	  trans->put_bytes(trans->impl, dev, DL_TYPE_FLOAT, DL_FORMAT_SCALAR, 4, (void *) _north);
 670:/home/lsk/paparazzi/var/include/messages.h **** 	  trans->put_bytes(trans->impl, dev, DL_TYPE_FLOAT, DL_FORMAT_SCALAR, 4, (void *) _west);
 671:/home/lsk/paparazzi/var/include/messages.h **** 	  trans->put_bytes(trans->impl, dev, DL_TYPE_FLOAT, DL_FORMAT_SCALAR, 4, (void *) _south);
 672:/home/lsk/paparazzi/var/include/messages.h **** 	  trans->end_message(trans->impl, dev);
 673:/home/lsk/paparazzi/var/include/messages.h **** 	} else
 674:/home/lsk/paparazzi/var/include/messages.h **** 	  trans->overrun(trans->impl, dev);
 675:/home/lsk/paparazzi/var/include/messages.h **** }
 676:/home/lsk/paparazzi/var/include/messages.h **** 
 677:/home/lsk/paparazzi/var/include/messages.h **** #define DOWNLINK_SEND_WC_RSSI(_trans, _dev, raw_level) pprz_msg_send_WC_RSSI(&((_trans).trans_tx), 
 678:/home/lsk/paparazzi/var/include/messages.h **** static inline void pprz_msg_send_WC_RSSI(struct transport_tx *trans, struct link_device *dev, uint8
 679:/home/lsk/paparazzi/var/include/messages.h **** 	if (trans->check_available_space(trans->impl, dev, trans->size_of(trans->impl, 0+1 +2 /* msg heade
 680:/home/lsk/paparazzi/var/include/messages.h **** 	  trans->count_bytes(trans->impl, dev, trans->size_of(trans->impl, 0+1 +2 /* msg header overhead *
 681:/home/lsk/paparazzi/var/include/messages.h **** 	  trans->start_message(trans->impl, dev, 0+1 +2 /* msg header overhead */);
 682:/home/lsk/paparazzi/var/include/messages.h **** 	  trans->put_bytes(trans->impl, dev, DL_TYPE_UINT8, DL_FORMAT_SCALAR, 1, &ac_id);
 683:/home/lsk/paparazzi/var/include/messages.h **** 	  trans->put_named_byte(trans->impl, dev, DL_TYPE_UINT8, DL_FORMAT_SCALAR, DL_WC_RSSI, "WC_RSSI");
 684:/home/lsk/paparazzi/var/include/messages.h **** 	  trans->put_bytes(trans->impl, dev, DL_TYPE_UINT8, DL_FORMAT_SCALAR, 1, (void *) _raw_level);
 685:/home/lsk/paparazzi/var/include/messages.h **** 	  trans->end_message(trans->impl, dev);
 686:/home/lsk/paparazzi/var/include/messages.h **** 	} else
 687:/home/lsk/paparazzi/var/include/messages.h **** 	  trans->overrun(trans->impl, dev);
 688:/home/lsk/paparazzi/var/include/messages.h **** }
 689:/home/lsk/paparazzi/var/include/messages.h **** 
 690:/home/lsk/paparazzi/var/include/messages.h **** #define DOWNLINK_SEND_RANGEFINDER(_trans, _dev, range, z_dot, z_dot_sum_err, z_dot_setpoint, z_sum_
 691:/home/lsk/paparazzi/var/include/messages.h **** static inline void pprz_msg_send_RANGEFINDER(struct transport_tx *trans, struct link_device *dev, u
 692:/home/lsk/paparazzi/var/include/messages.h **** 	if (trans->check_available_space(trans->impl, dev, trans->size_of(trans->impl, 0+2+4+4+4+4+4+1 +2 
 693:/home/lsk/paparazzi/var/include/messages.h **** 	  trans->count_bytes(trans->impl, dev, trans->size_of(trans->impl, 0+2+4+4+4+4+4+1 +2 /* msg heade
 694:/home/lsk/paparazzi/var/include/messages.h **** 	  trans->start_message(trans->impl, dev, 0+2+4+4+4+4+4+1 +2 /* msg header overhead */);
 695:/home/lsk/paparazzi/var/include/messages.h **** 	  trans->put_bytes(trans->impl, dev, DL_TYPE_UINT8, DL_FORMAT_SCALAR, 1, &ac_id);
 696:/home/lsk/paparazzi/var/include/messages.h **** 	  trans->put_named_byte(trans->impl, dev, DL_TYPE_UINT8, DL_FORMAT_SCALAR, DL_RANGEFINDER, "RANGEF
 697:/home/lsk/paparazzi/var/include/messages.h **** 	  trans->put_bytes(trans->impl, dev, DL_TYPE_UINT16, DL_FORMAT_SCALAR, 2, (void *) _range);
 698:/home/lsk/paparazzi/var/include/messages.h **** 	  trans->put_bytes(trans->impl, dev, DL_TYPE_FLOAT, DL_FORMAT_SCALAR, 4, (void *) _z_dot);
 699:/home/lsk/paparazzi/var/include/messages.h **** 	  trans->put_bytes(trans->impl, dev, DL_TYPE_FLOAT, DL_FORMAT_SCALAR, 4, (void *) _z_dot_sum_err);
 700:/home/lsk/paparazzi/var/include/messages.h **** 	  trans->put_bytes(trans->impl, dev, DL_TYPE_FLOAT, DL_FORMAT_SCALAR, 4, (void *) _z_dot_setpoint)
 701:/home/lsk/paparazzi/var/include/messages.h **** 	  trans->put_bytes(trans->impl, dev, DL_TYPE_FLOAT, DL_FORMAT_SCALAR, 4, (void *) _z_sum_err);
 702:/home/lsk/paparazzi/var/include/messages.h **** 	  trans->put_bytes(trans->impl, dev, DL_TYPE_FLOAT, DL_FORMAT_SCALAR, 4, (void *) _z_setpoint);
 703:/home/lsk/paparazzi/var/include/messages.h **** 	  trans->put_bytes(trans->impl, dev, DL_TYPE_UINT8, DL_FORMAT_SCALAR, 1, (void *) _flying);
 704:/home/lsk/paparazzi/var/include/messages.h **** 	  trans->end_message(trans->impl, dev);
 705:/home/lsk/paparazzi/var/include/messages.h **** 	} else
 706:/home/lsk/paparazzi/var/include/messages.h **** 	  trans->overrun(trans->impl, dev);
 707:/home/lsk/paparazzi/var/include/messages.h **** }
 708:/home/lsk/paparazzi/var/include/messages.h **** 
 709:/home/lsk/paparazzi/var/include/messages.h **** #define DOWNLINK_SEND_DATALINK_REPORT(_trans, _dev, uplink_lost_time, uplink_nb_msgs, downlink_nb_m
 710:/home/lsk/paparazzi/var/include/messages.h **** static inline void pprz_msg_send_DATALINK_REPORT(struct transport_tx *trans, struct link_device *de
 711:/home/lsk/paparazzi/var/include/messages.h **** 	if (trans->check_available_space(trans->impl, dev, trans->size_of(trans->impl, 0+2+2+2+2+1 +2 /* m
 712:/home/lsk/paparazzi/var/include/messages.h **** 	  trans->count_bytes(trans->impl, dev, trans->size_of(trans->impl, 0+2+2+2+2+1 +2 /* msg header ov
 713:/home/lsk/paparazzi/var/include/messages.h **** 	  trans->start_message(trans->impl, dev, 0+2+2+2+2+1 +2 /* msg header overhead */);
 714:/home/lsk/paparazzi/var/include/messages.h **** 	  trans->put_bytes(trans->impl, dev, DL_TYPE_UINT8, DL_FORMAT_SCALAR, 1, &ac_id);
 715:/home/lsk/paparazzi/var/include/messages.h **** 	  trans->put_named_byte(trans->impl, dev, DL_TYPE_UINT8, DL_FORMAT_SCALAR, DL_DATALINK_REPORT, "DA
 716:/home/lsk/paparazzi/var/include/messages.h **** 	  trans->put_bytes(trans->impl, dev, DL_TYPE_UINT16, DL_FORMAT_SCALAR, 2, (void *) _uplink_lost_ti
 717:/home/lsk/paparazzi/var/include/messages.h **** 	  trans->put_bytes(trans->impl, dev, DL_TYPE_UINT16, DL_FORMAT_SCALAR, 2, (void *) _uplink_nb_msgs
 718:/home/lsk/paparazzi/var/include/messages.h **** 	  trans->put_bytes(trans->impl, dev, DL_TYPE_UINT16, DL_FORMAT_SCALAR, 2, (void *) _downlink_nb_ms
 719:/home/lsk/paparazzi/var/include/messages.h **** 	  trans->put_bytes(trans->impl, dev, DL_TYPE_UINT16, DL_FORMAT_SCALAR, 2, (void *) _downlink_rate)
 720:/home/lsk/paparazzi/var/include/messages.h **** 	  trans->put_bytes(trans->impl, dev, DL_TYPE_UINT8, DL_FORMAT_SCALAR, 1, (void *) _downlink_ovrn);
 721:/home/lsk/paparazzi/var/include/messages.h **** 	  trans->end_message(trans->impl, dev);
 722:/home/lsk/paparazzi/var/include/messages.h **** 	} else
 723:/home/lsk/paparazzi/var/include/messages.h **** 	  trans->overrun(trans->impl, dev);
 724:/home/lsk/paparazzi/var/include/messages.h **** }
 725:/home/lsk/paparazzi/var/include/messages.h **** 
 726:/home/lsk/paparazzi/var/include/messages.h **** #define DOWNLINK_SEND_DL_VALUE(_trans, _dev, index, value) pprz_msg_send_DL_VALUE(&((_trans).trans_
 727:/home/lsk/paparazzi/var/include/messages.h **** static inline void pprz_msg_send_DL_VALUE(struct transport_tx *trans, struct link_device *dev, uint
 728:/home/lsk/paparazzi/var/include/messages.h **** 	if (trans->check_available_space(trans->impl, dev, trans->size_of(trans->impl, 0+1+4 +2 /* msg hea
 729:/home/lsk/paparazzi/var/include/messages.h **** 	  trans->count_bytes(trans->impl, dev, trans->size_of(trans->impl, 0+1+4 +2 /* msg header overhead
 730:/home/lsk/paparazzi/var/include/messages.h **** 	  trans->start_message(trans->impl, dev, 0+1+4 +2 /* msg header overhead */);
 731:/home/lsk/paparazzi/var/include/messages.h **** 	  trans->put_bytes(trans->impl, dev, DL_TYPE_UINT8, DL_FORMAT_SCALAR, 1, &ac_id);
 732:/home/lsk/paparazzi/var/include/messages.h **** 	  trans->put_named_byte(trans->impl, dev, DL_TYPE_UINT8, DL_FORMAT_SCALAR, DL_DL_VALUE, "DL_VALUE"
 733:/home/lsk/paparazzi/var/include/messages.h **** 	  trans->put_bytes(trans->impl, dev, DL_TYPE_UINT8, DL_FORMAT_SCALAR, 1, (void *) _index);
 734:/home/lsk/paparazzi/var/include/messages.h **** 	  trans->put_bytes(trans->impl, dev, DL_TYPE_FLOAT, DL_FORMAT_SCALAR, 4, (void *) _value);
 735:/home/lsk/paparazzi/var/include/messages.h **** 	  trans->end_message(trans->impl, dev);
 736:/home/lsk/paparazzi/var/include/messages.h **** 	} else
 737:/home/lsk/paparazzi/var/include/messages.h **** 	  trans->overrun(trans->impl, dev);
 738:/home/lsk/paparazzi/var/include/messages.h **** }
 739:/home/lsk/paparazzi/var/include/messages.h **** 
 740:/home/lsk/paparazzi/var/include/messages.h **** #define DOWNLINK_SEND_MARK(_trans, _dev, ac_id, lat, long) pprz_msg_send_MARK(&((_trans).trans_tx),
 741:/home/lsk/paparazzi/var/include/messages.h **** static inline void pprz_msg_send_MARK(struct transport_tx *trans, struct link_device *dev, uint8_t 
 742:/home/lsk/paparazzi/var/include/messages.h **** 	if (trans->check_available_space(trans->impl, dev, trans->size_of(trans->impl, 0+1+4+4 +2 /* msg h
 743:/home/lsk/paparazzi/var/include/messages.h **** 	  trans->count_bytes(trans->impl, dev, trans->size_of(trans->impl, 0+1+4+4 +2 /* msg header overhe
 744:/home/lsk/paparazzi/var/include/messages.h **** 	  trans->start_message(trans->impl, dev, 0+1+4+4 +2 /* msg header overhead */);
 745:/home/lsk/paparazzi/var/include/messages.h **** 	  trans->put_bytes(trans->impl, dev, DL_TYPE_UINT8, DL_FORMAT_SCALAR, 1, &ac_id);
 746:/home/lsk/paparazzi/var/include/messages.h **** 	  trans->put_named_byte(trans->impl, dev, DL_TYPE_UINT8, DL_FORMAT_SCALAR, DL_MARK, "MARK");
 747:/home/lsk/paparazzi/var/include/messages.h **** 	  trans->put_bytes(trans->impl, dev, DL_TYPE_UINT8, DL_FORMAT_SCALAR, 1, (void *) _ac_id);
 748:/home/lsk/paparazzi/var/include/messages.h **** 	  trans->put_bytes(trans->impl, dev, DL_TYPE_FLOAT, DL_FORMAT_SCALAR, 4, (void *) _lat);
 749:/home/lsk/paparazzi/var/include/messages.h **** 	  trans->put_bytes(trans->impl, dev, DL_TYPE_FLOAT, DL_FORMAT_SCALAR, 4, (void *) _long);
 750:/home/lsk/paparazzi/var/include/messages.h **** 	  trans->end_message(trans->impl, dev);
 751:/home/lsk/paparazzi/var/include/messages.h **** 	} else
 752:/home/lsk/paparazzi/var/include/messages.h **** 	  trans->overrun(trans->impl, dev);
 753:/home/lsk/paparazzi/var/include/messages.h **** }
 754:/home/lsk/paparazzi/var/include/messages.h **** 
 755:/home/lsk/paparazzi/var/include/messages.h **** #define DOWNLINK_SEND_SYS_MON(_trans, _dev, periodic_time, periodic_time_min, periodic_time_max, pe
 756:/home/lsk/paparazzi/var/include/messages.h **** static inline void pprz_msg_send_SYS_MON(struct transport_tx *trans, struct link_device *dev, uint8
 757:/home/lsk/paparazzi/var/include/messages.h **** 	if (trans->check_available_space(trans->impl, dev, trans->size_of(trans->impl, 0+2+2+2+2+2+2+2+1 +
 758:/home/lsk/paparazzi/var/include/messages.h **** 	  trans->count_bytes(trans->impl, dev, trans->size_of(trans->impl, 0+2+2+2+2+2+2+2+1 +2 /* msg hea
 759:/home/lsk/paparazzi/var/include/messages.h **** 	  trans->start_message(trans->impl, dev, 0+2+2+2+2+2+2+2+1 +2 /* msg header overhead */);
 760:/home/lsk/paparazzi/var/include/messages.h **** 	  trans->put_bytes(trans->impl, dev, DL_TYPE_UINT8, DL_FORMAT_SCALAR, 1, &ac_id);
 761:/home/lsk/paparazzi/var/include/messages.h **** 	  trans->put_named_byte(trans->impl, dev, DL_TYPE_UINT8, DL_FORMAT_SCALAR, DL_SYS_MON, "SYS_MON");
 762:/home/lsk/paparazzi/var/include/messages.h **** 	  trans->put_bytes(trans->impl, dev, DL_TYPE_UINT16, DL_FORMAT_SCALAR, 2, (void *) _periodic_time)
 763:/home/lsk/paparazzi/var/include/messages.h **** 	  trans->put_bytes(trans->impl, dev, DL_TYPE_UINT16, DL_FORMAT_SCALAR, 2, (void *) _periodic_time_
 764:/home/lsk/paparazzi/var/include/messages.h **** 	  trans->put_bytes(trans->impl, dev, DL_TYPE_UINT16, DL_FORMAT_SCALAR, 2, (void *) _periodic_time_
 765:/home/lsk/paparazzi/var/include/messages.h **** 	  trans->put_bytes(trans->impl, dev, DL_TYPE_UINT16, DL_FORMAT_SCALAR, 2, (void *) _periodic_cycle
 766:/home/lsk/paparazzi/var/include/messages.h **** 	  trans->put_bytes(trans->impl, dev, DL_TYPE_UINT16, DL_FORMAT_SCALAR, 2, (void *) _periodic_cycle
 767:/home/lsk/paparazzi/var/include/messages.h **** 	  trans->put_bytes(trans->impl, dev, DL_TYPE_UINT16, DL_FORMAT_SCALAR, 2, (void *) _periodic_cycle
 768:/home/lsk/paparazzi/var/include/messages.h **** 	  trans->put_bytes(trans->impl, dev, DL_TYPE_UINT16, DL_FORMAT_SCALAR, 2, (void *) _event_number);
 769:/home/lsk/paparazzi/var/include/messages.h **** 	  trans->put_bytes(trans->impl, dev, DL_TYPE_UINT8, DL_FORMAT_SCALAR, 1, (void *) _cpu_load);
 770:/home/lsk/paparazzi/var/include/messages.h **** 	  trans->end_message(trans->impl, dev);
 771:/home/lsk/paparazzi/var/include/messages.h **** 	} else
 772:/home/lsk/paparazzi/var/include/messages.h **** 	  trans->overrun(trans->impl, dev);
 773:/home/lsk/paparazzi/var/include/messages.h **** }
 774:/home/lsk/paparazzi/var/include/messages.h **** 
 775:/home/lsk/paparazzi/var/include/messages.h **** #define DOWNLINK_SEND_MOTOR(_trans, _dev, rpm, current) pprz_msg_send_MOTOR(&((_trans).trans_tx), &
 776:/home/lsk/paparazzi/var/include/messages.h **** static inline void pprz_msg_send_MOTOR(struct transport_tx *trans, struct link_device *dev, uint8_t
 777:/home/lsk/paparazzi/var/include/messages.h **** 	if (trans->check_available_space(trans->impl, dev, trans->size_of(trans->impl, 0+2+4 +2 /* msg hea
 778:/home/lsk/paparazzi/var/include/messages.h **** 	  trans->count_bytes(trans->impl, dev, trans->size_of(trans->impl, 0+2+4 +2 /* msg header overhead
 779:/home/lsk/paparazzi/var/include/messages.h **** 	  trans->start_message(trans->impl, dev, 0+2+4 +2 /* msg header overhead */);
 780:/home/lsk/paparazzi/var/include/messages.h **** 	  trans->put_bytes(trans->impl, dev, DL_TYPE_UINT8, DL_FORMAT_SCALAR, 1, &ac_id);
 781:/home/lsk/paparazzi/var/include/messages.h **** 	  trans->put_named_byte(trans->impl, dev, DL_TYPE_UINT8, DL_FORMAT_SCALAR, DL_MOTOR, "MOTOR");
 782:/home/lsk/paparazzi/var/include/messages.h **** 	  trans->put_bytes(trans->impl, dev, DL_TYPE_UINT16, DL_FORMAT_SCALAR, 2, (void *) _rpm);
 783:/home/lsk/paparazzi/var/include/messages.h **** 	  trans->put_bytes(trans->impl, dev, DL_TYPE_INT32, DL_FORMAT_SCALAR, 4, (void *) _current);
 784:/home/lsk/paparazzi/var/include/messages.h **** 	  trans->end_message(trans->impl, dev);
 785:/home/lsk/paparazzi/var/include/messages.h **** 	} else
 786:/home/lsk/paparazzi/var/include/messages.h **** 	  trans->overrun(trans->impl, dev);
 787:/home/lsk/paparazzi/var/include/messages.h **** }
 788:/home/lsk/paparazzi/var/include/messages.h **** 
 789:/home/lsk/paparazzi/var/include/messages.h **** #define DOWNLINK_SEND_WP_MOVED(_trans, _dev, wp_id, utm_east, utm_north, alt, utm_zone) pprz_msg_se
 790:/home/lsk/paparazzi/var/include/messages.h **** static inline void pprz_msg_send_WP_MOVED(struct transport_tx *trans, struct link_device *dev, uint
 791:/home/lsk/paparazzi/var/include/messages.h **** 	if (trans->check_available_space(trans->impl, dev, trans->size_of(trans->impl, 0+1+4+4+4+1 +2 /* m
 792:/home/lsk/paparazzi/var/include/messages.h **** 	  trans->count_bytes(trans->impl, dev, trans->size_of(trans->impl, 0+1+4+4+4+1 +2 /* msg header ov
 793:/home/lsk/paparazzi/var/include/messages.h **** 	  trans->start_message(trans->impl, dev, 0+1+4+4+4+1 +2 /* msg header overhead */);
 794:/home/lsk/paparazzi/var/include/messages.h **** 	  trans->put_bytes(trans->impl, dev, DL_TYPE_UINT8, DL_FORMAT_SCALAR, 1, &ac_id);
 795:/home/lsk/paparazzi/var/include/messages.h **** 	  trans->put_named_byte(trans->impl, dev, DL_TYPE_UINT8, DL_FORMAT_SCALAR, DL_WP_MOVED, "WP_MOVED"
 796:/home/lsk/paparazzi/var/include/messages.h **** 	  trans->put_bytes(trans->impl, dev, DL_TYPE_UINT8, DL_FORMAT_SCALAR, 1, (void *) _wp_id);
 797:/home/lsk/paparazzi/var/include/messages.h **** 	  trans->put_bytes(trans->impl, dev, DL_TYPE_FLOAT, DL_FORMAT_SCALAR, 4, (void *) _utm_east);
 798:/home/lsk/paparazzi/var/include/messages.h **** 	  trans->put_bytes(trans->impl, dev, DL_TYPE_FLOAT, DL_FORMAT_SCALAR, 4, (void *) _utm_north);
 799:/home/lsk/paparazzi/var/include/messages.h **** 	  trans->put_bytes(trans->impl, dev, DL_TYPE_FLOAT, DL_FORMAT_SCALAR, 4, (void *) _alt);
 800:/home/lsk/paparazzi/var/include/messages.h **** 	  trans->put_bytes(trans->impl, dev, DL_TYPE_UINT8, DL_FORMAT_SCALAR, 1, (void *) _utm_zone);
 801:/home/lsk/paparazzi/var/include/messages.h **** 	  trans->end_message(trans->impl, dev);
 802:/home/lsk/paparazzi/var/include/messages.h **** 	} else
 803:/home/lsk/paparazzi/var/include/messages.h **** 	  trans->overrun(trans->impl, dev);
 804:/home/lsk/paparazzi/var/include/messages.h **** }
 805:/home/lsk/paparazzi/var/include/messages.h **** 
 806:/home/lsk/paparazzi/var/include/messages.h **** #define DOWNLINK_SEND_MKK(_trans, _dev, nr, rpm, current, temp) pprz_msg_send_MKK(&((_trans).trans_
 807:/home/lsk/paparazzi/var/include/messages.h **** static inline void pprz_msg_send_MKK(struct transport_tx *trans, struct link_device *dev, uint8_t a
 808:/home/lsk/paparazzi/var/include/messages.h **** 	if (trans->check_available_space(trans->impl, dev, trans->size_of(trans->impl, 0+1+1+1+1 +2 /* msg
 809:/home/lsk/paparazzi/var/include/messages.h **** 	  trans->count_bytes(trans->impl, dev, trans->size_of(trans->impl, 0+1+1+1+1 +2 /* msg header over
 810:/home/lsk/paparazzi/var/include/messages.h **** 	  trans->start_message(trans->impl, dev, 0+1+1+1+1 +2 /* msg header overhead */);
 811:/home/lsk/paparazzi/var/include/messages.h **** 	  trans->put_bytes(trans->impl, dev, DL_TYPE_UINT8, DL_FORMAT_SCALAR, 1, &ac_id);
 812:/home/lsk/paparazzi/var/include/messages.h **** 	  trans->put_named_byte(trans->impl, dev, DL_TYPE_UINT8, DL_FORMAT_SCALAR, DL_MKK, "MKK");
 813:/home/lsk/paparazzi/var/include/messages.h **** 	  trans->put_bytes(trans->impl, dev, DL_TYPE_UINT8, DL_FORMAT_SCALAR, 1, (void *) _nr);
 814:/home/lsk/paparazzi/var/include/messages.h **** 	  trans->put_bytes(trans->impl, dev, DL_TYPE_UINT8, DL_FORMAT_SCALAR, 1, (void *) _rpm);
 815:/home/lsk/paparazzi/var/include/messages.h **** 	  trans->put_bytes(trans->impl, dev, DL_TYPE_UINT8, DL_FORMAT_SCALAR, 1, (void *) _current);
 816:/home/lsk/paparazzi/var/include/messages.h **** 	  trans->put_bytes(trans->impl, dev, DL_TYPE_INT8, DL_FORMAT_SCALAR, 1, (void *) _temp);
 817:/home/lsk/paparazzi/var/include/messages.h **** 	  trans->end_message(trans->impl, dev);
 818:/home/lsk/paparazzi/var/include/messages.h **** 	} else
 819:/home/lsk/paparazzi/var/include/messages.h **** 	  trans->overrun(trans->impl, dev);
 820:/home/lsk/paparazzi/var/include/messages.h **** }
 821:/home/lsk/paparazzi/var/include/messages.h **** 
 822:/home/lsk/paparazzi/var/include/messages.h **** #define DOWNLINK_SEND_ENERGY(_trans, _dev, bat, amp, energy, power) pprz_msg_send_ENERGY(&((_trans)
 823:/home/lsk/paparazzi/var/include/messages.h **** static inline void pprz_msg_send_ENERGY(struct transport_tx *trans, struct link_device *dev, uint8_
 824:/home/lsk/paparazzi/var/include/messages.h **** 	if (trans->check_available_space(trans->impl, dev, trans->size_of(trans->impl, 0+4+4+2+4 +2 /* msg
 825:/home/lsk/paparazzi/var/include/messages.h **** 	  trans->count_bytes(trans->impl, dev, trans->size_of(trans->impl, 0+4+4+2+4 +2 /* msg header over
 826:/home/lsk/paparazzi/var/include/messages.h **** 	  trans->start_message(trans->impl, dev, 0+4+4+2+4 +2 /* msg header overhead */);
 827:/home/lsk/paparazzi/var/include/messages.h **** 	  trans->put_bytes(trans->impl, dev, DL_TYPE_UINT8, DL_FORMAT_SCALAR, 1, &ac_id);
 828:/home/lsk/paparazzi/var/include/messages.h **** 	  trans->put_named_byte(trans->impl, dev, DL_TYPE_UINT8, DL_FORMAT_SCALAR, DL_ENERGY, "ENERGY");
 829:/home/lsk/paparazzi/var/include/messages.h **** 	  trans->put_bytes(trans->impl, dev, DL_TYPE_FLOAT, DL_FORMAT_SCALAR, 4, (void *) _bat);
 830:/home/lsk/paparazzi/var/include/messages.h **** 	  trans->put_bytes(trans->impl, dev, DL_TYPE_FLOAT, DL_FORMAT_SCALAR, 4, (void *) _amp);
 831:/home/lsk/paparazzi/var/include/messages.h **** 	  trans->put_bytes(trans->impl, dev, DL_TYPE_UINT16, DL_FORMAT_SCALAR, 2, (void *) _energy);
 832:/home/lsk/paparazzi/var/include/messages.h **** 	  trans->put_bytes(trans->impl, dev, DL_TYPE_FLOAT, DL_FORMAT_SCALAR, 4, (void *) _power);
 833:/home/lsk/paparazzi/var/include/messages.h **** 	  trans->end_message(trans->impl, dev);
 834:/home/lsk/paparazzi/var/include/messages.h **** 	} else
 835:/home/lsk/paparazzi/var/include/messages.h **** 	  trans->overrun(trans->impl, dev);
 836:/home/lsk/paparazzi/var/include/messages.h **** }
 837:/home/lsk/paparazzi/var/include/messages.h **** 
 838:/home/lsk/paparazzi/var/include/messages.h **** #define DOWNLINK_SEND_BARO_BMP85_CALIB(_trans, _dev, a1, a2, a3, a4, a5, a6, b1, b2, mb, mc, md) pp
 839:/home/lsk/paparazzi/var/include/messages.h **** static inline void pprz_msg_send_BARO_BMP85_CALIB(struct transport_tx *trans, struct link_device *d
 840:/home/lsk/paparazzi/var/include/messages.h **** 	if (trans->check_available_space(trans->impl, dev, trans->size_of(trans->impl, 0+2+2+2+2+2+2+2+2+2
 841:/home/lsk/paparazzi/var/include/messages.h **** 	  trans->count_bytes(trans->impl, dev, trans->size_of(trans->impl, 0+2+2+2+2+2+2+2+2+2+2+2 +2 /* m
 842:/home/lsk/paparazzi/var/include/messages.h **** 	  trans->start_message(trans->impl, dev, 0+2+2+2+2+2+2+2+2+2+2+2 +2 /* msg header overhead */);
 843:/home/lsk/paparazzi/var/include/messages.h **** 	  trans->put_bytes(trans->impl, dev, DL_TYPE_UINT8, DL_FORMAT_SCALAR, 1, &ac_id);
 844:/home/lsk/paparazzi/var/include/messages.h **** 	  trans->put_named_byte(trans->impl, dev, DL_TYPE_UINT8, DL_FORMAT_SCALAR, DL_BARO_BMP85_CALIB, "B
 845:/home/lsk/paparazzi/var/include/messages.h **** 	  trans->put_bytes(trans->impl, dev, DL_TYPE_INT16, DL_FORMAT_SCALAR, 2, (void *) _a1);
 846:/home/lsk/paparazzi/var/include/messages.h **** 	  trans->put_bytes(trans->impl, dev, DL_TYPE_INT16, DL_FORMAT_SCALAR, 2, (void *) _a2);
 847:/home/lsk/paparazzi/var/include/messages.h **** 	  trans->put_bytes(trans->impl, dev, DL_TYPE_INT16, DL_FORMAT_SCALAR, 2, (void *) _a3);
 848:/home/lsk/paparazzi/var/include/messages.h **** 	  trans->put_bytes(trans->impl, dev, DL_TYPE_UINT16, DL_FORMAT_SCALAR, 2, (void *) _a4);
 849:/home/lsk/paparazzi/var/include/messages.h **** 	  trans->put_bytes(trans->impl, dev, DL_TYPE_UINT16, DL_FORMAT_SCALAR, 2, (void *) _a5);
 850:/home/lsk/paparazzi/var/include/messages.h **** 	  trans->put_bytes(trans->impl, dev, DL_TYPE_UINT16, DL_FORMAT_SCALAR, 2, (void *) _a6);
 851:/home/lsk/paparazzi/var/include/messages.h **** 	  trans->put_bytes(trans->impl, dev, DL_TYPE_INT16, DL_FORMAT_SCALAR, 2, (void *) _b1);
 852:/home/lsk/paparazzi/var/include/messages.h **** 	  trans->put_bytes(trans->impl, dev, DL_TYPE_INT16, DL_FORMAT_SCALAR, 2, (void *) _b2);
 853:/home/lsk/paparazzi/var/include/messages.h **** 	  trans->put_bytes(trans->impl, dev, DL_TYPE_INT16, DL_FORMAT_SCALAR, 2, (void *) _mb);
 854:/home/lsk/paparazzi/var/include/messages.h **** 	  trans->put_bytes(trans->impl, dev, DL_TYPE_INT16, DL_FORMAT_SCALAR, 2, (void *) _mc);
 855:/home/lsk/paparazzi/var/include/messages.h **** 	  trans->put_bytes(trans->impl, dev, DL_TYPE_INT16, DL_FORMAT_SCALAR, 2, (void *) _md);
 856:/home/lsk/paparazzi/var/include/messages.h **** 	  trans->end_message(trans->impl, dev);
 857:/home/lsk/paparazzi/var/include/messages.h **** 	} else
 858:/home/lsk/paparazzi/var/include/messages.h **** 	  trans->overrun(trans->impl, dev);
 859:/home/lsk/paparazzi/var/include/messages.h **** }
 860:/home/lsk/paparazzi/var/include/messages.h **** 
 861:/home/lsk/paparazzi/var/include/messages.h **** #define DOWNLINK_SEND_BARO_BMP85(_trans, _dev, UT, UP, P, T, MSL) pprz_msg_send_BARO_BMP85(&((_tran
 862:/home/lsk/paparazzi/var/include/messages.h **** static inline void pprz_msg_send_BARO_BMP85(struct transport_tx *trans, struct link_device *dev, ui
 863:/home/lsk/paparazzi/var/include/messages.h **** 	if (trans->check_available_space(trans->impl, dev, trans->size_of(trans->impl, 0+4+4+4+4+4 +2 /* m
 864:/home/lsk/paparazzi/var/include/messages.h **** 	  trans->count_bytes(trans->impl, dev, trans->size_of(trans->impl, 0+4+4+4+4+4 +2 /* msg header ov
 865:/home/lsk/paparazzi/var/include/messages.h **** 	  trans->start_message(trans->impl, dev, 0+4+4+4+4+4 +2 /* msg header overhead */);
 866:/home/lsk/paparazzi/var/include/messages.h **** 	  trans->put_bytes(trans->impl, dev, DL_TYPE_UINT8, DL_FORMAT_SCALAR, 1, &ac_id);
 867:/home/lsk/paparazzi/var/include/messages.h **** 	  trans->put_named_byte(trans->impl, dev, DL_TYPE_UINT8, DL_FORMAT_SCALAR, DL_BARO_BMP85, "BARO_BM
 868:/home/lsk/paparazzi/var/include/messages.h **** 	  trans->put_bytes(trans->impl, dev, DL_TYPE_INT32, DL_FORMAT_SCALAR, 4, (void *) _UT);
 869:/home/lsk/paparazzi/var/include/messages.h **** 	  trans->put_bytes(trans->impl, dev, DL_TYPE_INT32, DL_FORMAT_SCALAR, 4, (void *) _UP);
 870:/home/lsk/paparazzi/var/include/messages.h **** 	  trans->put_bytes(trans->impl, dev, DL_TYPE_UINT32, DL_FORMAT_SCALAR, 4, (void *) _P);
 871:/home/lsk/paparazzi/var/include/messages.h **** 	  trans->put_bytes(trans->impl, dev, DL_TYPE_FLOAT, DL_FORMAT_SCALAR, 4, (void *) _T);
 872:/home/lsk/paparazzi/var/include/messages.h **** 	  trans->put_bytes(trans->impl, dev, DL_TYPE_FLOAT, DL_FORMAT_SCALAR, 4, (void *) _MSL);
 873:/home/lsk/paparazzi/var/include/messages.h **** 	  trans->end_message(trans->impl, dev);
 874:/home/lsk/paparazzi/var/include/messages.h **** 	} else
 875:/home/lsk/paparazzi/var/include/messages.h **** 	  trans->overrun(trans->impl, dev);
 876:/home/lsk/paparazzi/var/include/messages.h **** }
 877:/home/lsk/paparazzi/var/include/messages.h **** 
 878:/home/lsk/paparazzi/var/include/messages.h **** #define DOWNLINK_SEND_SPEED_LOOP(_trans, _dev, ve_set_point, ve, vn_set_point, vn, north_sp, east_s
 879:/home/lsk/paparazzi/var/include/messages.h **** static inline void pprz_msg_send_SPEED_LOOP(struct transport_tx *trans, struct link_device *dev, ui
 880:/home/lsk/paparazzi/var/include/messages.h **** 	if (trans->check_available_space(trans->impl, dev, trans->size_of(trans->impl, 0+4+4+4+4+4+4 +2 /*
 881:/home/lsk/paparazzi/var/include/messages.h **** 	  trans->count_bytes(trans->impl, dev, trans->size_of(trans->impl, 0+4+4+4+4+4+4 +2 /* msg header 
 882:/home/lsk/paparazzi/var/include/messages.h **** 	  trans->start_message(trans->impl, dev, 0+4+4+4+4+4+4 +2 /* msg header overhead */);
 883:/home/lsk/paparazzi/var/include/messages.h **** 	  trans->put_bytes(trans->impl, dev, DL_TYPE_UINT8, DL_FORMAT_SCALAR, 1, &ac_id);
 884:/home/lsk/paparazzi/var/include/messages.h **** 	  trans->put_named_byte(trans->impl, dev, DL_TYPE_UINT8, DL_FORMAT_SCALAR, DL_SPEED_LOOP, "SPEED_L
 885:/home/lsk/paparazzi/var/include/messages.h **** 	  trans->put_bytes(trans->impl, dev, DL_TYPE_FLOAT, DL_FORMAT_SCALAR, 4, (void *) _ve_set_point);
 886:/home/lsk/paparazzi/var/include/messages.h **** 	  trans->put_bytes(trans->impl, dev, DL_TYPE_FLOAT, DL_FORMAT_SCALAR, 4, (void *) _ve);
 887:/home/lsk/paparazzi/var/include/messages.h **** 	  trans->put_bytes(trans->impl, dev, DL_TYPE_FLOAT, DL_FORMAT_SCALAR, 4, (void *) _vn_set_point);
 888:/home/lsk/paparazzi/var/include/messages.h **** 	  trans->put_bytes(trans->impl, dev, DL_TYPE_FLOAT, DL_FORMAT_SCALAR, 4, (void *) _vn);
 889:/home/lsk/paparazzi/var/include/messages.h **** 	  trans->put_bytes(trans->impl, dev, DL_TYPE_FLOAT, DL_FORMAT_SCALAR, 4, (void *) _north_sp);
 890:/home/lsk/paparazzi/var/include/messages.h **** 	  trans->put_bytes(trans->impl, dev, DL_TYPE_FLOAT, DL_FORMAT_SCALAR, 4, (void *) _east_sp);
 891:/home/lsk/paparazzi/var/include/messages.h **** 	  trans->end_message(trans->impl, dev);
 892:/home/lsk/paparazzi/var/include/messages.h **** 	} else
 893:/home/lsk/paparazzi/var/include/messages.h **** 	  trans->overrun(trans->impl, dev);
 894:/home/lsk/paparazzi/var/include/messages.h **** }
 895:/home/lsk/paparazzi/var/include/messages.h **** 
 896:/home/lsk/paparazzi/var/include/messages.h **** #define DOWNLINK_SEND_ALT_KALMAN(_trans, _dev, p00, p01, p10, p11) pprz_msg_send_ALT_KALMAN(&((_tra
 897:/home/lsk/paparazzi/var/include/messages.h **** static inline void pprz_msg_send_ALT_KALMAN(struct transport_tx *trans, struct link_device *dev, ui
 898:/home/lsk/paparazzi/var/include/messages.h **** 	if (trans->check_available_space(trans->impl, dev, trans->size_of(trans->impl, 0+4+4+4+4 +2 /* msg
 899:/home/lsk/paparazzi/var/include/messages.h **** 	  trans->count_bytes(trans->impl, dev, trans->size_of(trans->impl, 0+4+4+4+4 +2 /* msg header over
 900:/home/lsk/paparazzi/var/include/messages.h **** 	  trans->start_message(trans->impl, dev, 0+4+4+4+4 +2 /* msg header overhead */);
 901:/home/lsk/paparazzi/var/include/messages.h **** 	  trans->put_bytes(trans->impl, dev, DL_TYPE_UINT8, DL_FORMAT_SCALAR, 1, &ac_id);
 902:/home/lsk/paparazzi/var/include/messages.h **** 	  trans->put_named_byte(trans->impl, dev, DL_TYPE_UINT8, DL_FORMAT_SCALAR, DL_ALT_KALMAN, "ALT_KAL
 903:/home/lsk/paparazzi/var/include/messages.h **** 	  trans->put_bytes(trans->impl, dev, DL_TYPE_FLOAT, DL_FORMAT_SCALAR, 4, (void *) _p00);
 904:/home/lsk/paparazzi/var/include/messages.h **** 	  trans->put_bytes(trans->impl, dev, DL_TYPE_FLOAT, DL_FORMAT_SCALAR, 4, (void *) _p01);
 905:/home/lsk/paparazzi/var/include/messages.h **** 	  trans->put_bytes(trans->impl, dev, DL_TYPE_FLOAT, DL_FORMAT_SCALAR, 4, (void *) _p10);
 906:/home/lsk/paparazzi/var/include/messages.h **** 	  trans->put_bytes(trans->impl, dev, DL_TYPE_FLOAT, DL_FORMAT_SCALAR, 4, (void *) _p11);
 907:/home/lsk/paparazzi/var/include/messages.h **** 	  trans->end_message(trans->impl, dev);
 908:/home/lsk/paparazzi/var/include/messages.h **** 	} else
 909:/home/lsk/paparazzi/var/include/messages.h **** 	  trans->overrun(trans->impl, dev);
 910:/home/lsk/paparazzi/var/include/messages.h **** }
 911:/home/lsk/paparazzi/var/include/messages.h **** 
 912:/home/lsk/paparazzi/var/include/messages.h **** #define DOWNLINK_SEND_ESTIMATOR(_trans, _dev, z, z_dot) pprz_msg_send_ESTIMATOR(&((_trans).trans_tx
 913:/home/lsk/paparazzi/var/include/messages.h **** static inline void pprz_msg_send_ESTIMATOR(struct transport_tx *trans, struct link_device *dev, uin
 914:/home/lsk/paparazzi/var/include/messages.h **** 	if (trans->check_available_space(trans->impl, dev, trans->size_of(trans->impl, 0+4+4 +2 /* msg hea
 915:/home/lsk/paparazzi/var/include/messages.h **** 	  trans->count_bytes(trans->impl, dev, trans->size_of(trans->impl, 0+4+4 +2 /* msg header overhead
 916:/home/lsk/paparazzi/var/include/messages.h **** 	  trans->start_message(trans->impl, dev, 0+4+4 +2 /* msg header overhead */);
 917:/home/lsk/paparazzi/var/include/messages.h **** 	  trans->put_bytes(trans->impl, dev, DL_TYPE_UINT8, DL_FORMAT_SCALAR, 1, &ac_id);
 918:/home/lsk/paparazzi/var/include/messages.h **** 	  trans->put_named_byte(trans->impl, dev, DL_TYPE_UINT8, DL_FORMAT_SCALAR, DL_ESTIMATOR, "ESTIMATO
 919:/home/lsk/paparazzi/var/include/messages.h **** 	  trans->put_bytes(trans->impl, dev, DL_TYPE_FLOAT, DL_FORMAT_SCALAR, 4, (void *) _z);
 920:/home/lsk/paparazzi/var/include/messages.h **** 	  trans->put_bytes(trans->impl, dev, DL_TYPE_FLOAT, DL_FORMAT_SCALAR, 4, (void *) _z_dot);
 921:/home/lsk/paparazzi/var/include/messages.h **** 	  trans->end_message(trans->impl, dev);
 922:/home/lsk/paparazzi/var/include/messages.h **** 	} else
 923:/home/lsk/paparazzi/var/include/messages.h **** 	  trans->overrun(trans->impl, dev);
 924:/home/lsk/paparazzi/var/include/messages.h **** }
 925:/home/lsk/paparazzi/var/include/messages.h **** 
 926:/home/lsk/paparazzi/var/include/messages.h **** #define DOWNLINK_SEND_TUNE_ROLL(_trans, _dev, p, phi, phi_sp) pprz_msg_send_TUNE_ROLL(&((_trans).tr
 927:/home/lsk/paparazzi/var/include/messages.h **** static inline void pprz_msg_send_TUNE_ROLL(struct transport_tx *trans, struct link_device *dev, uin
 928:/home/lsk/paparazzi/var/include/messages.h **** 	if (trans->check_available_space(trans->impl, dev, trans->size_of(trans->impl, 0+4+4+4 +2 /* msg h
 929:/home/lsk/paparazzi/var/include/messages.h **** 	  trans->count_bytes(trans->impl, dev, trans->size_of(trans->impl, 0+4+4+4 +2 /* msg header overhe
 930:/home/lsk/paparazzi/var/include/messages.h **** 	  trans->start_message(trans->impl, dev, 0+4+4+4 +2 /* msg header overhead */);
 931:/home/lsk/paparazzi/var/include/messages.h **** 	  trans->put_bytes(trans->impl, dev, DL_TYPE_UINT8, DL_FORMAT_SCALAR, 1, &ac_id);
 932:/home/lsk/paparazzi/var/include/messages.h **** 	  trans->put_named_byte(trans->impl, dev, DL_TYPE_UINT8, DL_FORMAT_SCALAR, DL_TUNE_ROLL, "TUNE_ROL
 933:/home/lsk/paparazzi/var/include/messages.h **** 	  trans->put_bytes(trans->impl, dev, DL_TYPE_FLOAT, DL_FORMAT_SCALAR, 4, (void *) _p);
 934:/home/lsk/paparazzi/var/include/messages.h **** 	  trans->put_bytes(trans->impl, dev, DL_TYPE_FLOAT, DL_FORMAT_SCALAR, 4, (void *) _phi);
 935:/home/lsk/paparazzi/var/include/messages.h **** 	  trans->put_bytes(trans->impl, dev, DL_TYPE_FLOAT, DL_FORMAT_SCALAR, 4, (void *) _phi_sp);
 936:/home/lsk/paparazzi/var/include/messages.h **** 	  trans->end_message(trans->impl, dev);
 937:/home/lsk/paparazzi/var/include/messages.h **** 	} else
 938:/home/lsk/paparazzi/var/include/messages.h **** 	  trans->overrun(trans->impl, dev);
 939:/home/lsk/paparazzi/var/include/messages.h **** }
 940:/home/lsk/paparazzi/var/include/messages.h **** 
 941:/home/lsk/paparazzi/var/include/messages.h **** #define DOWNLINK_SEND_BARO_MS5534A(_trans, _dev, pressure, temp, alt) pprz_msg_send_BARO_MS5534A(&(
 942:/home/lsk/paparazzi/var/include/messages.h **** static inline void pprz_msg_send_BARO_MS5534A(struct transport_tx *trans, struct link_device *dev, 
 943:/home/lsk/paparazzi/var/include/messages.h **** 	if (trans->check_available_space(trans->impl, dev, trans->size_of(trans->impl, 0+4+2+4 +2 /* msg h
 944:/home/lsk/paparazzi/var/include/messages.h **** 	  trans->count_bytes(trans->impl, dev, trans->size_of(trans->impl, 0+4+2+4 +2 /* msg header overhe
 945:/home/lsk/paparazzi/var/include/messages.h **** 	  trans->start_message(trans->impl, dev, 0+4+2+4 +2 /* msg header overhead */);
 946:/home/lsk/paparazzi/var/include/messages.h **** 	  trans->put_bytes(trans->impl, dev, DL_TYPE_UINT8, DL_FORMAT_SCALAR, 1, &ac_id);
 947:/home/lsk/paparazzi/var/include/messages.h **** 	  trans->put_named_byte(trans->impl, dev, DL_TYPE_UINT8, DL_FORMAT_SCALAR, DL_BARO_MS5534A, "BARO_
 948:/home/lsk/paparazzi/var/include/messages.h **** 	  trans->put_bytes(trans->impl, dev, DL_TYPE_UINT32, DL_FORMAT_SCALAR, 4, (void *) _pressure);
 949:/home/lsk/paparazzi/var/include/messages.h **** 	  trans->put_bytes(trans->impl, dev, DL_TYPE_UINT16, DL_FORMAT_SCALAR, 2, (void *) _temp);
 950:/home/lsk/paparazzi/var/include/messages.h **** 	  trans->put_bytes(trans->impl, dev, DL_TYPE_FLOAT, DL_FORMAT_SCALAR, 4, (void *) _alt);
 951:/home/lsk/paparazzi/var/include/messages.h **** 	  trans->end_message(trans->impl, dev);
 952:/home/lsk/paparazzi/var/include/messages.h **** 	} else
 953:/home/lsk/paparazzi/var/include/messages.h **** 	  trans->overrun(trans->impl, dev);
 954:/home/lsk/paparazzi/var/include/messages.h **** }
 955:/home/lsk/paparazzi/var/include/messages.h **** 
 956:/home/lsk/paparazzi/var/include/messages.h **** #define DOWNLINK_SEND_PRESSURE(_trans, _dev, airspeed_adc, airspeed, altitude_adc, altitude) pprz_m
 957:/home/lsk/paparazzi/var/include/messages.h **** static inline void pprz_msg_send_PRESSURE(struct transport_tx *trans, struct link_device *dev, uint
 958:/home/lsk/paparazzi/var/include/messages.h **** 	if (trans->check_available_space(trans->impl, dev, trans->size_of(trans->impl, 0+4+4+4+4 +2 /* msg
 959:/home/lsk/paparazzi/var/include/messages.h **** 	  trans->count_bytes(trans->impl, dev, trans->size_of(trans->impl, 0+4+4+4+4 +2 /* msg header over
 960:/home/lsk/paparazzi/var/include/messages.h **** 	  trans->start_message(trans->impl, dev, 0+4+4+4+4 +2 /* msg header overhead */);
 961:/home/lsk/paparazzi/var/include/messages.h **** 	  trans->put_bytes(trans->impl, dev, DL_TYPE_UINT8, DL_FORMAT_SCALAR, 1, &ac_id);
 962:/home/lsk/paparazzi/var/include/messages.h **** 	  trans->put_named_byte(trans->impl, dev, DL_TYPE_UINT8, DL_FORMAT_SCALAR, DL_PRESSURE, "PRESSURE"
 963:/home/lsk/paparazzi/var/include/messages.h **** 	  trans->put_bytes(trans->impl, dev, DL_TYPE_FLOAT, DL_FORMAT_SCALAR, 4, (void *) _airspeed_adc);
 964:/home/lsk/paparazzi/var/include/messages.h **** 	  trans->put_bytes(trans->impl, dev, DL_TYPE_FLOAT, DL_FORMAT_SCALAR, 4, (void *) _airspeed);
 965:/home/lsk/paparazzi/var/include/messages.h **** 	  trans->put_bytes(trans->impl, dev, DL_TYPE_FLOAT, DL_FORMAT_SCALAR, 4, (void *) _altitude_adc);
 966:/home/lsk/paparazzi/var/include/messages.h **** 	  trans->put_bytes(trans->impl, dev, DL_TYPE_FLOAT, DL_FORMAT_SCALAR, 4, (void *) _altitude);
 967:/home/lsk/paparazzi/var/include/messages.h **** 	  trans->end_message(trans->impl, dev);
 968:/home/lsk/paparazzi/var/include/messages.h **** 	} else
 969:/home/lsk/paparazzi/var/include/messages.h **** 	  trans->overrun(trans->impl, dev);
 970:/home/lsk/paparazzi/var/include/messages.h **** }
 971:/home/lsk/paparazzi/var/include/messages.h **** 
 972:/home/lsk/paparazzi/var/include/messages.h **** #define DOWNLINK_SEND_BARO_WORDS(_trans, _dev, w1, w2, w3, w4) pprz_msg_send_BARO_WORDS(&((_trans).
 973:/home/lsk/paparazzi/var/include/messages.h **** static inline void pprz_msg_send_BARO_WORDS(struct transport_tx *trans, struct link_device *dev, ui
 974:/home/lsk/paparazzi/var/include/messages.h **** 	if (trans->check_available_space(trans->impl, dev, trans->size_of(trans->impl, 0+2+2+2+2 +2 /* msg
 975:/home/lsk/paparazzi/var/include/messages.h **** 	  trans->count_bytes(trans->impl, dev, trans->size_of(trans->impl, 0+2+2+2+2 +2 /* msg header over
 976:/home/lsk/paparazzi/var/include/messages.h **** 	  trans->start_message(trans->impl, dev, 0+2+2+2+2 +2 /* msg header overhead */);
 977:/home/lsk/paparazzi/var/include/messages.h **** 	  trans->put_bytes(trans->impl, dev, DL_TYPE_UINT8, DL_FORMAT_SCALAR, 1, &ac_id);
 978:/home/lsk/paparazzi/var/include/messages.h **** 	  trans->put_named_byte(trans->impl, dev, DL_TYPE_UINT8, DL_FORMAT_SCALAR, DL_BARO_WORDS, "BARO_WO
 979:/home/lsk/paparazzi/var/include/messages.h **** 	  trans->put_bytes(trans->impl, dev, DL_TYPE_UINT16, DL_FORMAT_SCALAR, 2, (void *) _w1);
 980:/home/lsk/paparazzi/var/include/messages.h **** 	  trans->put_bytes(trans->impl, dev, DL_TYPE_UINT16, DL_FORMAT_SCALAR, 2, (void *) _w2);
 981:/home/lsk/paparazzi/var/include/messages.h **** 	  trans->put_bytes(trans->impl, dev, DL_TYPE_UINT16, DL_FORMAT_SCALAR, 2, (void *) _w3);
 982:/home/lsk/paparazzi/var/include/messages.h **** 	  trans->put_bytes(trans->impl, dev, DL_TYPE_UINT16, DL_FORMAT_SCALAR, 2, (void *) _w4);
 983:/home/lsk/paparazzi/var/include/messages.h **** 	  trans->end_message(trans->impl, dev);
 984:/home/lsk/paparazzi/var/include/messages.h **** 	} else
 985:/home/lsk/paparazzi/var/include/messages.h **** 	  trans->overrun(trans->impl, dev);
 986:/home/lsk/paparazzi/var/include/messages.h **** }
 987:/home/lsk/paparazzi/var/include/messages.h **** 
 988:/home/lsk/paparazzi/var/include/messages.h **** #define DOWNLINK_SEND_WP_MOVED_LLA(_trans, _dev, wp_id, lat, lon, alt) pprz_msg_send_WP_MOVED_LLA(&
 989:/home/lsk/paparazzi/var/include/messages.h **** static inline void pprz_msg_send_WP_MOVED_LLA(struct transport_tx *trans, struct link_device *dev, 
 990:/home/lsk/paparazzi/var/include/messages.h **** 	if (trans->check_available_space(trans->impl, dev, trans->size_of(trans->impl, 0+1+4+4+4 +2 /* msg
 991:/home/lsk/paparazzi/var/include/messages.h **** 	  trans->count_bytes(trans->impl, dev, trans->size_of(trans->impl, 0+1+4+4+4 +2 /* msg header over
 992:/home/lsk/paparazzi/var/include/messages.h **** 	  trans->start_message(trans->impl, dev, 0+1+4+4+4 +2 /* msg header overhead */);
 993:/home/lsk/paparazzi/var/include/messages.h **** 	  trans->put_bytes(trans->impl, dev, DL_TYPE_UINT8, DL_FORMAT_SCALAR, 1, &ac_id);
 994:/home/lsk/paparazzi/var/include/messages.h **** 	  trans->put_named_byte(trans->impl, dev, DL_TYPE_UINT8, DL_FORMAT_SCALAR, DL_WP_MOVED_LLA, "WP_MO
 995:/home/lsk/paparazzi/var/include/messages.h **** 	  trans->put_bytes(trans->impl, dev, DL_TYPE_UINT8, DL_FORMAT_SCALAR, 1, (void *) _wp_id);
 996:/home/lsk/paparazzi/var/include/messages.h **** 	  trans->put_bytes(trans->impl, dev, DL_TYPE_INT32, DL_FORMAT_SCALAR, 4, (void *) _lat);
 997:/home/lsk/paparazzi/var/include/messages.h **** 	  trans->put_bytes(trans->impl, dev, DL_TYPE_INT32, DL_FORMAT_SCALAR, 4, (void *) _lon);
 998:/home/lsk/paparazzi/var/include/messages.h **** 	  trans->put_bytes(trans->impl, dev, DL_TYPE_INT32, DL_FORMAT_SCALAR, 4, (void *) _alt);
 999:/home/lsk/paparazzi/var/include/messages.h **** 	  trans->end_message(trans->impl, dev);
1000:/home/lsk/paparazzi/var/include/messages.h **** 	} else
1001:/home/lsk/paparazzi/var/include/messages.h **** 	  trans->overrun(trans->impl, dev);
1002:/home/lsk/paparazzi/var/include/messages.h **** }
1003:/home/lsk/paparazzi/var/include/messages.h **** 
1004:/home/lsk/paparazzi/var/include/messages.h **** #define DOWNLINK_SEND_CHRONO(_trans, _dev, tag, time) pprz_msg_send_CHRONO(&((_trans).trans_tx), &(
1005:/home/lsk/paparazzi/var/include/messages.h **** static inline void pprz_msg_send_CHRONO(struct transport_tx *trans, struct link_device *dev, uint8_
1006:/home/lsk/paparazzi/var/include/messages.h **** 	if (trans->check_available_space(trans->impl, dev, trans->size_of(trans->impl, 0+1+4 +2 /* msg hea
1007:/home/lsk/paparazzi/var/include/messages.h **** 	  trans->count_bytes(trans->impl, dev, trans->size_of(trans->impl, 0+1+4 +2 /* msg header overhead
1008:/home/lsk/paparazzi/var/include/messages.h **** 	  trans->start_message(trans->impl, dev, 0+1+4 +2 /* msg header overhead */);
1009:/home/lsk/paparazzi/var/include/messages.h **** 	  trans->put_bytes(trans->impl, dev, DL_TYPE_UINT8, DL_FORMAT_SCALAR, 1, &ac_id);
1010:/home/lsk/paparazzi/var/include/messages.h **** 	  trans->put_named_byte(trans->impl, dev, DL_TYPE_UINT8, DL_FORMAT_SCALAR, DL_CHRONO, "CHRONO");
1011:/home/lsk/paparazzi/var/include/messages.h **** 	  trans->put_bytes(trans->impl, dev, DL_TYPE_UINT8, DL_FORMAT_SCALAR, 1, (void *) _tag);
1012:/home/lsk/paparazzi/var/include/messages.h **** 	  trans->put_bytes(trans->impl, dev, DL_TYPE_UINT32, DL_FORMAT_SCALAR, 4, (void *) _time);
1013:/home/lsk/paparazzi/var/include/messages.h **** 	  trans->end_message(trans->impl, dev);
1014:/home/lsk/paparazzi/var/include/messages.h **** 	} else
1015:/home/lsk/paparazzi/var/include/messages.h **** 	  trans->overrun(trans->impl, dev);
1016:/home/lsk/paparazzi/var/include/messages.h **** }
1017:/home/lsk/paparazzi/var/include/messages.h **** 
1018:/home/lsk/paparazzi/var/include/messages.h **** #define DOWNLINK_SEND_WP_MOVED_ENU(_trans, _dev, wp_id, east, north, up) pprz_msg_send_WP_MOVED_ENU
1019:/home/lsk/paparazzi/var/include/messages.h **** static inline void pprz_msg_send_WP_MOVED_ENU(struct transport_tx *trans, struct link_device *dev, 
1020:/home/lsk/paparazzi/var/include/messages.h **** 	if (trans->check_available_space(trans->impl, dev, trans->size_of(trans->impl, 0+1+4+4+4 +2 /* msg
1021:/home/lsk/paparazzi/var/include/messages.h **** 	  trans->count_bytes(trans->impl, dev, trans->size_of(trans->impl, 0+1+4+4+4 +2 /* msg header over
1022:/home/lsk/paparazzi/var/include/messages.h **** 	  trans->start_message(trans->impl, dev, 0+1+4+4+4 +2 /* msg header overhead */);
1023:/home/lsk/paparazzi/var/include/messages.h **** 	  trans->put_bytes(trans->impl, dev, DL_TYPE_UINT8, DL_FORMAT_SCALAR, 1, &ac_id);
1024:/home/lsk/paparazzi/var/include/messages.h **** 	  trans->put_named_byte(trans->impl, dev, DL_TYPE_UINT8, DL_FORMAT_SCALAR, DL_WP_MOVED_ENU, "WP_MO
1025:/home/lsk/paparazzi/var/include/messages.h **** 	  trans->put_bytes(trans->impl, dev, DL_TYPE_UINT8, DL_FORMAT_SCALAR, 1, (void *) _wp_id);
1026:/home/lsk/paparazzi/var/include/messages.h **** 	  trans->put_bytes(trans->impl, dev, DL_TYPE_INT32, DL_FORMAT_SCALAR, 4, (void *) _east);
1027:/home/lsk/paparazzi/var/include/messages.h **** 	  trans->put_bytes(trans->impl, dev, DL_TYPE_INT32, DL_FORMAT_SCALAR, 4, (void *) _north);
1028:/home/lsk/paparazzi/var/include/messages.h **** 	  trans->put_bytes(trans->impl, dev, DL_TYPE_INT32, DL_FORMAT_SCALAR, 4, (void *) _up);
1029:/home/lsk/paparazzi/var/include/messages.h **** 	  trans->end_message(trans->impl, dev);
1030:/home/lsk/paparazzi/var/include/messages.h **** 	} else
1031:/home/lsk/paparazzi/var/include/messages.h **** 	  trans->overrun(trans->impl, dev);
1032:/home/lsk/paparazzi/var/include/messages.h **** }
1033:/home/lsk/paparazzi/var/include/messages.h **** 
1034:/home/lsk/paparazzi/var/include/messages.h **** #define DOWNLINK_SEND_WINDTURBINE_STATUS_(_trans, _dev, ac_id, tb_id, sync_itow, cycle_time) pprz_m
1035:/home/lsk/paparazzi/var/include/messages.h **** static inline void pprz_msg_send_WINDTURBINE_STATUS_(struct transport_tx *trans, struct link_device
1036:/home/lsk/paparazzi/var/include/messages.h **** 	if (trans->check_available_space(trans->impl, dev, trans->size_of(trans->impl, 0+1+1+4+4 +2 /* msg
1037:/home/lsk/paparazzi/var/include/messages.h **** 	  trans->count_bytes(trans->impl, dev, trans->size_of(trans->impl, 0+1+1+4+4 +2 /* msg header over
1038:/home/lsk/paparazzi/var/include/messages.h **** 	  trans->start_message(trans->impl, dev, 0+1+1+4+4 +2 /* msg header overhead */);
1039:/home/lsk/paparazzi/var/include/messages.h **** 	  trans->put_bytes(trans->impl, dev, DL_TYPE_UINT8, DL_FORMAT_SCALAR, 1, &ac_id);
1040:/home/lsk/paparazzi/var/include/messages.h **** 	  trans->put_named_byte(trans->impl, dev, DL_TYPE_UINT8, DL_FORMAT_SCALAR, DL_WINDTURBINE_STATUS_,
1041:/home/lsk/paparazzi/var/include/messages.h **** 	  trans->put_bytes(trans->impl, dev, DL_TYPE_UINT8, DL_FORMAT_SCALAR, 1, (void *) _ac_id);
1042:/home/lsk/paparazzi/var/include/messages.h **** 	  trans->put_bytes(trans->impl, dev, DL_TYPE_UINT8, DL_FORMAT_SCALAR, 1, (void *) _tb_id);
1043:/home/lsk/paparazzi/var/include/messages.h **** 	  trans->put_bytes(trans->impl, dev, DL_TYPE_UINT32, DL_FORMAT_SCALAR, 4, (void *) _sync_itow);
1044:/home/lsk/paparazzi/var/include/messages.h **** 	  trans->put_bytes(trans->impl, dev, DL_TYPE_UINT32, DL_FORMAT_SCALAR, 4, (void *) _cycle_time);
1045:/home/lsk/paparazzi/var/include/messages.h **** 	  trans->end_message(trans->impl, dev);
1046:/home/lsk/paparazzi/var/include/messages.h **** 	} else
1047:/home/lsk/paparazzi/var/include/messages.h **** 	  trans->overrun(trans->impl, dev);
1048:/home/lsk/paparazzi/var/include/messages.h **** }
1049:/home/lsk/paparazzi/var/include/messages.h **** 
1050:/home/lsk/paparazzi/var/include/messages.h **** #define DOWNLINK_SEND_RC_3CH_(_trans, _dev, throttle_mode, roll, pitch) pprz_msg_send_RC_3CH_(&((_t
1051:/home/lsk/paparazzi/var/include/messages.h **** static inline void pprz_msg_send_RC_3CH_(struct transport_tx *trans, struct link_device *dev, uint8
1052:/home/lsk/paparazzi/var/include/messages.h **** 	if (trans->check_available_space(trans->impl, dev, trans->size_of(trans->impl, 0+1+1+1 +2 /* msg h
1053:/home/lsk/paparazzi/var/include/messages.h **** 	  trans->count_bytes(trans->impl, dev, trans->size_of(trans->impl, 0+1+1+1 +2 /* msg header overhe
1054:/home/lsk/paparazzi/var/include/messages.h **** 	  trans->start_message(trans->impl, dev, 0+1+1+1 +2 /* msg header overhead */);
1055:/home/lsk/paparazzi/var/include/messages.h **** 	  trans->put_bytes(trans->impl, dev, DL_TYPE_UINT8, DL_FORMAT_SCALAR, 1, &ac_id);
1056:/home/lsk/paparazzi/var/include/messages.h **** 	  trans->put_named_byte(trans->impl, dev, DL_TYPE_UINT8, DL_FORMAT_SCALAR, DL_RC_3CH_, "RC_3CH_");
1057:/home/lsk/paparazzi/var/include/messages.h **** 	  trans->put_bytes(trans->impl, dev, DL_TYPE_UINT8, DL_FORMAT_SCALAR, 1, (void *) _throttle_mode);
1058:/home/lsk/paparazzi/var/include/messages.h **** 	  trans->put_bytes(trans->impl, dev, DL_TYPE_INT8, DL_FORMAT_SCALAR, 1, (void *) _roll);
1059:/home/lsk/paparazzi/var/include/messages.h **** 	  trans->put_bytes(trans->impl, dev, DL_TYPE_INT8, DL_FORMAT_SCALAR, 1, (void *) _pitch);
1060:/home/lsk/paparazzi/var/include/messages.h **** 	  trans->end_message(trans->impl, dev);
1061:/home/lsk/paparazzi/var/include/messages.h **** 	} else
1062:/home/lsk/paparazzi/var/include/messages.h **** 	  trans->overrun(trans->impl, dev);
1063:/home/lsk/paparazzi/var/include/messages.h **** }
1064:/home/lsk/paparazzi/var/include/messages.h **** 
1065:/home/lsk/paparazzi/var/include/messages.h **** #define DOWNLINK_SEND_MPPT(_trans, _dev, nb_values, values) pprz_msg_send_MPPT(&((_trans).trans_tx)
1066:/home/lsk/paparazzi/var/include/messages.h **** static inline void pprz_msg_send_MPPT(struct transport_tx *trans, struct link_device *dev, uint8_t 
1067:/home/lsk/paparazzi/var/include/messages.h **** 	if (trans->check_available_space(trans->impl, dev, trans->size_of(trans->impl, 0+1+nb_values*2 +2 
1068:/home/lsk/paparazzi/var/include/messages.h **** 	  trans->count_bytes(trans->impl, dev, trans->size_of(trans->impl, 0+1+nb_values*2 +2 /* msg heade
1069:/home/lsk/paparazzi/var/include/messages.h **** 	  trans->start_message(trans->impl, dev, 0+1+nb_values*2 +2 /* msg header overhead */);
1070:/home/lsk/paparazzi/var/include/messages.h **** 	  trans->put_bytes(trans->impl, dev, DL_TYPE_UINT8, DL_FORMAT_SCALAR, 1, &ac_id);
1071:/home/lsk/paparazzi/var/include/messages.h **** 	  trans->put_named_byte(trans->impl, dev, DL_TYPE_UINT8, DL_FORMAT_SCALAR, DL_MPPT, "MPPT");
1072:/home/lsk/paparazzi/var/include/messages.h **** 	  trans->put_bytes(trans->impl, dev, DL_TYPE_ARRAY_LENGTH, DL_FORMAT_SCALAR, 1, (void *) &nb_value
1073:/home/lsk/paparazzi/var/include/messages.h **** 	  trans->put_bytes(trans->impl, dev, DL_TYPE_INT16, DL_FORMAT_ARRAY, 2 * nb_values, (void *) _valu
1074:/home/lsk/paparazzi/var/include/messages.h **** 	  trans->end_message(trans->impl, dev);
1075:/home/lsk/paparazzi/var/include/messages.h **** 	} else
1076:/home/lsk/paparazzi/var/include/messages.h **** 	  trans->overrun(trans->impl, dev);
1077:/home/lsk/paparazzi/var/include/messages.h **** }
1078:/home/lsk/paparazzi/var/include/messages.h **** 
1079:/home/lsk/paparazzi/var/include/messages.h **** #define DOWNLINK_SEND_DEBUG_IR_I2C(_trans, _dev, ir1, ir2, top) pprz_msg_send_DEBUG_IR_I2C(&((_tran
1080:/home/lsk/paparazzi/var/include/messages.h **** static inline void pprz_msg_send_DEBUG_IR_I2C(struct transport_tx *trans, struct link_device *dev, 
1081:/home/lsk/paparazzi/var/include/messages.h **** 	if (trans->check_available_space(trans->impl, dev, trans->size_of(trans->impl, 0+2+2+2 +2 /* msg h
1082:/home/lsk/paparazzi/var/include/messages.h **** 	  trans->count_bytes(trans->impl, dev, trans->size_of(trans->impl, 0+2+2+2 +2 /* msg header overhe
1083:/home/lsk/paparazzi/var/include/messages.h **** 	  trans->start_message(trans->impl, dev, 0+2+2+2 +2 /* msg header overhead */);
1084:/home/lsk/paparazzi/var/include/messages.h **** 	  trans->put_bytes(trans->impl, dev, DL_TYPE_UINT8, DL_FORMAT_SCALAR, 1, &ac_id);
1085:/home/lsk/paparazzi/var/include/messages.h **** 	  trans->put_named_byte(trans->impl, dev, DL_TYPE_UINT8, DL_FORMAT_SCALAR, DL_DEBUG_IR_I2C, "DEBUG
1086:/home/lsk/paparazzi/var/include/messages.h **** 	  trans->put_bytes(trans->impl, dev, DL_TYPE_INT16, DL_FORMAT_SCALAR, 2, (void *) _ir1);
1087:/home/lsk/paparazzi/var/include/messages.h **** 	  trans->put_bytes(trans->impl, dev, DL_TYPE_INT16, DL_FORMAT_SCALAR, 2, (void *) _ir2);
1088:/home/lsk/paparazzi/var/include/messages.h **** 	  trans->put_bytes(trans->impl, dev, DL_TYPE_INT16, DL_FORMAT_SCALAR, 2, (void *) _top);
1089:/home/lsk/paparazzi/var/include/messages.h **** 	  trans->end_message(trans->impl, dev);
1090:/home/lsk/paparazzi/var/include/messages.h **** 	} else
1091:/home/lsk/paparazzi/var/include/messages.h **** 	  trans->overrun(trans->impl, dev);
1092:/home/lsk/paparazzi/var/include/messages.h **** }
1093:/home/lsk/paparazzi/var/include/messages.h **** 
1094:/home/lsk/paparazzi/var/include/messages.h **** #define DOWNLINK_SEND_AIRSPEED(_trans, _dev, airspeed, airspeed_sp, airspeed_cnt, groundspeed_sp) p
1095:/home/lsk/paparazzi/var/include/messages.h **** static inline void pprz_msg_send_AIRSPEED(struct transport_tx *trans, struct link_device *dev, uint
1096:/home/lsk/paparazzi/var/include/messages.h **** 	if (trans->check_available_space(trans->impl, dev, trans->size_of(trans->impl, 0+4+4+4+4 +2 /* msg
1097:/home/lsk/paparazzi/var/include/messages.h **** 	  trans->count_bytes(trans->impl, dev, trans->size_of(trans->impl, 0+4+4+4+4 +2 /* msg header over
1098:/home/lsk/paparazzi/var/include/messages.h **** 	  trans->start_message(trans->impl, dev, 0+4+4+4+4 +2 /* msg header overhead */);
1099:/home/lsk/paparazzi/var/include/messages.h **** 	  trans->put_bytes(trans->impl, dev, DL_TYPE_UINT8, DL_FORMAT_SCALAR, 1, &ac_id);
1100:/home/lsk/paparazzi/var/include/messages.h **** 	  trans->put_named_byte(trans->impl, dev, DL_TYPE_UINT8, DL_FORMAT_SCALAR, DL_AIRSPEED, "AIRSPEED"
1101:/home/lsk/paparazzi/var/include/messages.h **** 	  trans->put_bytes(trans->impl, dev, DL_TYPE_FLOAT, DL_FORMAT_SCALAR, 4, (void *) _airspeed);
1102:/home/lsk/paparazzi/var/include/messages.h **** 	  trans->put_bytes(trans->impl, dev, DL_TYPE_FLOAT, DL_FORMAT_SCALAR, 4, (void *) _airspeed_sp);
1103:/home/lsk/paparazzi/var/include/messages.h **** 	  trans->put_bytes(trans->impl, dev, DL_TYPE_FLOAT, DL_FORMAT_SCALAR, 4, (void *) _airspeed_cnt);
1104:/home/lsk/paparazzi/var/include/messages.h **** 	  trans->put_bytes(trans->impl, dev, DL_TYPE_FLOAT, DL_FORMAT_SCALAR, 4, (void *) _groundspeed_sp)
1105:/home/lsk/paparazzi/var/include/messages.h **** 	  trans->end_message(trans->impl, dev);
1106:/home/lsk/paparazzi/var/include/messages.h **** 	} else
1107:/home/lsk/paparazzi/var/include/messages.h **** 	  trans->overrun(trans->impl, dev);
1108:/home/lsk/paparazzi/var/include/messages.h **** }
1109:/home/lsk/paparazzi/var/include/messages.h **** 
1110:/home/lsk/paparazzi/var/include/messages.h **** #define DOWNLINK_SEND_XSENS(_trans, _dev, counter, p, q, r, phi, theta, psi, ax, ay, az, vx, vy, vz
1111:/home/lsk/paparazzi/var/include/messages.h **** static inline void pprz_msg_send_XSENS(struct transport_tx *trans, struct link_device *dev, uint8_t
1112:/home/lsk/paparazzi/var/include/messages.h **** 	if (trans->check_available_space(trans->impl, dev, trans->size_of(trans->impl, 0+2+4+4+4+4+4+4+4+4
1113:/home/lsk/paparazzi/var/include/messages.h **** 	  trans->count_bytes(trans->impl, dev, trans->size_of(trans->impl, 0+2+4+4+4+4+4+4+4+4+4+4+4+4+4+4
1114:/home/lsk/paparazzi/var/include/messages.h **** 	  trans->start_message(trans->impl, dev, 0+2+4+4+4+4+4+4+4+4+4+4+4+4+4+4+4+1+1+1+1+4+2+1+1 +2 /* m
1115:/home/lsk/paparazzi/var/include/messages.h **** 	  trans->put_bytes(trans->impl, dev, DL_TYPE_UINT8, DL_FORMAT_SCALAR, 1, &ac_id);
1116:/home/lsk/paparazzi/var/include/messages.h **** 	  trans->put_named_byte(trans->impl, dev, DL_TYPE_UINT8, DL_FORMAT_SCALAR, DL_XSENS, "XSENS");
1117:/home/lsk/paparazzi/var/include/messages.h **** 	  trans->put_bytes(trans->impl, dev, DL_TYPE_INT16, DL_FORMAT_SCALAR, 2, (void *) _counter);
1118:/home/lsk/paparazzi/var/include/messages.h **** 	  trans->put_bytes(trans->impl, dev, DL_TYPE_FLOAT, DL_FORMAT_SCALAR, 4, (void *) _p);
1119:/home/lsk/paparazzi/var/include/messages.h **** 	  trans->put_bytes(trans->impl, dev, DL_TYPE_FLOAT, DL_FORMAT_SCALAR, 4, (void *) _q);
1120:/home/lsk/paparazzi/var/include/messages.h **** 	  trans->put_bytes(trans->impl, dev, DL_TYPE_FLOAT, DL_FORMAT_SCALAR, 4, (void *) _r);
1121:/home/lsk/paparazzi/var/include/messages.h **** 	  trans->put_bytes(trans->impl, dev, DL_TYPE_FLOAT, DL_FORMAT_SCALAR, 4, (void *) _phi);
1122:/home/lsk/paparazzi/var/include/messages.h **** 	  trans->put_bytes(trans->impl, dev, DL_TYPE_FLOAT, DL_FORMAT_SCALAR, 4, (void *) _theta);
1123:/home/lsk/paparazzi/var/include/messages.h **** 	  trans->put_bytes(trans->impl, dev, DL_TYPE_FLOAT, DL_FORMAT_SCALAR, 4, (void *) _psi);
1124:/home/lsk/paparazzi/var/include/messages.h **** 	  trans->put_bytes(trans->impl, dev, DL_TYPE_FLOAT, DL_FORMAT_SCALAR, 4, (void *) _ax);
1125:/home/lsk/paparazzi/var/include/messages.h **** 	  trans->put_bytes(trans->impl, dev, DL_TYPE_FLOAT, DL_FORMAT_SCALAR, 4, (void *) _ay);
1126:/home/lsk/paparazzi/var/include/messages.h **** 	  trans->put_bytes(trans->impl, dev, DL_TYPE_FLOAT, DL_FORMAT_SCALAR, 4, (void *) _az);
1127:/home/lsk/paparazzi/var/include/messages.h **** 	  trans->put_bytes(trans->impl, dev, DL_TYPE_FLOAT, DL_FORMAT_SCALAR, 4, (void *) _vx);
1128:/home/lsk/paparazzi/var/include/messages.h **** 	  trans->put_bytes(trans->impl, dev, DL_TYPE_FLOAT, DL_FORMAT_SCALAR, 4, (void *) _vy);
1129:/home/lsk/paparazzi/var/include/messages.h **** 	  trans->put_bytes(trans->impl, dev, DL_TYPE_FLOAT, DL_FORMAT_SCALAR, 4, (void *) _vz);
1130:/home/lsk/paparazzi/var/include/messages.h **** 	  trans->put_bytes(trans->impl, dev, DL_TYPE_FLOAT, DL_FORMAT_SCALAR, 4, (void *) _lat);
1131:/home/lsk/paparazzi/var/include/messages.h **** 	  trans->put_bytes(trans->impl, dev, DL_TYPE_FLOAT, DL_FORMAT_SCALAR, 4, (void *) _lon);
1132:/home/lsk/paparazzi/var/include/messages.h **** 	  trans->put_bytes(trans->impl, dev, DL_TYPE_FLOAT, DL_FORMAT_SCALAR, 4, (void *) _alt);
1133:/home/lsk/paparazzi/var/include/messages.h **** 	  trans->put_bytes(trans->impl, dev, DL_TYPE_UINT8, DL_FORMAT_SCALAR, 1, (void *) _status);
1134:/home/lsk/paparazzi/var/include/messages.h **** 	  trans->put_bytes(trans->impl, dev, DL_TYPE_UINT8, DL_FORMAT_SCALAR, 1, (void *) _hour);
1135:/home/lsk/paparazzi/var/include/messages.h **** 	  trans->put_bytes(trans->impl, dev, DL_TYPE_UINT8, DL_FORMAT_SCALAR, 1, (void *) _min);
1136:/home/lsk/paparazzi/var/include/messages.h **** 	  trans->put_bytes(trans->impl, dev, DL_TYPE_UINT8, DL_FORMAT_SCALAR, 1, (void *) _sec);
1137:/home/lsk/paparazzi/var/include/messages.h **** 	  trans->put_bytes(trans->impl, dev, DL_TYPE_UINT32, DL_FORMAT_SCALAR, 4, (void *) _nanosec);
1138:/home/lsk/paparazzi/var/include/messages.h **** 	  trans->put_bytes(trans->impl, dev, DL_TYPE_UINT16, DL_FORMAT_SCALAR, 2, (void *) _year);
1139:/home/lsk/paparazzi/var/include/messages.h **** 	  trans->put_bytes(trans->impl, dev, DL_TYPE_UINT8, DL_FORMAT_SCALAR, 1, (void *) _month);
1140:/home/lsk/paparazzi/var/include/messages.h **** 	  trans->put_bytes(trans->impl, dev, DL_TYPE_UINT8, DL_FORMAT_SCALAR, 1, (void *) _day);
1141:/home/lsk/paparazzi/var/include/messages.h **** 	  trans->end_message(trans->impl, dev);
1142:/home/lsk/paparazzi/var/include/messages.h **** 	} else
1143:/home/lsk/paparazzi/var/include/messages.h **** 	  trans->overrun(trans->impl, dev);
1144:/home/lsk/paparazzi/var/include/messages.h **** }
1145:/home/lsk/paparazzi/var/include/messages.h **** 
1146:/home/lsk/paparazzi/var/include/messages.h **** #define DOWNLINK_SEND_BARO_ETS(_trans, _dev, adc, offset, scaled) pprz_msg_send_BARO_ETS(&((_trans)
1147:/home/lsk/paparazzi/var/include/messages.h **** static inline void pprz_msg_send_BARO_ETS(struct transport_tx *trans, struct link_device *dev, uint
1148:/home/lsk/paparazzi/var/include/messages.h **** 	if (trans->check_available_space(trans->impl, dev, trans->size_of(trans->impl, 0+2+2+4 +2 /* msg h
1149:/home/lsk/paparazzi/var/include/messages.h **** 	  trans->count_bytes(trans->impl, dev, trans->size_of(trans->impl, 0+2+2+4 +2 /* msg header overhe
1150:/home/lsk/paparazzi/var/include/messages.h **** 	  trans->start_message(trans->impl, dev, 0+2+2+4 +2 /* msg header overhead */);
1151:/home/lsk/paparazzi/var/include/messages.h **** 	  trans->put_bytes(trans->impl, dev, DL_TYPE_UINT8, DL_FORMAT_SCALAR, 1, &ac_id);
1152:/home/lsk/paparazzi/var/include/messages.h **** 	  trans->put_named_byte(trans->impl, dev, DL_TYPE_UINT8, DL_FORMAT_SCALAR, DL_BARO_ETS, "BARO_ETS"
1153:/home/lsk/paparazzi/var/include/messages.h **** 	  trans->put_bytes(trans->impl, dev, DL_TYPE_UINT16, DL_FORMAT_SCALAR, 2, (void *) _adc);
1154:/home/lsk/paparazzi/var/include/messages.h **** 	  trans->put_bytes(trans->impl, dev, DL_TYPE_UINT16, DL_FORMAT_SCALAR, 2, (void *) _offset);
1155:/home/lsk/paparazzi/var/include/messages.h **** 	  trans->put_bytes(trans->impl, dev, DL_TYPE_FLOAT, DL_FORMAT_SCALAR, 4, (void *) _scaled);
1156:/home/lsk/paparazzi/var/include/messages.h **** 	  trans->end_message(trans->impl, dev);
1157:/home/lsk/paparazzi/var/include/messages.h **** 	} else
1158:/home/lsk/paparazzi/var/include/messages.h **** 	  trans->overrun(trans->impl, dev);
1159:/home/lsk/paparazzi/var/include/messages.h **** }
1160:/home/lsk/paparazzi/var/include/messages.h **** 
1161:/home/lsk/paparazzi/var/include/messages.h **** #define DOWNLINK_SEND_AIRSPEED_ETS(_trans, _dev, adc, offset, scaled) pprz_msg_send_AIRSPEED_ETS(&(
1162:/home/lsk/paparazzi/var/include/messages.h **** static inline void pprz_msg_send_AIRSPEED_ETS(struct transport_tx *trans, struct link_device *dev, 
1163:/home/lsk/paparazzi/var/include/messages.h **** 	if (trans->check_available_space(trans->impl, dev, trans->size_of(trans->impl, 0+2+2+4 +2 /* msg h
1164:/home/lsk/paparazzi/var/include/messages.h **** 	  trans->count_bytes(trans->impl, dev, trans->size_of(trans->impl, 0+2+2+4 +2 /* msg header overhe
1165:/home/lsk/paparazzi/var/include/messages.h **** 	  trans->start_message(trans->impl, dev, 0+2+2+4 +2 /* msg header overhead */);
1166:/home/lsk/paparazzi/var/include/messages.h **** 	  trans->put_bytes(trans->impl, dev, DL_TYPE_UINT8, DL_FORMAT_SCALAR, 1, &ac_id);
1167:/home/lsk/paparazzi/var/include/messages.h **** 	  trans->put_named_byte(trans->impl, dev, DL_TYPE_UINT8, DL_FORMAT_SCALAR, DL_AIRSPEED_ETS, "AIRSP
1168:/home/lsk/paparazzi/var/include/messages.h **** 	  trans->put_bytes(trans->impl, dev, DL_TYPE_UINT16, DL_FORMAT_SCALAR, 2, (void *) _adc);
1169:/home/lsk/paparazzi/var/include/messages.h **** 	  trans->put_bytes(trans->impl, dev, DL_TYPE_UINT16, DL_FORMAT_SCALAR, 2, (void *) _offset);
1170:/home/lsk/paparazzi/var/include/messages.h **** 	  trans->put_bytes(trans->impl, dev, DL_TYPE_FLOAT, DL_FORMAT_SCALAR, 4, (void *) _scaled);
1171:/home/lsk/paparazzi/var/include/messages.h **** 	  trans->end_message(trans->impl, dev);
1172:/home/lsk/paparazzi/var/include/messages.h **** 	} else
1173:/home/lsk/paparazzi/var/include/messages.h **** 	  trans->overrun(trans->impl, dev);
1174:/home/lsk/paparazzi/var/include/messages.h **** }
1175:/home/lsk/paparazzi/var/include/messages.h **** 
1176:/home/lsk/paparazzi/var/include/messages.h **** #define DOWNLINK_SEND_PBN(_trans, _dev, airspeed_adc, altitude_adc, airspeed, altitude, airspeed_of
1177:/home/lsk/paparazzi/var/include/messages.h **** static inline void pprz_msg_send_PBN(struct transport_tx *trans, struct link_device *dev, uint8_t a
1178:/home/lsk/paparazzi/var/include/messages.h **** 	if (trans->check_available_space(trans->impl, dev, trans->size_of(trans->impl, 0+2+2+4+4+2+2 +2 /*
1179:/home/lsk/paparazzi/var/include/messages.h **** 	  trans->count_bytes(trans->impl, dev, trans->size_of(trans->impl, 0+2+2+4+4+2+2 +2 /* msg header 
1180:/home/lsk/paparazzi/var/include/messages.h **** 	  trans->start_message(trans->impl, dev, 0+2+2+4+4+2+2 +2 /* msg header overhead */);
1181:/home/lsk/paparazzi/var/include/messages.h **** 	  trans->put_bytes(trans->impl, dev, DL_TYPE_UINT8, DL_FORMAT_SCALAR, 1, &ac_id);
1182:/home/lsk/paparazzi/var/include/messages.h **** 	  trans->put_named_byte(trans->impl, dev, DL_TYPE_UINT8, DL_FORMAT_SCALAR, DL_PBN, "PBN");
1183:/home/lsk/paparazzi/var/include/messages.h **** 	  trans->put_bytes(trans->impl, dev, DL_TYPE_UINT16, DL_FORMAT_SCALAR, 2, (void *) _airspeed_adc);
1184:/home/lsk/paparazzi/var/include/messages.h **** 	  trans->put_bytes(trans->impl, dev, DL_TYPE_UINT16, DL_FORMAT_SCALAR, 2, (void *) _altitude_adc);
1185:/home/lsk/paparazzi/var/include/messages.h **** 	  trans->put_bytes(trans->impl, dev, DL_TYPE_FLOAT, DL_FORMAT_SCALAR, 4, (void *) _airspeed);
1186:/home/lsk/paparazzi/var/include/messages.h **** 	  trans->put_bytes(trans->impl, dev, DL_TYPE_FLOAT, DL_FORMAT_SCALAR, 4, (void *) _altitude);
1187:/home/lsk/paparazzi/var/include/messages.h **** 	  trans->put_bytes(trans->impl, dev, DL_TYPE_UINT16, DL_FORMAT_SCALAR, 2, (void *) _airspeed_offse
1188:/home/lsk/paparazzi/var/include/messages.h **** 	  trans->put_bytes(trans->impl, dev, DL_TYPE_UINT16, DL_FORMAT_SCALAR, 2, (void *) _altitude_offse
1189:/home/lsk/paparazzi/var/include/messages.h **** 	  trans->end_message(trans->impl, dev);
1190:/home/lsk/paparazzi/var/include/messages.h **** 	} else
1191:/home/lsk/paparazzi/var/include/messages.h **** 	  trans->overrun(trans->impl, dev);
1192:/home/lsk/paparazzi/var/include/messages.h **** }
1193:/home/lsk/paparazzi/var/include/messages.h **** 
1194:/home/lsk/paparazzi/var/include/messages.h **** #define DOWNLINK_SEND_GPS_LLA(_trans, _dev, lat, lon, alt, course, speed, climb, week, itow, mode, 
1195:/home/lsk/paparazzi/var/include/messages.h **** static inline void pprz_msg_send_GPS_LLA(struct transport_tx *trans, struct link_device *dev, uint8
1196:/home/lsk/paparazzi/var/include/messages.h **** 	if (trans->check_available_space(trans->impl, dev, trans->size_of(trans->impl, 0+4+4+4+2+2+2+2+4+1
  84              		.loc 2 1196 0
  85 003e D7F82090 		ldr	r9, [r7, #32]
  86              	.LBE7:
  87              	.LBE6:
  88              		.loc 1 121 0
  89 0042 ADF80E00 		strh	r0, [sp, #14]	@ movhi
  90              	.LVL6:
  91 0046 4FF0010A 		mov	r10, #1
  92              	.LBB9:
  93              	.LBB8:
  94              		.loc 2 1196 0
  95 004a 1C21     		movs	r1, #28
  96 004c 8DF80BA0 		strb	r10, [sp, #11]
  97              	.LVL7:
  98 0050 3B68     		ldr	r3, [r7]
  99 0052 D7F80480 		ldr	r8, [r7, #4]
 100 0056 4846     		mov	r0, r9
 101 0058 9847     		blx	r3
 102              	.LVL8:
 103 005a 2146     		mov	r1, r4
 104 005c 0246     		mov	r2, r0
 105 005e 4846     		mov	r0, r9
 106 0060 C047     		blx	r8
 107              	.LVL9:
 108 0062 0028     		cmp	r0, #0
 109 0064 00F09980 		beq	.L2
1197:/home/lsk/paparazzi/var/include/messages.h **** 	  trans->count_bytes(trans->impl, dev, trans->size_of(trans->impl, 0+4+4+4+2+2+2+2+4+1+1 +2 /* msg
 110              		.loc 2 1197 0
 111 0068 D7F82090 		ldr	r9, [r7, #32]
 112 006c 3B68     		ldr	r3, [r7]
 113 006e D7F81C80 		ldr	r8, [r7, #28]
 114 0072 4846     		mov	r0, r9
 115 0074 1C21     		movs	r1, #28
 116 0076 9847     		blx	r3
 117              	.LVL10:
 118 0078 2146     		mov	r1, r4
 119 007a 0246     		mov	r2, r0
 120 007c 4846     		mov	r0, r9
 121 007e C047     		blx	r8
 122              	.LVL11:
1198:/home/lsk/paparazzi/var/include/messages.h **** 	  trans->start_message(trans->impl, dev, 0+4+4+4+2+2+2+2+4+1+1 +2 /* msg header overhead */);
 123              		.loc 2 1198 0
 124 0080 3B69     		ldr	r3, [r7, #16]
 125 0082 386A     		ldr	r0, [r7, #32]
 126 0084 2146     		mov	r1, r4
 127 0086 1C22     		movs	r2, #28
 128 0088 9847     		blx	r3
 129              	.LVL12:
1199:/home/lsk/paparazzi/var/include/messages.h **** 	  trans->put_bytes(trans->impl, dev, DL_TYPE_UINT8, DL_FORMAT_SCALAR, 1, &ac_id);
 130              		.loc 2 1199 0
 131 008a 0DF10B03 		add	r3, sp, #11
 132 008e 0193     		str	r3, [sp, #4]
 133 0090 CDF800A0 		str	r10, [sp]
 134 0094 386A     		ldr	r0, [r7, #32]
 135 0096 BE68     		ldr	r6, [r7, #8]
 136 0098 2146     		mov	r1, r4
 137 009a 0222     		movs	r2, #2
 138 009c 2B46     		mov	r3, r5
 139 009e B047     		blx	r6
 140              	.LVL13:
1200:/home/lsk/paparazzi/var/include/messages.h **** 	  trans->put_named_byte(trans->impl, dev, DL_TYPE_UINT8, DL_FORMAT_SCALAR, DL_GPS_LLA, "GPS_LLA");
 141              		.loc 2 1200 0
 142 00a0 3B23     		movs	r3, #59
 143 00a2 0093     		str	r3, [sp]
 144 00a4 404B     		ldr	r3, .L6
 145 00a6 0193     		str	r3, [sp, #4]
 146 00a8 386A     		ldr	r0, [r7, #32]
 147 00aa FE68     		ldr	r6, [r7, #12]
 148 00ac 2146     		mov	r1, r4
 149 00ae 0222     		movs	r2, #2
 150 00b0 2B46     		mov	r3, r5
 151 00b2 B047     		blx	r6
 152              	.LVL14:
1201:/home/lsk/paparazzi/var/include/messages.h **** 	  trans->put_bytes(trans->impl, dev, DL_TYPE_INT32, DL_FORMAT_SCALAR, 4, (void *) _lat);
 153              		.loc 2 1201 0
 154 00b4 4FF00409 		mov	r9, #4
 155 00b8 0BF10C03 		add	r3, fp, #12
 156 00bc 0193     		str	r3, [sp, #4]
 157 00be CDF80090 		str	r9, [sp]
 158 00c2 386A     		ldr	r0, [r7, #32]
 159 00c4 BE68     		ldr	r6, [r7, #8]
 160 00c6 2146     		mov	r1, r4
 161 00c8 0722     		movs	r2, #7
 162 00ca 2B46     		mov	r3, r5
 163 00cc B047     		blx	r6
 164              	.LVL15:
1202:/home/lsk/paparazzi/var/include/messages.h **** 	  trans->put_bytes(trans->impl, dev, DL_TYPE_INT32, DL_FORMAT_SCALAR, 4, (void *) _lon);
 165              		.loc 2 1202 0
 166 00ce 0BF11003 		add	r3, fp, #16
 167 00d2 0193     		str	r3, [sp, #4]
 168 00d4 CDF80090 		str	r9, [sp]
 169 00d8 386A     		ldr	r0, [r7, #32]
 170 00da BE68     		ldr	r6, [r7, #8]
 171 00dc 2146     		mov	r1, r4
 172 00de 0722     		movs	r2, #7
 173 00e0 2B46     		mov	r3, r5
 174 00e2 B047     		blx	r6
 175              	.LVL16:
1203:/home/lsk/paparazzi/var/include/messages.h **** 	  trans->put_bytes(trans->impl, dev, DL_TYPE_INT32, DL_FORMAT_SCALAR, 4, (void *) _alt);
 176              		.loc 2 1203 0
 177 00e4 0BF11403 		add	r3, fp, #20
 178 00e8 0193     		str	r3, [sp, #4]
 179 00ea CDF80090 		str	r9, [sp]
 180 00ee 386A     		ldr	r0, [r7, #32]
 181 00f0 BE68     		ldr	r6, [r7, #8]
 182 00f2 2146     		mov	r1, r4
 183 00f4 0722     		movs	r2, #7
 184 00f6 2B46     		mov	r3, r5
 185 00f8 B047     		blx	r6
 186              	.LVL17:
1204:/home/lsk/paparazzi/var/include/messages.h **** 	  trans->put_bytes(trans->impl, dev, DL_TYPE_INT16, DL_FORMAT_SCALAR, 2, (void *) _course);
 187              		.loc 2 1204 0
 188 00fa 4FF00208 		mov	r8, #2
 189 00fe 0DF10E03 		add	r3, sp, #14
 190              	.LVL18:
 191 0102 0193     		str	r3, [sp, #4]
 192 0104 CDF80080 		str	r8, [sp]
 193 0108 386A     		ldr	r0, [r7, #32]
 194 010a BE68     		ldr	r6, [r7, #8]
 195 010c 2146     		mov	r1, r4
 196 010e 0522     		movs	r2, #5
 197 0110 2B46     		mov	r3, r5
 198              	.LVL19:
 199 0112 B047     		blx	r6
 200              	.LVL20:
1205:/home/lsk/paparazzi/var/include/messages.h **** 	  trans->put_bytes(trans->impl, dev, DL_TYPE_UINT16, DL_FORMAT_SCALAR, 2, (void *) _speed);
 201              		.loc 2 1205 0
 202 0114 0BF14403 		add	r3, fp, #68
 203 0118 0193     		str	r3, [sp, #4]
 204 011a CDF80080 		str	r8, [sp]
 205 011e 386A     		ldr	r0, [r7, #32]
 206 0120 BE68     		ldr	r6, [r7, #8]
 207 0122 2146     		mov	r1, r4
 208 0124 4A46     		mov	r2, r9
 209 0126 2B46     		mov	r3, r5
 210 0128 B047     		blx	r6
 211              	.LVL21:
1206:/home/lsk/paparazzi/var/include/messages.h **** 	  trans->put_bytes(trans->impl, dev, DL_TYPE_INT16, DL_FORMAT_SCALAR, 2, (void *) _climb);
 212              		.loc 2 1206 0
 213 012a 03AB     		add	r3, sp, #12
 214              	.LVL22:
 215 012c 0193     		str	r3, [sp, #4]
 216 012e CDF80080 		str	r8, [sp]
 217 0132 386A     		ldr	r0, [r7, #32]
 218 0134 BE68     		ldr	r6, [r7, #8]
 219 0136 2146     		mov	r1, r4
 220 0138 0522     		movs	r2, #5
 221 013a 2B46     		mov	r3, r5
 222              	.LVL23:
 223 013c B047     		blx	r6
 224              	.LVL24:
1207:/home/lsk/paparazzi/var/include/messages.h **** 	  trans->put_bytes(trans->impl, dev, DL_TYPE_UINT16, DL_FORMAT_SCALAR, 2, (void *) _week);
 225              		.loc 2 1207 0
 226 013e 0BF15C03 		add	r3, fp, #92
 227 0142 0193     		str	r3, [sp, #4]
 228 0144 CDF80080 		str	r8, [sp]
 229 0148 386A     		ldr	r0, [r7, #32]
 230 014a BE68     		ldr	r6, [r7, #8]
 231 014c 2146     		mov	r1, r4
 232 014e 4A46     		mov	r2, r9
 233 0150 2B46     		mov	r3, r5
 234 0152 B047     		blx	r6
 235              	.LVL25:
1208:/home/lsk/paparazzi/var/include/messages.h **** 	  trans->put_bytes(trans->impl, dev, DL_TYPE_UINT32, DL_FORMAT_SCALAR, 4, (void *) _itow);
 236              		.loc 2 1208 0
 237 0154 0BF16003 		add	r3, fp, #96
 238 0158 0193     		str	r3, [sp, #4]
 239 015a CDF80090 		str	r9, [sp]
 240 015e 386A     		ldr	r0, [r7, #32]
 241 0160 BE68     		ldr	r6, [r7, #8]
 242 0162 2146     		mov	r1, r4
 243 0164 0622     		movs	r2, #6
 244 0166 2B46     		mov	r3, r5
 245 0168 B047     		blx	r6
 246              	.LVL26:
1209:/home/lsk/paparazzi/var/include/messages.h **** 	  trans->put_bytes(trans->impl, dev, DL_TYPE_UINT8, DL_FORMAT_SCALAR, 1, (void *) _mode);
 247              		.loc 2 1209 0
 248 016a 0BF15B06 		add	r6, fp, #91
 249 016e CDF800A0 		str	r10, [sp]
 250 0172 0196     		str	r6, [sp, #4]
 251 0174 BE68     		ldr	r6, [r7, #8]
 252 0176 386A     		ldr	r0, [r7, #32]
 253 0178 2146     		mov	r1, r4
 254 017a 4246     		mov	r2, r8
 255 017c 2B46     		mov	r3, r5
 256 017e B047     		blx	r6
 257              	.LVL27:
1210:/home/lsk/paparazzi/var/include/messages.h **** 	  trans->put_bytes(trans->impl, dev, DL_TYPE_UINT8, DL_FORMAT_SCALAR, 1, (void *) _gps_nb_err);
 258              		.loc 2 1210 0
 259 0180 0DF10A03 		add	r3, sp, #10
 260              	.LVL28:
 261 0184 0193     		str	r3, [sp, #4]
 262 0186 CDF800A0 		str	r10, [sp]
 263 018a 2B46     		mov	r3, r5
 264              	.LVL29:
 265 018c BE68     		ldr	r6, [r7, #8]
 266 018e 386A     		ldr	r0, [r7, #32]
 267 0190 2146     		mov	r1, r4
 268 0192 4246     		mov	r2, r8
 269 0194 B047     		blx	r6
 270              	.LVL30:
1211:/home/lsk/paparazzi/var/include/messages.h **** 	  trans->end_message(trans->impl, dev);
 271              		.loc 2 1211 0
 272 0196 7B69     		ldr	r3, [r7, #20]
 273 0198 00E0     		b	.L4
 274              	.L2:
1212:/home/lsk/paparazzi/var/include/messages.h **** 	} else
1213:/home/lsk/paparazzi/var/include/messages.h **** 	  trans->overrun(trans->impl, dev);
 275              		.loc 2 1213 0
 276 019a BB69     		ldr	r3, [r7, #24]
 277              	.L4:
 278 019c 386A     		ldr	r0, [r7, #32]
 279 019e 2146     		mov	r1, r4
 280 01a0 9847     		blx	r3
 281              	.LVL31:
 282              	.LBE8:
 283              	.LBE9:
 122:subsystems/gps.c ****   pprz_msg_send_GPS_LLA(trans, dev, AC_ID,
 123:subsystems/gps.c ****                         &gps.lla_pos.lat, &gps.lla_pos.lon, &gps.lla_pos.alt,
 124:subsystems/gps.c ****                         &course, &gps.gspeed, &climb,
 125:subsystems/gps.c ****                         &gps.week, &gps.tow,
 126:subsystems/gps.c ****                         &gps.fix, &err);
 127:subsystems/gps.c **** }
 284              		.loc 1 127 0
 285 01a2 05B0     		add	sp, sp, #20
 286              		@ sp needed
 287 01a4 BDE8F08F 		pop	{r4, r5, r6, r7, r8, r9, r10, fp, pc}
 288              	.LVL32:
 289              	.L7:
 290              		.align	3
 291              	.L6:
 292 01a8 00000000 		.word	.LC0
 293 01ac F8C1631A 		.word	442745336
 294 01b0 DCA54C40 		.word	1078765020
 295 01b4 00000000 		.word	0
 296 01b8 80842E41 		.word	1093567616
 297 01bc 00000000 		.word	.LANCHOR0
 298              		.cfi_endproc
 299              	.LFE367:
 301              		.section	.text.send_svinfo_id,"ax",%progbits
 302              		.align	1
 303              		.thumb
 304              		.thumb_func
 306              	send_svinfo_id:
 307              	.LFB362:
  50:subsystems/gps.c **** {
 308              		.loc 1 50 0
 309              		.cfi_startproc
 310              		@ args = 0, pretend = 0, frame = 16
 311              		@ frame_needed = 0, uses_anonymous_args = 0
 312              	.LVL33:
 313 0000 2DE9F043 		push	{r4, r5, r6, r7, r8, r9, lr}
 314              		.cfi_def_cfa_offset 28
 315              		.cfi_offset 4, -28
 316              		.cfi_offset 5, -24
 317              		.cfi_offset 6, -20
 318              		.cfi_offset 7, -16
 319              		.cfi_offset 8, -12
 320              		.cfi_offset 9, -8
 321              		.cfi_offset 14, -4
 322 0004 87B0     		sub	sp, sp, #28
 323              		.cfi_def_cfa_offset 56
  51:subsystems/gps.c ****   if (svid < GPS_NB_CHANNELS) {
 324              		.loc 1 51 0
 325 0006 0F2A     		cmp	r2, #15
  50:subsystems/gps.c **** {
 326              		.loc 1 50 0
 327 0008 0446     		mov	r4, r0
 328 000a 0D46     		mov	r5, r1
 329 000c 8DF80F20 		strb	r2, [sp, #15]
  51:subsystems/gps.c ****   if (svid < GPS_NB_CHANNELS) {
 330              		.loc 1 51 0
 331 0010 9046     		mov	r8, r2
 332 0012 00F28680 		bhi	.L8
 333              	.LVL34:
 334              	.LBB12:
 335              	.LBB13:
 630:/home/lsk/paparazzi/var/include/messages.h **** 	if (trans->check_available_space(trans->impl, dev, trans->size_of(trans->impl, 0+1+1+1+1+1+1+2 +2 
 336              		.loc 2 630 0
 337 0016 076A     		ldr	r7, [r0, #32]
 338 0018 D0F80490 		ldr	r9, [r0, #4]
 339 001c 0368     		ldr	r3, [r0]
 340 001e 0126     		movs	r6, #1
 341 0020 0A21     		movs	r1, #10
 342              	.LVL35:
 343 0022 8DF81760 		strb	r6, [sp, #23]
 344              	.LVL36:
 345 0026 3846     		mov	r0, r7
 346              	.LVL37:
 347 0028 9847     		blx	r3
 348              	.LVL38:
 349 002a 2946     		mov	r1, r5
 350 002c 0246     		mov	r2, r0
 351 002e 3846     		mov	r0, r7
 352 0030 C847     		blx	r9
 353              	.LVL39:
 354 0032 0028     		cmp	r0, #0
 355 0034 71D0     		beq	.L10
 631:/home/lsk/paparazzi/var/include/messages.h **** 	  trans->count_bytes(trans->impl, dev, trans->size_of(trans->impl, 0+1+1+1+1+1+1+2 +2 /* msg heade
 356              		.loc 2 631 0
 357 0036 276A     		ldr	r7, [r4, #32]
 358 0038 2368     		ldr	r3, [r4]
 359 003a D4F81C90 		ldr	r9, [r4, #28]
 360 003e 3846     		mov	r0, r7
 361 0040 0A21     		movs	r1, #10
 362 0042 9847     		blx	r3
 363              	.LVL40:
 364 0044 2946     		mov	r1, r5
 365 0046 0246     		mov	r2, r0
 366 0048 3846     		mov	r0, r7
 367 004a C847     		blx	r9
 368              	.LVL41:
 632:/home/lsk/paparazzi/var/include/messages.h **** 	  trans->start_message(trans->impl, dev, 0+1+1+1+1+1+1+2 +2 /* msg header overhead */);
 369              		.loc 2 632 0
 370 004c 2369     		ldr	r3, [r4, #16]
 371 004e 206A     		ldr	r0, [r4, #32]
 372 0050 2946     		mov	r1, r5
 373 0052 0A22     		movs	r2, #10
 374 0054 9847     		blx	r3
 375              	.LVL42:
 633:/home/lsk/paparazzi/var/include/messages.h **** 	  trans->put_bytes(trans->impl, dev, DL_TYPE_UINT8, DL_FORMAT_SCALAR, 1, &ac_id);
 376              		.loc 2 633 0
 377 0056 0DF11703 		add	r3, sp, #23
 378 005a 0096     		str	r6, [sp]
 379 005c 0193     		str	r3, [sp, #4]
 380 005e A768     		ldr	r7, [r4, #8]
 381 0060 206A     		ldr	r0, [r4, #32]
 382 0062 2946     		mov	r1, r5
 383 0064 0222     		movs	r2, #2
 384 0066 0023     		movs	r3, #0
 385 0068 B847     		blx	r7
 386              	.LVL43:
 634:/home/lsk/paparazzi/var/include/messages.h **** 	  trans->put_named_byte(trans->impl, dev, DL_TYPE_UINT8, DL_FORMAT_SCALAR, DL_SVINFO, "SVINFO");
 387              		.loc 2 634 0
 388 006a 1923     		movs	r3, #25
 389 006c 0093     		str	r3, [sp]
 390 006e 2E4B     		ldr	r3, .L12
 391 0070 0193     		str	r3, [sp, #4]
 392 0072 E768     		ldr	r7, [r4, #12]
 393 0074 206A     		ldr	r0, [r4, #32]
 394 0076 2946     		mov	r1, r5
 395 0078 0222     		movs	r2, #2
 396 007a 0023     		movs	r3, #0
 397 007c B847     		blx	r7
 398              	.LVL44:
 635:/home/lsk/paparazzi/var/include/messages.h **** 	  trans->put_bytes(trans->impl, dev, DL_TYPE_UINT8, DL_FORMAT_SCALAR, 1, (void *) _chn);
 399              		.loc 2 635 0
 400 007e 0DF10F03 		add	r3, sp, #15
 401              	.LVL45:
 402 0082 0096     		str	r6, [sp]
 403 0084 0193     		str	r3, [sp, #4]
 404 0086 A768     		ldr	r7, [r4, #8]
 405 0088 206A     		ldr	r0, [r4, #32]
 406 008a 2946     		mov	r1, r5
 407 008c 0222     		movs	r2, #2
 408 008e 0023     		movs	r3, #0
 409              	.LVL46:
 410 0090 B847     		blx	r7
 411              	.LVL47:
 412              	.LBE13:
 413              	.LBE12:
  52:subsystems/gps.c ****     pprz_msg_send_SVINFO(trans, dev, AC_ID, &svid,
 414              		.loc 1 52 0
 415 0092 264B     		ldr	r3, .L12+4
 416              	.LBB21:
 417              	.LBB14:
 636:/home/lsk/paparazzi/var/include/messages.h **** 	  trans->put_bytes(trans->impl, dev, DL_TYPE_UINT8, DL_FORMAT_SCALAR, 1, (void *) _SVID);
 418              		.loc 2 636 0
 419 0094 0096     		str	r6, [sp]
 420              	.LBE14:
 421              	.LBE21:
  52:subsystems/gps.c ****     pprz_msg_send_SVINFO(trans, dev, AC_ID, &svid,
 422              		.loc 1 52 0
 423 0096 08F10C08 		add	r8, r8, #12
 424              	.LVL48:
 425 009a 03EBC808 		add	r8, r3, r8, lsl #3
 426              	.LVL49:
 427 009e 08F10603 		add	r3, r8, #6
 428              	.LBB22:
 429              	.LBB15:
 636:/home/lsk/paparazzi/var/include/messages.h **** 	  trans->put_bytes(trans->impl, dev, DL_TYPE_UINT8, DL_FORMAT_SCALAR, 1, (void *) _SVID);
 430              		.loc 2 636 0
 431 00a2 0193     		str	r3, [sp, #4]
 432 00a4 A768     		ldr	r7, [r4, #8]
 433 00a6 206A     		ldr	r0, [r4, #32]
 434 00a8 2946     		mov	r1, r5
 435 00aa 0222     		movs	r2, #2
 436 00ac 0023     		movs	r3, #0
 437 00ae B847     		blx	r7
 438              	.LVL50:
 439              	.LBE15:
 440              	.LBE22:
  52:subsystems/gps.c ****     pprz_msg_send_SVINFO(trans, dev, AC_ID, &svid,
 441              		.loc 1 52 0
 442 00b0 08F10703 		add	r3, r8, #7
 443              	.LBB23:
 444              	.LBB16:
 637:/home/lsk/paparazzi/var/include/messages.h **** 	  trans->put_bytes(trans->impl, dev, DL_TYPE_UINT8, DL_FORMAT_SCALAR, 1, (void *) _Flags);
 445              		.loc 2 637 0
 446 00b4 0096     		str	r6, [sp]
 447 00b6 0193     		str	r3, [sp, #4]
 448 00b8 A768     		ldr	r7, [r4, #8]
 449 00ba 206A     		ldr	r0, [r4, #32]
 450 00bc 2946     		mov	r1, r5
 451 00be 0222     		movs	r2, #2
 452 00c0 0023     		movs	r3, #0
 453 00c2 B847     		blx	r7
 454              	.LVL51:
 455              	.LBE16:
 456              	.LBE23:
  52:subsystems/gps.c ****     pprz_msg_send_SVINFO(trans, dev, AC_ID, &svid,
 457              		.loc 1 52 0
 458 00c4 08F10803 		add	r3, r8, #8
 459              	.LBB24:
 460              	.LBB17:
 638:/home/lsk/paparazzi/var/include/messages.h **** 	  trans->put_bytes(trans->impl, dev, DL_TYPE_UINT8, DL_FORMAT_SCALAR, 1, (void *) _QI);
 461              		.loc 2 638 0
 462 00c8 0096     		str	r6, [sp]
 463 00ca 0193     		str	r3, [sp, #4]
 464 00cc A768     		ldr	r7, [r4, #8]
 465 00ce 206A     		ldr	r0, [r4, #32]
 466 00d0 2946     		mov	r1, r5
 467 00d2 0222     		movs	r2, #2
 468 00d4 0023     		movs	r3, #0
 469 00d6 B847     		blx	r7
 470              	.LVL52:
 471              	.LBE17:
 472              	.LBE24:
  52:subsystems/gps.c ****     pprz_msg_send_SVINFO(trans, dev, AC_ID, &svid,
 473              		.loc 1 52 0
 474 00d8 08F10903 		add	r3, r8, #9
 475              	.LBB25:
 476              	.LBB18:
 639:/home/lsk/paparazzi/var/include/messages.h **** 	  trans->put_bytes(trans->impl, dev, DL_TYPE_UINT8, DL_FORMAT_SCALAR, 1, (void *) _CNO);
 477              		.loc 2 639 0
 478 00dc 0096     		str	r6, [sp]
 479 00de 0193     		str	r3, [sp, #4]
 480 00e0 206A     		ldr	r0, [r4, #32]
 481 00e2 A768     		ldr	r7, [r4, #8]
 482 00e4 2946     		mov	r1, r5
 483 00e6 0222     		movs	r2, #2
 484 00e8 0023     		movs	r3, #0
 485 00ea B847     		blx	r7
 486              	.LVL53:
 487              	.LBE18:
 488              	.LBE25:
  52:subsystems/gps.c ****     pprz_msg_send_SVINFO(trans, dev, AC_ID, &svid,
 489              		.loc 1 52 0
 490 00ec 08F10A03 		add	r3, r8, #10
 491              	.LBB26:
 492              	.LBB19:
 640:/home/lsk/paparazzi/var/include/messages.h **** 	  trans->put_bytes(trans->impl, dev, DL_TYPE_INT8, DL_FORMAT_SCALAR, 1, (void *) _Elev);
 493              		.loc 2 640 0
 494 00f0 0096     		str	r6, [sp]
 495 00f2 0193     		str	r3, [sp, #4]
 496 00f4 A668     		ldr	r6, [r4, #8]
 497              	.LVL54:
 498 00f6 206A     		ldr	r0, [r4, #32]
 499 00f8 2946     		mov	r1, r5
 500 00fa 0322     		movs	r2, #3
 501 00fc 0023     		movs	r3, #0
 502 00fe B047     		blx	r6
 503              	.LVL55:
 641:/home/lsk/paparazzi/var/include/messages.h **** 	  trans->put_bytes(trans->impl, dev, DL_TYPE_INT16, DL_FORMAT_SCALAR, 2, (void *) _Azim);
 504              		.loc 2 641 0
 505 0100 0223     		movs	r3, #2
 506 0102 0093     		str	r3, [sp]
 507              	.LBE19:
 508              	.LBE26:
  52:subsystems/gps.c ****     pprz_msg_send_SVINFO(trans, dev, AC_ID, &svid,
 509              		.loc 1 52 0
 510 0104 08F10C03 		add	r3, r8, #12
 511              	.LBB27:
 512              	.LBB20:
 641:/home/lsk/paparazzi/var/include/messages.h **** 	  trans->put_bytes(trans->impl, dev, DL_TYPE_INT16, DL_FORMAT_SCALAR, 2, (void *) _Azim);
 513              		.loc 2 641 0
 514 0108 0193     		str	r3, [sp, #4]
 515 010a A668     		ldr	r6, [r4, #8]
 516 010c 206A     		ldr	r0, [r4, #32]
 517 010e 0023     		movs	r3, #0
 518 0110 2946     		mov	r1, r5
 519 0112 0522     		movs	r2, #5
 520 0114 B047     		blx	r6
 521              	.LVL56:
 642:/home/lsk/paparazzi/var/include/messages.h **** 	  trans->end_message(trans->impl, dev);
 522              		.loc 2 642 0
 523 0116 6369     		ldr	r3, [r4, #20]
 524 0118 00E0     		b	.L11
 525              	.LVL57:
 526              	.L10:
 644:/home/lsk/paparazzi/var/include/messages.h **** 	  trans->overrun(trans->impl, dev);
 527              		.loc 2 644 0
 528 011a A369     		ldr	r3, [r4, #24]
 529              	.LVL58:
 530              	.L11:
 531 011c 206A     		ldr	r0, [r4, #32]
 532 011e 2946     		mov	r1, r5
 533 0120 9847     		blx	r3
 534              	.LVL59:
 535              	.L8:
 536              	.LBE20:
 537              	.LBE27:
  57:subsystems/gps.c **** }
 538              		.loc 1 57 0
 539 0122 07B0     		add	sp, sp, #28
 540              		@ sp needed
 541 0124 BDE8F083 		pop	{r4, r5, r6, r7, r8, r9, pc}
 542              	.LVL60:
 543              	.L13:
 544              		.align	2
 545              	.L12:
 546 0128 08000000 		.word	.LC1
 547 012c 00000000 		.word	.LANCHOR0
 548              		.cfi_endproc
 549              	.LFE362:
 551              		.section	.text.send_svinfo,"ax",%progbits
 552              		.align	1
 553              		.thumb
 554              		.thumb_func
 556              	send_svinfo:
 557              	.LFB363:
  61:subsystems/gps.c **** {
 558              		.loc 1 61 0
 559              		.cfi_startproc
 560              		@ args = 0, pretend = 0, frame = 0
 561              		@ frame_needed = 0, uses_anonymous_args = 0
 562              	.LVL61:
 563 0000 10B5     		push	{r4, lr}
 564              		.cfi_def_cfa_offset 8
 565              		.cfi_offset 4, -8
 566              		.cfi_offset 14, -4
  63:subsystems/gps.c ****   if (i == gps.nb_channels) { i = 0; }
 567              		.loc 1 63 0
 568 0002 084B     		ldr	r3, .L16
 569 0004 084C     		ldr	r4, .L16+4
 570 0006 93F86430 		ldrb	r3, [r3, #100]	@ zero_extendqisi2
 571 000a 2278     		ldrb	r2, [r4]	@ zero_extendqisi2
 572 000c 9A42     		cmp	r2, r3
 573 000e 04BF     		itt	eq
 574 0010 0023     		moveq	r3, #0
 575 0012 2370     		strbeq	r3, [r4]
  64:subsystems/gps.c ****   send_svinfo_id(trans, dev, i);
 576              		.loc 1 64 0
 577 0014 2278     		ldrb	r2, [r4]	@ zero_extendqisi2
 578 0016 FFF7FEFF 		bl	send_svinfo_id
 579              	.LVL62:
  65:subsystems/gps.c ****   i++;
 580              		.loc 1 65 0
 581 001a 2378     		ldrb	r3, [r4]	@ zero_extendqisi2
 582 001c 0133     		adds	r3, r3, #1
 583 001e 2370     		strb	r3, [r4]
 584 0020 10BD     		pop	{r4, pc}
 585              	.L17:
 586 0022 00BF     		.align	2
 587              	.L16:
 588 0024 00000000 		.word	.LANCHOR0
 589 0028 00000000 		.word	.LANCHOR1
 590              		.cfi_endproc
 591              	.LFE363:
 593              		.section	.text.send_svinfo_available,"ax",%progbits
 594              		.align	1
 595              		.thumb
 596              		.thumb_func
 598              	send_svinfo_available:
 599              	.LFB364:
  73:subsystems/gps.c **** {
 600              		.loc 1 73 0
 601              		.cfi_startproc
 602              		@ args = 0, pretend = 0, frame = 0
 603              		@ frame_needed = 0, uses_anonymous_args = 0
 604              	.LVL63:
 605 0000 F8B5     		push	{r3, r4, r5, r6, r7, lr}
 606              		.cfi_def_cfa_offset 24
 607              		.cfi_offset 3, -24
 608              		.cfi_offset 4, -20
 609              		.cfi_offset 5, -16
 610              		.cfi_offset 6, -12
 611              		.cfi_offset 7, -8
 612              		.cfi_offset 14, -4
  76:subsystems/gps.c ****   if (i >= gps.nb_channels) { i = 0; }
 613              		.loc 1 76 0
 614 0002 134C     		ldr	r4, .L22
 615 0004 134B     		ldr	r3, .L22+4
 616 0006 2578     		ldrb	r5, [r4]	@ zero_extendqisi2
 617 0008 93F86420 		ldrb	r2, [r3, #100]	@ zero_extendqisi2
  79:subsystems/gps.c ****   if (gps.fix != GPS_FIX_3D) {
 618              		.loc 1 79 0
 619 000c 93F85B30 		ldrb	r3, [r3, #91]	@ zero_extendqisi2
 620 0010 104E     		ldr	r6, .L22+4
  76:subsystems/gps.c ****   if (i >= gps.nb_channels) { i = 0; }
 621              		.loc 1 76 0
 622 0012 9542     		cmp	r5, r2
 623 0014 24BF     		itt	cs
 624 0016 0022     		movcs	r2, #0
 625 0018 2270     		strbcs	r2, [r4]
  79:subsystems/gps.c ****   if (gps.fix != GPS_FIX_3D) {
 626              		.loc 1 79 0
 627 001a 032B     		cmp	r3, #3
  80:subsystems/gps.c ****     send_svinfo_id(trans, dev, i);
 628              		.loc 1 80 0
 629 001c 2278     		ldrb	r2, [r4]	@ zero_extendqisi2
  79:subsystems/gps.c ****   if (gps.fix != GPS_FIX_3D) {
 630              		.loc 1 79 0
 631 001e 02D0     		beq	.L20
  80:subsystems/gps.c ****     send_svinfo_id(trans, dev, i);
 632              		.loc 1 80 0
 633 0020 FFF7FEFF 		bl	send_svinfo_id
 634              	.LVL64:
 635 0024 10E0     		b	.L21
 636              	.LVL65:
 637              	.L20:
  81:subsystems/gps.c ****   } else if (gps.svinfos[i].cno != last_cnos[i]) {
 638              		.loc 1 81 0
 639 0026 06EBC203 		add	r3, r6, r2, lsl #3
 640 002a 0B4D     		ldr	r5, .L22+8
 641 002c 93F86970 		ldrb	r7, [r3, #105]	@ zero_extendqisi2
 642 0030 AB5C     		ldrb	r3, [r5, r2]	@ zero_extendqisi2
 643 0032 9F42     		cmp	r7, r3
 644 0034 08D0     		beq	.L21
  82:subsystems/gps.c ****     send_svinfo_id(trans, dev, i);
 645              		.loc 1 82 0
 646 0036 FFF7FEFF 		bl	send_svinfo_id
 647              	.LVL66:
  83:subsystems/gps.c ****     last_cnos[i] = gps.svinfos[i].cno;
 648              		.loc 1 83 0
 649 003a 054B     		ldr	r3, .L22
 650 003c 1B78     		ldrb	r3, [r3]	@ zero_extendqisi2
 651 003e 06EBC306 		add	r6, r6, r3, lsl #3
 652 0042 96F86920 		ldrb	r2, [r6, #105]	@ zero_extendqisi2
 653 0046 EA54     		strb	r2, [r5, r3]
 654              	.L21:
  85:subsystems/gps.c ****   i++;
 655              		.loc 1 85 0
 656 0048 2378     		ldrb	r3, [r4]	@ zero_extendqisi2
 657 004a 0133     		adds	r3, r3, #1
 658 004c 2370     		strb	r3, [r4]
 659 004e F8BD     		pop	{r3, r4, r5, r6, r7, pc}
 660              	.L23:
 661              		.align	2
 662              	.L22:
 663 0050 00000000 		.word	.LANCHOR2
 664 0054 00000000 		.word	.LANCHOR0
 665 0058 00000000 		.word	.LANCHOR3
 666              		.cfi_endproc
 667              	.LFE364:
 669              		.section	.text.send_gps_int,"ax",%progbits
 670              		.align	1
 671              		.thumb
 672              		.thumb_func
 674              	send_gps_int:
 675              	.LFB366:
 102:subsystems/gps.c **** {
 676              		.loc 1 102 0
 677              		.cfi_startproc
 678              		@ args = 0, pretend = 0, frame = 8
 679              		@ frame_needed = 0, uses_anonymous_args = 0
 680              	.LVL67:
 681 0000 2DE9FF47 		push	{r0, r1, r2, r3, r4, r5, r6, r7, r8, r9, r10, lr}
 682              		.cfi_def_cfa_offset 48
 683              		.cfi_offset 0, -48
 684              		.cfi_offset 1, -44
 685              		.cfi_offset 2, -40
 686              		.cfi_offset 3, -36
 687              		.cfi_offset 4, -32
 688              		.cfi_offset 5, -28
 689              		.cfi_offset 6, -24
 690              		.cfi_offset 7, -20
 691              		.cfi_offset 8, -16
 692              		.cfi_offset 9, -12
 693              		.cfi_offset 10, -8
 694              		.cfi_offset 14, -4
 695              	.LBB30:
 696              	.LBB31:
1214:/home/lsk/paparazzi/var/include/messages.h **** }
1215:/home/lsk/paparazzi/var/include/messages.h **** 
1216:/home/lsk/paparazzi/var/include/messages.h **** #define DOWNLINK_SEND_H_CTL_A(_trans, _dev, roll_sum_err, roll_sp, roll_ref, phi, aileron_sp, pitch
1217:/home/lsk/paparazzi/var/include/messages.h **** static inline void pprz_msg_send_H_CTL_A(struct transport_tx *trans, struct link_device *dev, uint8
1218:/home/lsk/paparazzi/var/include/messages.h **** 	if (trans->check_available_space(trans->impl, dev, trans->size_of(trans->impl, 0+4+4+4+4+2+4+4+4+4
1219:/home/lsk/paparazzi/var/include/messages.h **** 	  trans->count_bytes(trans->impl, dev, trans->size_of(trans->impl, 0+4+4+4+4+2+4+4+4+4+2 +2 /* msg
1220:/home/lsk/paparazzi/var/include/messages.h **** 	  trans->start_message(trans->impl, dev, 0+4+4+4+4+2+4+4+4+4+2 +2 /* msg header overhead */);
1221:/home/lsk/paparazzi/var/include/messages.h **** 	  trans->put_bytes(trans->impl, dev, DL_TYPE_UINT8, DL_FORMAT_SCALAR, 1, &ac_id);
1222:/home/lsk/paparazzi/var/include/messages.h **** 	  trans->put_named_byte(trans->impl, dev, DL_TYPE_UINT8, DL_FORMAT_SCALAR, DL_H_CTL_A, "H_CTL_A");
1223:/home/lsk/paparazzi/var/include/messages.h **** 	  trans->put_bytes(trans->impl, dev, DL_TYPE_FLOAT, DL_FORMAT_SCALAR, 4, (void *) _roll_sum_err);
1224:/home/lsk/paparazzi/var/include/messages.h **** 	  trans->put_bytes(trans->impl, dev, DL_TYPE_FLOAT, DL_FORMAT_SCALAR, 4, (void *) _roll_sp);
1225:/home/lsk/paparazzi/var/include/messages.h **** 	  trans->put_bytes(trans->impl, dev, DL_TYPE_FLOAT, DL_FORMAT_SCALAR, 4, (void *) _roll_ref);
1226:/home/lsk/paparazzi/var/include/messages.h **** 	  trans->put_bytes(trans->impl, dev, DL_TYPE_FLOAT, DL_FORMAT_SCALAR, 4, (void *) _phi);
1227:/home/lsk/paparazzi/var/include/messages.h **** 	  trans->put_bytes(trans->impl, dev, DL_TYPE_INT16, DL_FORMAT_SCALAR, 2, (void *) _aileron_sp);
1228:/home/lsk/paparazzi/var/include/messages.h **** 	  trans->put_bytes(trans->impl, dev, DL_TYPE_FLOAT, DL_FORMAT_SCALAR, 4, (void *) _pitch_sum_err);
1229:/home/lsk/paparazzi/var/include/messages.h **** 	  trans->put_bytes(trans->impl, dev, DL_TYPE_FLOAT, DL_FORMAT_SCALAR, 4, (void *) _pitch_sp);
1230:/home/lsk/paparazzi/var/include/messages.h **** 	  trans->put_bytes(trans->impl, dev, DL_TYPE_FLOAT, DL_FORMAT_SCALAR, 4, (void *) _pitch_ref);
1231:/home/lsk/paparazzi/var/include/messages.h **** 	  trans->put_bytes(trans->impl, dev, DL_TYPE_FLOAT, DL_FORMAT_SCALAR, 4, (void *) _theta);
1232:/home/lsk/paparazzi/var/include/messages.h **** 	  trans->put_bytes(trans->impl, dev, DL_TYPE_INT16, DL_FORMAT_SCALAR, 2, (void *) _elevator_sp);
1233:/home/lsk/paparazzi/var/include/messages.h **** 	  trans->end_message(trans->impl, dev);
1234:/home/lsk/paparazzi/var/include/messages.h **** 	} else
1235:/home/lsk/paparazzi/var/include/messages.h **** 	  trans->overrun(trans->impl, dev);
1236:/home/lsk/paparazzi/var/include/messages.h **** }
1237:/home/lsk/paparazzi/var/include/messages.h **** 
1238:/home/lsk/paparazzi/var/include/messages.h **** #define DOWNLINK_SEND_TURB_PRESSURE_RAW(_trans, _dev, ch_0, ch_1, ch_2, ch_3, ch_4, ch_5, ch_6, ch_
1239:/home/lsk/paparazzi/var/include/messages.h **** static inline void pprz_msg_send_TURB_PRESSURE_RAW(struct transport_tx *trans, struct link_device *
1240:/home/lsk/paparazzi/var/include/messages.h **** 	if (trans->check_available_space(trans->impl, dev, trans->size_of(trans->impl, 0+4+4+4+4+4+4+4+4+4
1241:/home/lsk/paparazzi/var/include/messages.h **** 	  trans->count_bytes(trans->impl, dev, trans->size_of(trans->impl, 0+4+4+4+4+4+4+4+4+4+4+4+4+4+4+4
1242:/home/lsk/paparazzi/var/include/messages.h **** 	  trans->start_message(trans->impl, dev, 0+4+4+4+4+4+4+4+4+4+4+4+4+4+4+4+4 +2 /* msg header overhe
1243:/home/lsk/paparazzi/var/include/messages.h **** 	  trans->put_bytes(trans->impl, dev, DL_TYPE_UINT8, DL_FORMAT_SCALAR, 1, &ac_id);
1244:/home/lsk/paparazzi/var/include/messages.h **** 	  trans->put_named_byte(trans->impl, dev, DL_TYPE_UINT8, DL_FORMAT_SCALAR, DL_TURB_PRESSURE_RAW, "
1245:/home/lsk/paparazzi/var/include/messages.h **** 	  trans->put_bytes(trans->impl, dev, DL_TYPE_INT32, DL_FORMAT_SCALAR, 4, (void *) _ch_0);
1246:/home/lsk/paparazzi/var/include/messages.h **** 	  trans->put_bytes(trans->impl, dev, DL_TYPE_INT32, DL_FORMAT_SCALAR, 4, (void *) _ch_1);
1247:/home/lsk/paparazzi/var/include/messages.h **** 	  trans->put_bytes(trans->impl, dev, DL_TYPE_INT32, DL_FORMAT_SCALAR, 4, (void *) _ch_2);
1248:/home/lsk/paparazzi/var/include/messages.h **** 	  trans->put_bytes(trans->impl, dev, DL_TYPE_INT32, DL_FORMAT_SCALAR, 4, (void *) _ch_3);
1249:/home/lsk/paparazzi/var/include/messages.h **** 	  trans->put_bytes(trans->impl, dev, DL_TYPE_INT32, DL_FORMAT_SCALAR, 4, (void *) _ch_4);
1250:/home/lsk/paparazzi/var/include/messages.h **** 	  trans->put_bytes(trans->impl, dev, DL_TYPE_INT32, DL_FORMAT_SCALAR, 4, (void *) _ch_5);
1251:/home/lsk/paparazzi/var/include/messages.h **** 	  trans->put_bytes(trans->impl, dev, DL_TYPE_INT32, DL_FORMAT_SCALAR, 4, (void *) _ch_6);
1252:/home/lsk/paparazzi/var/include/messages.h **** 	  trans->put_bytes(trans->impl, dev, DL_TYPE_INT32, DL_FORMAT_SCALAR, 4, (void *) _ch_7);
1253:/home/lsk/paparazzi/var/include/messages.h **** 	  trans->put_bytes(trans->impl, dev, DL_TYPE_INT32, DL_FORMAT_SCALAR, 4, (void *) _ch_8);
1254:/home/lsk/paparazzi/var/include/messages.h **** 	  trans->put_bytes(trans->impl, dev, DL_TYPE_INT32, DL_FORMAT_SCALAR, 4, (void *) _ch_9);
1255:/home/lsk/paparazzi/var/include/messages.h **** 	  trans->put_bytes(trans->impl, dev, DL_TYPE_INT32, DL_FORMAT_SCALAR, 4, (void *) _ch_10);
1256:/home/lsk/paparazzi/var/include/messages.h **** 	  trans->put_bytes(trans->impl, dev, DL_TYPE_INT32, DL_FORMAT_SCALAR, 4, (void *) _ch_11);
1257:/home/lsk/paparazzi/var/include/messages.h **** 	  trans->put_bytes(trans->impl, dev, DL_TYPE_INT32, DL_FORMAT_SCALAR, 4, (void *) _ch_12);
1258:/home/lsk/paparazzi/var/include/messages.h **** 	  trans->put_bytes(trans->impl, dev, DL_TYPE_INT32, DL_FORMAT_SCALAR, 4, (void *) _ch_13);
1259:/home/lsk/paparazzi/var/include/messages.h **** 	  trans->put_bytes(trans->impl, dev, DL_TYPE_INT32, DL_FORMAT_SCALAR, 4, (void *) _ch_14);
1260:/home/lsk/paparazzi/var/include/messages.h **** 	  trans->put_bytes(trans->impl, dev, DL_TYPE_INT32, DL_FORMAT_SCALAR, 4, (void *) _ch_15);
1261:/home/lsk/paparazzi/var/include/messages.h **** 	  trans->end_message(trans->impl, dev);
1262:/home/lsk/paparazzi/var/include/messages.h **** 	} else
1263:/home/lsk/paparazzi/var/include/messages.h **** 	  trans->overrun(trans->impl, dev);
1264:/home/lsk/paparazzi/var/include/messages.h **** }
1265:/home/lsk/paparazzi/var/include/messages.h **** 
1266:/home/lsk/paparazzi/var/include/messages.h **** #define DOWNLINK_SEND_TURB_PRESSURE_VOLTAGE(_trans, _dev, ch_1_p, ch_1_t, ch_2_p, ch_2_t, ch_3_p, c
1267:/home/lsk/paparazzi/var/include/messages.h **** static inline void pprz_msg_send_TURB_PRESSURE_VOLTAGE(struct transport_tx *trans, struct link_devi
1268:/home/lsk/paparazzi/var/include/messages.h **** 	if (trans->check_available_space(trans->impl, dev, trans->size_of(trans->impl, 0+4+4+4+4+4+4+4+4+4
1269:/home/lsk/paparazzi/var/include/messages.h **** 	  trans->count_bytes(trans->impl, dev, trans->size_of(trans->impl, 0+4+4+4+4+4+4+4+4+4+4+4+4+4+4+4
1270:/home/lsk/paparazzi/var/include/messages.h **** 	  trans->start_message(trans->impl, dev, 0+4+4+4+4+4+4+4+4+4+4+4+4+4+4+4+4 +2 /* msg header overhe
1271:/home/lsk/paparazzi/var/include/messages.h **** 	  trans->put_bytes(trans->impl, dev, DL_TYPE_UINT8, DL_FORMAT_SCALAR, 1, &ac_id);
1272:/home/lsk/paparazzi/var/include/messages.h **** 	  trans->put_named_byte(trans->impl, dev, DL_TYPE_UINT8, DL_FORMAT_SCALAR, DL_TURB_PRESSURE_VOLTAG
1273:/home/lsk/paparazzi/var/include/messages.h **** 	  trans->put_bytes(trans->impl, dev, DL_TYPE_FLOAT, DL_FORMAT_SCALAR, 4, (void *) _ch_1_p);
1274:/home/lsk/paparazzi/var/include/messages.h **** 	  trans->put_bytes(trans->impl, dev, DL_TYPE_FLOAT, DL_FORMAT_SCALAR, 4, (void *) _ch_1_t);
1275:/home/lsk/paparazzi/var/include/messages.h **** 	  trans->put_bytes(trans->impl, dev, DL_TYPE_FLOAT, DL_FORMAT_SCALAR, 4, (void *) _ch_2_p);
1276:/home/lsk/paparazzi/var/include/messages.h **** 	  trans->put_bytes(trans->impl, dev, DL_TYPE_FLOAT, DL_FORMAT_SCALAR, 4, (void *) _ch_2_t);
1277:/home/lsk/paparazzi/var/include/messages.h **** 	  trans->put_bytes(trans->impl, dev, DL_TYPE_FLOAT, DL_FORMAT_SCALAR, 4, (void *) _ch_3_p);
1278:/home/lsk/paparazzi/var/include/messages.h **** 	  trans->put_bytes(trans->impl, dev, DL_TYPE_FLOAT, DL_FORMAT_SCALAR, 4, (void *) _ch_3_t);
1279:/home/lsk/paparazzi/var/include/messages.h **** 	  trans->put_bytes(trans->impl, dev, DL_TYPE_FLOAT, DL_FORMAT_SCALAR, 4, (void *) _ch_4_p);
1280:/home/lsk/paparazzi/var/include/messages.h **** 	  trans->put_bytes(trans->impl, dev, DL_TYPE_FLOAT, DL_FORMAT_SCALAR, 4, (void *) _ch_4_t);
1281:/home/lsk/paparazzi/var/include/messages.h **** 	  trans->put_bytes(trans->impl, dev, DL_TYPE_FLOAT, DL_FORMAT_SCALAR, 4, (void *) _ch_5_p);
1282:/home/lsk/paparazzi/var/include/messages.h **** 	  trans->put_bytes(trans->impl, dev, DL_TYPE_FLOAT, DL_FORMAT_SCALAR, 4, (void *) _ch_5_t);
1283:/home/lsk/paparazzi/var/include/messages.h **** 	  trans->put_bytes(trans->impl, dev, DL_TYPE_FLOAT, DL_FORMAT_SCALAR, 4, (void *) _ch_6_p);
1284:/home/lsk/paparazzi/var/include/messages.h **** 	  trans->put_bytes(trans->impl, dev, DL_TYPE_FLOAT, DL_FORMAT_SCALAR, 4, (void *) _ch_6_t);
1285:/home/lsk/paparazzi/var/include/messages.h **** 	  trans->put_bytes(trans->impl, dev, DL_TYPE_FLOAT, DL_FORMAT_SCALAR, 4, (void *) _ch_7_p);
1286:/home/lsk/paparazzi/var/include/messages.h **** 	  trans->put_bytes(trans->impl, dev, DL_TYPE_FLOAT, DL_FORMAT_SCALAR, 4, (void *) _ch_7_t);
1287:/home/lsk/paparazzi/var/include/messages.h **** 	  trans->put_bytes(trans->impl, dev, DL_TYPE_FLOAT, DL_FORMAT_SCALAR, 4, (void *) _gnd1);
1288:/home/lsk/paparazzi/var/include/messages.h **** 	  trans->put_bytes(trans->impl, dev, DL_TYPE_FLOAT, DL_FORMAT_SCALAR, 4, (void *) _gnd2);
1289:/home/lsk/paparazzi/var/include/messages.h **** 	  trans->end_message(trans->impl, dev);
1290:/home/lsk/paparazzi/var/include/messages.h **** 	} else
1291:/home/lsk/paparazzi/var/include/messages.h **** 	  trans->overrun(trans->impl, dev);
1292:/home/lsk/paparazzi/var/include/messages.h **** }
1293:/home/lsk/paparazzi/var/include/messages.h **** 
1294:/home/lsk/paparazzi/var/include/messages.h **** #define DOWNLINK_SEND_CAM_POINT(_trans, _dev, cam_point_distance_from_home, cam_point_lat, cam_poin
1295:/home/lsk/paparazzi/var/include/messages.h **** static inline void pprz_msg_send_CAM_POINT(struct transport_tx *trans, struct link_device *dev, uin
1296:/home/lsk/paparazzi/var/include/messages.h **** 	if (trans->check_available_space(trans->impl, dev, trans->size_of(trans->impl, 0+2+4+4 +2 /* msg h
1297:/home/lsk/paparazzi/var/include/messages.h **** 	  trans->count_bytes(trans->impl, dev, trans->size_of(trans->impl, 0+2+4+4 +2 /* msg header overhe
1298:/home/lsk/paparazzi/var/include/messages.h **** 	  trans->start_message(trans->impl, dev, 0+2+4+4 +2 /* msg header overhead */);
1299:/home/lsk/paparazzi/var/include/messages.h **** 	  trans->put_bytes(trans->impl, dev, DL_TYPE_UINT8, DL_FORMAT_SCALAR, 1, &ac_id);
1300:/home/lsk/paparazzi/var/include/messages.h **** 	  trans->put_named_byte(trans->impl, dev, DL_TYPE_UINT8, DL_FORMAT_SCALAR, DL_CAM_POINT, "CAM_POIN
1301:/home/lsk/paparazzi/var/include/messages.h **** 	  trans->put_bytes(trans->impl, dev, DL_TYPE_UINT16, DL_FORMAT_SCALAR, 2, (void *) _cam_point_dist
1302:/home/lsk/paparazzi/var/include/messages.h **** 	  trans->put_bytes(trans->impl, dev, DL_TYPE_FLOAT, DL_FORMAT_SCALAR, 4, (void *) _cam_point_lat);
1303:/home/lsk/paparazzi/var/include/messages.h **** 	  trans->put_bytes(trans->impl, dev, DL_TYPE_FLOAT, DL_FORMAT_SCALAR, 4, (void *) _cam_point_lon);
1304:/home/lsk/paparazzi/var/include/messages.h **** 	  trans->end_message(trans->impl, dev);
1305:/home/lsk/paparazzi/var/include/messages.h **** 	} else
1306:/home/lsk/paparazzi/var/include/messages.h **** 	  trans->overrun(trans->impl, dev);
1307:/home/lsk/paparazzi/var/include/messages.h **** }
1308:/home/lsk/paparazzi/var/include/messages.h **** 
1309:/home/lsk/paparazzi/var/include/messages.h **** #define DOWNLINK_SEND_DC_INFO(_trans, _dev, mode, lat, lon, alt, course, photo_nr, dist, next_dist,
1310:/home/lsk/paparazzi/var/include/messages.h **** static inline void pprz_msg_send_DC_INFO(struct transport_tx *trans, struct link_device *dev, uint8
1311:/home/lsk/paparazzi/var/include/messages.h **** 	if (trans->check_available_space(trans->impl, dev, trans->size_of(trans->impl, 0+2+4+4+4+4+2+4+4+4
1312:/home/lsk/paparazzi/var/include/messages.h **** 	  trans->count_bytes(trans->impl, dev, trans->size_of(trans->impl, 0+2+4+4+4+4+2+4+4+4+4+4+4+4+2+1
1313:/home/lsk/paparazzi/var/include/messages.h **** 	  trans->start_message(trans->impl, dev, 0+2+4+4+4+4+2+4+4+4+4+4+4+4+2+1 +2 /* msg header overhead
1314:/home/lsk/paparazzi/var/include/messages.h **** 	  trans->put_bytes(trans->impl, dev, DL_TYPE_UINT8, DL_FORMAT_SCALAR, 1, &ac_id);
1315:/home/lsk/paparazzi/var/include/messages.h **** 	  trans->put_named_byte(trans->impl, dev, DL_TYPE_UINT8, DL_FORMAT_SCALAR, DL_DC_INFO, "DC_INFO");
1316:/home/lsk/paparazzi/var/include/messages.h **** 	  trans->put_bytes(trans->impl, dev, DL_TYPE_INT16, DL_FORMAT_SCALAR, 2, (void *) _mode);
1317:/home/lsk/paparazzi/var/include/messages.h **** 	  trans->put_bytes(trans->impl, dev, DL_TYPE_INT32, DL_FORMAT_SCALAR, 4, (void *) _lat);
1318:/home/lsk/paparazzi/var/include/messages.h **** 	  trans->put_bytes(trans->impl, dev, DL_TYPE_INT32, DL_FORMAT_SCALAR, 4, (void *) _lon);
1319:/home/lsk/paparazzi/var/include/messages.h **** 	  trans->put_bytes(trans->impl, dev, DL_TYPE_INT32, DL_FORMAT_SCALAR, 4, (void *) _alt);
1320:/home/lsk/paparazzi/var/include/messages.h **** 	  trans->put_bytes(trans->impl, dev, DL_TYPE_FLOAT, DL_FORMAT_SCALAR, 4, (void *) _course);
1321:/home/lsk/paparazzi/var/include/messages.h **** 	  trans->put_bytes(trans->impl, dev, DL_TYPE_UINT16, DL_FORMAT_SCALAR, 2, (void *) _photo_nr);
1322:/home/lsk/paparazzi/var/include/messages.h **** 	  trans->put_bytes(trans->impl, dev, DL_TYPE_FLOAT, DL_FORMAT_SCALAR, 4, (void *) _dist);
1323:/home/lsk/paparazzi/var/include/messages.h **** 	  trans->put_bytes(trans->impl, dev, DL_TYPE_FLOAT, DL_FORMAT_SCALAR, 4, (void *) _next_dist);
1324:/home/lsk/paparazzi/var/include/messages.h **** 	  trans->put_bytes(trans->impl, dev, DL_TYPE_FLOAT, DL_FORMAT_SCALAR, 4, (void *) _start_x);
1325:/home/lsk/paparazzi/var/include/messages.h **** 	  trans->put_bytes(trans->impl, dev, DL_TYPE_FLOAT, DL_FORMAT_SCALAR, 4, (void *) _start_y);
1326:/home/lsk/paparazzi/var/include/messages.h **** 	  trans->put_bytes(trans->impl, dev, DL_TYPE_FLOAT, DL_FORMAT_SCALAR, 4, (void *) _start_angle);
1327:/home/lsk/paparazzi/var/include/messages.h **** 	  trans->put_bytes(trans->impl, dev, DL_TYPE_FLOAT, DL_FORMAT_SCALAR, 4, (void *) _angle);
1328:/home/lsk/paparazzi/var/include/messages.h **** 	  trans->put_bytes(trans->impl, dev, DL_TYPE_FLOAT, DL_FORMAT_SCALAR, 4, (void *) _last_block);
1329:/home/lsk/paparazzi/var/include/messages.h **** 	  trans->put_bytes(trans->impl, dev, DL_TYPE_UINT16, DL_FORMAT_SCALAR, 2, (void *) _count);
1330:/home/lsk/paparazzi/var/include/messages.h **** 	  trans->put_bytes(trans->impl, dev, DL_TYPE_UINT8, DL_FORMAT_SCALAR, 1, (void *) _shutter);
1331:/home/lsk/paparazzi/var/include/messages.h **** 	  trans->end_message(trans->impl, dev);
1332:/home/lsk/paparazzi/var/include/messages.h **** 	} else
1333:/home/lsk/paparazzi/var/include/messages.h **** 	  trans->overrun(trans->impl, dev);
1334:/home/lsk/paparazzi/var/include/messages.h **** }
1335:/home/lsk/paparazzi/var/include/messages.h **** 
1336:/home/lsk/paparazzi/var/include/messages.h **** #define DOWNLINK_SEND_AMSYS_BARO(_trans, _dev, pBaroRaw, pBaro, pHomePressure, AltOffset, aktuell, 
1337:/home/lsk/paparazzi/var/include/messages.h **** static inline void pprz_msg_send_AMSYS_BARO(struct transport_tx *trans, struct link_device *dev, ui
1338:/home/lsk/paparazzi/var/include/messages.h **** 	if (trans->check_available_space(trans->impl, dev, trans->size_of(trans->impl, 0+2+4+4+4+4+4+4 +2 
1339:/home/lsk/paparazzi/var/include/messages.h **** 	  trans->count_bytes(trans->impl, dev, trans->size_of(trans->impl, 0+2+4+4+4+4+4+4 +2 /* msg heade
1340:/home/lsk/paparazzi/var/include/messages.h **** 	  trans->start_message(trans->impl, dev, 0+2+4+4+4+4+4+4 +2 /* msg header overhead */);
1341:/home/lsk/paparazzi/var/include/messages.h **** 	  trans->put_bytes(trans->impl, dev, DL_TYPE_UINT8, DL_FORMAT_SCALAR, 1, &ac_id);
1342:/home/lsk/paparazzi/var/include/messages.h **** 	  trans->put_named_byte(trans->impl, dev, DL_TYPE_UINT8, DL_FORMAT_SCALAR, DL_AMSYS_BARO, "AMSYS_B
1343:/home/lsk/paparazzi/var/include/messages.h **** 	  trans->put_bytes(trans->impl, dev, DL_TYPE_UINT16, DL_FORMAT_SCALAR, 2, (void *) _pBaroRaw);
1344:/home/lsk/paparazzi/var/include/messages.h **** 	  trans->put_bytes(trans->impl, dev, DL_TYPE_FLOAT, DL_FORMAT_SCALAR, 4, (void *) _pBaro);
1345:/home/lsk/paparazzi/var/include/messages.h **** 	  trans->put_bytes(trans->impl, dev, DL_TYPE_FLOAT, DL_FORMAT_SCALAR, 4, (void *) _pHomePressure);
1346:/home/lsk/paparazzi/var/include/messages.h **** 	  trans->put_bytes(trans->impl, dev, DL_TYPE_FLOAT, DL_FORMAT_SCALAR, 4, (void *) _AltOffset);
1347:/home/lsk/paparazzi/var/include/messages.h **** 	  trans->put_bytes(trans->impl, dev, DL_TYPE_FLOAT, DL_FORMAT_SCALAR, 4, (void *) _aktuell);
1348:/home/lsk/paparazzi/var/include/messages.h **** 	  trans->put_bytes(trans->impl, dev, DL_TYPE_FLOAT, DL_FORMAT_SCALAR, 4, (void *) _Over_Ground);
1349:/home/lsk/paparazzi/var/include/messages.h **** 	  trans->put_bytes(trans->impl, dev, DL_TYPE_FLOAT, DL_FORMAT_SCALAR, 4, (void *) _tempBaro);
1350:/home/lsk/paparazzi/var/include/messages.h **** 	  trans->end_message(trans->impl, dev);
1351:/home/lsk/paparazzi/var/include/messages.h **** 	} else
1352:/home/lsk/paparazzi/var/include/messages.h **** 	  trans->overrun(trans->impl, dev);
1353:/home/lsk/paparazzi/var/include/messages.h **** }
1354:/home/lsk/paparazzi/var/include/messages.h **** 
1355:/home/lsk/paparazzi/var/include/messages.h **** #define DOWNLINK_SEND_AMSYS_AIRSPEED(_trans, _dev, asRaw, asPresure, asAirspeed, asAirsFilt, asTemp
1356:/home/lsk/paparazzi/var/include/messages.h **** static inline void pprz_msg_send_AMSYS_AIRSPEED(struct transport_tx *trans, struct link_device *dev
1357:/home/lsk/paparazzi/var/include/messages.h **** 	if (trans->check_available_space(trans->impl, dev, trans->size_of(trans->impl, 0+2+4+4+4+4 +2 /* m
1358:/home/lsk/paparazzi/var/include/messages.h **** 	  trans->count_bytes(trans->impl, dev, trans->size_of(trans->impl, 0+2+4+4+4+4 +2 /* msg header ov
1359:/home/lsk/paparazzi/var/include/messages.h **** 	  trans->start_message(trans->impl, dev, 0+2+4+4+4+4 +2 /* msg header overhead */);
1360:/home/lsk/paparazzi/var/include/messages.h **** 	  trans->put_bytes(trans->impl, dev, DL_TYPE_UINT8, DL_FORMAT_SCALAR, 1, &ac_id);
1361:/home/lsk/paparazzi/var/include/messages.h **** 	  trans->put_named_byte(trans->impl, dev, DL_TYPE_UINT8, DL_FORMAT_SCALAR, DL_AMSYS_AIRSPEED, "AMS
1362:/home/lsk/paparazzi/var/include/messages.h **** 	  trans->put_bytes(trans->impl, dev, DL_TYPE_UINT16, DL_FORMAT_SCALAR, 2, (void *) _asRaw);
1363:/home/lsk/paparazzi/var/include/messages.h **** 	  trans->put_bytes(trans->impl, dev, DL_TYPE_FLOAT, DL_FORMAT_SCALAR, 4, (void *) _asPresure);
1364:/home/lsk/paparazzi/var/include/messages.h **** 	  trans->put_bytes(trans->impl, dev, DL_TYPE_FLOAT, DL_FORMAT_SCALAR, 4, (void *) _asAirspeed);
1365:/home/lsk/paparazzi/var/include/messages.h **** 	  trans->put_bytes(trans->impl, dev, DL_TYPE_FLOAT, DL_FORMAT_SCALAR, 4, (void *) _asAirsFilt);
1366:/home/lsk/paparazzi/var/include/messages.h **** 	  trans->put_bytes(trans->impl, dev, DL_TYPE_FLOAT, DL_FORMAT_SCALAR, 4, (void *) _asTemp);
1367:/home/lsk/paparazzi/var/include/messages.h **** 	  trans->end_message(trans->impl, dev);
1368:/home/lsk/paparazzi/var/include/messages.h **** 	} else
1369:/home/lsk/paparazzi/var/include/messages.h **** 	  trans->overrun(trans->impl, dev);
1370:/home/lsk/paparazzi/var/include/messages.h **** }
1371:/home/lsk/paparazzi/var/include/messages.h **** 
1372:/home/lsk/paparazzi/var/include/messages.h **** #define DOWNLINK_SEND_FLIGHT_BENCHMARK(_trans, _dev, SE_As, SE_Alt, SE_Pos, Err_As, Err_Alt, Err_Po
1373:/home/lsk/paparazzi/var/include/messages.h **** static inline void pprz_msg_send_FLIGHT_BENCHMARK(struct transport_tx *trans, struct link_device *d
1374:/home/lsk/paparazzi/var/include/messages.h **** 	if (trans->check_available_space(trans->impl, dev, trans->size_of(trans->impl, 0+4+4+4+4+4+4 +2 /*
1375:/home/lsk/paparazzi/var/include/messages.h **** 	  trans->count_bytes(trans->impl, dev, trans->size_of(trans->impl, 0+4+4+4+4+4+4 +2 /* msg header 
1376:/home/lsk/paparazzi/var/include/messages.h **** 	  trans->start_message(trans->impl, dev, 0+4+4+4+4+4+4 +2 /* msg header overhead */);
1377:/home/lsk/paparazzi/var/include/messages.h **** 	  trans->put_bytes(trans->impl, dev, DL_TYPE_UINT8, DL_FORMAT_SCALAR, 1, &ac_id);
1378:/home/lsk/paparazzi/var/include/messages.h **** 	  trans->put_named_byte(trans->impl, dev, DL_TYPE_UINT8, DL_FORMAT_SCALAR, DL_FLIGHT_BENCHMARK, "F
1379:/home/lsk/paparazzi/var/include/messages.h **** 	  trans->put_bytes(trans->impl, dev, DL_TYPE_FLOAT, DL_FORMAT_SCALAR, 4, (void *) _SE_As);
1380:/home/lsk/paparazzi/var/include/messages.h **** 	  trans->put_bytes(trans->impl, dev, DL_TYPE_FLOAT, DL_FORMAT_SCALAR, 4, (void *) _SE_Alt);
1381:/home/lsk/paparazzi/var/include/messages.h **** 	  trans->put_bytes(trans->impl, dev, DL_TYPE_FLOAT, DL_FORMAT_SCALAR, 4, (void *) _SE_Pos);
1382:/home/lsk/paparazzi/var/include/messages.h **** 	  trans->put_bytes(trans->impl, dev, DL_TYPE_FLOAT, DL_FORMAT_SCALAR, 4, (void *) _Err_As);
1383:/home/lsk/paparazzi/var/include/messages.h **** 	  trans->put_bytes(trans->impl, dev, DL_TYPE_FLOAT, DL_FORMAT_SCALAR, 4, (void *) _Err_Alt);
1384:/home/lsk/paparazzi/var/include/messages.h **** 	  trans->put_bytes(trans->impl, dev, DL_TYPE_FLOAT, DL_FORMAT_SCALAR, 4, (void *) _Err_Pos);
1385:/home/lsk/paparazzi/var/include/messages.h **** 	  trans->end_message(trans->impl, dev);
1386:/home/lsk/paparazzi/var/include/messages.h **** 	} else
1387:/home/lsk/paparazzi/var/include/messages.h **** 	  trans->overrun(trans->impl, dev);
1388:/home/lsk/paparazzi/var/include/messages.h **** }
1389:/home/lsk/paparazzi/var/include/messages.h **** 
1390:/home/lsk/paparazzi/var/include/messages.h **** #define DOWNLINK_SEND_MPL3115_BARO(_trans, _dev, pressure, temp, alt) pprz_msg_send_MPL3115_BARO(&(
1391:/home/lsk/paparazzi/var/include/messages.h **** static inline void pprz_msg_send_MPL3115_BARO(struct transport_tx *trans, struct link_device *dev, 
1392:/home/lsk/paparazzi/var/include/messages.h **** 	if (trans->check_available_space(trans->impl, dev, trans->size_of(trans->impl, 0+4+2+4 +2 /* msg h
1393:/home/lsk/paparazzi/var/include/messages.h **** 	  trans->count_bytes(trans->impl, dev, trans->size_of(trans->impl, 0+4+2+4 +2 /* msg header overhe
1394:/home/lsk/paparazzi/var/include/messages.h **** 	  trans->start_message(trans->impl, dev, 0+4+2+4 +2 /* msg header overhead */);
1395:/home/lsk/paparazzi/var/include/messages.h **** 	  trans->put_bytes(trans->impl, dev, DL_TYPE_UINT8, DL_FORMAT_SCALAR, 1, &ac_id);
1396:/home/lsk/paparazzi/var/include/messages.h **** 	  trans->put_named_byte(trans->impl, dev, DL_TYPE_UINT8, DL_FORMAT_SCALAR, DL_MPL3115_BARO, "MPL31
1397:/home/lsk/paparazzi/var/include/messages.h **** 	  trans->put_bytes(trans->impl, dev, DL_TYPE_UINT32, DL_FORMAT_SCALAR, 4, (void *) _pressure);
1398:/home/lsk/paparazzi/var/include/messages.h **** 	  trans->put_bytes(trans->impl, dev, DL_TYPE_INT16, DL_FORMAT_SCALAR, 2, (void *) _temp);
1399:/home/lsk/paparazzi/var/include/messages.h **** 	  trans->put_bytes(trans->impl, dev, DL_TYPE_FLOAT, DL_FORMAT_SCALAR, 4, (void *) _alt);
1400:/home/lsk/paparazzi/var/include/messages.h **** 	  trans->end_message(trans->impl, dev);
1401:/home/lsk/paparazzi/var/include/messages.h **** 	} else
1402:/home/lsk/paparazzi/var/include/messages.h **** 	  trans->overrun(trans->impl, dev);
1403:/home/lsk/paparazzi/var/include/messages.h **** }
1404:/home/lsk/paparazzi/var/include/messages.h **** 
1405:/home/lsk/paparazzi/var/include/messages.h **** #define DOWNLINK_SEND_AOA_ADC(_trans, _dev, adcVal, AOA) pprz_msg_send_AOA_ADC(&((_trans).trans_tx)
1406:/home/lsk/paparazzi/var/include/messages.h **** static inline void pprz_msg_send_AOA_ADC(struct transport_tx *trans, struct link_device *dev, uint8
1407:/home/lsk/paparazzi/var/include/messages.h **** 	if (trans->check_available_space(trans->impl, dev, trans->size_of(trans->impl, 0+2+4 +2 /* msg hea
1408:/home/lsk/paparazzi/var/include/messages.h **** 	  trans->count_bytes(trans->impl, dev, trans->size_of(trans->impl, 0+2+4 +2 /* msg header overhead
1409:/home/lsk/paparazzi/var/include/messages.h **** 	  trans->start_message(trans->impl, dev, 0+2+4 +2 /* msg header overhead */);
1410:/home/lsk/paparazzi/var/include/messages.h **** 	  trans->put_bytes(trans->impl, dev, DL_TYPE_UINT8, DL_FORMAT_SCALAR, 1, &ac_id);
1411:/home/lsk/paparazzi/var/include/messages.h **** 	  trans->put_named_byte(trans->impl, dev, DL_TYPE_UINT8, DL_FORMAT_SCALAR, DL_AOA_ADC, "AOA_ADC");
1412:/home/lsk/paparazzi/var/include/messages.h **** 	  trans->put_bytes(trans->impl, dev, DL_TYPE_UINT16, DL_FORMAT_SCALAR, 2, (void *) _adcVal);
1413:/home/lsk/paparazzi/var/include/messages.h **** 	  trans->put_bytes(trans->impl, dev, DL_TYPE_FLOAT, DL_FORMAT_SCALAR, 4, (void *) _AOA);
1414:/home/lsk/paparazzi/var/include/messages.h **** 	  trans->end_message(trans->impl, dev);
1415:/home/lsk/paparazzi/var/include/messages.h **** 	} else
1416:/home/lsk/paparazzi/var/include/messages.h **** 	  trans->overrun(trans->impl, dev);
1417:/home/lsk/paparazzi/var/include/messages.h **** }
1418:/home/lsk/paparazzi/var/include/messages.h **** 
1419:/home/lsk/paparazzi/var/include/messages.h **** #define DOWNLINK_SEND_XTEND_RSSI(_trans, _dev, datalink_time, rssi_fade_margin, duty) pprz_msg_send
1420:/home/lsk/paparazzi/var/include/messages.h **** static inline void pprz_msg_send_XTEND_RSSI(struct transport_tx *trans, struct link_device *dev, ui
1421:/home/lsk/paparazzi/var/include/messages.h **** 	if (trans->check_available_space(trans->impl, dev, trans->size_of(trans->impl, 0+2+1+1 +2 /* msg h
1422:/home/lsk/paparazzi/var/include/messages.h **** 	  trans->count_bytes(trans->impl, dev, trans->size_of(trans->impl, 0+2+1+1 +2 /* msg header overhe
1423:/home/lsk/paparazzi/var/include/messages.h **** 	  trans->start_message(trans->impl, dev, 0+2+1+1 +2 /* msg header overhead */);
1424:/home/lsk/paparazzi/var/include/messages.h **** 	  trans->put_bytes(trans->impl, dev, DL_TYPE_UINT8, DL_FORMAT_SCALAR, 1, &ac_id);
1425:/home/lsk/paparazzi/var/include/messages.h **** 	  trans->put_named_byte(trans->impl, dev, DL_TYPE_UINT8, DL_FORMAT_SCALAR, DL_XTEND_RSSI, "XTEND_R
1426:/home/lsk/paparazzi/var/include/messages.h **** 	  trans->put_bytes(trans->impl, dev, DL_TYPE_UINT16, DL_FORMAT_SCALAR, 2, (void *) _datalink_time)
1427:/home/lsk/paparazzi/var/include/messages.h **** 	  trans->put_bytes(trans->impl, dev, DL_TYPE_UINT8, DL_FORMAT_SCALAR, 1, (void *) _rssi_fade_margi
1428:/home/lsk/paparazzi/var/include/messages.h **** 	  trans->put_bytes(trans->impl, dev, DL_TYPE_UINT8, DL_FORMAT_SCALAR, 1, (void *) _duty);
1429:/home/lsk/paparazzi/var/include/messages.h **** 	  trans->end_message(trans->impl, dev);
1430:/home/lsk/paparazzi/var/include/messages.h **** 	} else
1431:/home/lsk/paparazzi/var/include/messages.h **** 	  trans->overrun(trans->impl, dev);
1432:/home/lsk/paparazzi/var/include/messages.h **** }
1433:/home/lsk/paparazzi/var/include/messages.h **** 
1434:/home/lsk/paparazzi/var/include/messages.h **** #define DOWNLINK_SEND_SUPERBITRF(_trans, _dev, status, cyrf_status, irq_count, rx_packet_count, tx_
1435:/home/lsk/paparazzi/var/include/messages.h **** static inline void pprz_msg_send_SUPERBITRF(struct transport_tx *trans, struct link_device *dev, ui
1436:/home/lsk/paparazzi/var/include/messages.h **** 	if (trans->check_available_space(trans->impl, dev, trans->size_of(trans->impl, 0+1+1+4+4+4+4+4+4+4
1437:/home/lsk/paparazzi/var/include/messages.h **** 	  trans->count_bytes(trans->impl, dev, trans->size_of(trans->impl, 0+1+1+4+4+4+4+4+4+4+4+4+4+1+nb_
1438:/home/lsk/paparazzi/var/include/messages.h **** 	  trans->start_message(trans->impl, dev, 0+1+1+4+4+4+4+4+4+4+4+4+4+1+nb_mfg_id*1 +2 /* msg header 
1439:/home/lsk/paparazzi/var/include/messages.h **** 	  trans->put_bytes(trans->impl, dev, DL_TYPE_UINT8, DL_FORMAT_SCALAR, 1, &ac_id);
1440:/home/lsk/paparazzi/var/include/messages.h **** 	  trans->put_named_byte(trans->impl, dev, DL_TYPE_UINT8, DL_FORMAT_SCALAR, DL_SUPERBITRF, "SUPERBI
1441:/home/lsk/paparazzi/var/include/messages.h **** 	  trans->put_bytes(trans->impl, dev, DL_TYPE_UINT8, DL_FORMAT_SCALAR, 1, (void *) _status);
1442:/home/lsk/paparazzi/var/include/messages.h **** 	  trans->put_bytes(trans->impl, dev, DL_TYPE_UINT8, DL_FORMAT_SCALAR, 1, (void *) _cyrf_status);
1443:/home/lsk/paparazzi/var/include/messages.h **** 	  trans->put_bytes(trans->impl, dev, DL_TYPE_UINT32, DL_FORMAT_SCALAR, 4, (void *) _irq_count);
1444:/home/lsk/paparazzi/var/include/messages.h **** 	  trans->put_bytes(trans->impl, dev, DL_TYPE_UINT32, DL_FORMAT_SCALAR, 4, (void *) _rx_packet_coun
1445:/home/lsk/paparazzi/var/include/messages.h **** 	  trans->put_bytes(trans->impl, dev, DL_TYPE_UINT32, DL_FORMAT_SCALAR, 4, (void *) _tx_packet_coun
1446:/home/lsk/paparazzi/var/include/messages.h **** 	  trans->put_bytes(trans->impl, dev, DL_TYPE_UINT32, DL_FORMAT_SCALAR, 4, (void *) _transfer_timeo
1447:/home/lsk/paparazzi/var/include/messages.h **** 	  trans->put_bytes(trans->impl, dev, DL_TYPE_UINT32, DL_FORMAT_SCALAR, 4, (void *) _resync_count);
1448:/home/lsk/paparazzi/var/include/messages.h **** 	  trans->put_bytes(trans->impl, dev, DL_TYPE_UINT32, DL_FORMAT_SCALAR, 4, (void *) _uplink_count);
1449:/home/lsk/paparazzi/var/include/messages.h **** 	  trans->put_bytes(trans->impl, dev, DL_TYPE_UINT32, DL_FORMAT_SCALAR, 4, (void *) _rc_count);
1450:/home/lsk/paparazzi/var/include/messages.h **** 	  trans->put_bytes(trans->impl, dev, DL_TYPE_UINT32, DL_FORMAT_SCALAR, 4, (void *) _timing1);
1451:/home/lsk/paparazzi/var/include/messages.h **** 	  trans->put_bytes(trans->impl, dev, DL_TYPE_UINT32, DL_FORMAT_SCALAR, 4, (void *) _timing2);
1452:/home/lsk/paparazzi/var/include/messages.h **** 	  trans->put_bytes(trans->impl, dev, DL_TYPE_UINT32, DL_FORMAT_SCALAR, 4, (void *) _bind_mfg_id);
1453:/home/lsk/paparazzi/var/include/messages.h **** 	  trans->put_bytes(trans->impl, dev, DL_TYPE_ARRAY_LENGTH, DL_FORMAT_SCALAR, 1, (void *) &nb_mfg_i
1454:/home/lsk/paparazzi/var/include/messages.h **** 	  trans->put_bytes(trans->impl, dev, DL_TYPE_UINT8, DL_FORMAT_ARRAY, 1 * nb_mfg_id, (void *) _mfg_
1455:/home/lsk/paparazzi/var/include/messages.h **** 	  trans->end_message(trans->impl, dev);
1456:/home/lsk/paparazzi/var/include/messages.h **** 	} else
1457:/home/lsk/paparazzi/var/include/messages.h **** 	  trans->overrun(trans->impl, dev);
1458:/home/lsk/paparazzi/var/include/messages.h **** }
1459:/home/lsk/paparazzi/var/include/messages.h **** 
1460:/home/lsk/paparazzi/var/include/messages.h **** #define DOWNLINK_SEND_GX3_INFO(_trans, _dev, GX3_freq, chksm_error, hdr_error, GX3_chksm) pprz_msg_
1461:/home/lsk/paparazzi/var/include/messages.h **** static inline void pprz_msg_send_GX3_INFO(struct transport_tx *trans, struct link_device *dev, uint
1462:/home/lsk/paparazzi/var/include/messages.h **** 	if (trans->check_available_space(trans->impl, dev, trans->size_of(trans->impl, 0+4+4+4+2 +2 /* msg
1463:/home/lsk/paparazzi/var/include/messages.h **** 	  trans->count_bytes(trans->impl, dev, trans->size_of(trans->impl, 0+4+4+4+2 +2 /* msg header over
1464:/home/lsk/paparazzi/var/include/messages.h **** 	  trans->start_message(trans->impl, dev, 0+4+4+4+2 +2 /* msg header overhead */);
1465:/home/lsk/paparazzi/var/include/messages.h **** 	  trans->put_bytes(trans->impl, dev, DL_TYPE_UINT8, DL_FORMAT_SCALAR, 1, &ac_id);
1466:/home/lsk/paparazzi/var/include/messages.h **** 	  trans->put_named_byte(trans->impl, dev, DL_TYPE_UINT8, DL_FORMAT_SCALAR, DL_GX3_INFO, "GX3_INFO"
1467:/home/lsk/paparazzi/var/include/messages.h **** 	  trans->put_bytes(trans->impl, dev, DL_TYPE_FLOAT, DL_FORMAT_SCALAR, 4, (void *) _GX3_freq);
1468:/home/lsk/paparazzi/var/include/messages.h **** 	  trans->put_bytes(trans->impl, dev, DL_TYPE_UINT32, DL_FORMAT_SCALAR, 4, (void *) _chksm_error);
1469:/home/lsk/paparazzi/var/include/messages.h **** 	  trans->put_bytes(trans->impl, dev, DL_TYPE_UINT32, DL_FORMAT_SCALAR, 4, (void *) _hdr_error);
1470:/home/lsk/paparazzi/var/include/messages.h **** 	  trans->put_bytes(trans->impl, dev, DL_TYPE_UINT16, DL_FORMAT_SCALAR, 2, (void *) _GX3_chksm);
1471:/home/lsk/paparazzi/var/include/messages.h **** 	  trans->end_message(trans->impl, dev);
1472:/home/lsk/paparazzi/var/include/messages.h **** 	} else
1473:/home/lsk/paparazzi/var/include/messages.h **** 	  trans->overrun(trans->impl, dev);
1474:/home/lsk/paparazzi/var/include/messages.h **** }
1475:/home/lsk/paparazzi/var/include/messages.h **** 
1476:/home/lsk/paparazzi/var/include/messages.h **** #define DOWNLINK_SEND_EXPLAIN(_trans, _dev, type, id, nb_string, string) pprz_msg_send_EXPLAIN(&((_
1477:/home/lsk/paparazzi/var/include/messages.h **** static inline void pprz_msg_send_EXPLAIN(struct transport_tx *trans, struct link_device *dev, uint8
1478:/home/lsk/paparazzi/var/include/messages.h **** 	if (trans->check_available_space(trans->impl, dev, trans->size_of(trans->impl, 0+1+1+1+nb_string*1
1479:/home/lsk/paparazzi/var/include/messages.h **** 	  trans->count_bytes(trans->impl, dev, trans->size_of(trans->impl, 0+1+1+1+nb_string*1 +2 /* msg h
1480:/home/lsk/paparazzi/var/include/messages.h **** 	  trans->start_message(trans->impl, dev, 0+1+1+1+nb_string*1 +2 /* msg header overhead */);
1481:/home/lsk/paparazzi/var/include/messages.h **** 	  trans->put_bytes(trans->impl, dev, DL_TYPE_UINT8, DL_FORMAT_SCALAR, 1, &ac_id);
1482:/home/lsk/paparazzi/var/include/messages.h **** 	  trans->put_named_byte(trans->impl, dev, DL_TYPE_UINT8, DL_FORMAT_SCALAR, DL_EXPLAIN, "EXPLAIN");
1483:/home/lsk/paparazzi/var/include/messages.h **** 	  trans->put_bytes(trans->impl, dev, DL_TYPE_UINT8, DL_FORMAT_SCALAR, 1, (void *) _type);
1484:/home/lsk/paparazzi/var/include/messages.h **** 	  trans->put_bytes(trans->impl, dev, DL_TYPE_UINT8, DL_FORMAT_SCALAR, 1, (void *) _id);
1485:/home/lsk/paparazzi/var/include/messages.h **** 	  trans->put_bytes(trans->impl, dev, DL_TYPE_ARRAY_LENGTH, DL_FORMAT_SCALAR, 1, (void *) &nb_strin
1486:/home/lsk/paparazzi/var/include/messages.h **** 	  trans->put_bytes(trans->impl, dev, DL_TYPE_UINT8, DL_FORMAT_ARRAY, 1 * nb_string, (void *) _stri
1487:/home/lsk/paparazzi/var/include/messages.h **** 	  trans->end_message(trans->impl, dev);
1488:/home/lsk/paparazzi/var/include/messages.h **** 	} else
1489:/home/lsk/paparazzi/var/include/messages.h **** 	  trans->overrun(trans->impl, dev);
1490:/home/lsk/paparazzi/var/include/messages.h **** }
1491:/home/lsk/paparazzi/var/include/messages.h **** 
1492:/home/lsk/paparazzi/var/include/messages.h **** #define DOWNLINK_SEND_VIDEO_TELEMETRY(_trans, _dev, blob_x1, blob_y1, blob_x2, blob_y2, blob_x3, bl
1493:/home/lsk/paparazzi/var/include/messages.h **** static inline void pprz_msg_send_VIDEO_TELEMETRY(struct transport_tx *trans, struct link_device *de
1494:/home/lsk/paparazzi/var/include/messages.h **** 	if (trans->check_available_space(trans->impl, dev, trans->size_of(trans->impl, 0+4+4+4+4+4+4+4+4 +
1495:/home/lsk/paparazzi/var/include/messages.h **** 	  trans->count_bytes(trans->impl, dev, trans->size_of(trans->impl, 0+4+4+4+4+4+4+4+4 +2 /* msg hea
1496:/home/lsk/paparazzi/var/include/messages.h **** 	  trans->start_message(trans->impl, dev, 0+4+4+4+4+4+4+4+4 +2 /* msg header overhead */);
1497:/home/lsk/paparazzi/var/include/messages.h **** 	  trans->put_bytes(trans->impl, dev, DL_TYPE_UINT8, DL_FORMAT_SCALAR, 1, &ac_id);
1498:/home/lsk/paparazzi/var/include/messages.h **** 	  trans->put_named_byte(trans->impl, dev, DL_TYPE_UINT8, DL_FORMAT_SCALAR, DL_VIDEO_TELEMETRY, "VI
1499:/home/lsk/paparazzi/var/include/messages.h **** 	  trans->put_bytes(trans->impl, dev, DL_TYPE_INT32, DL_FORMAT_SCALAR, 4, (void *) _blob_x1);
1500:/home/lsk/paparazzi/var/include/messages.h **** 	  trans->put_bytes(trans->impl, dev, DL_TYPE_INT32, DL_FORMAT_SCALAR, 4, (void *) _blob_y1);
1501:/home/lsk/paparazzi/var/include/messages.h **** 	  trans->put_bytes(trans->impl, dev, DL_TYPE_INT32, DL_FORMAT_SCALAR, 4, (void *) _blob_x2);
1502:/home/lsk/paparazzi/var/include/messages.h **** 	  trans->put_bytes(trans->impl, dev, DL_TYPE_INT32, DL_FORMAT_SCALAR, 4, (void *) _blob_y2);
1503:/home/lsk/paparazzi/var/include/messages.h **** 	  trans->put_bytes(trans->impl, dev, DL_TYPE_INT32, DL_FORMAT_SCALAR, 4, (void *) _blob_x3);
1504:/home/lsk/paparazzi/var/include/messages.h **** 	  trans->put_bytes(trans->impl, dev, DL_TYPE_INT32, DL_FORMAT_SCALAR, 4, (void *) _blob_y3);
1505:/home/lsk/paparazzi/var/include/messages.h **** 	  trans->put_bytes(trans->impl, dev, DL_TYPE_INT32, DL_FORMAT_SCALAR, 4, (void *) _blob_x4);
1506:/home/lsk/paparazzi/var/include/messages.h **** 	  trans->put_bytes(trans->impl, dev, DL_TYPE_INT32, DL_FORMAT_SCALAR, 4, (void *) _blob_y4);
1507:/home/lsk/paparazzi/var/include/messages.h **** 	  trans->end_message(trans->impl, dev);
1508:/home/lsk/paparazzi/var/include/messages.h **** 	} else
1509:/home/lsk/paparazzi/var/include/messages.h **** 	  trans->overrun(trans->impl, dev);
1510:/home/lsk/paparazzi/var/include/messages.h **** }
1511:/home/lsk/paparazzi/var/include/messages.h **** 
1512:/home/lsk/paparazzi/var/include/messages.h **** #define DOWNLINK_SEND_VF_UPDATE(_trans, _dev, baro, range_meter) pprz_msg_send_VF_UPDATE(&((_trans)
1513:/home/lsk/paparazzi/var/include/messages.h **** static inline void pprz_msg_send_VF_UPDATE(struct transport_tx *trans, struct link_device *dev, uin
1514:/home/lsk/paparazzi/var/include/messages.h **** 	if (trans->check_available_space(trans->impl, dev, trans->size_of(trans->impl, 0+4+4 +2 /* msg hea
1515:/home/lsk/paparazzi/var/include/messages.h **** 	  trans->count_bytes(trans->impl, dev, trans->size_of(trans->impl, 0+4+4 +2 /* msg header overhead
1516:/home/lsk/paparazzi/var/include/messages.h **** 	  trans->start_message(trans->impl, dev, 0+4+4 +2 /* msg header overhead */);
1517:/home/lsk/paparazzi/var/include/messages.h **** 	  trans->put_bytes(trans->impl, dev, DL_TYPE_UINT8, DL_FORMAT_SCALAR, 1, &ac_id);
1518:/home/lsk/paparazzi/var/include/messages.h **** 	  trans->put_named_byte(trans->impl, dev, DL_TYPE_UINT8, DL_FORMAT_SCALAR, DL_VF_UPDATE, "VF_UPDAT
1519:/home/lsk/paparazzi/var/include/messages.h **** 	  trans->put_bytes(trans->impl, dev, DL_TYPE_FLOAT, DL_FORMAT_SCALAR, 4, (void *) _baro);
1520:/home/lsk/paparazzi/var/include/messages.h **** 	  trans->put_bytes(trans->impl, dev, DL_TYPE_FLOAT, DL_FORMAT_SCALAR, 4, (void *) _range_meter);
1521:/home/lsk/paparazzi/var/include/messages.h **** 	  trans->end_message(trans->impl, dev);
1522:/home/lsk/paparazzi/var/include/messages.h **** 	} else
1523:/home/lsk/paparazzi/var/include/messages.h **** 	  trans->overrun(trans->impl, dev);
1524:/home/lsk/paparazzi/var/include/messages.h **** }
1525:/home/lsk/paparazzi/var/include/messages.h **** 
1526:/home/lsk/paparazzi/var/include/messages.h **** #define DOWNLINK_SEND_VF_PREDICT(_trans, _dev, accel) pprz_msg_send_VF_PREDICT(&((_trans).trans_tx)
1527:/home/lsk/paparazzi/var/include/messages.h **** static inline void pprz_msg_send_VF_PREDICT(struct transport_tx *trans, struct link_device *dev, ui
1528:/home/lsk/paparazzi/var/include/messages.h **** 	if (trans->check_available_space(trans->impl, dev, trans->size_of(trans->impl, 0+4 +2 /* msg heade
1529:/home/lsk/paparazzi/var/include/messages.h **** 	  trans->count_bytes(trans->impl, dev, trans->size_of(trans->impl, 0+4 +2 /* msg header overhead *
1530:/home/lsk/paparazzi/var/include/messages.h **** 	  trans->start_message(trans->impl, dev, 0+4 +2 /* msg header overhead */);
1531:/home/lsk/paparazzi/var/include/messages.h **** 	  trans->put_bytes(trans->impl, dev, DL_TYPE_UINT8, DL_FORMAT_SCALAR, 1, &ac_id);
1532:/home/lsk/paparazzi/var/include/messages.h **** 	  trans->put_named_byte(trans->impl, dev, DL_TYPE_UINT8, DL_FORMAT_SCALAR, DL_VF_PREDICT, "VF_PRED
1533:/home/lsk/paparazzi/var/include/messages.h **** 	  trans->put_bytes(trans->impl, dev, DL_TYPE_FLOAT, DL_FORMAT_SCALAR, 4, (void *) _accel);
1534:/home/lsk/paparazzi/var/include/messages.h **** 	  trans->end_message(trans->impl, dev);
1535:/home/lsk/paparazzi/var/include/messages.h **** 	} else
1536:/home/lsk/paparazzi/var/include/messages.h **** 	  trans->overrun(trans->impl, dev);
1537:/home/lsk/paparazzi/var/include/messages.h **** }
1538:/home/lsk/paparazzi/var/include/messages.h **** 
1539:/home/lsk/paparazzi/var/include/messages.h **** #define DOWNLINK_SEND_INV_FILTER(_trans, _dev, quat, phi_inv, theta_inv, psi_inv, Vx_inv, Vy_inv, V
1540:/home/lsk/paparazzi/var/include/messages.h **** static inline void pprz_msg_send_INV_FILTER(struct transport_tx *trans, struct link_device *dev, ui
1541:/home/lsk/paparazzi/var/include/messages.h **** 	if (trans->check_available_space(trans->impl, dev, trans->size_of(trans->impl, 0+4+4+4+4+4+4+4+4+4
1542:/home/lsk/paparazzi/var/include/messages.h **** 	  trans->count_bytes(trans->impl, dev, trans->size_of(trans->impl, 0+4+4+4+4+4+4+4+4+4+4+4+4+4+4+4
1543:/home/lsk/paparazzi/var/include/messages.h **** 	  trans->start_message(trans->impl, dev, 0+4+4+4+4+4+4+4+4+4+4+4+4+4+4+4+4+4 +2 /* msg header over
1544:/home/lsk/paparazzi/var/include/messages.h **** 	  trans->put_bytes(trans->impl, dev, DL_TYPE_UINT8, DL_FORMAT_SCALAR, 1, &ac_id);
1545:/home/lsk/paparazzi/var/include/messages.h **** 	  trans->put_named_byte(trans->impl, dev, DL_TYPE_UINT8, DL_FORMAT_SCALAR, DL_INV_FILTER, "INV_FIL
1546:/home/lsk/paparazzi/var/include/messages.h **** 	  trans->put_bytes(trans->impl, dev, DL_TYPE_FLOAT, DL_FORMAT_SCALAR, 4, (void *) _quat);
1547:/home/lsk/paparazzi/var/include/messages.h **** 	  trans->put_bytes(trans->impl, dev, DL_TYPE_FLOAT, DL_FORMAT_SCALAR, 4, (void *) _phi_inv);
1548:/home/lsk/paparazzi/var/include/messages.h **** 	  trans->put_bytes(trans->impl, dev, DL_TYPE_FLOAT, DL_FORMAT_SCALAR, 4, (void *) _theta_inv);
1549:/home/lsk/paparazzi/var/include/messages.h **** 	  trans->put_bytes(trans->impl, dev, DL_TYPE_FLOAT, DL_FORMAT_SCALAR, 4, (void *) _psi_inv);
1550:/home/lsk/paparazzi/var/include/messages.h **** 	  trans->put_bytes(trans->impl, dev, DL_TYPE_FLOAT, DL_FORMAT_SCALAR, 4, (void *) _Vx_inv);
1551:/home/lsk/paparazzi/var/include/messages.h **** 	  trans->put_bytes(trans->impl, dev, DL_TYPE_FLOAT, DL_FORMAT_SCALAR, 4, (void *) _Vy_inv);
1552:/home/lsk/paparazzi/var/include/messages.h **** 	  trans->put_bytes(trans->impl, dev, DL_TYPE_FLOAT, DL_FORMAT_SCALAR, 4, (void *) _Vz_inv);
1553:/home/lsk/paparazzi/var/include/messages.h **** 	  trans->put_bytes(trans->impl, dev, DL_TYPE_FLOAT, DL_FORMAT_SCALAR, 4, (void *) _Px_inv);
1554:/home/lsk/paparazzi/var/include/messages.h **** 	  trans->put_bytes(trans->impl, dev, DL_TYPE_FLOAT, DL_FORMAT_SCALAR, 4, (void *) _Py_inv);
1555:/home/lsk/paparazzi/var/include/messages.h **** 	  trans->put_bytes(trans->impl, dev, DL_TYPE_FLOAT, DL_FORMAT_SCALAR, 4, (void *) _Pz_inv);
1556:/home/lsk/paparazzi/var/include/messages.h **** 	  trans->put_bytes(trans->impl, dev, DL_TYPE_FLOAT, DL_FORMAT_SCALAR, 4, (void *) _bias_phi);
1557:/home/lsk/paparazzi/var/include/messages.h **** 	  trans->put_bytes(trans->impl, dev, DL_TYPE_FLOAT, DL_FORMAT_SCALAR, 4, (void *) _bias_theta);
1558:/home/lsk/paparazzi/var/include/messages.h **** 	  trans->put_bytes(trans->impl, dev, DL_TYPE_FLOAT, DL_FORMAT_SCALAR, 4, (void *) _bias_psi);
1559:/home/lsk/paparazzi/var/include/messages.h **** 	  trans->put_bytes(trans->impl, dev, DL_TYPE_FLOAT, DL_FORMAT_SCALAR, 4, (void *) _bias_as);
1560:/home/lsk/paparazzi/var/include/messages.h **** 	  trans->put_bytes(trans->impl, dev, DL_TYPE_FLOAT, DL_FORMAT_SCALAR, 4, (void *) _bias_hb);
1561:/home/lsk/paparazzi/var/include/messages.h **** 	  trans->put_bytes(trans->impl, dev, DL_TYPE_FLOAT, DL_FORMAT_SCALAR, 4, (void *) _meas_baro);
1562:/home/lsk/paparazzi/var/include/messages.h **** 	  trans->put_bytes(trans->impl, dev, DL_TYPE_FLOAT, DL_FORMAT_SCALAR, 4, (void *) _meas_gps);
1563:/home/lsk/paparazzi/var/include/messages.h **** 	  trans->end_message(trans->impl, dev);
1564:/home/lsk/paparazzi/var/include/messages.h **** 	} else
1565:/home/lsk/paparazzi/var/include/messages.h **** 	  trans->overrun(trans->impl, dev);
1566:/home/lsk/paparazzi/var/include/messages.h **** }
1567:/home/lsk/paparazzi/var/include/messages.h **** 
1568:/home/lsk/paparazzi/var/include/messages.h **** #define DOWNLINK_SEND_MISSION_STATUS(_trans, _dev, remaining_time, nb_task_list, task_list) pprz_ms
1569:/home/lsk/paparazzi/var/include/messages.h **** static inline void pprz_msg_send_MISSION_STATUS(struct transport_tx *trans, struct link_device *dev
1570:/home/lsk/paparazzi/var/include/messages.h **** 	if (trans->check_available_space(trans->impl, dev, trans->size_of(trans->impl, 0+4+1+nb_task_list*
1571:/home/lsk/paparazzi/var/include/messages.h **** 	  trans->count_bytes(trans->impl, dev, trans->size_of(trans->impl, 0+4+1+nb_task_list*1 +2 /* msg 
1572:/home/lsk/paparazzi/var/include/messages.h **** 	  trans->start_message(trans->impl, dev, 0+4+1+nb_task_list*1 +2 /* msg header overhead */);
1573:/home/lsk/paparazzi/var/include/messages.h **** 	  trans->put_bytes(trans->impl, dev, DL_TYPE_UINT8, DL_FORMAT_SCALAR, 1, &ac_id);
1574:/home/lsk/paparazzi/var/include/messages.h **** 	  trans->put_named_byte(trans->impl, dev, DL_TYPE_UINT8, DL_FORMAT_SCALAR, DL_MISSION_STATUS, "MIS
1575:/home/lsk/paparazzi/var/include/messages.h **** 	  trans->put_bytes(trans->impl, dev, DL_TYPE_FLOAT, DL_FORMAT_SCALAR, 4, (void *) _remaining_time)
1576:/home/lsk/paparazzi/var/include/messages.h **** 	  trans->put_bytes(trans->impl, dev, DL_TYPE_ARRAY_LENGTH, DL_FORMAT_SCALAR, 1, (void *) &nb_task_
1577:/home/lsk/paparazzi/var/include/messages.h **** 	  trans->put_bytes(trans->impl, dev, DL_TYPE_UINT8, DL_FORMAT_ARRAY, 1 * nb_task_list, (void *) _t
1578:/home/lsk/paparazzi/var/include/messages.h **** 	  trans->end_message(trans->impl, dev);
1579:/home/lsk/paparazzi/var/include/messages.h **** 	} else
1580:/home/lsk/paparazzi/var/include/messages.h **** 	  trans->overrun(trans->impl, dev);
1581:/home/lsk/paparazzi/var/include/messages.h **** }
1582:/home/lsk/paparazzi/var/include/messages.h **** 
1583:/home/lsk/paparazzi/var/include/messages.h **** #define DOWNLINK_SEND_CROSS_TRACK_ERROR(_trans, _dev, cross_track_error, cte_int) pprz_msg_send_CRO
1584:/home/lsk/paparazzi/var/include/messages.h **** static inline void pprz_msg_send_CROSS_TRACK_ERROR(struct transport_tx *trans, struct link_device *
1585:/home/lsk/paparazzi/var/include/messages.h **** 	if (trans->check_available_space(trans->impl, dev, trans->size_of(trans->impl, 0+4+4 +2 /* msg hea
1586:/home/lsk/paparazzi/var/include/messages.h **** 	  trans->count_bytes(trans->impl, dev, trans->size_of(trans->impl, 0+4+4 +2 /* msg header overhead
1587:/home/lsk/paparazzi/var/include/messages.h **** 	  trans->start_message(trans->impl, dev, 0+4+4 +2 /* msg header overhead */);
1588:/home/lsk/paparazzi/var/include/messages.h **** 	  trans->put_bytes(trans->impl, dev, DL_TYPE_UINT8, DL_FORMAT_SCALAR, 1, &ac_id);
1589:/home/lsk/paparazzi/var/include/messages.h **** 	  trans->put_named_byte(trans->impl, dev, DL_TYPE_UINT8, DL_FORMAT_SCALAR, DL_CROSS_TRACK_ERROR, "
1590:/home/lsk/paparazzi/var/include/messages.h **** 	  trans->put_bytes(trans->impl, dev, DL_TYPE_FLOAT, DL_FORMAT_SCALAR, 4, (void *) _cross_track_err
1591:/home/lsk/paparazzi/var/include/messages.h **** 	  trans->put_bytes(trans->impl, dev, DL_TYPE_FLOAT, DL_FORMAT_SCALAR, 4, (void *) _cte_int);
1592:/home/lsk/paparazzi/var/include/messages.h **** 	  trans->end_message(trans->impl, dev);
1593:/home/lsk/paparazzi/var/include/messages.h **** 	} else
1594:/home/lsk/paparazzi/var/include/messages.h **** 	  trans->overrun(trans->impl, dev);
1595:/home/lsk/paparazzi/var/include/messages.h **** }
1596:/home/lsk/paparazzi/var/include/messages.h **** 
1597:/home/lsk/paparazzi/var/include/messages.h **** #define DOWNLINK_SEND_GENERIC_COM(_trans, _dev, lat, lon, alt, gspeed, course, airspeed, vsupply, e
1598:/home/lsk/paparazzi/var/include/messages.h **** static inline void pprz_msg_send_GENERIC_COM(struct transport_tx *trans, struct link_device *dev, u
1599:/home/lsk/paparazzi/var/include/messages.h **** 	if (trans->check_available_space(trans->impl, dev, trans->size_of(trans->impl, 0+4+4+2+2+2+2+1+1+1
1600:/home/lsk/paparazzi/var/include/messages.h **** 	  trans->count_bytes(trans->impl, dev, trans->size_of(trans->impl, 0+4+4+2+2+2+2+1+1+1+1+1+2 +2 /*
1601:/home/lsk/paparazzi/var/include/messages.h **** 	  trans->start_message(trans->impl, dev, 0+4+4+2+2+2+2+1+1+1+1+1+2 +2 /* msg header overhead */);
1602:/home/lsk/paparazzi/var/include/messages.h **** 	  trans->put_bytes(trans->impl, dev, DL_TYPE_UINT8, DL_FORMAT_SCALAR, 1, &ac_id);
1603:/home/lsk/paparazzi/var/include/messages.h **** 	  trans->put_named_byte(trans->impl, dev, DL_TYPE_UINT8, DL_FORMAT_SCALAR, DL_GENERIC_COM, "GENERI
1604:/home/lsk/paparazzi/var/include/messages.h **** 	  trans->put_bytes(trans->impl, dev, DL_TYPE_INT32, DL_FORMAT_SCALAR, 4, (void *) _lat);
1605:/home/lsk/paparazzi/var/include/messages.h **** 	  trans->put_bytes(trans->impl, dev, DL_TYPE_INT32, DL_FORMAT_SCALAR, 4, (void *) _lon);
1606:/home/lsk/paparazzi/var/include/messages.h **** 	  trans->put_bytes(trans->impl, dev, DL_TYPE_INT16, DL_FORMAT_SCALAR, 2, (void *) _alt);
1607:/home/lsk/paparazzi/var/include/messages.h **** 	  trans->put_bytes(trans->impl, dev, DL_TYPE_UINT16, DL_FORMAT_SCALAR, 2, (void *) _gspeed);
1608:/home/lsk/paparazzi/var/include/messages.h **** 	  trans->put_bytes(trans->impl, dev, DL_TYPE_INT16, DL_FORMAT_SCALAR, 2, (void *) _course);
1609:/home/lsk/paparazzi/var/include/messages.h **** 	  trans->put_bytes(trans->impl, dev, DL_TYPE_UINT16, DL_FORMAT_SCALAR, 2, (void *) _airspeed);
1610:/home/lsk/paparazzi/var/include/messages.h **** 	  trans->put_bytes(trans->impl, dev, DL_TYPE_UINT8, DL_FORMAT_SCALAR, 1, (void *) _vsupply);
1611:/home/lsk/paparazzi/var/include/messages.h **** 	  trans->put_bytes(trans->impl, dev, DL_TYPE_UINT8, DL_FORMAT_SCALAR, 1, (void *) _energy);
1612:/home/lsk/paparazzi/var/include/messages.h **** 	  trans->put_bytes(trans->impl, dev, DL_TYPE_UINT8, DL_FORMAT_SCALAR, 1, (void *) _throttle);
1613:/home/lsk/paparazzi/var/include/messages.h **** 	  trans->put_bytes(trans->impl, dev, DL_TYPE_UINT8, DL_FORMAT_SCALAR, 1, (void *) _ap_mode);
1614:/home/lsk/paparazzi/var/include/messages.h **** 	  trans->put_bytes(trans->impl, dev, DL_TYPE_UINT8, DL_FORMAT_SCALAR, 1, (void *) _nav_block);
1615:/home/lsk/paparazzi/var/include/messages.h **** 	  trans->put_bytes(trans->impl, dev, DL_TYPE_UINT16, DL_FORMAT_SCALAR, 2, (void *) _flight_time);
1616:/home/lsk/paparazzi/var/include/messages.h **** 	  trans->end_message(trans->impl, dev);
1617:/home/lsk/paparazzi/var/include/messages.h **** 	} else
1618:/home/lsk/paparazzi/var/include/messages.h **** 	  trans->overrun(trans->impl, dev);
1619:/home/lsk/paparazzi/var/include/messages.h **** }
1620:/home/lsk/paparazzi/var/include/messages.h **** 
1621:/home/lsk/paparazzi/var/include/messages.h **** #define DOWNLINK_SEND_FORMATION_SLOT_TM(_trans, _dev, ac_id, mode, slot_east, slot_north, slot_alt)
1622:/home/lsk/paparazzi/var/include/messages.h **** static inline void pprz_msg_send_FORMATION_SLOT_TM(struct transport_tx *trans, struct link_device *
1623:/home/lsk/paparazzi/var/include/messages.h **** 	if (trans->check_available_space(trans->impl, dev, trans->size_of(trans->impl, 0+1+1+4+4+4 +2 /* m
1624:/home/lsk/paparazzi/var/include/messages.h **** 	  trans->count_bytes(trans->impl, dev, trans->size_of(trans->impl, 0+1+1+4+4+4 +2 /* msg header ov
1625:/home/lsk/paparazzi/var/include/messages.h **** 	  trans->start_message(trans->impl, dev, 0+1+1+4+4+4 +2 /* msg header overhead */);
1626:/home/lsk/paparazzi/var/include/messages.h **** 	  trans->put_bytes(trans->impl, dev, DL_TYPE_UINT8, DL_FORMAT_SCALAR, 1, &ac_id);
1627:/home/lsk/paparazzi/var/include/messages.h **** 	  trans->put_named_byte(trans->impl, dev, DL_TYPE_UINT8, DL_FORMAT_SCALAR, DL_FORMATION_SLOT_TM, "
1628:/home/lsk/paparazzi/var/include/messages.h **** 	  trans->put_bytes(trans->impl, dev, DL_TYPE_UINT8, DL_FORMAT_SCALAR, 1, (void *) _ac_id);
1629:/home/lsk/paparazzi/var/include/messages.h **** 	  trans->put_bytes(trans->impl, dev, DL_TYPE_UINT8, DL_FORMAT_SCALAR, 1, (void *) _mode);
1630:/home/lsk/paparazzi/var/include/messages.h **** 	  trans->put_bytes(trans->impl, dev, DL_TYPE_FLOAT, DL_FORMAT_SCALAR, 4, (void *) _slot_east);
1631:/home/lsk/paparazzi/var/include/messages.h **** 	  trans->put_bytes(trans->impl, dev, DL_TYPE_FLOAT, DL_FORMAT_SCALAR, 4, (void *) _slot_north);
1632:/home/lsk/paparazzi/var/include/messages.h **** 	  trans->put_bytes(trans->impl, dev, DL_TYPE_FLOAT, DL_FORMAT_SCALAR, 4, (void *) _slot_alt);
1633:/home/lsk/paparazzi/var/include/messages.h **** 	  trans->end_message(trans->impl, dev);
1634:/home/lsk/paparazzi/var/include/messages.h **** 	} else
1635:/home/lsk/paparazzi/var/include/messages.h **** 	  trans->overrun(trans->impl, dev);
1636:/home/lsk/paparazzi/var/include/messages.h **** }
1637:/home/lsk/paparazzi/var/include/messages.h **** 
1638:/home/lsk/paparazzi/var/include/messages.h **** #define DOWNLINK_SEND_FORMATION_STATUS_TM(_trans, _dev, ac_id, leader_id, status) pprz_msg_send_FOR
1639:/home/lsk/paparazzi/var/include/messages.h **** static inline void pprz_msg_send_FORMATION_STATUS_TM(struct transport_tx *trans, struct link_device
1640:/home/lsk/paparazzi/var/include/messages.h **** 	if (trans->check_available_space(trans->impl, dev, trans->size_of(trans->impl, 0+1+1+1 +2 /* msg h
1641:/home/lsk/paparazzi/var/include/messages.h **** 	  trans->count_bytes(trans->impl, dev, trans->size_of(trans->impl, 0+1+1+1 +2 /* msg header overhe
1642:/home/lsk/paparazzi/var/include/messages.h **** 	  trans->start_message(trans->impl, dev, 0+1+1+1 +2 /* msg header overhead */);
1643:/home/lsk/paparazzi/var/include/messages.h **** 	  trans->put_bytes(trans->impl, dev, DL_TYPE_UINT8, DL_FORMAT_SCALAR, 1, &ac_id);
1644:/home/lsk/paparazzi/var/include/messages.h **** 	  trans->put_named_byte(trans->impl, dev, DL_TYPE_UINT8, DL_FORMAT_SCALAR, DL_FORMATION_STATUS_TM,
1645:/home/lsk/paparazzi/var/include/messages.h **** 	  trans->put_bytes(trans->impl, dev, DL_TYPE_UINT8, DL_FORMAT_SCALAR, 1, (void *) _ac_id);
1646:/home/lsk/paparazzi/var/include/messages.h **** 	  trans->put_bytes(trans->impl, dev, DL_TYPE_UINT8, DL_FORMAT_SCALAR, 1, (void *) _leader_id);
1647:/home/lsk/paparazzi/var/include/messages.h **** 	  trans->put_bytes(trans->impl, dev, DL_TYPE_UINT8, DL_FORMAT_SCALAR, 1, (void *) _status);
1648:/home/lsk/paparazzi/var/include/messages.h **** 	  trans->end_message(trans->impl, dev);
1649:/home/lsk/paparazzi/var/include/messages.h **** 	} else
1650:/home/lsk/paparazzi/var/include/messages.h **** 	  trans->overrun(trans->impl, dev);
1651:/home/lsk/paparazzi/var/include/messages.h **** }
1652:/home/lsk/paparazzi/var/include/messages.h **** 
1653:/home/lsk/paparazzi/var/include/messages.h **** #define DOWNLINK_SEND_BMP_STATUS(_trans, _dev, UP, UT, press, temp) pprz_msg_send_BMP_STATUS(&((_tr
1654:/home/lsk/paparazzi/var/include/messages.h **** static inline void pprz_msg_send_BMP_STATUS(struct transport_tx *trans, struct link_device *dev, ui
1655:/home/lsk/paparazzi/var/include/messages.h **** 	if (trans->check_available_space(trans->impl, dev, trans->size_of(trans->impl, 0+4+4+4+4 +2 /* msg
1656:/home/lsk/paparazzi/var/include/messages.h **** 	  trans->count_bytes(trans->impl, dev, trans->size_of(trans->impl, 0+4+4+4+4 +2 /* msg header over
1657:/home/lsk/paparazzi/var/include/messages.h **** 	  trans->start_message(trans->impl, dev, 0+4+4+4+4 +2 /* msg header overhead */);
1658:/home/lsk/paparazzi/var/include/messages.h **** 	  trans->put_bytes(trans->impl, dev, DL_TYPE_UINT8, DL_FORMAT_SCALAR, 1, &ac_id);
1659:/home/lsk/paparazzi/var/include/messages.h **** 	  trans->put_named_byte(trans->impl, dev, DL_TYPE_UINT8, DL_FORMAT_SCALAR, DL_BMP_STATUS, "BMP_STA
1660:/home/lsk/paparazzi/var/include/messages.h **** 	  trans->put_bytes(trans->impl, dev, DL_TYPE_INT32, DL_FORMAT_SCALAR, 4, (void *) _UP);
1661:/home/lsk/paparazzi/var/include/messages.h **** 	  trans->put_bytes(trans->impl, dev, DL_TYPE_INT32, DL_FORMAT_SCALAR, 4, (void *) _UT);
1662:/home/lsk/paparazzi/var/include/messages.h **** 	  trans->put_bytes(trans->impl, dev, DL_TYPE_INT32, DL_FORMAT_SCALAR, 4, (void *) _press);
1663:/home/lsk/paparazzi/var/include/messages.h **** 	  trans->put_bytes(trans->impl, dev, DL_TYPE_INT32, DL_FORMAT_SCALAR, 4, (void *) _temp);
1664:/home/lsk/paparazzi/var/include/messages.h **** 	  trans->end_message(trans->impl, dev);
1665:/home/lsk/paparazzi/var/include/messages.h **** 	} else
1666:/home/lsk/paparazzi/var/include/messages.h **** 	  trans->overrun(trans->impl, dev);
1667:/home/lsk/paparazzi/var/include/messages.h **** }
1668:/home/lsk/paparazzi/var/include/messages.h **** 
1669:/home/lsk/paparazzi/var/include/messages.h **** #define DOWNLINK_SEND_MLX_STATUS(_trans, _dev, itemp_case, temp_case, itemp_obj, temp_obj) pprz_msg
1670:/home/lsk/paparazzi/var/include/messages.h **** static inline void pprz_msg_send_MLX_STATUS(struct transport_tx *trans, struct link_device *dev, ui
1671:/home/lsk/paparazzi/var/include/messages.h **** 	if (trans->check_available_space(trans->impl, dev, trans->size_of(trans->impl, 0+2+4+2+4 +2 /* msg
1672:/home/lsk/paparazzi/var/include/messages.h **** 	  trans->count_bytes(trans->impl, dev, trans->size_of(trans->impl, 0+2+4+2+4 +2 /* msg header over
1673:/home/lsk/paparazzi/var/include/messages.h **** 	  trans->start_message(trans->impl, dev, 0+2+4+2+4 +2 /* msg header overhead */);
1674:/home/lsk/paparazzi/var/include/messages.h **** 	  trans->put_bytes(trans->impl, dev, DL_TYPE_UINT8, DL_FORMAT_SCALAR, 1, &ac_id);
1675:/home/lsk/paparazzi/var/include/messages.h **** 	  trans->put_named_byte(trans->impl, dev, DL_TYPE_UINT8, DL_FORMAT_SCALAR, DL_MLX_STATUS, "MLX_STA
1676:/home/lsk/paparazzi/var/include/messages.h **** 	  trans->put_bytes(trans->impl, dev, DL_TYPE_UINT16, DL_FORMAT_SCALAR, 2, (void *) _itemp_case);
1677:/home/lsk/paparazzi/var/include/messages.h **** 	  trans->put_bytes(trans->impl, dev, DL_TYPE_FLOAT, DL_FORMAT_SCALAR, 4, (void *) _temp_case);
1678:/home/lsk/paparazzi/var/include/messages.h **** 	  trans->put_bytes(trans->impl, dev, DL_TYPE_UINT16, DL_FORMAT_SCALAR, 2, (void *) _itemp_obj);
1679:/home/lsk/paparazzi/var/include/messages.h **** 	  trans->put_bytes(trans->impl, dev, DL_TYPE_FLOAT, DL_FORMAT_SCALAR, 4, (void *) _temp_obj);
1680:/home/lsk/paparazzi/var/include/messages.h **** 	  trans->end_message(trans->impl, dev);
1681:/home/lsk/paparazzi/var/include/messages.h **** 	} else
1682:/home/lsk/paparazzi/var/include/messages.h **** 	  trans->overrun(trans->impl, dev);
1683:/home/lsk/paparazzi/var/include/messages.h **** }
1684:/home/lsk/paparazzi/var/include/messages.h **** 
1685:/home/lsk/paparazzi/var/include/messages.h **** #define DOWNLINK_SEND_TMP_STATUS(_trans, _dev, itemp, temp) pprz_msg_send_TMP_STATUS(&((_trans).tra
1686:/home/lsk/paparazzi/var/include/messages.h **** static inline void pprz_msg_send_TMP_STATUS(struct transport_tx *trans, struct link_device *dev, ui
1687:/home/lsk/paparazzi/var/include/messages.h **** 	if (trans->check_available_space(trans->impl, dev, trans->size_of(trans->impl, 0+2+4 +2 /* msg hea
1688:/home/lsk/paparazzi/var/include/messages.h **** 	  trans->count_bytes(trans->impl, dev, trans->size_of(trans->impl, 0+2+4 +2 /* msg header overhead
1689:/home/lsk/paparazzi/var/include/messages.h **** 	  trans->start_message(trans->impl, dev, 0+2+4 +2 /* msg header overhead */);
1690:/home/lsk/paparazzi/var/include/messages.h **** 	  trans->put_bytes(trans->impl, dev, DL_TYPE_UINT8, DL_FORMAT_SCALAR, 1, &ac_id);
1691:/home/lsk/paparazzi/var/include/messages.h **** 	  trans->put_named_byte(trans->impl, dev, DL_TYPE_UINT8, DL_FORMAT_SCALAR, DL_TMP_STATUS, "TMP_STA
1692:/home/lsk/paparazzi/var/include/messages.h **** 	  trans->put_bytes(trans->impl, dev, DL_TYPE_UINT16, DL_FORMAT_SCALAR, 2, (void *) _itemp);
1693:/home/lsk/paparazzi/var/include/messages.h **** 	  trans->put_bytes(trans->impl, dev, DL_TYPE_FLOAT, DL_FORMAT_SCALAR, 4, (void *) _temp);
1694:/home/lsk/paparazzi/var/include/messages.h **** 	  trans->end_message(trans->impl, dev);
1695:/home/lsk/paparazzi/var/include/messages.h **** 	} else
1696:/home/lsk/paparazzi/var/include/messages.h **** 	  trans->overrun(trans->impl, dev);
1697:/home/lsk/paparazzi/var/include/messages.h **** }
1698:/home/lsk/paparazzi/var/include/messages.h **** 
1699:/home/lsk/paparazzi/var/include/messages.h **** #define DOWNLINK_SEND_WIND_INFO_RET(_trans, _dev, east, north, airspeed) pprz_msg_send_WIND_INFO_RE
1700:/home/lsk/paparazzi/var/include/messages.h **** static inline void pprz_msg_send_WIND_INFO_RET(struct transport_tx *trans, struct link_device *dev,
1701:/home/lsk/paparazzi/var/include/messages.h **** 	if (trans->check_available_space(trans->impl, dev, trans->size_of(trans->impl, 0+4+4+4 +2 /* msg h
1702:/home/lsk/paparazzi/var/include/messages.h **** 	  trans->count_bytes(trans->impl, dev, trans->size_of(trans->impl, 0+4+4+4 +2 /* msg header overhe
1703:/home/lsk/paparazzi/var/include/messages.h **** 	  trans->start_message(trans->impl, dev, 0+4+4+4 +2 /* msg header overhead */);
1704:/home/lsk/paparazzi/var/include/messages.h **** 	  trans->put_bytes(trans->impl, dev, DL_TYPE_UINT8, DL_FORMAT_SCALAR, 1, &ac_id);
1705:/home/lsk/paparazzi/var/include/messages.h **** 	  trans->put_named_byte(trans->impl, dev, DL_TYPE_UINT8, DL_FORMAT_SCALAR, DL_WIND_INFO_RET, "WIND
1706:/home/lsk/paparazzi/var/include/messages.h **** 	  trans->put_bytes(trans->impl, dev, DL_TYPE_FLOAT, DL_FORMAT_SCALAR, 4, (void *) _east);
1707:/home/lsk/paparazzi/var/include/messages.h **** 	  trans->put_bytes(trans->impl, dev, DL_TYPE_FLOAT, DL_FORMAT_SCALAR, 4, (void *) _north);
1708:/home/lsk/paparazzi/var/include/messages.h **** 	  trans->put_bytes(trans->impl, dev, DL_TYPE_FLOAT, DL_FORMAT_SCALAR, 4, (void *) _airspeed);
1709:/home/lsk/paparazzi/var/include/messages.h **** 	  trans->end_message(trans->impl, dev);
1710:/home/lsk/paparazzi/var/include/messages.h **** 	} else
1711:/home/lsk/paparazzi/var/include/messages.h **** 	  trans->overrun(trans->impl, dev);
1712:/home/lsk/paparazzi/var/include/messages.h **** }
1713:/home/lsk/paparazzi/var/include/messages.h **** 
1714:/home/lsk/paparazzi/var/include/messages.h **** #define DOWNLINK_SEND_SCP_STATUS(_trans, _dev, press, temp) pprz_msg_send_SCP_STATUS(&((_trans).tra
1715:/home/lsk/paparazzi/var/include/messages.h **** static inline void pprz_msg_send_SCP_STATUS(struct transport_tx *trans, struct link_device *dev, ui
1716:/home/lsk/paparazzi/var/include/messages.h **** 	if (trans->check_available_space(trans->impl, dev, trans->size_of(trans->impl, 0+4+2 +2 /* msg hea
1717:/home/lsk/paparazzi/var/include/messages.h **** 	  trans->count_bytes(trans->impl, dev, trans->size_of(trans->impl, 0+4+2 +2 /* msg header overhead
1718:/home/lsk/paparazzi/var/include/messages.h **** 	  trans->start_message(trans->impl, dev, 0+4+2 +2 /* msg header overhead */);
1719:/home/lsk/paparazzi/var/include/messages.h **** 	  trans->put_bytes(trans->impl, dev, DL_TYPE_UINT8, DL_FORMAT_SCALAR, 1, &ac_id);
1720:/home/lsk/paparazzi/var/include/messages.h **** 	  trans->put_named_byte(trans->impl, dev, DL_TYPE_UINT8, DL_FORMAT_SCALAR, DL_SCP_STATUS, "SCP_STA
1721:/home/lsk/paparazzi/var/include/messages.h **** 	  trans->put_bytes(trans->impl, dev, DL_TYPE_UINT32, DL_FORMAT_SCALAR, 4, (void *) _press);
1722:/home/lsk/paparazzi/var/include/messages.h **** 	  trans->put_bytes(trans->impl, dev, DL_TYPE_INT16, DL_FORMAT_SCALAR, 2, (void *) _temp);
1723:/home/lsk/paparazzi/var/include/messages.h **** 	  trans->end_message(trans->impl, dev);
1724:/home/lsk/paparazzi/var/include/messages.h **** 	} else
1725:/home/lsk/paparazzi/var/include/messages.h **** 	  trans->overrun(trans->impl, dev);
1726:/home/lsk/paparazzi/var/include/messages.h **** }
1727:/home/lsk/paparazzi/var/include/messages.h **** 
1728:/home/lsk/paparazzi/var/include/messages.h **** #define DOWNLINK_SEND_SHT_STATUS(_trans, _dev, ihumid, itemp, humid, temp) pprz_msg_send_SHT_STATUS
1729:/home/lsk/paparazzi/var/include/messages.h **** static inline void pprz_msg_send_SHT_STATUS(struct transport_tx *trans, struct link_device *dev, ui
1730:/home/lsk/paparazzi/var/include/messages.h **** 	if (trans->check_available_space(trans->impl, dev, trans->size_of(trans->impl, 0+2+2+4+4 +2 /* msg
1731:/home/lsk/paparazzi/var/include/messages.h **** 	  trans->count_bytes(trans->impl, dev, trans->size_of(trans->impl, 0+2+2+4+4 +2 /* msg header over
1732:/home/lsk/paparazzi/var/include/messages.h **** 	  trans->start_message(trans->impl, dev, 0+2+2+4+4 +2 /* msg header overhead */);
1733:/home/lsk/paparazzi/var/include/messages.h **** 	  trans->put_bytes(trans->impl, dev, DL_TYPE_UINT8, DL_FORMAT_SCALAR, 1, &ac_id);
1734:/home/lsk/paparazzi/var/include/messages.h **** 	  trans->put_named_byte(trans->impl, dev, DL_TYPE_UINT8, DL_FORMAT_SCALAR, DL_SHT_STATUS, "SHT_STA
1735:/home/lsk/paparazzi/var/include/messages.h **** 	  trans->put_bytes(trans->impl, dev, DL_TYPE_UINT16, DL_FORMAT_SCALAR, 2, (void *) _ihumid);
1736:/home/lsk/paparazzi/var/include/messages.h **** 	  trans->put_bytes(trans->impl, dev, DL_TYPE_UINT16, DL_FORMAT_SCALAR, 2, (void *) _itemp);
1737:/home/lsk/paparazzi/var/include/messages.h **** 	  trans->put_bytes(trans->impl, dev, DL_TYPE_FLOAT, DL_FORMAT_SCALAR, 4, (void *) _humid);
1738:/home/lsk/paparazzi/var/include/messages.h **** 	  trans->put_bytes(trans->impl, dev, DL_TYPE_FLOAT, DL_FORMAT_SCALAR, 4, (void *) _temp);
1739:/home/lsk/paparazzi/var/include/messages.h **** 	  trans->end_message(trans->impl, dev);
1740:/home/lsk/paparazzi/var/include/messages.h **** 	} else
1741:/home/lsk/paparazzi/var/include/messages.h **** 	  trans->overrun(trans->impl, dev);
1742:/home/lsk/paparazzi/var/include/messages.h **** }
1743:/home/lsk/paparazzi/var/include/messages.h **** 
1744:/home/lsk/paparazzi/var/include/messages.h **** #define DOWNLINK_SEND_ENOSE_STATUS(_trans, _dev, val1, val2, val3, PID, nb_heat, heat) pprz_msg_sen
1745:/home/lsk/paparazzi/var/include/messages.h **** static inline void pprz_msg_send_ENOSE_STATUS(struct transport_tx *trans, struct link_device *dev, 
1746:/home/lsk/paparazzi/var/include/messages.h **** 	if (trans->check_available_space(trans->impl, dev, trans->size_of(trans->impl, 0+2+2+2+2+1+nb_heat
1747:/home/lsk/paparazzi/var/include/messages.h **** 	  trans->count_bytes(trans->impl, dev, trans->size_of(trans->impl, 0+2+2+2+2+1+nb_heat*1 +2 /* msg
1748:/home/lsk/paparazzi/var/include/messages.h **** 	  trans->start_message(trans->impl, dev, 0+2+2+2+2+1+nb_heat*1 +2 /* msg header overhead */);
1749:/home/lsk/paparazzi/var/include/messages.h **** 	  trans->put_bytes(trans->impl, dev, DL_TYPE_UINT8, DL_FORMAT_SCALAR, 1, &ac_id);
1750:/home/lsk/paparazzi/var/include/messages.h **** 	  trans->put_named_byte(trans->impl, dev, DL_TYPE_UINT8, DL_FORMAT_SCALAR, DL_ENOSE_STATUS, "ENOSE
1751:/home/lsk/paparazzi/var/include/messages.h **** 	  trans->put_bytes(trans->impl, dev, DL_TYPE_UINT16, DL_FORMAT_SCALAR, 2, (void *) _val1);
1752:/home/lsk/paparazzi/var/include/messages.h **** 	  trans->put_bytes(trans->impl, dev, DL_TYPE_UINT16, DL_FORMAT_SCALAR, 2, (void *) _val2);
1753:/home/lsk/paparazzi/var/include/messages.h **** 	  trans->put_bytes(trans->impl, dev, DL_TYPE_UINT16, DL_FORMAT_SCALAR, 2, (void *) _val3);
1754:/home/lsk/paparazzi/var/include/messages.h **** 	  trans->put_bytes(trans->impl, dev, DL_TYPE_UINT16, DL_FORMAT_SCALAR, 2, (void *) _PID);
1755:/home/lsk/paparazzi/var/include/messages.h **** 	  trans->put_bytes(trans->impl, dev, DL_TYPE_ARRAY_LENGTH, DL_FORMAT_SCALAR, 1, (void *) &nb_heat)
1756:/home/lsk/paparazzi/var/include/messages.h **** 	  trans->put_bytes(trans->impl, dev, DL_TYPE_UINT8, DL_FORMAT_ARRAY, 1 * nb_heat, (void *) _heat);
1757:/home/lsk/paparazzi/var/include/messages.h **** 	  trans->end_message(trans->impl, dev);
1758:/home/lsk/paparazzi/var/include/messages.h **** 	} else
1759:/home/lsk/paparazzi/var/include/messages.h **** 	  trans->overrun(trans->impl, dev);
1760:/home/lsk/paparazzi/var/include/messages.h **** }
1761:/home/lsk/paparazzi/var/include/messages.h **** 
1762:/home/lsk/paparazzi/var/include/messages.h **** #define DOWNLINK_SEND_DPICCO_STATUS(_trans, _dev, humid, temp, fhumid, ftemp) pprz_msg_send_DPICCO_
1763:/home/lsk/paparazzi/var/include/messages.h **** static inline void pprz_msg_send_DPICCO_STATUS(struct transport_tx *trans, struct link_device *dev,
1764:/home/lsk/paparazzi/var/include/messages.h **** 	if (trans->check_available_space(trans->impl, dev, trans->size_of(trans->impl, 0+2+2+4+4 +2 /* msg
1765:/home/lsk/paparazzi/var/include/messages.h **** 	  trans->count_bytes(trans->impl, dev, trans->size_of(trans->impl, 0+2+2+4+4 +2 /* msg header over
1766:/home/lsk/paparazzi/var/include/messages.h **** 	  trans->start_message(trans->impl, dev, 0+2+2+4+4 +2 /* msg header overhead */);
1767:/home/lsk/paparazzi/var/include/messages.h **** 	  trans->put_bytes(trans->impl, dev, DL_TYPE_UINT8, DL_FORMAT_SCALAR, 1, &ac_id);
1768:/home/lsk/paparazzi/var/include/messages.h **** 	  trans->put_named_byte(trans->impl, dev, DL_TYPE_UINT8, DL_FORMAT_SCALAR, DL_DPICCO_STATUS, "DPIC
1769:/home/lsk/paparazzi/var/include/messages.h **** 	  trans->put_bytes(trans->impl, dev, DL_TYPE_UINT16, DL_FORMAT_SCALAR, 2, (void *) _humid);
1770:/home/lsk/paparazzi/var/include/messages.h **** 	  trans->put_bytes(trans->impl, dev, DL_TYPE_UINT16, DL_FORMAT_SCALAR, 2, (void *) _temp);
1771:/home/lsk/paparazzi/var/include/messages.h **** 	  trans->put_bytes(trans->impl, dev, DL_TYPE_FLOAT, DL_FORMAT_SCALAR, 4, (void *) _fhumid);
1772:/home/lsk/paparazzi/var/include/messages.h **** 	  trans->put_bytes(trans->impl, dev, DL_TYPE_FLOAT, DL_FORMAT_SCALAR, 4, (void *) _ftemp);
1773:/home/lsk/paparazzi/var/include/messages.h **** 	  trans->end_message(trans->impl, dev);
1774:/home/lsk/paparazzi/var/include/messages.h **** 	} else
1775:/home/lsk/paparazzi/var/include/messages.h **** 	  trans->overrun(trans->impl, dev);
1776:/home/lsk/paparazzi/var/include/messages.h **** }
1777:/home/lsk/paparazzi/var/include/messages.h **** 
1778:/home/lsk/paparazzi/var/include/messages.h **** #define DOWNLINK_SEND_ANTENNA_DEBUG(_trans, _dev, mag_xraw, mag_yraw, mag_xcal, mag_ycal, mag_headi
1779:/home/lsk/paparazzi/var/include/messages.h **** static inline void pprz_msg_send_ANTENNA_DEBUG(struct transport_tx *trans, struct link_device *dev,
1780:/home/lsk/paparazzi/var/include/messages.h **** 	if (trans->check_available_space(trans->impl, dev, trans->size_of(trans->impl, 0+4+4+4+4+4+4+4+1+1
1781:/home/lsk/paparazzi/var/include/messages.h **** 	  trans->count_bytes(trans->impl, dev, trans->size_of(trans->impl, 0+4+4+4+4+4+4+4+1+1 +2 /* msg h
1782:/home/lsk/paparazzi/var/include/messages.h **** 	  trans->start_message(trans->impl, dev, 0+4+4+4+4+4+4+4+1+1 +2 /* msg header overhead */);
1783:/home/lsk/paparazzi/var/include/messages.h **** 	  trans->put_bytes(trans->impl, dev, DL_TYPE_UINT8, DL_FORMAT_SCALAR, 1, &ac_id);
1784:/home/lsk/paparazzi/var/include/messages.h **** 	  trans->put_named_byte(trans->impl, dev, DL_TYPE_UINT8, DL_FORMAT_SCALAR, DL_ANTENNA_DEBUG, "ANTE
1785:/home/lsk/paparazzi/var/include/messages.h **** 	  trans->put_bytes(trans->impl, dev, DL_TYPE_INT32, DL_FORMAT_SCALAR, 4, (void *) _mag_xraw);
1786:/home/lsk/paparazzi/var/include/messages.h **** 	  trans->put_bytes(trans->impl, dev, DL_TYPE_INT32, DL_FORMAT_SCALAR, 4, (void *) _mag_yraw);
1787:/home/lsk/paparazzi/var/include/messages.h **** 	  trans->put_bytes(trans->impl, dev, DL_TYPE_FLOAT, DL_FORMAT_SCALAR, 4, (void *) _mag_xcal);
1788:/home/lsk/paparazzi/var/include/messages.h **** 	  trans->put_bytes(trans->impl, dev, DL_TYPE_FLOAT, DL_FORMAT_SCALAR, 4, (void *) _mag_ycal);
1789:/home/lsk/paparazzi/var/include/messages.h **** 	  trans->put_bytes(trans->impl, dev, DL_TYPE_FLOAT, DL_FORMAT_SCALAR, 4, (void *) _mag_heading);
1790:/home/lsk/paparazzi/var/include/messages.h **** 	  trans->put_bytes(trans->impl, dev, DL_TYPE_FLOAT, DL_FORMAT_SCALAR, 4, (void *) _mag_magnitude);
1791:/home/lsk/paparazzi/var/include/messages.h **** 	  trans->put_bytes(trans->impl, dev, DL_TYPE_FLOAT, DL_FORMAT_SCALAR, 4, (void *) _mag_temp);
1792:/home/lsk/paparazzi/var/include/messages.h **** 	  trans->put_bytes(trans->impl, dev, DL_TYPE_UINT8, DL_FORMAT_SCALAR, 1, (void *) _mag_distor);
1793:/home/lsk/paparazzi/var/include/messages.h **** 	  trans->put_bytes(trans->impl, dev, DL_TYPE_UINT8, DL_FORMAT_SCALAR, 1, (void *) _mag_cal_status)
1794:/home/lsk/paparazzi/var/include/messages.h **** 	  trans->end_message(trans->impl, dev);
1795:/home/lsk/paparazzi/var/include/messages.h **** 	} else
1796:/home/lsk/paparazzi/var/include/messages.h **** 	  trans->overrun(trans->impl, dev);
1797:/home/lsk/paparazzi/var/include/messages.h **** }
1798:/home/lsk/paparazzi/var/include/messages.h **** 
