   1              		.syntax unified
   2              		.cpu cortex-m4
   3              		.eabi_attribute 27, 3
   4              		.fpu fpv4-sp-d16
   5              		.eabi_attribute 20, 1
   6              		.eabi_attribute 21, 1
   7              		.eabi_attribute 23, 3
   8              		.eabi_attribute 24, 1
   9              		.eabi_attribute 25, 1
  10              		.eabi_attribute 26, 1
  11              		.eabi_attribute 30, 4
  12              		.eabi_attribute 34, 1
  13              		.eabi_attribute 18, 4
  14              		.thumb
  15              		.file	"gps_ubx_ucenter.c"
  16              		.text
  17              	.Ltext0:
  18              		.cfi_sections	.debug_frame
  19              		.section	.text.gps_ubx_ucenter_config_port_poll,"ax",%progbits
  20              		.align	1
  21              		.thumb
  22              		.thumb_func
  24              	gps_ubx_ucenter_config_port_poll:
  25              	.LFB375:
  26              		.file 1 "modules/gps/gps_ubx_ucenter.c"
   1:modules/gps/gps_ubx_ucenter.c **** /*
   2:modules/gps/gps_ubx_ucenter.c ****  * Copyright (C) 2008-2011 The Paparazzi Team
   3:modules/gps/gps_ubx_ucenter.c ****  *
   4:modules/gps/gps_ubx_ucenter.c ****  * This file is part of paparazzi.
   5:modules/gps/gps_ubx_ucenter.c ****  *
   6:modules/gps/gps_ubx_ucenter.c ****  * paparazzi is free software; you can redistribute it and/or modify
   7:modules/gps/gps_ubx_ucenter.c ****  * it under the terms of the GNU General Public License as published by
   8:modules/gps/gps_ubx_ucenter.c ****  * the Free Software Foundation; either version 2, or (at your option)
   9:modules/gps/gps_ubx_ucenter.c ****  * any later version.
  10:modules/gps/gps_ubx_ucenter.c ****  *
  11:modules/gps/gps_ubx_ucenter.c ****  * paparazzi is distributed in the hope that it will be useful,
  12:modules/gps/gps_ubx_ucenter.c ****  * but WITHOUT ANY WARRANTY; without even the implied warranty of
  13:modules/gps/gps_ubx_ucenter.c ****  * MERCHANTABILITY or FITNESS FOR A PARTICULAR PURPOSE.  See the
  14:modules/gps/gps_ubx_ucenter.c ****  * GNU General Public License for more details.
  15:modules/gps/gps_ubx_ucenter.c ****  *
  16:modules/gps/gps_ubx_ucenter.c ****  * You should have received a copy of the GNU General Public License
  17:modules/gps/gps_ubx_ucenter.c ****  * along with paparazzi; see the file COPYING.  If not, write to
  18:modules/gps/gps_ubx_ucenter.c ****  * the Free Software Foundation, 59 Temple Place - Suite 330,
  19:modules/gps/gps_ubx_ucenter.c ****  * Boston, MA 02111-1307, USA.
  20:modules/gps/gps_ubx_ucenter.c ****  *
  21:modules/gps/gps_ubx_ucenter.c ****  * Initial author: C. De Wagter
  22:modules/gps/gps_ubx_ucenter.c ****  */
  23:modules/gps/gps_ubx_ucenter.c **** 
  24:modules/gps/gps_ubx_ucenter.c **** /**
  25:modules/gps/gps_ubx_ucenter.c ****  * @file modules/gps/gps_ubx_ucenter.c
  26:modules/gps/gps_ubx_ucenter.c ****  * @brief Configure Ublox GPS
  27:modules/gps/gps_ubx_ucenter.c ****  *
  28:modules/gps/gps_ubx_ucenter.c ****  */
  29:modules/gps/gps_ubx_ucenter.c **** 
  30:modules/gps/gps_ubx_ucenter.c **** #include "modules/gps/gps_ubx_ucenter.h"
  31:modules/gps/gps_ubx_ucenter.c **** #include "subsystems/gps/gps_ubx.h"
  32:modules/gps/gps_ubx_ucenter.c **** #include "ubx_protocol.h"
  33:modules/gps/gps_ubx_ucenter.c **** #include "subsystems/datalink/downlink.h"
  34:modules/gps/gps_ubx_ucenter.c **** #include <stdio.h>
  35:modules/gps/gps_ubx_ucenter.c **** 
  36:modules/gps/gps_ubx_ucenter.c **** #if PRINT_DEBUG_GPS_UBX_UCENTER
  37:modules/gps/gps_ubx_ucenter.c **** #define DEBUG_PRINT(...) printf(__VA_ARGS__)
  38:modules/gps/gps_ubx_ucenter.c **** #else
  39:modules/gps/gps_ubx_ucenter.c **** #define DEBUG_PRINT(...) {}
  40:modules/gps/gps_ubx_ucenter.c **** #endif
  41:modules/gps/gps_ubx_ucenter.c **** 
  42:modules/gps/gps_ubx_ucenter.c **** //////////////////////////////////////////////////////////////////////////////////////
  43:modules/gps/gps_ubx_ucenter.c **** //////////////////////////////////////////////////////////////////////////////////////
  44:modules/gps/gps_ubx_ucenter.c **** //
  45:modules/gps/gps_ubx_ucenter.c **** // UCENTER: init, periodic and event
  46:modules/gps/gps_ubx_ucenter.c **** 
  47:modules/gps/gps_ubx_ucenter.c **** static bool_t gps_ubx_ucenter_autobaud(uint8_t nr);
  48:modules/gps/gps_ubx_ucenter.c **** static bool_t gps_ubx_ucenter_configure(uint8_t nr);
  49:modules/gps/gps_ubx_ucenter.c **** 
  50:modules/gps/gps_ubx_ucenter.c **** #define GPS_UBX_UCENTER_STATUS_STOPPED    0
  51:modules/gps/gps_ubx_ucenter.c **** #define GPS_UBX_UCENTER_STATUS_AUTOBAUD   1
  52:modules/gps/gps_ubx_ucenter.c **** #define GPS_UBX_UCENTER_STATUS_CONFIG     2
  53:modules/gps/gps_ubx_ucenter.c **** 
  54:modules/gps/gps_ubx_ucenter.c **** #define GPS_UBX_UCENTER_REPLY_NONE        0
  55:modules/gps/gps_ubx_ucenter.c **** #define GPS_UBX_UCENTER_REPLY_ACK         1
  56:modules/gps/gps_ubx_ucenter.c **** #define GPS_UBX_UCENTER_REPLY_NACK        2
  57:modules/gps/gps_ubx_ucenter.c **** #define GPS_UBX_UCENTER_REPLY_VERSION     3
  58:modules/gps/gps_ubx_ucenter.c **** #define GPS_UBX_UCENTER_REPLY_CFG_PRT     4
  59:modules/gps/gps_ubx_ucenter.c **** 
  60:modules/gps/gps_ubx_ucenter.c **** // All U-Center data
  61:modules/gps/gps_ubx_ucenter.c **** struct gps_ubx_ucenter_struct gps_ubx_ucenter;
  62:modules/gps/gps_ubx_ucenter.c **** 
  63:modules/gps/gps_ubx_ucenter.c **** 
  64:modules/gps/gps_ubx_ucenter.c **** /////////////////////////////
  65:modules/gps/gps_ubx_ucenter.c **** // Init Function
  66:modules/gps/gps_ubx_ucenter.c **** 
  67:modules/gps/gps_ubx_ucenter.c **** void gps_ubx_ucenter_init(void)
  68:modules/gps/gps_ubx_ucenter.c **** {
  69:modules/gps/gps_ubx_ucenter.c ****   // Start UCenter
  70:modules/gps/gps_ubx_ucenter.c ****   gps_ubx_ucenter.status = GPS_UBX_UCENTER_STATUS_AUTOBAUD;
  71:modules/gps/gps_ubx_ucenter.c ****   gps_ubx_ucenter.reply = GPS_UBX_UCENTER_REPLY_NONE;
  72:modules/gps/gps_ubx_ucenter.c ****   gps_ubx_ucenter.cnt = 0;
  73:modules/gps/gps_ubx_ucenter.c **** 
  74:modules/gps/gps_ubx_ucenter.c ****   gps_ubx_ucenter.baud_init = 0;
  75:modules/gps/gps_ubx_ucenter.c ****   gps_ubx_ucenter.baud_run = 0;
  76:modules/gps/gps_ubx_ucenter.c **** 
  77:modules/gps/gps_ubx_ucenter.c ****   gps_ubx_ucenter.sw_ver_h = 0;
  78:modules/gps/gps_ubx_ucenter.c ****   gps_ubx_ucenter.sw_ver_l = 0;
  79:modules/gps/gps_ubx_ucenter.c ****   gps_ubx_ucenter.hw_ver_h = 0;
  80:modules/gps/gps_ubx_ucenter.c ****   gps_ubx_ucenter.hw_ver_l = 0;
  81:modules/gps/gps_ubx_ucenter.c **** 
  82:modules/gps/gps_ubx_ucenter.c ****   for (int i = 0; i < GPS_UBX_UCENTER_CONFIG_STEPS; i++) {
  83:modules/gps/gps_ubx_ucenter.c ****     gps_ubx_ucenter.replies[i] = 0;
  84:modules/gps/gps_ubx_ucenter.c ****   }
  85:modules/gps/gps_ubx_ucenter.c **** 
  86:modules/gps/gps_ubx_ucenter.c ****   gps_ubx_ucenter.dev = &(GPS_LINK).device;
  87:modules/gps/gps_ubx_ucenter.c **** }
  88:modules/gps/gps_ubx_ucenter.c **** 
  89:modules/gps/gps_ubx_ucenter.c **** 
  90:modules/gps/gps_ubx_ucenter.c **** /////////////////////////////
  91:modules/gps/gps_ubx_ucenter.c **** // Periodic Function
  92:modules/gps/gps_ubx_ucenter.c **** // -time-based configuration
  93:modules/gps/gps_ubx_ucenter.c **** 
  94:modules/gps/gps_ubx_ucenter.c **** void gps_ubx_ucenter_periodic(void)
  95:modules/gps/gps_ubx_ucenter.c **** {
  96:modules/gps/gps_ubx_ucenter.c ****   switch (gps_ubx_ucenter.status) {
  97:modules/gps/gps_ubx_ucenter.c ****       // Save processing time inflight
  98:modules/gps/gps_ubx_ucenter.c ****     case GPS_UBX_UCENTER_STATUS_STOPPED:
  99:modules/gps/gps_ubx_ucenter.c ****       return;
 100:modules/gps/gps_ubx_ucenter.c ****       // Automatically Determine Current Baudrate
 101:modules/gps/gps_ubx_ucenter.c ****     case GPS_UBX_UCENTER_STATUS_AUTOBAUD:
 102:modules/gps/gps_ubx_ucenter.c ****       if (gps_ubx_ucenter_autobaud(gps_ubx_ucenter.cnt) == FALSE) {
 103:modules/gps/gps_ubx_ucenter.c ****         gps_ubx_ucenter.status = GPS_UBX_UCENTER_STATUS_CONFIG;
 104:modules/gps/gps_ubx_ucenter.c ****         gps_ubx_ucenter.cnt = 0;
 105:modules/gps/gps_ubx_ucenter.c **** #if PRINT_DEBUG_GPS_UBX_UCENTER
 106:modules/gps/gps_ubx_ucenter.c ****         if (gps_ubx_ucenter.baud_init > 0) {
 107:modules/gps/gps_ubx_ucenter.c ****           DEBUG_PRINT("Initial ublox baudrate found: %u\n", gps_ubx_ucenter.baud_init);
 108:modules/gps/gps_ubx_ucenter.c ****         } else {
 109:modules/gps/gps_ubx_ucenter.c ****           DEBUG_PRINT("WARNING: Unable to determine the ublox baudrate. Autoconfiguration is unlike
 110:modules/gps/gps_ubx_ucenter.c ****         }
 111:modules/gps/gps_ubx_ucenter.c **** #endif
 112:modules/gps/gps_ubx_ucenter.c ****       } else {
 113:modules/gps/gps_ubx_ucenter.c ****         gps_ubx_ucenter.cnt++;
 114:modules/gps/gps_ubx_ucenter.c ****       }
 115:modules/gps/gps_ubx_ucenter.c ****       break;
 116:modules/gps/gps_ubx_ucenter.c ****       // Send Configuration
 117:modules/gps/gps_ubx_ucenter.c ****     case GPS_UBX_UCENTER_STATUS_CONFIG:
 118:modules/gps/gps_ubx_ucenter.c ****       if (gps_ubx_ucenter_configure(gps_ubx_ucenter.cnt) == FALSE) {
 119:modules/gps/gps_ubx_ucenter.c ****         gps_ubx_ucenter.status = GPS_UBX_UCENTER_STATUS_STOPPED;
 120:modules/gps/gps_ubx_ucenter.c ****         gps_ubx_ucenter.cnt = 0;
 121:modules/gps/gps_ubx_ucenter.c ****       } else {
 122:modules/gps/gps_ubx_ucenter.c ****         gps_ubx_ucenter.cnt++;
 123:modules/gps/gps_ubx_ucenter.c ****       }
 124:modules/gps/gps_ubx_ucenter.c ****       break;
 125:modules/gps/gps_ubx_ucenter.c ****     default:
 126:modules/gps/gps_ubx_ucenter.c ****       // stop this module now...
 127:modules/gps/gps_ubx_ucenter.c ****       // todo
 128:modules/gps/gps_ubx_ucenter.c ****       break;
 129:modules/gps/gps_ubx_ucenter.c ****   }
 130:modules/gps/gps_ubx_ucenter.c **** }
 131:modules/gps/gps_ubx_ucenter.c **** 
 132:modules/gps/gps_ubx_ucenter.c **** /////////////////////////////
 133:modules/gps/gps_ubx_ucenter.c **** // Event Function
 134:modules/gps/gps_ubx_ucenter.c **** // -fetch replies: ACK and VERSION info
 135:modules/gps/gps_ubx_ucenter.c **** 
 136:modules/gps/gps_ubx_ucenter.c **** void gps_ubx_ucenter_event(void)
 137:modules/gps/gps_ubx_ucenter.c **** {
 138:modules/gps/gps_ubx_ucenter.c ****   // Save processing time inflight
 139:modules/gps/gps_ubx_ucenter.c ****   if (gps_ubx_ucenter.status == GPS_UBX_UCENTER_STATUS_STOPPED) {
 140:modules/gps/gps_ubx_ucenter.c ****     return;
 141:modules/gps/gps_ubx_ucenter.c ****   }
 142:modules/gps/gps_ubx_ucenter.c **** 
 143:modules/gps/gps_ubx_ucenter.c ****   // Read Configuration Reply's
 144:modules/gps/gps_ubx_ucenter.c ****   switch (gps_ubx.msg_class) {
 145:modules/gps/gps_ubx_ucenter.c ****     case UBX_ACK_ID:
 146:modules/gps/gps_ubx_ucenter.c ****       if (gps_ubx.msg_id == UBX_ACK_ACK_ID) {
 147:modules/gps/gps_ubx_ucenter.c ****         gps_ubx_ucenter.reply = GPS_UBX_UCENTER_REPLY_ACK;
 148:modules/gps/gps_ubx_ucenter.c ****         DEBUG_PRINT("ACK\n");
 149:modules/gps/gps_ubx_ucenter.c ****       } else {
 150:modules/gps/gps_ubx_ucenter.c ****         gps_ubx_ucenter.reply = GPS_UBX_UCENTER_REPLY_NACK;
 151:modules/gps/gps_ubx_ucenter.c ****         DEBUG_PRINT("NACK\n");
 152:modules/gps/gps_ubx_ucenter.c ****       }
 153:modules/gps/gps_ubx_ucenter.c ****       break;
 154:modules/gps/gps_ubx_ucenter.c ****     case UBX_MON_ID:
 155:modules/gps/gps_ubx_ucenter.c ****       if (gps_ubx.msg_id == UBX_MON_VER_ID) {
 156:modules/gps/gps_ubx_ucenter.c ****         gps_ubx_ucenter.reply = GPS_UBX_UCENTER_REPLY_VERSION;
 157:modules/gps/gps_ubx_ucenter.c ****         gps_ubx_ucenter.sw_ver_h = UBX_MON_VER_c(gps_ubx.msg_buf, 0) - '0';
 158:modules/gps/gps_ubx_ucenter.c ****         gps_ubx_ucenter.sw_ver_l = 10 * (UBX_MON_VER_c(gps_ubx.msg_buf, 2) - '0');
 159:modules/gps/gps_ubx_ucenter.c ****         gps_ubx_ucenter.sw_ver_l += UBX_MON_VER_c(gps_ubx.msg_buf, 3) - '0';
 160:modules/gps/gps_ubx_ucenter.c ****         gps_ubx_ucenter.hw_ver_h = UBX_MON_VER_c(gps_ubx.msg_buf, 33) - '0';
 161:modules/gps/gps_ubx_ucenter.c ****         gps_ubx_ucenter.hw_ver_h += 10 * (UBX_MON_VER_c(gps_ubx.msg_buf, 32) - '0');
 162:modules/gps/gps_ubx_ucenter.c ****         gps_ubx_ucenter.hw_ver_l = UBX_MON_VER_c(gps_ubx.msg_buf, 37) - '0';
 163:modules/gps/gps_ubx_ucenter.c ****         gps_ubx_ucenter.hw_ver_l += 10 * (UBX_MON_VER_c(gps_ubx.msg_buf, 36) - '0');
 164:modules/gps/gps_ubx_ucenter.c **** 
 165:modules/gps/gps_ubx_ucenter.c ****         DEBUG_PRINT("ublox sw_ver: %u.%u\n", gps_ubx_ucenter.sw_ver_h, gps_ubx_ucenter.sw_ver_l);
 166:modules/gps/gps_ubx_ucenter.c ****         DEBUG_PRINT("ublox hw_ver: %u.%u\n", gps_ubx_ucenter.hw_ver_h, gps_ubx_ucenter.hw_ver_l);
 167:modules/gps/gps_ubx_ucenter.c ****       }
 168:modules/gps/gps_ubx_ucenter.c ****       break;
 169:modules/gps/gps_ubx_ucenter.c ****     case UBX_CFG_ID:
 170:modules/gps/gps_ubx_ucenter.c ****       if (gps_ubx.msg_id == UBX_CFG_PRT_ID) {
 171:modules/gps/gps_ubx_ucenter.c ****         gps_ubx_ucenter.reply = GPS_UBX_UCENTER_REPLY_CFG_PRT;
 172:modules/gps/gps_ubx_ucenter.c ****         gps_ubx_ucenter.port_id = UBX_CFG_PRT_PortId(gps_ubx.msg_buf, 0);
 173:modules/gps/gps_ubx_ucenter.c ****         gps_ubx_ucenter.baud_run = UBX_CFG_PRT_Baudrate(gps_ubx.msg_buf, 0);
 174:modules/gps/gps_ubx_ucenter.c **** 
 175:modules/gps/gps_ubx_ucenter.c ****         DEBUG_PRINT("gps_ubx_ucenter.baud_run: %u\n", gps_ubx_ucenter.baud_run);
 176:modules/gps/gps_ubx_ucenter.c ****         DEBUG_PRINT("gps_ubx_ucenter.port_id: %u\n", gps_ubx_ucenter.port_id);
 177:modules/gps/gps_ubx_ucenter.c ****       }
 178:modules/gps/gps_ubx_ucenter.c ****       break;
 179:modules/gps/gps_ubx_ucenter.c ****     default:
 180:modules/gps/gps_ubx_ucenter.c ****       break;
 181:modules/gps/gps_ubx_ucenter.c ****   }
 182:modules/gps/gps_ubx_ucenter.c **** }
 183:modules/gps/gps_ubx_ucenter.c **** 
 184:modules/gps/gps_ubx_ucenter.c **** //////////////////////////////////////////////////////////////////////////////////////
 185:modules/gps/gps_ubx_ucenter.c **** //////////////////////////////////////////////////////////////////////////////////////
 186:modules/gps/gps_ubx_ucenter.c **** //
 187:modules/gps/gps_ubx_ucenter.c **** // UCENTER Configuration Functions
 188:modules/gps/gps_ubx_ucenter.c **** 
 189:modules/gps/gps_ubx_ucenter.c **** /**
 190:modules/gps/gps_ubx_ucenter.c ****  * Polls the u-blox port configuration
 191:modules/gps/gps_ubx_ucenter.c ****  * When the payload is omitted (zero length), the configuration for the incoming
 192:modules/gps/gps_ubx_ucenter.c ****  * (currently used) port is reported.
 193:modules/gps/gps_ubx_ucenter.c ****  *
 194:modules/gps/gps_ubx_ucenter.c ****  */
 195:modules/gps/gps_ubx_ucenter.c **** static inline void gps_ubx_ucenter_config_port_poll(void)
 196:modules/gps/gps_ubx_ucenter.c **** {
  27              		.loc 1 196 0
  28              		.cfi_startproc
  29              		@ args = 0, pretend = 0, frame = 0
  30              		@ frame_needed = 0, uses_anonymous_args = 0
  31 0000 10B5     		push	{r4, lr}
  32              		.cfi_def_cfa_offset 8
  33              		.cfi_offset 4, -8
  34              		.cfi_offset 14, -4
 197:modules/gps/gps_ubx_ucenter.c ****   UbxSend_CFG_PRT_POLL(gps_ubx_ucenter.dev);
  35              		.loc 1 197 0
  36 0002 064B     		ldr	r3, .L2
  37 0004 9C6A     		ldr	r4, [r3, #40]
  38              	.LVL0:
  39              	.LBB4:
  40              	.LBB5:
  41              		.file 2 "/home/lsk/paparazzi/var/include/ubx_protocol.h"
   1:/home/lsk/paparazzi/var/include/ubx_protocol.h **** /* Generated by gen_ubx from /home/lsk/paparazzi/conf/ubx.xml */
   2:/home/lsk/paparazzi/var/include/ubx_protocol.h **** /* Please DO NOT EDIT */
   3:/home/lsk/paparazzi/var/include/ubx_protocol.h **** 
   4:/home/lsk/paparazzi/var/include/ubx_protocol.h **** #include "mcu_periph/link_device.h"
   5:/home/lsk/paparazzi/var/include/ubx_protocol.h **** 
   6:/home/lsk/paparazzi/var/include/ubx_protocol.h **** #include "subsystems/gps/gps_ubx.h"
   7:/home/lsk/paparazzi/var/include/ubx_protocol.h **** 
   8:/home/lsk/paparazzi/var/include/ubx_protocol.h **** #define UBX_SYNC1 0xB5
   9:/home/lsk/paparazzi/var/include/ubx_protocol.h **** #define UBX_SYNC2 0x62
  10:/home/lsk/paparazzi/var/include/ubx_protocol.h **** 
  11:/home/lsk/paparazzi/var/include/ubx_protocol.h **** #define UBX_NAV_ID 0x01
  12:/home/lsk/paparazzi/var/include/ubx_protocol.h **** 
  13:/home/lsk/paparazzi/var/include/ubx_protocol.h **** #define UBX_NAV_POSLLH_ID 0x02
  14:/home/lsk/paparazzi/var/include/ubx_protocol.h **** #define UBX_NAV_POSLLH_ITOW(_ubx_payload) (uint32_t)(*((uint8_t*)_ubx_payload+0)|*((uint8_t*)_ubx_p
  15:/home/lsk/paparazzi/var/include/ubx_protocol.h **** #define UBX_NAV_POSLLH_LON(_ubx_payload) (int32_t)(*((uint8_t*)_ubx_payload+4)|*((uint8_t*)_ubx_pay
  16:/home/lsk/paparazzi/var/include/ubx_protocol.h **** #define UBX_NAV_POSLLH_LAT(_ubx_payload) (int32_t)(*((uint8_t*)_ubx_payload+8)|*((uint8_t*)_ubx_pay
  17:/home/lsk/paparazzi/var/include/ubx_protocol.h **** #define UBX_NAV_POSLLH_HEIGHT(_ubx_payload) (int32_t)(*((uint8_t*)_ubx_payload+12)|*((uint8_t*)_ubx
  18:/home/lsk/paparazzi/var/include/ubx_protocol.h **** #define UBX_NAV_POSLLH_HMSL(_ubx_payload) (int32_t)(*((uint8_t*)_ubx_payload+16)|*((uint8_t*)_ubx_p
  19:/home/lsk/paparazzi/var/include/ubx_protocol.h **** #define UBX_NAV_POSLLH_Hacc(_ubx_payload) (uint32_t)(*((uint8_t*)_ubx_payload+20)|*((uint8_t*)_ubx_
  20:/home/lsk/paparazzi/var/include/ubx_protocol.h **** #define UBX_NAV_POSLLH_Vacc(_ubx_payload) (uint32_t)(*((uint8_t*)_ubx_payload+24)|*((uint8_t*)_ubx_
  21:/home/lsk/paparazzi/var/include/ubx_protocol.h **** 
  22:/home/lsk/paparazzi/var/include/ubx_protocol.h **** static inline void UbxSend_NAV_POSLLH(struct link_device *dev, uint32_t itow, int32_t lon, int32_t 
  23:/home/lsk/paparazzi/var/include/ubx_protocol.h ****   ubx_header(dev, UBX_NAV_ID, UBX_NAV_POSLLH_ID, 28);
  24:/home/lsk/paparazzi/var/include/ubx_protocol.h ****   uint32_t _itow = itow; ubx_send_bytes(dev, 4, (uint8_t*)&_itow);
  25:/home/lsk/paparazzi/var/include/ubx_protocol.h ****   int32_t _lon = lon; ubx_send_bytes(dev, 4, (uint8_t*)&_lon);
  26:/home/lsk/paparazzi/var/include/ubx_protocol.h ****   int32_t _lat = lat; ubx_send_bytes(dev, 4, (uint8_t*)&_lat);
  27:/home/lsk/paparazzi/var/include/ubx_protocol.h ****   int32_t _height = height; ubx_send_bytes(dev, 4, (uint8_t*)&_height);
  28:/home/lsk/paparazzi/var/include/ubx_protocol.h ****   int32_t _hmsl = hmsl; ubx_send_bytes(dev, 4, (uint8_t*)&_hmsl);
  29:/home/lsk/paparazzi/var/include/ubx_protocol.h ****   uint32_t _hacc = hacc; ubx_send_bytes(dev, 4, (uint8_t*)&_hacc);
  30:/home/lsk/paparazzi/var/include/ubx_protocol.h ****   uint32_t _vacc = vacc; ubx_send_bytes(dev, 4, (uint8_t*)&_vacc);
  31:/home/lsk/paparazzi/var/include/ubx_protocol.h ****   ubx_trailer(dev);
  32:/home/lsk/paparazzi/var/include/ubx_protocol.h **** }
  33:/home/lsk/paparazzi/var/include/ubx_protocol.h **** 
  34:/home/lsk/paparazzi/var/include/ubx_protocol.h **** #define UBX_NAV_DOP_ID 0x04
  35:/home/lsk/paparazzi/var/include/ubx_protocol.h **** #define UBX_NAV_DOP_ITOW(_ubx_payload) (uint32_t)(*((uint8_t*)_ubx_payload+0)|*((uint8_t*)_ubx_payl
  36:/home/lsk/paparazzi/var/include/ubx_protocol.h **** #define UBX_NAV_DOP_GDOP(_ubx_payload) (uint16_t)(*((uint8_t*)_ubx_payload+4)|*((uint8_t*)_ubx_payl
  37:/home/lsk/paparazzi/var/include/ubx_protocol.h **** #define UBX_NAV_DOP_PDOP(_ubx_payload) (uint16_t)(*((uint8_t*)_ubx_payload+6)|*((uint8_t*)_ubx_payl
  38:/home/lsk/paparazzi/var/include/ubx_protocol.h **** #define UBX_NAV_DOP_TDOP(_ubx_payload) (uint16_t)(*((uint8_t*)_ubx_payload+8)|*((uint8_t*)_ubx_payl
  39:/home/lsk/paparazzi/var/include/ubx_protocol.h **** #define UBX_NAV_DOP_VDOP(_ubx_payload) (uint16_t)(*((uint8_t*)_ubx_payload+10)|*((uint8_t*)_ubx_pay
  40:/home/lsk/paparazzi/var/include/ubx_protocol.h **** #define UBX_NAV_DOP_HDOP(_ubx_payload) (uint16_t)(*((uint8_t*)_ubx_payload+12)|*((uint8_t*)_ubx_pay
  41:/home/lsk/paparazzi/var/include/ubx_protocol.h **** #define UBX_NAV_DOP_NDOP(_ubx_payload) (uint16_t)(*((uint8_t*)_ubx_payload+14)|*((uint8_t*)_ubx_pay
  42:/home/lsk/paparazzi/var/include/ubx_protocol.h **** #define UBX_NAV_DOP_EDOP(_ubx_payload) (uint16_t)(*((uint8_t*)_ubx_payload+16)|*((uint8_t*)_ubx_pay
  43:/home/lsk/paparazzi/var/include/ubx_protocol.h **** 
  44:/home/lsk/paparazzi/var/include/ubx_protocol.h **** static inline void UbxSend_NAV_DOP(struct link_device *dev, uint32_t itow, uint16_t gdop, uint16_t 
  45:/home/lsk/paparazzi/var/include/ubx_protocol.h ****   ubx_header(dev, UBX_NAV_ID, UBX_NAV_DOP_ID, 18);
  46:/home/lsk/paparazzi/var/include/ubx_protocol.h ****   uint32_t _itow = itow; ubx_send_bytes(dev, 4, (uint8_t*)&_itow);
  47:/home/lsk/paparazzi/var/include/ubx_protocol.h ****   uint16_t _gdop = gdop; ubx_send_bytes(dev, 2, (uint8_t*)&_gdop);
  48:/home/lsk/paparazzi/var/include/ubx_protocol.h ****   uint16_t _pdop = pdop; ubx_send_bytes(dev, 2, (uint8_t*)&_pdop);
  49:/home/lsk/paparazzi/var/include/ubx_protocol.h ****   uint16_t _tdop = tdop; ubx_send_bytes(dev, 2, (uint8_t*)&_tdop);
  50:/home/lsk/paparazzi/var/include/ubx_protocol.h ****   uint16_t _vdop = vdop; ubx_send_bytes(dev, 2, (uint8_t*)&_vdop);
  51:/home/lsk/paparazzi/var/include/ubx_protocol.h ****   uint16_t _hdop = hdop; ubx_send_bytes(dev, 2, (uint8_t*)&_hdop);
  52:/home/lsk/paparazzi/var/include/ubx_protocol.h ****   uint16_t _ndop = ndop; ubx_send_bytes(dev, 2, (uint8_t*)&_ndop);
  53:/home/lsk/paparazzi/var/include/ubx_protocol.h ****   uint16_t _edop = edop; ubx_send_bytes(dev, 2, (uint8_t*)&_edop);
  54:/home/lsk/paparazzi/var/include/ubx_protocol.h ****   ubx_trailer(dev);
  55:/home/lsk/paparazzi/var/include/ubx_protocol.h **** }
  56:/home/lsk/paparazzi/var/include/ubx_protocol.h **** 
  57:/home/lsk/paparazzi/var/include/ubx_protocol.h **** #define UBX_NAV_SOL_ID 0x06
  58:/home/lsk/paparazzi/var/include/ubx_protocol.h **** #define UBX_NAV_SOL_ITOW(_ubx_payload) (uint32_t)(*((uint8_t*)_ubx_payload+0)|*((uint8_t*)_ubx_payl
  59:/home/lsk/paparazzi/var/include/ubx_protocol.h **** #define UBX_NAV_SOL_Frac(_ubx_payload) (int32_t)(*((uint8_t*)_ubx_payload+4)|*((uint8_t*)_ubx_paylo
  60:/home/lsk/paparazzi/var/include/ubx_protocol.h **** #define UBX_NAV_SOL_week(_ubx_payload) (int16_t)(*((uint8_t*)_ubx_payload+8)|*((uint8_t*)_ubx_paylo
  61:/home/lsk/paparazzi/var/include/ubx_protocol.h **** #define UBX_NAV_SOL_GPSfix(_ubx_payload) (uint8_t)(*((uint8_t*)_ubx_payload+10))
  62:/home/lsk/paparazzi/var/include/ubx_protocol.h **** #define UBX_NAV_SOL_Flags(_ubx_payload) (uint8_t)(*((uint8_t*)_ubx_payload+11))
  63:/home/lsk/paparazzi/var/include/ubx_protocol.h **** #define UBX_NAV_SOL_ECEF_X(_ubx_payload) (int32_t)(*((uint8_t*)_ubx_payload+12)|*((uint8_t*)_ubx_pa
  64:/home/lsk/paparazzi/var/include/ubx_protocol.h **** #define UBX_NAV_SOL_ECEF_Y(_ubx_payload) (int32_t)(*((uint8_t*)_ubx_payload+16)|*((uint8_t*)_ubx_pa
  65:/home/lsk/paparazzi/var/include/ubx_protocol.h **** #define UBX_NAV_SOL_ECEF_Z(_ubx_payload) (int32_t)(*((uint8_t*)_ubx_payload+20)|*((uint8_t*)_ubx_pa
  66:/home/lsk/paparazzi/var/include/ubx_protocol.h **** #define UBX_NAV_SOL_Pacc(_ubx_payload) (uint32_t)(*((uint8_t*)_ubx_payload+24)|*((uint8_t*)_ubx_pay
  67:/home/lsk/paparazzi/var/include/ubx_protocol.h **** #define UBX_NAV_SOL_ECEFVX(_ubx_payload) (int32_t)(*((uint8_t*)_ubx_payload+28)|*((uint8_t*)_ubx_pa
  68:/home/lsk/paparazzi/var/include/ubx_protocol.h **** #define UBX_NAV_SOL_ECEFVY(_ubx_payload) (int32_t)(*((uint8_t*)_ubx_payload+32)|*((uint8_t*)_ubx_pa
  69:/home/lsk/paparazzi/var/include/ubx_protocol.h **** #define UBX_NAV_SOL_ECEFVZ(_ubx_payload) (int32_t)(*((uint8_t*)_ubx_payload+36)|*((uint8_t*)_ubx_pa
  70:/home/lsk/paparazzi/var/include/ubx_protocol.h **** #define UBX_NAV_SOL_Sacc(_ubx_payload) (uint32_t)(*((uint8_t*)_ubx_payload+40)|*((uint8_t*)_ubx_pay
  71:/home/lsk/paparazzi/var/include/ubx_protocol.h **** #define UBX_NAV_SOL_PDOP(_ubx_payload) (uint16_t)(*((uint8_t*)_ubx_payload+44)|*((uint8_t*)_ubx_pay
  72:/home/lsk/paparazzi/var/include/ubx_protocol.h **** #define UBX_NAV_SOL_res1(_ubx_payload) (uint8_t)(*((uint8_t*)_ubx_payload+46))
  73:/home/lsk/paparazzi/var/include/ubx_protocol.h **** #define UBX_NAV_SOL_numSV(_ubx_payload) (uint8_t)(*((uint8_t*)_ubx_payload+47))
  74:/home/lsk/paparazzi/var/include/ubx_protocol.h **** #define UBX_NAV_SOL_res2(_ubx_payload) (uint32_t)(*((uint8_t*)_ubx_payload+48)|*((uint8_t*)_ubx_pay
  75:/home/lsk/paparazzi/var/include/ubx_protocol.h **** 
  76:/home/lsk/paparazzi/var/include/ubx_protocol.h **** static inline void UbxSend_NAV_SOL(struct link_device *dev, uint32_t itow, int32_t frac, int16_t we
  77:/home/lsk/paparazzi/var/include/ubx_protocol.h ****   ubx_header(dev, UBX_NAV_ID, UBX_NAV_SOL_ID, 52);
  78:/home/lsk/paparazzi/var/include/ubx_protocol.h ****   uint32_t _itow = itow; ubx_send_bytes(dev, 4, (uint8_t*)&_itow);
  79:/home/lsk/paparazzi/var/include/ubx_protocol.h ****   int32_t _frac = frac; ubx_send_bytes(dev, 4, (uint8_t*)&_frac);
  80:/home/lsk/paparazzi/var/include/ubx_protocol.h ****   int16_t _week = week; ubx_send_bytes(dev, 2, (uint8_t*)&_week);
  81:/home/lsk/paparazzi/var/include/ubx_protocol.h ****   uint8_t _gpsfix = gpsfix; ubx_send_bytes(dev, 1, (uint8_t*)&_gpsfix);
  82:/home/lsk/paparazzi/var/include/ubx_protocol.h ****   uint8_t _flags = flags; ubx_send_bytes(dev, 1, (uint8_t*)&_flags);
  83:/home/lsk/paparazzi/var/include/ubx_protocol.h ****   int32_t _ecef_x = ecef_x; ubx_send_bytes(dev, 4, (uint8_t*)&_ecef_x);
  84:/home/lsk/paparazzi/var/include/ubx_protocol.h ****   int32_t _ecef_y = ecef_y; ubx_send_bytes(dev, 4, (uint8_t*)&_ecef_y);
  85:/home/lsk/paparazzi/var/include/ubx_protocol.h ****   int32_t _ecef_z = ecef_z; ubx_send_bytes(dev, 4, (uint8_t*)&_ecef_z);
  86:/home/lsk/paparazzi/var/include/ubx_protocol.h ****   uint32_t _pacc = pacc; ubx_send_bytes(dev, 4, (uint8_t*)&_pacc);
  87:/home/lsk/paparazzi/var/include/ubx_protocol.h ****   int32_t _ecefvx = ecefvx; ubx_send_bytes(dev, 4, (uint8_t*)&_ecefvx);
  88:/home/lsk/paparazzi/var/include/ubx_protocol.h ****   int32_t _ecefvy = ecefvy; ubx_send_bytes(dev, 4, (uint8_t*)&_ecefvy);
  89:/home/lsk/paparazzi/var/include/ubx_protocol.h ****   int32_t _ecefvz = ecefvz; ubx_send_bytes(dev, 4, (uint8_t*)&_ecefvz);
  90:/home/lsk/paparazzi/var/include/ubx_protocol.h ****   uint32_t _sacc = sacc; ubx_send_bytes(dev, 4, (uint8_t*)&_sacc);
  91:/home/lsk/paparazzi/var/include/ubx_protocol.h ****   uint16_t _pdop = pdop; ubx_send_bytes(dev, 2, (uint8_t*)&_pdop);
  92:/home/lsk/paparazzi/var/include/ubx_protocol.h ****   uint8_t _res1 = res1; ubx_send_bytes(dev, 1, (uint8_t*)&_res1);
  93:/home/lsk/paparazzi/var/include/ubx_protocol.h ****   uint8_t _numsv = numsv; ubx_send_bytes(dev, 1, (uint8_t*)&_numsv);
  94:/home/lsk/paparazzi/var/include/ubx_protocol.h ****   uint32_t _res2 = res2; ubx_send_bytes(dev, 4, (uint8_t*)&_res2);
  95:/home/lsk/paparazzi/var/include/ubx_protocol.h ****   ubx_trailer(dev);
  96:/home/lsk/paparazzi/var/include/ubx_protocol.h **** }
  97:/home/lsk/paparazzi/var/include/ubx_protocol.h **** 
  98:/home/lsk/paparazzi/var/include/ubx_protocol.h **** #define UBX_NAV_POSUTM_ID 0x08
  99:/home/lsk/paparazzi/var/include/ubx_protocol.h **** #define UBX_NAV_POSUTM_ITOW(_ubx_payload) (uint32_t)(*((uint8_t*)_ubx_payload+0)|*((uint8_t*)_ubx_p
 100:/home/lsk/paparazzi/var/include/ubx_protocol.h **** #define UBX_NAV_POSUTM_EAST(_ubx_payload) (int32_t)(*((uint8_t*)_ubx_payload+4)|*((uint8_t*)_ubx_pa
 101:/home/lsk/paparazzi/var/include/ubx_protocol.h **** #define UBX_NAV_POSUTM_NORTH(_ubx_payload) (int32_t)(*((uint8_t*)_ubx_payload+8)|*((uint8_t*)_ubx_p
 102:/home/lsk/paparazzi/var/include/ubx_protocol.h **** #define UBX_NAV_POSUTM_ALT(_ubx_payload) (int32_t)(*((uint8_t*)_ubx_payload+12)|*((uint8_t*)_ubx_pa
 103:/home/lsk/paparazzi/var/include/ubx_protocol.h **** #define UBX_NAV_POSUTM_ZONE(_ubx_payload) (int8_t)(*((uint8_t*)_ubx_payload+16))
 104:/home/lsk/paparazzi/var/include/ubx_protocol.h **** #define UBX_NAV_POSUTM_HEM(_ubx_payload) (int8_t)(*((uint8_t*)_ubx_payload+17))
 105:/home/lsk/paparazzi/var/include/ubx_protocol.h **** 
 106:/home/lsk/paparazzi/var/include/ubx_protocol.h **** static inline void UbxSend_NAV_POSUTM(struct link_device *dev, uint32_t itow, int32_t east, int32_t
 107:/home/lsk/paparazzi/var/include/ubx_protocol.h ****   ubx_header(dev, UBX_NAV_ID, UBX_NAV_POSUTM_ID, 18);
 108:/home/lsk/paparazzi/var/include/ubx_protocol.h ****   uint32_t _itow = itow; ubx_send_bytes(dev, 4, (uint8_t*)&_itow);
 109:/home/lsk/paparazzi/var/include/ubx_protocol.h ****   int32_t _east = east; ubx_send_bytes(dev, 4, (uint8_t*)&_east);
 110:/home/lsk/paparazzi/var/include/ubx_protocol.h ****   int32_t _north = north; ubx_send_bytes(dev, 4, (uint8_t*)&_north);
 111:/home/lsk/paparazzi/var/include/ubx_protocol.h ****   int32_t _alt = alt; ubx_send_bytes(dev, 4, (uint8_t*)&_alt);
 112:/home/lsk/paparazzi/var/include/ubx_protocol.h ****   int8_t _zone = zone; ubx_send_bytes(dev, 1, (uint8_t*)&_zone);
 113:/home/lsk/paparazzi/var/include/ubx_protocol.h ****   int8_t _hem = hem; ubx_send_bytes(dev, 1, (uint8_t*)&_hem);
 114:/home/lsk/paparazzi/var/include/ubx_protocol.h ****   ubx_trailer(dev);
 115:/home/lsk/paparazzi/var/include/ubx_protocol.h **** }
 116:/home/lsk/paparazzi/var/include/ubx_protocol.h **** 
 117:/home/lsk/paparazzi/var/include/ubx_protocol.h **** #define UBX_NAV_STATUS_ID 0x03
 118:/home/lsk/paparazzi/var/include/ubx_protocol.h **** #define UBX_NAV_STATUS_ITOW(_ubx_payload) (uint32_t)(*((uint8_t*)_ubx_payload+0)|*((uint8_t*)_ubx_p
 119:/home/lsk/paparazzi/var/include/ubx_protocol.h **** #define UBX_NAV_STATUS_GPSfix(_ubx_payload) (uint8_t)(*((uint8_t*)_ubx_payload+4))
 120:/home/lsk/paparazzi/var/include/ubx_protocol.h **** #define UBX_NAV_STATUS_Flags(_ubx_payload) (uint8_t)(*((uint8_t*)_ubx_payload+5))
 121:/home/lsk/paparazzi/var/include/ubx_protocol.h **** #define UBX_NAV_STATUS_DiffS(_ubx_payload) (uint8_t)(*((uint8_t*)_ubx_payload+6))
 122:/home/lsk/paparazzi/var/include/ubx_protocol.h **** #define UBX_NAV_STATUS_res(_ubx_payload) (uint8_t)(*((uint8_t*)_ubx_payload+7))
 123:/home/lsk/paparazzi/var/include/ubx_protocol.h **** #define UBX_NAV_STATUS_TTFF(_ubx_payload) (uint32_t)(*((uint8_t*)_ubx_payload+8)|*((uint8_t*)_ubx_p
 124:/home/lsk/paparazzi/var/include/ubx_protocol.h **** #define UBX_NAV_STATUS_MSSS(_ubx_payload) (uint32_t)(*((uint8_t*)_ubx_payload+12)|*((uint8_t*)_ubx_
 125:/home/lsk/paparazzi/var/include/ubx_protocol.h **** 
 126:/home/lsk/paparazzi/var/include/ubx_protocol.h **** static inline void UbxSend_NAV_STATUS(struct link_device *dev, uint32_t itow, uint8_t gpsfix, uint8
 127:/home/lsk/paparazzi/var/include/ubx_protocol.h ****   ubx_header(dev, UBX_NAV_ID, UBX_NAV_STATUS_ID, 16);
 128:/home/lsk/paparazzi/var/include/ubx_protocol.h ****   uint32_t _itow = itow; ubx_send_bytes(dev, 4, (uint8_t*)&_itow);
 129:/home/lsk/paparazzi/var/include/ubx_protocol.h ****   uint8_t _gpsfix = gpsfix; ubx_send_bytes(dev, 1, (uint8_t*)&_gpsfix);
 130:/home/lsk/paparazzi/var/include/ubx_protocol.h ****   uint8_t _flags = flags; ubx_send_bytes(dev, 1, (uint8_t*)&_flags);
 131:/home/lsk/paparazzi/var/include/ubx_protocol.h ****   uint8_t _diffs = diffs; ubx_send_bytes(dev, 1, (uint8_t*)&_diffs);
 132:/home/lsk/paparazzi/var/include/ubx_protocol.h ****   uint8_t _res = res; ubx_send_bytes(dev, 1, (uint8_t*)&_res);
 133:/home/lsk/paparazzi/var/include/ubx_protocol.h ****   uint32_t _ttff = ttff; ubx_send_bytes(dev, 4, (uint8_t*)&_ttff);
 134:/home/lsk/paparazzi/var/include/ubx_protocol.h ****   uint32_t _msss = msss; ubx_send_bytes(dev, 4, (uint8_t*)&_msss);
 135:/home/lsk/paparazzi/var/include/ubx_protocol.h ****   ubx_trailer(dev);
 136:/home/lsk/paparazzi/var/include/ubx_protocol.h **** }
 137:/home/lsk/paparazzi/var/include/ubx_protocol.h **** 
 138:/home/lsk/paparazzi/var/include/ubx_protocol.h **** #define UBX_NAV_VELNED_ID 0x12
 139:/home/lsk/paparazzi/var/include/ubx_protocol.h **** #define UBX_NAV_VELNED_ITOW(_ubx_payload) (uint32_t)(*((uint8_t*)_ubx_payload+0)|*((uint8_t*)_ubx_p
 140:/home/lsk/paparazzi/var/include/ubx_protocol.h **** #define UBX_NAV_VELNED_VEL_N(_ubx_payload) (int32_t)(*((uint8_t*)_ubx_payload+4)|*((uint8_t*)_ubx_p
 141:/home/lsk/paparazzi/var/include/ubx_protocol.h **** #define UBX_NAV_VELNED_VEL_E(_ubx_payload) (int32_t)(*((uint8_t*)_ubx_payload+8)|*((uint8_t*)_ubx_p
 142:/home/lsk/paparazzi/var/include/ubx_protocol.h **** #define UBX_NAV_VELNED_VEL_D(_ubx_payload) (int32_t)(*((uint8_t*)_ubx_payload+12)|*((uint8_t*)_ubx_
 143:/home/lsk/paparazzi/var/include/ubx_protocol.h **** #define UBX_NAV_VELNED_Speed(_ubx_payload) (uint32_t)(*((uint8_t*)_ubx_payload+16)|*((uint8_t*)_ubx
 144:/home/lsk/paparazzi/var/include/ubx_protocol.h **** #define UBX_NAV_VELNED_GSpeed(_ubx_payload) (uint32_t)(*((uint8_t*)_ubx_payload+20)|*((uint8_t*)_ub
 145:/home/lsk/paparazzi/var/include/ubx_protocol.h **** #define UBX_NAV_VELNED_Heading(_ubx_payload) (int32_t)(*((uint8_t*)_ubx_payload+24)|*((uint8_t*)_ub
 146:/home/lsk/paparazzi/var/include/ubx_protocol.h **** #define UBX_NAV_VELNED_SAcc(_ubx_payload) (uint32_t)(*((uint8_t*)_ubx_payload+28)|*((uint8_t*)_ubx_
 147:/home/lsk/paparazzi/var/include/ubx_protocol.h **** #define UBX_NAV_VELNED_CAcc(_ubx_payload) (uint32_t)(*((uint8_t*)_ubx_payload+32)|*((uint8_t*)_ubx_
 148:/home/lsk/paparazzi/var/include/ubx_protocol.h **** 
 149:/home/lsk/paparazzi/var/include/ubx_protocol.h **** static inline void UbxSend_NAV_VELNED(struct link_device *dev, uint32_t itow, int32_t vel_n, int32_
 150:/home/lsk/paparazzi/var/include/ubx_protocol.h ****   ubx_header(dev, UBX_NAV_ID, UBX_NAV_VELNED_ID, 36);
 151:/home/lsk/paparazzi/var/include/ubx_protocol.h ****   uint32_t _itow = itow; ubx_send_bytes(dev, 4, (uint8_t*)&_itow);
 152:/home/lsk/paparazzi/var/include/ubx_protocol.h ****   int32_t _vel_n = vel_n; ubx_send_bytes(dev, 4, (uint8_t*)&_vel_n);
 153:/home/lsk/paparazzi/var/include/ubx_protocol.h ****   int32_t _vel_e = vel_e; ubx_send_bytes(dev, 4, (uint8_t*)&_vel_e);
 154:/home/lsk/paparazzi/var/include/ubx_protocol.h ****   int32_t _vel_d = vel_d; ubx_send_bytes(dev, 4, (uint8_t*)&_vel_d);
 155:/home/lsk/paparazzi/var/include/ubx_protocol.h ****   uint32_t _speed = speed; ubx_send_bytes(dev, 4, (uint8_t*)&_speed);
 156:/home/lsk/paparazzi/var/include/ubx_protocol.h ****   uint32_t _gspeed = gspeed; ubx_send_bytes(dev, 4, (uint8_t*)&_gspeed);
 157:/home/lsk/paparazzi/var/include/ubx_protocol.h ****   int32_t _heading = heading; ubx_send_bytes(dev, 4, (uint8_t*)&_heading);
 158:/home/lsk/paparazzi/var/include/ubx_protocol.h ****   uint32_t _sacc = sacc; ubx_send_bytes(dev, 4, (uint8_t*)&_sacc);
 159:/home/lsk/paparazzi/var/include/ubx_protocol.h ****   uint32_t _cacc = cacc; ubx_send_bytes(dev, 4, (uint8_t*)&_cacc);
 160:/home/lsk/paparazzi/var/include/ubx_protocol.h ****   ubx_trailer(dev);
 161:/home/lsk/paparazzi/var/include/ubx_protocol.h **** }
 162:/home/lsk/paparazzi/var/include/ubx_protocol.h **** 
 163:/home/lsk/paparazzi/var/include/ubx_protocol.h **** #define UBX_NAV_SVINFO_ID 0x30
 164:/home/lsk/paparazzi/var/include/ubx_protocol.h **** #define UBX_NAV_SVINFO_ITOW(_ubx_payload) (uint32_t)(*((uint8_t*)_ubx_payload+0)|*((uint8_t*)_ubx_p
 165:/home/lsk/paparazzi/var/include/ubx_protocol.h **** #define UBX_NAV_SVINFO_NCH(_ubx_payload) (uint8_t)(*((uint8_t*)_ubx_payload+4))
 166:/home/lsk/paparazzi/var/include/ubx_protocol.h **** #define UBX_NAV_SVINFO_RES1(_ubx_payload) (uint8_t)(*((uint8_t*)_ubx_payload+5))
 167:/home/lsk/paparazzi/var/include/ubx_protocol.h **** #define UBX_NAV_SVINFO_RES2(_ubx_payload) (uint16_t)(*((uint8_t*)_ubx_payload+6)|*((uint8_t*)_ubx_p
 168:/home/lsk/paparazzi/var/include/ubx_protocol.h **** #define UBX_NAV_SVINFO_chn(_ubx_payload,_ubx_block) (uint8_t)(*((uint8_t*)_ubx_payload+8+12*_ubx_bl
 169:/home/lsk/paparazzi/var/include/ubx_protocol.h **** #define UBX_NAV_SVINFO_SVID(_ubx_payload,_ubx_block) (uint8_t)(*((uint8_t*)_ubx_payload+9+12*_ubx_b
 170:/home/lsk/paparazzi/var/include/ubx_protocol.h **** #define UBX_NAV_SVINFO_Flags(_ubx_payload,_ubx_block) (uint8_t)(*((uint8_t*)_ubx_payload+10+12*_ubx
 171:/home/lsk/paparazzi/var/include/ubx_protocol.h **** #define UBX_NAV_SVINFO_QI(_ubx_payload,_ubx_block) (int8_t)(*((uint8_t*)_ubx_payload+11+12*_ubx_blo
 172:/home/lsk/paparazzi/var/include/ubx_protocol.h **** #define UBX_NAV_SVINFO_CNO(_ubx_payload,_ubx_block) (uint8_t)(*((uint8_t*)_ubx_payload+12+12*_ubx_b
 173:/home/lsk/paparazzi/var/include/ubx_protocol.h **** #define UBX_NAV_SVINFO_Elev(_ubx_payload,_ubx_block) (int8_t)(*((uint8_t*)_ubx_payload+13+12*_ubx_b
 174:/home/lsk/paparazzi/var/include/ubx_protocol.h **** #define UBX_NAV_SVINFO_Azim(_ubx_payload,_ubx_block) (int16_t)(*((uint8_t*)_ubx_payload+14+12*_ubx_
 175:/home/lsk/paparazzi/var/include/ubx_protocol.h **** #define UBX_NAV_SVINFO_PRRes(_ubx_payload,_ubx_block) (int32_t)(*((uint8_t*)_ubx_payload+16+12*_ubx
 176:/home/lsk/paparazzi/var/include/ubx_protocol.h **** 
 177:/home/lsk/paparazzi/var/include/ubx_protocol.h **** static inline void UbxSend_NAV_SVINFO(struct link_device *dev, uint32_t itow, uint8_t nch, uint8_t 
 178:/home/lsk/paparazzi/var/include/ubx_protocol.h ****   ubx_header(dev, UBX_NAV_ID, UBX_NAV_SVINFO_ID, 20);
 179:/home/lsk/paparazzi/var/include/ubx_protocol.h ****   uint32_t _itow = itow; ubx_send_bytes(dev, 4, (uint8_t*)&_itow);
 180:/home/lsk/paparazzi/var/include/ubx_protocol.h ****   uint8_t _nch = nch; ubx_send_bytes(dev, 1, (uint8_t*)&_nch);
 181:/home/lsk/paparazzi/var/include/ubx_protocol.h ****   uint8_t _res1 = res1; ubx_send_bytes(dev, 1, (uint8_t*)&_res1);
 182:/home/lsk/paparazzi/var/include/ubx_protocol.h ****   uint16_t _res2 = res2; ubx_send_bytes(dev, 2, (uint8_t*)&_res2);
 183:/home/lsk/paparazzi/var/include/ubx_protocol.h ****   uint8_t _chn = chn; ubx_send_bytes(dev, 1, (uint8_t*)&_chn);
 184:/home/lsk/paparazzi/var/include/ubx_protocol.h ****   uint8_t _svid = svid; ubx_send_bytes(dev, 1, (uint8_t*)&_svid);
 185:/home/lsk/paparazzi/var/include/ubx_protocol.h ****   uint8_t _flags = flags; ubx_send_bytes(dev, 1, (uint8_t*)&_flags);
 186:/home/lsk/paparazzi/var/include/ubx_protocol.h ****   int8_t _qi = qi; ubx_send_bytes(dev, 1, (uint8_t*)&_qi);
 187:/home/lsk/paparazzi/var/include/ubx_protocol.h ****   uint8_t _cno = cno; ubx_send_bytes(dev, 1, (uint8_t*)&_cno);
 188:/home/lsk/paparazzi/var/include/ubx_protocol.h ****   int8_t _elev = elev; ubx_send_bytes(dev, 1, (uint8_t*)&_elev);
 189:/home/lsk/paparazzi/var/include/ubx_protocol.h ****   int16_t _azim = azim; ubx_send_bytes(dev, 2, (uint8_t*)&_azim);
 190:/home/lsk/paparazzi/var/include/ubx_protocol.h ****   int32_t _prres = prres; ubx_send_bytes(dev, 4, (uint8_t*)&_prres);
 191:/home/lsk/paparazzi/var/include/ubx_protocol.h ****   ubx_trailer(dev);
 192:/home/lsk/paparazzi/var/include/ubx_protocol.h **** }
 193:/home/lsk/paparazzi/var/include/ubx_protocol.h **** 
 194:/home/lsk/paparazzi/var/include/ubx_protocol.h **** #define UBX_CFG_ID 0x06
 195:/home/lsk/paparazzi/var/include/ubx_protocol.h **** 
 196:/home/lsk/paparazzi/var/include/ubx_protocol.h **** #define UBX_CFG_PRT_ID 0x00
 197:/home/lsk/paparazzi/var/include/ubx_protocol.h **** #define UBX_CFG_PRT_PortId(_ubx_payload,_ubx_block) (uint8_t)(*((uint8_t*)_ubx_payload+0+20*_ubx_bl
 198:/home/lsk/paparazzi/var/include/ubx_protocol.h **** #define UBX_CFG_PRT_ReS0(_ubx_payload,_ubx_block) (uint8_t)(*((uint8_t*)_ubx_payload+1+20*_ubx_bloc
 199:/home/lsk/paparazzi/var/include/ubx_protocol.h **** #define UBX_CFG_PRT_ReS1(_ubx_payload,_ubx_block) (uint16_t)(*((uint8_t*)_ubx_payload+2+20*_ubx_blo
 200:/home/lsk/paparazzi/var/include/ubx_protocol.h **** #define UBX_CFG_PRT_Mode(_ubx_payload,_ubx_block) (uint32_t)(*((uint8_t*)_ubx_payload+4+20*_ubx_blo
 201:/home/lsk/paparazzi/var/include/ubx_protocol.h **** #define UBX_CFG_PRT_Baudrate(_ubx_payload,_ubx_block) (uint32_t)(*((uint8_t*)_ubx_payload+8+20*_ubx
 202:/home/lsk/paparazzi/var/include/ubx_protocol.h **** #define UBX_CFG_PRT_In_proto_mask(_ubx_payload,_ubx_block) (uint16_t)(*((uint8_t*)_ubx_payload+12+2
 203:/home/lsk/paparazzi/var/include/ubx_protocol.h **** #define UBX_CFG_PRT_Out_proto_mask(_ubx_payload,_ubx_block) (uint16_t)(*((uint8_t*)_ubx_payload+14+
 204:/home/lsk/paparazzi/var/include/ubx_protocol.h **** #define UBX_CFG_PRT_Flags(_ubx_payload,_ubx_block) (uint16_t)(*((uint8_t*)_ubx_payload+16+20*_ubx_b
 205:/home/lsk/paparazzi/var/include/ubx_protocol.h **** #define UBX_CFG_PRT_Res2(_ubx_payload,_ubx_block) (uint16_t)(*((uint8_t*)_ubx_payload+18+20*_ubx_bl
 206:/home/lsk/paparazzi/var/include/ubx_protocol.h **** 
 207:/home/lsk/paparazzi/var/include/ubx_protocol.h **** static inline void UbxSend_CFG_PRT(struct link_device *dev, uint8_t portid, uint8_t res0, uint16_t 
 208:/home/lsk/paparazzi/var/include/ubx_protocol.h ****   ubx_header(dev, UBX_CFG_ID, UBX_CFG_PRT_ID, 20);
 209:/home/lsk/paparazzi/var/include/ubx_protocol.h ****   uint8_t _portid = portid; ubx_send_bytes(dev, 1, (uint8_t*)&_portid);
 210:/home/lsk/paparazzi/var/include/ubx_protocol.h ****   uint8_t _res0 = res0; ubx_send_bytes(dev, 1, (uint8_t*)&_res0);
 211:/home/lsk/paparazzi/var/include/ubx_protocol.h ****   uint16_t _res1 = res1; ubx_send_bytes(dev, 2, (uint8_t*)&_res1);
 212:/home/lsk/paparazzi/var/include/ubx_protocol.h ****   uint32_t _mode = mode; ubx_send_bytes(dev, 4, (uint8_t*)&_mode);
 213:/home/lsk/paparazzi/var/include/ubx_protocol.h ****   uint32_t _baudrate = baudrate; ubx_send_bytes(dev, 4, (uint8_t*)&_baudrate);
 214:/home/lsk/paparazzi/var/include/ubx_protocol.h ****   uint16_t _in_proto_mask = in_proto_mask; ubx_send_bytes(dev, 2, (uint8_t*)&_in_proto_mask);
 215:/home/lsk/paparazzi/var/include/ubx_protocol.h ****   uint16_t _out_proto_mask = out_proto_mask; ubx_send_bytes(dev, 2, (uint8_t*)&_out_proto_mask);
 216:/home/lsk/paparazzi/var/include/ubx_protocol.h ****   uint16_t _flags = flags; ubx_send_bytes(dev, 2, (uint8_t*)&_flags);
 217:/home/lsk/paparazzi/var/include/ubx_protocol.h ****   uint16_t _res2 = res2; ubx_send_bytes(dev, 2, (uint8_t*)&_res2);
 218:/home/lsk/paparazzi/var/include/ubx_protocol.h ****   ubx_trailer(dev);
 219:/home/lsk/paparazzi/var/include/ubx_protocol.h **** }
 220:/home/lsk/paparazzi/var/include/ubx_protocol.h **** 
 221:/home/lsk/paparazzi/var/include/ubx_protocol.h **** #define UBX_CFG_PRT_POLL_ID 0x00
 222:/home/lsk/paparazzi/var/include/ubx_protocol.h **** 
 223:/home/lsk/paparazzi/var/include/ubx_protocol.h **** static inline void UbxSend_CFG_PRT_POLL(struct link_device *dev) {
 224:/home/lsk/paparazzi/var/include/ubx_protocol.h ****   ubx_header(dev, UBX_CFG_ID, UBX_CFG_PRT_POLL_ID, 0);
  42              		.loc 2 224 0
  43 0006 0022     		movs	r2, #0
  44 0008 2046     		mov	r0, r4
  45 000a 0621     		movs	r1, #6
  46 000c 1346     		mov	r3, r2
  47 000e FFF7FEFF 		bl	ubx_header
  48              	.LVL1:
 225:/home/lsk/paparazzi/var/include/ubx_protocol.h ****   ubx_trailer(dev);
  49              		.loc 2 225 0
  50 0012 2046     		mov	r0, r4
  51              	.LBE5:
  52              	.LBE4:
 198:modules/gps/gps_ubx_ucenter.c **** }
  53              		.loc 1 198 0
  54 0014 BDE81040 		pop	{r4, lr}
  55              	.LVL2:
  56              	.LBB7:
  57              	.LBB6:
  58              		.loc 2 225 0
  59 0018 FFF7FEBF 		b	ubx_trailer
  60              	.LVL3:
  61              	.L3:
  62              		.align	2
  63              	.L2:
  64 001c 00000000 		.word	.LANCHOR0
  65              	.LBE6:
  66              	.LBE7:
  67              		.cfi_endproc
  68              	.LFE375:
  70              		.section	.text.gps_ubx_ucenter_enable_msg.constprop.0,"ax",%progbits
  71              		.align	1
  72              		.thumb
  73              		.thumb_func
  75              	gps_ubx_ucenter_enable_msg.constprop.0:
  76              	.LFB389:
 199:modules/gps/gps_ubx_ucenter.c **** 
 200:modules/gps/gps_ubx_ucenter.c **** /**
 201:modules/gps/gps_ubx_ucenter.c ****  * Enable u-blox message at desired period.  Will enable the message on the port
 202:modules/gps/gps_ubx_ucenter.c ****  * that this command is received on. For example, sending this configuration message
 203:modules/gps/gps_ubx_ucenter.c ****  * over UART1 will cause the desired message to be published on UART1.
 204:modules/gps/gps_ubx_ucenter.c ****  *
 205:modules/gps/gps_ubx_ucenter.c ****  * For more information on u-blox messages, see the protocol specification.
 206:modules/gps/gps_ubx_ucenter.c ****  * http://www.ublox.com/en/download/documents-a-resources.html
 207:modules/gps/gps_ubx_ucenter.c ****  *
 208:modules/gps/gps_ubx_ucenter.c ****  * @param class u-blox message class
 209:modules/gps/gps_ubx_ucenter.c ****  * @param id u-blox message ID
 210:modules/gps/gps_ubx_ucenter.c ****  * @param rate Desired period to send message. Example: Setting 3 would send the message on every 3
 211:modules/gps/gps_ubx_ucenter.c ****  */
 212:modules/gps/gps_ubx_ucenter.c **** static inline void gps_ubx_ucenter_enable_msg(uint8_t class, uint8_t id, uint8_t rate)
  77              		.loc 1 212 0
  78              		.cfi_startproc
  79              		@ args = 0, pretend = 0, frame = 8
  80              		@ frame_needed = 0, uses_anonymous_args = 0
  81              	.LVL4:
  82 0000 F7B5     		push	{r0, r1, r2, r4, r5, r6, r7, lr}
  83              		.cfi_def_cfa_offset 32
  84              		.cfi_offset 0, -32
  85              		.cfi_offset 1, -28
  86              		.cfi_offset 2, -24
  87              		.cfi_offset 4, -20
  88              		.cfi_offset 5, -16
  89              		.cfi_offset 6, -12
  90              		.cfi_offset 7, -8
  91              		.cfi_offset 14, -4
 213:modules/gps/gps_ubx_ucenter.c **** {
 214:modules/gps/gps_ubx_ucenter.c ****   UbxSend_CFG_MSG(gps_ubx_ucenter.dev, class, id, rate);
  92              		.loc 1 214 0
  93 0002 124B     		ldr	r3, .L5
  94 0004 9C6A     		ldr	r4, [r3, #40]
  95              	.LVL5:
 212:modules/gps/gps_ubx_ucenter.c **** static inline void gps_ubx_ucenter_enable_msg(uint8_t class, uint8_t id, uint8_t rate)
  96              		.loc 1 212 0
  97 0006 0746     		mov	r7, r0
  98              	.LVL6:
  99              	.LBB10:
 100              	.LBB11:
 226:/home/lsk/paparazzi/var/include/ubx_protocol.h **** }
 227:/home/lsk/paparazzi/var/include/ubx_protocol.h **** 
 228:/home/lsk/paparazzi/var/include/ubx_protocol.h **** #define UBX_CFG_MSG_ID 0x01
 229:/home/lsk/paparazzi/var/include/ubx_protocol.h **** #define UBX_CFG_MSG_Class(_ubx_payload) (uint8_t)(*((uint8_t*)_ubx_payload+0))
 230:/home/lsk/paparazzi/var/include/ubx_protocol.h **** #define UBX_CFG_MSG_MsgId(_ubx_payload) (uint8_t)(*((uint8_t*)_ubx_payload+1))
 231:/home/lsk/paparazzi/var/include/ubx_protocol.h **** #define UBX_CFG_MSG_Rate(_ubx_payload) (uint8_t)(*((uint8_t*)_ubx_payload+2))
 232:/home/lsk/paparazzi/var/include/ubx_protocol.h **** 
 233:/home/lsk/paparazzi/var/include/ubx_protocol.h **** static inline void UbxSend_CFG_MSG(struct link_device *dev, uint8_t class, uint8_t msgid, uint8_t r
 234:/home/lsk/paparazzi/var/include/ubx_protocol.h ****   ubx_header(dev, UBX_CFG_ID, UBX_CFG_MSG_ID, 3);
 101              		.loc 2 234 0
 102 0008 0323     		movs	r3, #3
 103              	.LBE11:
 104              	.LBE10:
 212:modules/gps/gps_ubx_ucenter.c **** static inline void gps_ubx_ucenter_enable_msg(uint8_t class, uint8_t id, uint8_t rate)
 105              		.loc 1 212 0
 106 000a 0E46     		mov	r6, r1
 107              	.LVL7:
 108              	.LBB13:
 109              	.LBB12:
 110              		.loc 2 234 0
 111 000c 2046     		mov	r0, r4
 112              	.LVL8:
 113 000e 0621     		movs	r1, #6
 114              	.LVL9:
 115 0010 0122     		movs	r2, #1
 116 0012 FFF7FEFF 		bl	ubx_header
 117              	.LVL10:
 235:/home/lsk/paparazzi/var/include/ubx_protocol.h ****   uint8_t _class = class; ubx_send_bytes(dev, 1, (uint8_t*)&_class);
 118              		.loc 2 235 0
 119 0016 02AA     		add	r2, sp, #8
 120 0018 0125     		movs	r5, #1
 121 001a 02F8035D 		strb	r5, [r2, #-3]!
 122 001e 2046     		mov	r0, r4
 123 0020 2946     		mov	r1, r5
 124 0022 FFF7FEFF 		bl	ubx_send_bytes
 125              	.LVL11:
 236:/home/lsk/paparazzi/var/include/ubx_protocol.h ****   uint8_t _msgid = msgid; ubx_send_bytes(dev, 1, (uint8_t*)&_msgid);
 126              		.loc 2 236 0
 127 0026 02AA     		add	r2, sp, #8
 128 0028 2046     		mov	r0, r4
 129 002a 02F8027D 		strb	r7, [r2, #-2]!
 130 002e 2946     		mov	r1, r5
 131 0030 FFF7FEFF 		bl	ubx_send_bytes
 132              	.LVL12:
 237:/home/lsk/paparazzi/var/include/ubx_protocol.h ****   uint8_t _rate = rate; ubx_send_bytes(dev, 1, (uint8_t*)&_rate);
 133              		.loc 2 237 0
 134 0034 02AA     		add	r2, sp, #8
 135 0036 2046     		mov	r0, r4
 136 0038 02F8016D 		strb	r6, [r2, #-1]!
 137 003c 2946     		mov	r1, r5
 138 003e FFF7FEFF 		bl	ubx_send_bytes
 139              	.LVL13:
 238:/home/lsk/paparazzi/var/include/ubx_protocol.h ****   ubx_trailer(dev);
 140              		.loc 2 238 0
 141 0042 2046     		mov	r0, r4
 142 0044 FFF7FEFF 		bl	ubx_trailer
 143              	.LVL14:
 144              	.LBE12:
 145              	.LBE13:
 215:modules/gps/gps_ubx_ucenter.c **** }
 146              		.loc 1 215 0
 147 0048 03B0     		add	sp, sp, #12
 148              		@ sp needed
 149 004a F0BD     		pop	{r4, r5, r6, r7, pc}
 150              	.LVL15:
 151              	.L6:
 152              		.align	2
 153              	.L5:
 154 004c 00000000 		.word	.LANCHOR0
 155              		.cfi_endproc
 156              	.LFE389:
 158              		.section	.text.UbxSend_CFG_PRT.constprop.7,"ax",%progbits
 159              		.align	1
 160              		.thumb
 161              		.thumb_func
 163              	UbxSend_CFG_PRT.constprop.7:
 164              	.LFB382:
 207:/home/lsk/paparazzi/var/include/ubx_protocol.h **** static inline void UbxSend_CFG_PRT(struct link_device *dev, uint8_t portid, uint8_t res0, uint16_t 
 165              		.loc 2 207 0
 166              		.cfi_startproc
 167              		@ args = 0, pretend = 0, frame = 24
 168              		@ frame_needed = 0, uses_anonymous_args = 0
 169              	.LVL16:
 170 0000 F0B5     		push	{r4, r5, r6, r7, lr}
 171              		.cfi_def_cfa_offset 20
 172              		.cfi_offset 4, -20
 173              		.cfi_offset 5, -16
 174              		.cfi_offset 6, -12
 175              		.cfi_offset 7, -8
 176              		.cfi_offset 14, -4
 177 0002 0D46     		mov	r5, r1
 178 0004 87B0     		sub	sp, sp, #28
 179              		.cfi_def_cfa_offset 48
 207:/home/lsk/paparazzi/var/include/ubx_protocol.h **** static inline void UbxSend_CFG_PRT(struct link_device *dev, uint8_t portid, uint8_t res0, uint16_t 
 180              		.loc 2 207 0
 181 0006 1746     		mov	r7, r2
 182 0008 1E46     		mov	r6, r3
 208:/home/lsk/paparazzi/var/include/ubx_protocol.h ****   ubx_header(dev, UBX_CFG_ID, UBX_CFG_PRT_ID, 20);
 183              		.loc 2 208 0
 184 000a 0621     		movs	r1, #6
 185              	.LVL17:
 186 000c 1423     		movs	r3, #20
 187              	.LVL18:
 188 000e 0022     		movs	r2, #0
 189              	.LVL19:
 207:/home/lsk/paparazzi/var/include/ubx_protocol.h **** static inline void UbxSend_CFG_PRT(struct link_device *dev, uint8_t portid, uint8_t res0, uint16_t 
 190              		.loc 2 207 0
 191 0010 0446     		mov	r4, r0
 208:/home/lsk/paparazzi/var/include/ubx_protocol.h ****   ubx_header(dev, UBX_CFG_ID, UBX_CFG_PRT_ID, 20);
 192              		.loc 2 208 0
 193 0012 FFF7FEFF 		bl	ubx_header
 194              	.LVL20:
 209:/home/lsk/paparazzi/var/include/ubx_protocol.h ****   uint8_t _portid = portid; ubx_send_bytes(dev, 1, (uint8_t*)&_portid);
 195              		.loc 2 209 0
 196 0016 06AA     		add	r2, sp, #24
 197 0018 2046     		mov	r0, r4
 198 001a 02F8145D 		strb	r5, [r2, #-20]!
 199 001e 0121     		movs	r1, #1
 200 0020 FFF7FEFF 		bl	ubx_send_bytes
 201              	.LVL21:
 210:/home/lsk/paparazzi/var/include/ubx_protocol.h ****   uint8_t _res0 = res0; ubx_send_bytes(dev, 1, (uint8_t*)&_res0);
 202              		.loc 2 210 0
 203 0024 06AA     		add	r2, sp, #24
 204 0026 0025     		movs	r5, #0
 205 0028 02F8135D 		strb	r5, [r2, #-19]!
 206 002c 2046     		mov	r0, r4
 207 002e 0121     		movs	r1, #1
 208 0030 FFF7FEFF 		bl	ubx_send_bytes
 209              	.LVL22:
 211:/home/lsk/paparazzi/var/include/ubx_protocol.h ****   uint16_t _res1 = res1; ubx_send_bytes(dev, 2, (uint8_t*)&_res1);
 210              		.loc 2 211 0
 211 0034 06AA     		add	r2, sp, #24
 212 0036 2046     		mov	r0, r4
 213 0038 22F8125D 		strh	r5, [r2, #-18]!	@ movhi
 214 003c 0221     		movs	r1, #2
 215 003e FFF7FEFF 		bl	ubx_send_bytes
 216              	.LVL23:
 212:/home/lsk/paparazzi/var/include/ubx_protocol.h ****   uint32_t _mode = mode; ubx_send_bytes(dev, 4, (uint8_t*)&_mode);
 217              		.loc 2 212 0
 218 0042 06AA     		add	r2, sp, #24
 219 0044 2046     		mov	r0, r4
 220 0046 42F8087D 		str	r7, [r2, #-8]!
 221 004a 0421     		movs	r1, #4
 222 004c FFF7FEFF 		bl	ubx_send_bytes
 223              	.LVL24:
 213:/home/lsk/paparazzi/var/include/ubx_protocol.h ****   uint32_t _baudrate = baudrate; ubx_send_bytes(dev, 4, (uint8_t*)&_baudrate);
 224              		.loc 2 213 0
 225 0050 06AA     		add	r2, sp, #24
 226 0052 2046     		mov	r0, r4
 227 0054 42F8046D 		str	r6, [r2, #-4]!
 228 0058 0421     		movs	r1, #4
 229 005a FFF7FEFF 		bl	ubx_send_bytes
 230              	.LVL25:
 214:/home/lsk/paparazzi/var/include/ubx_protocol.h ****   uint16_t _in_proto_mask = in_proto_mask; ubx_send_bytes(dev, 2, (uint8_t*)&_in_proto_mask);
 231              		.loc 2 214 0
 232 005e 06AA     		add	r2, sp, #24
 233 0060 0126     		movs	r6, #1
 234              	.LVL26:
 235 0062 22F8106D 		strh	r6, [r2, #-16]!	@ movhi
 236 0066 2046     		mov	r0, r4
 237 0068 0221     		movs	r1, #2
 238 006a FFF7FEFF 		bl	ubx_send_bytes
 239              	.LVL27:
 215:/home/lsk/paparazzi/var/include/ubx_protocol.h ****   uint16_t _out_proto_mask = out_proto_mask; ubx_send_bytes(dev, 2, (uint8_t*)&_out_proto_mask);
 240              		.loc 2 215 0
 241 006e 06AA     		add	r2, sp, #24
 242 0070 2046     		mov	r0, r4
 243 0072 22F80E6D 		strh	r6, [r2, #-14]!	@ movhi
 244 0076 0221     		movs	r1, #2
 245 0078 FFF7FEFF 		bl	ubx_send_bytes
 246              	.LVL28:
 216:/home/lsk/paparazzi/var/include/ubx_protocol.h ****   uint16_t _flags = flags; ubx_send_bytes(dev, 2, (uint8_t*)&_flags);
 247              		.loc 2 216 0
 248 007c 06AA     		add	r2, sp, #24
 249 007e 2046     		mov	r0, r4
 250 0080 22F80C5D 		strh	r5, [r2, #-12]!	@ movhi
 251 0084 0221     		movs	r1, #2
 252 0086 FFF7FEFF 		bl	ubx_send_bytes
 253              	.LVL29:
 217:/home/lsk/paparazzi/var/include/ubx_protocol.h ****   uint16_t _res2 = res2; ubx_send_bytes(dev, 2, (uint8_t*)&_res2);
 254              		.loc 2 217 0
 255 008a 06AA     		add	r2, sp, #24
 256 008c 2046     		mov	r0, r4
 257 008e 22F80A5D 		strh	r5, [r2, #-10]!	@ movhi
 258 0092 0221     		movs	r1, #2
 259 0094 FFF7FEFF 		bl	ubx_send_bytes
 260              	.LVL30:
 218:/home/lsk/paparazzi/var/include/ubx_protocol.h ****   ubx_trailer(dev);
 261              		.loc 2 218 0
 262 0098 2046     		mov	r0, r4
 263 009a FFF7FEFF 		bl	ubx_trailer
 264              	.LVL31:
 219:/home/lsk/paparazzi/var/include/ubx_protocol.h **** }
 265              		.loc 2 219 0
 266 009e 07B0     		add	sp, sp, #28
 267              		@ sp needed
 268 00a0 F0BD     		pop	{r4, r5, r6, r7, pc}
 269              		.cfi_endproc
 270              	.LFE382:
 272              		.section	.text.gps_ubx_ucenter_init,"ax",%progbits
 273              		.align	1
 274              		.global	gps_ubx_ucenter_init
 275              		.thumb
 276              		.thumb_func
 278              	gps_ubx_ucenter_init:
 279              	.LFB372:
  68:modules/gps/gps_ubx_ucenter.c **** {
 280              		.loc 1 68 0
 281              		.cfi_startproc
 282              		@ args = 0, pretend = 0, frame = 0
 283              		@ frame_needed = 0, uses_anonymous_args = 0
 284              		@ link register save eliminated.
  70:modules/gps/gps_ubx_ucenter.c ****   gps_ubx_ucenter.status = GPS_UBX_UCENTER_STATUS_AUTOBAUD;
 285              		.loc 1 70 0
 286 0000 0A4B     		ldr	r3, .L13
 287 0002 0122     		movs	r2, #1
 288 0004 1A70     		strb	r2, [r3]
  71:modules/gps/gps_ubx_ucenter.c ****   gps_ubx_ucenter.reply = GPS_UBX_UCENTER_REPLY_NONE;
 289              		.loc 1 71 0
 290 0006 0022     		movs	r2, #0
 291 0008 5A70     		strb	r2, [r3, #1]
  72:modules/gps/gps_ubx_ucenter.c ****   gps_ubx_ucenter.cnt = 0;
 292              		.loc 1 72 0
 293 000a 9A70     		strb	r2, [r3, #2]
  74:modules/gps/gps_ubx_ucenter.c ****   gps_ubx_ucenter.baud_init = 0;
 294              		.loc 1 74 0
 295 000c 5A60     		str	r2, [r3, #4]
  75:modules/gps/gps_ubx_ucenter.c ****   gps_ubx_ucenter.baud_run = 0;
 296              		.loc 1 75 0
 297 000e 9A60     		str	r2, [r3, #8]
  77:modules/gps/gps_ubx_ucenter.c ****   gps_ubx_ucenter.sw_ver_h = 0;
 298              		.loc 1 77 0
 299 0010 1A73     		strb	r2, [r3, #12]
  78:modules/gps/gps_ubx_ucenter.c ****   gps_ubx_ucenter.sw_ver_l = 0;
 300              		.loc 1 78 0
 301 0012 5A73     		strb	r2, [r3, #13]
  79:modules/gps/gps_ubx_ucenter.c ****   gps_ubx_ucenter.hw_ver_h = 0;
 302              		.loc 1 79 0
 303 0014 DA81     		strh	r2, [r3, #14]	@ movhi
  80:modules/gps/gps_ubx_ucenter.c ****   gps_ubx_ucenter.hw_ver_l = 0;
 304              		.loc 1 80 0
 305 0016 1A82     		strh	r2, [r3, #16]	@ movhi
 306              	.LVL32:
 307              	.L10:
 308 0018 9918     		adds	r1, r3, r2
 309              	.LBB14:
  82:modules/gps/gps_ubx_ucenter.c ****   for (int i = 0; i < GPS_UBX_UCENTER_CONFIG_STEPS; i++) {
 310              		.loc 1 82 0 discriminator 2
 311 001a 0132     		adds	r2, r2, #1
 312              	.LVL33:
  83:modules/gps/gps_ubx_ucenter.c ****     gps_ubx_ucenter.replies[i] = 0;
 313              		.loc 1 83 0 discriminator 2
 314 001c 0020     		movs	r0, #0
  82:modules/gps/gps_ubx_ucenter.c ****   for (int i = 0; i < GPS_UBX_UCENTER_CONFIG_STEPS; i++) {
 315              		.loc 1 82 0 discriminator 2
 316 001e 132A     		cmp	r2, #19
  83:modules/gps/gps_ubx_ucenter.c ****     gps_ubx_ucenter.replies[i] = 0;
 317              		.loc 1 83 0 discriminator 2
 318 0020 C874     		strb	r0, [r1, #19]
  82:modules/gps/gps_ubx_ucenter.c ****   for (int i = 0; i < GPS_UBX_UCENTER_CONFIG_STEPS; i++) {
 319              		.loc 1 82 0 discriminator 2
 320 0022 F9D1     		bne	.L10
 321              	.LBE14:
  86:modules/gps/gps_ubx_ucenter.c ****   gps_ubx_ucenter.dev = &(GPS_LINK).device;
 322              		.loc 1 86 0
 323 0024 014B     		ldr	r3, .L13
 324 0026 024A     		ldr	r2, .L13+4
 325              	.LVL34:
 326 0028 9A62     		str	r2, [r3, #40]
 327 002a 7047     		bx	lr
 328              	.L14:
 329              		.align	2
 330              	.L13:
 331 002c 00000000 		.word	.LANCHOR0
 332 0030 2C010000 		.word	uart3+300
 333              		.cfi_endproc
 334              	.LFE372:
 336              		.section	.text.gps_ubx_ucenter_periodic,"ax",%progbits
 337              		.align	1
 338              		.global	gps_ubx_ucenter_periodic
 339              		.thumb
 340              		.thumb_func
 342              	gps_ubx_ucenter_periodic:
 343              	.LFB373:
  95:modules/gps/gps_ubx_ucenter.c **** {
 344              		.loc 1 95 0
 345              		.cfi_startproc
 346              		@ args = 0, pretend = 0, frame = 48
 347              		@ frame_needed = 0, uses_anonymous_args = 0
 348 0000 2DE9F047 		push	{r4, r5, r6, r7, r8, r9, r10, lr}
 349              		.cfi_def_cfa_offset 32
 350              		.cfi_offset 4, -32
 351              		.cfi_offset 5, -28
 352              		.cfi_offset 6, -24
 353              		.cfi_offset 7, -20
 354              		.cfi_offset 8, -16
 355              		.cfi_offset 9, -12
 356              		.cfi_offset 10, -8
 357              		.cfi_offset 14, -4
  96:modules/gps/gps_ubx_ucenter.c ****   switch (gps_ubx_ucenter.status) {
 358              		.loc 1 96 0
 359 0004 B04C     		ldr	r4, .L70
 360 0006 2378     		ldrb	r3, [r4]	@ zero_extendqisi2
 361 0008 012B     		cmp	r3, #1
  95:modules/gps/gps_ubx_ucenter.c **** {
 362              		.loc 1 95 0
 363 000a 8CB0     		sub	sp, sp, #48
 364              		.cfi_def_cfa_offset 80
  96:modules/gps/gps_ubx_ucenter.c ****   switch (gps_ubx_ucenter.status) {
 365              		.loc 1 96 0
 366 000c 02D0     		beq	.L17
 367 000e 022B     		cmp	r3, #2
 368 0010 4BD0     		beq	.L18
 369 0012 61E2     		b	.L15
 370              	.L17:
 371              	.LVL35:
 372              	.LBB37:
 373              	.LBB38:
 216:modules/gps/gps_ubx_ucenter.c **** 
 217:modules/gps/gps_ubx_ucenter.c **** /**
 218:modules/gps/gps_ubx_ucenter.c ****  * Automatically determine the baudrate of the u-blox module.
 219:modules/gps/gps_ubx_ucenter.c ****  * Only needed when connecting to a UART port on the u-blox.
 220:modules/gps/gps_ubx_ucenter.c ****  * The discovered baudrate is copied to gps_ubx_ucenter.baud_init.
 221:modules/gps/gps_ubx_ucenter.c ****  *
 222:modules/gps/gps_ubx_ucenter.c ****  * @param nr Autobaud step number to perform
 223:modules/gps/gps_ubx_ucenter.c ****  * @return FALSE when completed
 224:modules/gps/gps_ubx_ucenter.c ****  */
 225:modules/gps/gps_ubx_ucenter.c **** static bool_t gps_ubx_ucenter_autobaud(uint8_t nr)
 226:modules/gps/gps_ubx_ucenter.c **** {
 227:modules/gps/gps_ubx_ucenter.c ****   switch (nr) {
 374              		.loc 1 227 0
 375 0014 A378     		ldrb	r3, [r4, #2]	@ zero_extendqisi2
 376 0016 023B     		subs	r3, r3, #2
 377 0018 052B     		cmp	r3, #5
 378 001a 00F25782 		bhi	.L19
 379 001e DFE803F0 		tbb	[pc, r3]
 380              	.L21:
 381 0022 03       		.byte	(.L20-.L21)/2
 382 0023 09       		.byte	(.L22-.L21)/2
 383 0024 16       		.byte	(.L23-.L21)/2
 384 0025 20       		.byte	(.L24-.L21)/2
 385 0026 2A       		.byte	(.L25-.L21)/2
 386 0027 38       		.byte	(.L26-.L21)/2
 387              		.p2align 1
 388              	.L20:
 228:modules/gps/gps_ubx_ucenter.c ****     case 0:
 229:modules/gps/gps_ubx_ucenter.c ****     case 1:
 230:modules/gps/gps_ubx_ucenter.c ****       // Very important for some modules:
 231:modules/gps/gps_ubx_ucenter.c ****       // Give the GPS some time to boot (up to 0.75 second)
 232:modules/gps/gps_ubx_ucenter.c ****       break;
 233:modules/gps/gps_ubx_ucenter.c ****     case 2:
 234:modules/gps/gps_ubx_ucenter.c ****       gps_ubx_ucenter.reply = GPS_UBX_UCENTER_REPLY_NONE;
 389              		.loc 1 234 0
 390 0028 0023     		movs	r3, #0
 391 002a 6370     		strb	r3, [r4, #1]
 235:modules/gps/gps_ubx_ucenter.c ****       uart_periph_set_baudrate(&(GPS_LINK), B38400); // Try the most common first?
 392              		.loc 1 235 0
 393 002c A748     		ldr	r0, .L70+4
 394 002e 4FF41641 		mov	r1, #38400
 395 0032 29E0     		b	.L68
 396              	.L22:
 236:modules/gps/gps_ubx_ucenter.c ****       gps_ubx_ucenter_config_port_poll();
 237:modules/gps/gps_ubx_ucenter.c ****       break;
 238:modules/gps/gps_ubx_ucenter.c ****     case 3:
 239:modules/gps/gps_ubx_ucenter.c ****       if (gps_ubx_ucenter.reply == GPS_UBX_UCENTER_REPLY_ACK) {
 397              		.loc 1 239 0
 398 0034 6378     		ldrb	r3, [r4, #1]	@ zero_extendqisi2
 399 0036 012B     		cmp	r3, #1
 400 0038 02D1     		bne	.L27
 401              	.L29:
 240:modules/gps/gps_ubx_ucenter.c ****         gps_ubx_ucenter.baud_init = gps_ubx_ucenter.baud_run;
 402              		.loc 1 240 0
 403 003a A368     		ldr	r3, [r4, #8]
 404 003c 6360     		str	r3, [r4, #4]
 405 003e 41E2     		b	.L28
 406              	.L27:
 241:modules/gps/gps_ubx_ucenter.c ****         return FALSE;
 242:modules/gps/gps_ubx_ucenter.c ****       }
 243:modules/gps/gps_ubx_ucenter.c ****       gps_ubx_ucenter.reply = GPS_UBX_UCENTER_REPLY_NONE;
 407              		.loc 1 243 0
 408 0040 A14B     		ldr	r3, .L70
 244:modules/gps/gps_ubx_ucenter.c ****       uart_periph_set_baudrate(&(GPS_LINK), B9600); // Maybe the factory default?
 409              		.loc 1 244 0
 410 0042 A248     		ldr	r0, .L70+4
 243:modules/gps/gps_ubx_ucenter.c ****       gps_ubx_ucenter.reply = GPS_UBX_UCENTER_REPLY_NONE;
 411              		.loc 1 243 0
 412 0044 0022     		movs	r2, #0
 413 0046 5A70     		strb	r2, [r3, #1]
 414              		.loc 1 244 0
 415 0048 4FF41651 		mov	r1, #9600
 416 004c 1CE0     		b	.L68
 417              	.L23:
 245:modules/gps/gps_ubx_ucenter.c ****       gps_ubx_ucenter_config_port_poll();
 246:modules/gps/gps_ubx_ucenter.c ****       break;
 247:modules/gps/gps_ubx_ucenter.c ****     case 4:
 248:modules/gps/gps_ubx_ucenter.c ****       if (gps_ubx_ucenter.reply == GPS_UBX_UCENTER_REPLY_ACK) {
 418              		.loc 1 248 0
 419 004e 6378     		ldrb	r3, [r4, #1]	@ zero_extendqisi2
 420 0050 012B     		cmp	r3, #1
 421 0052 F2D0     		beq	.L29
 249:modules/gps/gps_ubx_ucenter.c ****         gps_ubx_ucenter.baud_init = gps_ubx_ucenter.baud_run;
 250:modules/gps/gps_ubx_ucenter.c ****         return FALSE;
 251:modules/gps/gps_ubx_ucenter.c ****       }
 252:modules/gps/gps_ubx_ucenter.c ****       gps_ubx_ucenter.reply = GPS_UBX_UCENTER_REPLY_NONE;
 422              		.loc 1 252 0
 423 0054 9C4B     		ldr	r3, .L70
 253:modules/gps/gps_ubx_ucenter.c ****       uart_periph_set_baudrate(&(GPS_LINK), B57600); // The high-rate default?
 424              		.loc 1 253 0
 425 0056 9D48     		ldr	r0, .L70+4
 252:modules/gps/gps_ubx_ucenter.c ****       gps_ubx_ucenter.reply = GPS_UBX_UCENTER_REPLY_NONE;
 426              		.loc 1 252 0
 427 0058 0022     		movs	r2, #0
 428 005a 5A70     		strb	r2, [r3, #1]
 429              		.loc 1 253 0
 430 005c 4FF46141 		mov	r1, #57600
 431 0060 12E0     		b	.L68
 432              	.L24:
 254:modules/gps/gps_ubx_ucenter.c ****       gps_ubx_ucenter_config_port_poll();
 255:modules/gps/gps_ubx_ucenter.c ****       break;
 256:modules/gps/gps_ubx_ucenter.c ****     case 5:
 257:modules/gps/gps_ubx_ucenter.c ****       if (gps_ubx_ucenter.reply == GPS_UBX_UCENTER_REPLY_ACK) {
 433              		.loc 1 257 0
 434 0062 6378     		ldrb	r3, [r4, #1]	@ zero_extendqisi2
 435 0064 012B     		cmp	r3, #1
 436 0066 E8D0     		beq	.L29
 258:modules/gps/gps_ubx_ucenter.c ****         gps_ubx_ucenter.baud_init = gps_ubx_ucenter.baud_run;
 259:modules/gps/gps_ubx_ucenter.c ****         return FALSE;
 260:modules/gps/gps_ubx_ucenter.c ****       }
 261:modules/gps/gps_ubx_ucenter.c ****       gps_ubx_ucenter.reply = GPS_UBX_UCENTER_REPLY_NONE;
 437              		.loc 1 261 0
 438 0068 974B     		ldr	r3, .L70
 262:modules/gps/gps_ubx_ucenter.c ****       uart_periph_set_baudrate(&(GPS_LINK), B4800); // Default NMEA baudrate?
 439              		.loc 1 262 0
 440 006a 9848     		ldr	r0, .L70+4
 261:modules/gps/gps_ubx_ucenter.c ****       gps_ubx_ucenter.reply = GPS_UBX_UCENTER_REPLY_NONE;
 441              		.loc 1 261 0
 442 006c 0022     		movs	r2, #0
 443 006e 5A70     		strb	r2, [r3, #1]
 444              		.loc 1 262 0
 445 0070 4FF49651 		mov	r1, #4800
 446 0074 08E0     		b	.L68
 447              	.L25:
 263:modules/gps/gps_ubx_ucenter.c ****       gps_ubx_ucenter_config_port_poll();
 264:modules/gps/gps_ubx_ucenter.c ****       break;
 265:modules/gps/gps_ubx_ucenter.c ****     case 6:
 266:modules/gps/gps_ubx_ucenter.c ****       if (gps_ubx_ucenter.reply == GPS_UBX_UCENTER_REPLY_ACK) {
 448              		.loc 1 266 0
 449 0076 6378     		ldrb	r3, [r4, #1]	@ zero_extendqisi2
 450 0078 012B     		cmp	r3, #1
 451 007a DED0     		beq	.L29
 267:modules/gps/gps_ubx_ucenter.c ****         gps_ubx_ucenter.baud_init = gps_ubx_ucenter.baud_run;
 268:modules/gps/gps_ubx_ucenter.c ****         return FALSE;
 269:modules/gps/gps_ubx_ucenter.c ****       }
 270:modules/gps/gps_ubx_ucenter.c ****       gps_ubx_ucenter.reply = GPS_UBX_UCENTER_REPLY_NONE;
 452              		.loc 1 270 0
 453 007c 924B     		ldr	r3, .L70
 271:modules/gps/gps_ubx_ucenter.c ****       uart_periph_set_baudrate(&(GPS_LINK), B115200); // Last possible option for ublox
 454              		.loc 1 271 0
 455 007e 9348     		ldr	r0, .L70+4
 270:modules/gps/gps_ubx_ucenter.c ****       gps_ubx_ucenter.reply = GPS_UBX_UCENTER_REPLY_NONE;
 456              		.loc 1 270 0
 457 0080 0022     		movs	r2, #0
 458 0082 5A70     		strb	r2, [r3, #1]
 459              		.loc 1 271 0
 460 0084 4FF4E131 		mov	r1, #115200
 461              	.L68:
 462 0088 FFF7FEFF 		bl	uart_periph_set_baudrate
 463              	.LVL36:
 272:modules/gps/gps_ubx_ucenter.c ****       gps_ubx_ucenter_config_port_poll();
 464              		.loc 1 272 0
 465 008c FFF7FEFF 		bl	gps_ubx_ucenter_config_port_poll
 466              	.LVL37:
 467 0090 1CE2     		b	.L19
 468              	.LVL38:
 469              	.L26:
 273:modules/gps/gps_ubx_ucenter.c ****       break;
 274:modules/gps/gps_ubx_ucenter.c ****     case 7:
 275:modules/gps/gps_ubx_ucenter.c ****       if (gps_ubx_ucenter.reply == GPS_UBX_UCENTER_REPLY_ACK) {
 470              		.loc 1 275 0
 471 0092 6378     		ldrb	r3, [r4, #1]	@ zero_extendqisi2
 472 0094 012B     		cmp	r3, #1
 473 0096 D0D0     		beq	.L29
 276:modules/gps/gps_ubx_ucenter.c ****         gps_ubx_ucenter.baud_init = gps_ubx_ucenter.baud_run;
 277:modules/gps/gps_ubx_ucenter.c ****         return FALSE;
 278:modules/gps/gps_ubx_ucenter.c ****       }
 279:modules/gps/gps_ubx_ucenter.c **** 
 280:modules/gps/gps_ubx_ucenter.c ****       // Autoconfig Failed... let's setup the failsafe baudrate
 281:modules/gps/gps_ubx_ucenter.c ****       // Should we try even a different baudrate?
 282:modules/gps/gps_ubx_ucenter.c ****       gps_ubx_ucenter.baud_init = 0; // Set as zero to indicate that we couldn't verify the baudrat
 474              		.loc 1 282 0
 475 0098 8B4B     		ldr	r3, .L70
 283:modules/gps/gps_ubx_ucenter.c ****       uart_periph_set_baudrate(&(GPS_LINK), B9600);
 476              		.loc 1 283 0
 477 009a 8C48     		ldr	r0, .L70+4
 282:modules/gps/gps_ubx_ucenter.c ****       gps_ubx_ucenter.baud_init = 0; // Set as zero to indicate that we couldn't verify the baudrat
 478              		.loc 1 282 0
 479 009c 0022     		movs	r2, #0
 480              		.loc 1 283 0
 481 009e 4FF41651 		mov	r1, #9600
 282:modules/gps/gps_ubx_ucenter.c ****       gps_ubx_ucenter.baud_init = 0; // Set as zero to indicate that we couldn't verify the baudrat
 482              		.loc 1 282 0
 483 00a2 5A60     		str	r2, [r3, #4]
 484              		.loc 1 283 0
 485 00a4 FFF7FEFF 		bl	uart_periph_set_baudrate
 486              	.LVL39:
 487 00a8 0CE2     		b	.L28
 488              	.L18:
 489              	.LBE38:
 490              	.LBE37:
 118:modules/gps/gps_ubx_ucenter.c ****       if (gps_ubx_ucenter_configure(gps_ubx_ucenter.cnt) == FALSE) {
 491              		.loc 1 118 0
 492 00aa A378     		ldrb	r3, [r4, #2]	@ zero_extendqisi2
 493              	.LVL40:
 494              	.LBB39:
 495              	.LBB40:
 284:modules/gps/gps_ubx_ucenter.c ****       return FALSE;
 285:modules/gps/gps_ubx_ucenter.c ****     default:
 286:modules/gps/gps_ubx_ucenter.c ****       break;
 287:modules/gps/gps_ubx_ucenter.c ****   }
 288:modules/gps/gps_ubx_ucenter.c ****   return TRUE;
 289:modules/gps/gps_ubx_ucenter.c **** }
 290:modules/gps/gps_ubx_ucenter.c **** 
 291:modules/gps/gps_ubx_ucenter.c **** /////////////////////////////////////
 292:modules/gps/gps_ubx_ucenter.c **** // UBlox internal Navigation Solution
 293:modules/gps/gps_ubx_ucenter.c **** 
 294:modules/gps/gps_ubx_ucenter.c **** #define NAV_DYN_STATIONARY  1
 295:modules/gps/gps_ubx_ucenter.c **** #define NAV_DYN_PEDESTRIAN  2
 296:modules/gps/gps_ubx_ucenter.c **** #define NAV_DYN_AUTOMOTIVE  3
 297:modules/gps/gps_ubx_ucenter.c **** #define NAV_DYN_SEA         4
 298:modules/gps/gps_ubx_ucenter.c **** #define NAV_DYN_AIRBORNE_1G 5
 299:modules/gps/gps_ubx_ucenter.c **** #define NAV_DYN_AIRBORNE_2G 6 // paparazzi default
 300:modules/gps/gps_ubx_ucenter.c **** #define NAV_DYN_AIRBORNE_4G 7
 301:modules/gps/gps_ubx_ucenter.c **** 
 302:modules/gps/gps_ubx_ucenter.c **** #define NAV5_DYN_PORTABLE    0 // ublox default
 303:modules/gps/gps_ubx_ucenter.c **** #define NAV5_DYN_FIXED       1
 304:modules/gps/gps_ubx_ucenter.c **** #define NAV5_DYN_STATIONARY  2
 305:modules/gps/gps_ubx_ucenter.c **** #define NAV5_DYN_PEDESTRIAN  3
 306:modules/gps/gps_ubx_ucenter.c **** #define NAV5_DYN_AUTOMOTIVE  4
 307:modules/gps/gps_ubx_ucenter.c **** #define NAV5_DYN_SEA         5
 308:modules/gps/gps_ubx_ucenter.c **** #define NAV5_DYN_AIRBORNE_1G 6
 309:modules/gps/gps_ubx_ucenter.c **** #define NAV5_DYN_AIRBORNE_2G 7 // paparazzi default
 310:modules/gps/gps_ubx_ucenter.c **** #define NAV5_DYN_AIRBORNE_4G 8
 311:modules/gps/gps_ubx_ucenter.c **** 
 312:modules/gps/gps_ubx_ucenter.c **** #ifndef GPS_UBX_NAV5_DYNAMICS
 313:modules/gps/gps_ubx_ucenter.c **** #define GPS_UBX_NAV5_DYNAMICS NAV5_DYN_AIRBORNE_2G
 314:modules/gps/gps_ubx_ucenter.c **** #endif
 315:modules/gps/gps_ubx_ucenter.c **** 
 316:modules/gps/gps_ubx_ucenter.c **** #define NAV5_MASK 0x05 // Apply dynamic model and position fix mode settings
 317:modules/gps/gps_ubx_ucenter.c **** 
 318:modules/gps/gps_ubx_ucenter.c **** #define NAV5_2D_ONLY 1
 319:modules/gps/gps_ubx_ucenter.c **** #define NAV5_3D_ONLY 2 // paparazzi default
 320:modules/gps/gps_ubx_ucenter.c **** #define NAV5_AUTO    3 // ublox default
 321:modules/gps/gps_ubx_ucenter.c **** 
 322:modules/gps/gps_ubx_ucenter.c **** #define NAV5_DEFAULT_MIN_ELEV 5 // deg
 323:modules/gps/gps_ubx_ucenter.c **** #define NAV5_DEFAULT_PDOP_MASK 25 // no units
 324:modules/gps/gps_ubx_ucenter.c **** #define NAV5_DEFAULT_TDOP_MASK 25 // no units
 325:modules/gps/gps_ubx_ucenter.c **** #define NAV5_DEFAULT_P_ACC 100 // m
 326:modules/gps/gps_ubx_ucenter.c **** #define NAV5_DEFAULT_T_ACC 300 // m
 327:modules/gps/gps_ubx_ucenter.c **** #define NAV5_DEFAULT_STATIC_HOLD_THRES 0 // cm/s
 328:modules/gps/gps_ubx_ucenter.c **** 
 329:modules/gps/gps_ubx_ucenter.c **** #define IGNORED 0
 330:modules/gps/gps_ubx_ucenter.c **** #define RESERVED 0
 331:modules/gps/gps_ubx_ucenter.c **** 
 332:modules/gps/gps_ubx_ucenter.c **** static inline void gps_ubx_ucenter_config_nav(void)
 333:modules/gps/gps_ubx_ucenter.c **** {
 334:modules/gps/gps_ubx_ucenter.c ****   //New ublox firmware v5 or higher uses CFG_NAV5 message, CFG_NAV is no longer available
 335:modules/gps/gps_ubx_ucenter.c ****   if (gps_ubx_ucenter.sw_ver_h < 5 && gps_ubx_ucenter.hw_ver_h < 6) {
 336:modules/gps/gps_ubx_ucenter.c ****     UbxSend_CFG_NAV(gps_ubx_ucenter.dev,
 337:modules/gps/gps_ubx_ucenter.c ****         NAV_DYN_AIRBORNE_2G, 3, 16, 24, 20, 5, 0, 0x3C,
 338:modules/gps/gps_ubx_ucenter.c ****         0x3C, 0x14, 0x03E8 , 0x0000, 0x0, 0x17, 0x00FA, 0x00FA,
 339:modules/gps/gps_ubx_ucenter.c ****         0x0064, 0x012C, 0x000F, 0x00, 0x00);
 340:modules/gps/gps_ubx_ucenter.c ****   } else {
 341:modules/gps/gps_ubx_ucenter.c ****     UbxSend_CFG_NAV5(gps_ubx_ucenter.dev,
 342:modules/gps/gps_ubx_ucenter.c ****         NAV5_MASK, GPS_UBX_NAV5_DYNAMICS, NAV5_3D_ONLY, IGNORED, IGNORED, NAV5_DEFAULT_MIN_ELEV, RE
 343:modules/gps/gps_ubx_ucenter.c ****         NAV5_DEFAULT_PDOP_MASK, NAV5_DEFAULT_TDOP_MASK, NAV5_DEFAULT_P_ACC, NAV5_DEFAULT_T_ACC,
 344:modules/gps/gps_ubx_ucenter.c ****         NAV5_DEFAULT_STATIC_HOLD_THRES, RESERVED, RESERVED, RESERVED, RESERVED);
 345:modules/gps/gps_ubx_ucenter.c ****   }
 346:modules/gps/gps_ubx_ucenter.c **** }
 347:modules/gps/gps_ubx_ucenter.c **** 
 348:modules/gps/gps_ubx_ucenter.c **** 
 349:modules/gps/gps_ubx_ucenter.c **** 
 350:modules/gps/gps_ubx_ucenter.c **** /////////////////////////////////////
 351:modules/gps/gps_ubx_ucenter.c **** // UBlox port and protocol GPS configuration
 352:modules/gps/gps_ubx_ucenter.c **** 
 353:modules/gps/gps_ubx_ucenter.c **** #ifdef GPS_PORT_ID
 354:modules/gps/gps_ubx_ucenter.c **** #warning "GPS_PORT_ID is no longer needed by the ublox ucenter for automatically configuration. Ple
 355:modules/gps/gps_ubx_ucenter.c **** #endif
 356:modules/gps/gps_ubx_ucenter.c **** 
 357:modules/gps/gps_ubx_ucenter.c **** // UART mode: 8N1 with reserved1 set for compatability with A4
 358:modules/gps/gps_ubx_ucenter.c **** #define UBX_UART_MODE_MASK 0x000008D0
 359:modules/gps/gps_ubx_ucenter.c **** 
 360:modules/gps/gps_ubx_ucenter.c **** #define UBX_PROTO_MASK  0x0001
 361:modules/gps/gps_ubx_ucenter.c **** #define NMEA_PROTO_MASK 0x0002
 362:modules/gps/gps_ubx_ucenter.c **** #define RTCM_PROTO_MASK 0x0004
 363:modules/gps/gps_ubx_ucenter.c **** 
 364:modules/gps/gps_ubx_ucenter.c **** #define GPS_PORT_DDC      0x00
 365:modules/gps/gps_ubx_ucenter.c **** #define GPS_PORT_UART1    0x01
 366:modules/gps/gps_ubx_ucenter.c **** #define GPS_PORT_UART2    0x02
 367:modules/gps/gps_ubx_ucenter.c **** #define GPS_PORT_USB      0x03
 368:modules/gps/gps_ubx_ucenter.c **** #define GPS_PORT_SPI      0x04
 369:modules/gps/gps_ubx_ucenter.c **** #define GPS_PORT_RESERVED   0x05
 370:modules/gps/gps_ubx_ucenter.c **** 
 371:modules/gps/gps_ubx_ucenter.c **** #define UBX_GPS_BAUD (GPS_LINK).baudrate
 372:modules/gps/gps_ubx_ucenter.c **** 
 373:modules/gps/gps_ubx_ucenter.c **** #ifndef GPS_UBX_UCENTER_RATE
 374:modules/gps/gps_ubx_ucenter.c **** #define GPS_UBX_UCENTER_RATE 0x00FA // In milliseconds. 0x00FA = 250ms = 4Hz
 375:modules/gps/gps_ubx_ucenter.c **** #endif
 376:modules/gps/gps_ubx_ucenter.c **** 
 377:modules/gps/gps_ubx_ucenter.c **** static inline void gps_ubx_ucenter_config_port(void)
 378:modules/gps/gps_ubx_ucenter.c **** {
 379:modules/gps/gps_ubx_ucenter.c ****   switch (gps_ubx_ucenter.port_id) {
 380:modules/gps/gps_ubx_ucenter.c ****       // I2C Interface
 381:modules/gps/gps_ubx_ucenter.c ****     case GPS_PORT_DDC:
 382:modules/gps/gps_ubx_ucenter.c **** #ifdef GPS_I2C
 383:modules/gps/gps_ubx_ucenter.c ****       UbxSend_CFG_PRT(gps_ubx_ucenter.dev, gps_ubx_ucenter.port_id, 0x0, 0x0, GPS_I2C_SLAVE_ADDR, 0
 384:modules/gps/gps_ubx_ucenter.c **** #else
 385:modules/gps/gps_ubx_ucenter.c ****       DEBUG_PRINT("WARNING: Please include the gps_i2c module.\n");
 386:modules/gps/gps_ubx_ucenter.c **** #endif
 387:modules/gps/gps_ubx_ucenter.c ****       break;
 388:modules/gps/gps_ubx_ucenter.c ****       // UART Interface
 389:modules/gps/gps_ubx_ucenter.c ****     case GPS_PORT_UART1:
 390:modules/gps/gps_ubx_ucenter.c ****     case GPS_PORT_UART2:
 391:modules/gps/gps_ubx_ucenter.c ****       UbxSend_CFG_PRT(gps_ubx_ucenter.dev,
 392:modules/gps/gps_ubx_ucenter.c ****           gps_ubx_ucenter.port_id, 0x0, 0x0,
 393:modules/gps/gps_ubx_ucenter.c ****           UBX_UART_MODE_MASK, UART_SPEED(UBX_GPS_BAUD), UBX_PROTO_MASK,
 394:modules/gps/gps_ubx_ucenter.c ****           UBX_PROTO_MASK, 0x0, 0x0);
 395:modules/gps/gps_ubx_ucenter.c ****       break;
 396:modules/gps/gps_ubx_ucenter.c ****       // USB Interface
 397:modules/gps/gps_ubx_ucenter.c ****     case GPS_PORT_USB:
 398:modules/gps/gps_ubx_ucenter.c ****       UbxSend_CFG_PRT(gps_ubx_ucenter.dev,
 399:modules/gps/gps_ubx_ucenter.c ****           gps_ubx_ucenter.port_id, 0x0, 0x0, 0x0, 0x0,
 400:modules/gps/gps_ubx_ucenter.c ****           UBX_PROTO_MASK, UBX_PROTO_MASK, 0x0, 0x0);
 401:modules/gps/gps_ubx_ucenter.c ****       break;
 402:modules/gps/gps_ubx_ucenter.c ****     case GPS_PORT_SPI:
 403:modules/gps/gps_ubx_ucenter.c ****       DEBUG_PRINT("WARNING: ublox SPI port is currently not supported.\n");
 404:modules/gps/gps_ubx_ucenter.c ****       break;
 405:modules/gps/gps_ubx_ucenter.c ****     default:
 406:modules/gps/gps_ubx_ucenter.c ****       DEBUG_PRINT("WARNING: Unknown ublox port id: %u\n", gps_ubx_ucenter.port_id);
 407:modules/gps/gps_ubx_ucenter.c ****       break;
 408:modules/gps/gps_ubx_ucenter.c ****   }
 409:modules/gps/gps_ubx_ucenter.c **** }
 410:modules/gps/gps_ubx_ucenter.c **** 
 411:modules/gps/gps_ubx_ucenter.c **** #define GPS_SBAS_ENABLED       0x01
 412:modules/gps/gps_ubx_ucenter.c **** 
 413:modules/gps/gps_ubx_ucenter.c **** #define GPS_SBAS_RANGING       0x01
 414:modules/gps/gps_ubx_ucenter.c **** #define GPS_SBAS_CORRECTIONS   0x02
 415:modules/gps/gps_ubx_ucenter.c **** #define GPS_SBAS_INTEGRITY     0x04
 416:modules/gps/gps_ubx_ucenter.c **** 
 417:modules/gps/gps_ubx_ucenter.c **** #define GPS_SBAS_MAX_SBAS    1 // Default ublox setting uses 3 SBAS channels(?)
 418:modules/gps/gps_ubx_ucenter.c **** 
 419:modules/gps/gps_ubx_ucenter.c **** #define GPS_SBAS_AUTOSCAN    0x00
 420:modules/gps/gps_ubx_ucenter.c **** 
 421:modules/gps/gps_ubx_ucenter.c **** static inline void gps_ubx_ucenter_config_sbas(void)
 422:modules/gps/gps_ubx_ucenter.c **** {
 423:modules/gps/gps_ubx_ucenter.c ****   // Since March 2nd 2011 EGNOS is released for aviation purposes
 424:modules/gps/gps_ubx_ucenter.c ****   UbxSend_CFG_SBAS(gps_ubx_ucenter.dev, GPS_SBAS_ENABLED, GPS_SBAS_RANGING | GPS_SBAS_CORRECTIONS |
 425:modules/gps/gps_ubx_ucenter.c ****                    GPS_SBAS_AUTOSCAN, GPS_SBAS_AUTOSCAN);
 426:modules/gps/gps_ubx_ucenter.c ****   //UbxSend_CFG_SBAS(0x00, 0x00, 0x00, 0x00, 0x00);
 427:modules/gps/gps_ubx_ucenter.c **** }
 428:modules/gps/gps_ubx_ucenter.c **** 
 429:modules/gps/gps_ubx_ucenter.c **** // Text Telemetry for Debugging
 430:modules/gps/gps_ubx_ucenter.c **** #undef GOT_PAYLOAD
 431:modules/gps/gps_ubx_ucenter.c **** 
 432:modules/gps/gps_ubx_ucenter.c **** static bool_t gps_ubx_ucenter_configure(uint8_t nr)
 433:modules/gps/gps_ubx_ucenter.c **** {
 434:modules/gps/gps_ubx_ucenter.c ****   DEBUG_PRINT("gps_ubx_ucenter_configure nr: %u\n", nr);
 435:modules/gps/gps_ubx_ucenter.c **** 
 436:modules/gps/gps_ubx_ucenter.c ****   // Store the reply of the last configuration step and reset
 437:modules/gps/gps_ubx_ucenter.c ****   if (nr < GPS_UBX_UCENTER_CONFIG_STEPS) {
 496              		.loc 1 437 0
 497 00ac 122B     		cmp	r3, #18
 498 00ae 02D8     		bhi	.L30
 438:modules/gps/gps_ubx_ucenter.c ****     gps_ubx_ucenter.replies[nr] = gps_ubx_ucenter.reply;
 499              		.loc 1 438 0
 500 00b0 E218     		adds	r2, r4, r3
 501 00b2 6178     		ldrb	r1, [r4, #1]	@ zero_extendqisi2
 502 00b4 D174     		strb	r1, [r2, #19]
 503              	.LVL41:
 504              	.L30:
 439:modules/gps/gps_ubx_ucenter.c ****   }
 440:modules/gps/gps_ubx_ucenter.c **** 
 441:modules/gps/gps_ubx_ucenter.c ****   switch (nr) {
 505              		.loc 1 441 0
 506 00b6 122B     		cmp	r3, #18
 507 00b8 00F20182 		bhi	.L31
 508 00bc DFE813F0 		tbh	[pc, r3, lsl #1]
 509              	.L33:
 510 00c0 1300     		.2byte	(.L32-.L33)/2
 511 00c2 2A00     		.2byte	(.L34-.L33)/2
 512 00c4 FF01     		.2byte	(.L31-.L33)/2
 513 00c6 FF01     		.2byte	(.L31-.L33)/2
 514 00c8 FF01     		.2byte	(.L31-.L33)/2
 515 00ca FF01     		.2byte	(.L31-.L33)/2
 516 00cc 3B00     		.2byte	(.L35-.L33)/2
 517 00ce 8401     		.2byte	(.L36-.L33)/2
 518 00d0 8601     		.2byte	(.L37-.L33)/2
 519 00d2 8B01     		.2byte	(.L38-.L33)/2
 520 00d4 8D01     		.2byte	(.L39-.L33)/2
 521 00d6 9001     		.2byte	(.L40-.L33)/2
 522 00d8 9201     		.2byte	(.L41-.L33)/2
 523 00da 9501     		.2byte	(.L42-.L33)/2
 524 00dc BF01     		.2byte	(.L43-.L33)/2
 525 00de FF01     		.2byte	(.L31-.L33)/2
 526 00e0 FF01     		.2byte	(.L31-.L33)/2
 527 00e2 DD01     		.2byte	(.L44-.L33)/2
 528 00e4 0902     		.2byte	(.L45-.L33)/2
 529              		.p2align 1
 530              	.L32:
 531              	.LBB41:
 532              	.LBB42:
 379:modules/gps/gps_ubx_ucenter.c ****   switch (gps_ubx_ucenter.port_id) {
 533              		.loc 1 379 0
 534 00e6 A17C     		ldrb	r1, [r4, #18]	@ zero_extendqisi2
 535 00e8 774B     		ldr	r3, .L70
 536              	.LVL42:
 537 00ea 0029     		cmp	r1, #0
 538 00ec 00F0E781 		beq	.L31
 539 00f0 0229     		cmp	r1, #2
 540 00f2 06D9     		bls	.L46
 541 00f4 0329     		cmp	r1, #3
 542 00f6 40F0E281 		bne	.L31
 398:modules/gps/gps_ubx_ucenter.c ****       UbxSend_CFG_PRT(gps_ubx_ucenter.dev,
 543              		.loc 1 398 0
 544 00fa 0022     		movs	r2, #0
 545 00fc 986A     		ldr	r0, [r3, #40]
 546 00fe 1346     		mov	r3, r2
 547 0100 05E0     		b	.L63
 548              	.L46:
 391:modules/gps/gps_ubx_ucenter.c ****       UbxSend_CFG_PRT(gps_ubx_ucenter.dev,
 549              		.loc 1 391 0
 550 0102 986A     		ldr	r0, [r3, #40]
 551 0104 714B     		ldr	r3, .L70+4
 552 0106 D3F81031 		ldr	r3, [r3, #272]
 553 010a 4FF40D62 		mov	r2, #2256
 554              	.L63:
 398:modules/gps/gps_ubx_ucenter.c ****       UbxSend_CFG_PRT(gps_ubx_ucenter.dev,
 555              		.loc 1 398 0
 556 010e FFF7FEFF 		bl	UbxSend_CFG_PRT.constprop.7
 557              	.LVL43:
 558 0112 D4E1     		b	.L31
 559              	.LVL44:
 560              	.L34:
 561              	.LBE42:
 562              	.LBE41:
 442:modules/gps/gps_ubx_ucenter.c ****     case 0:
 443:modules/gps/gps_ubx_ucenter.c ****       // Use old baudrate to issue a baudrate change command
 444:modules/gps/gps_ubx_ucenter.c ****       gps_ubx_ucenter_config_port();
 445:modules/gps/gps_ubx_ucenter.c ****       break;
 446:modules/gps/gps_ubx_ucenter.c ****     case 1:
 447:modules/gps/gps_ubx_ucenter.c **** #if PRINT_DEBUG_GPS_UBX_UCENTER
 448:modules/gps/gps_ubx_ucenter.c ****       if (gps_ubx_ucenter.reply != GPS_UBX_UCENTER_REPLY_ACK) {
 449:modules/gps/gps_ubx_ucenter.c ****         DEBUG_PRINT("ublox did not acknowledge port configuration.\n");
 450:modules/gps/gps_ubx_ucenter.c ****       } else {
 451:modules/gps/gps_ubx_ucenter.c ****         DEBUG_PRINT("Changed ublox baudrate to: %u\n", UART_SPEED(UBX_GPS_BAUD));
 452:modules/gps/gps_ubx_ucenter.c ****       }
 453:modules/gps/gps_ubx_ucenter.c **** #endif
 454:modules/gps/gps_ubx_ucenter.c ****       // Now the GPS baudrate should have changed
 455:modules/gps/gps_ubx_ucenter.c ****       uart_periph_set_baudrate(&(GPS_LINK), UBX_GPS_BAUD);
 563              		.loc 1 455 0
 564 0114 6D4D     		ldr	r5, .L70+4
 565 0116 2846     		mov	r0, r5
 566 0118 D5F81011 		ldr	r1, [r5, #272]
 567 011c FFF7FEFF 		bl	uart_periph_set_baudrate
 568              	.LVL45:
 456:modules/gps/gps_ubx_ucenter.c ****       gps_ubx_ucenter.baud_run = UART_SPEED(UBX_GPS_BAUD);
 569              		.loc 1 456 0
 570 0120 D5F81031 		ldr	r3, [r5, #272]
 457:modules/gps/gps_ubx_ucenter.c ****       UbxSend_MON_GET_VER(gps_ubx_ucenter.dev);
 571              		.loc 1 457 0
 572 0124 A56A     		ldr	r5, [r4, #40]
 573              	.LVL46:
 456:modules/gps/gps_ubx_ucenter.c ****       gps_ubx_ucenter.baud_run = UART_SPEED(UBX_GPS_BAUD);
 574              		.loc 1 456 0
 575 0126 A360     		str	r3, [r4, #8]
 576              	.LBB43:
 577              	.LBB44:
 239:/home/lsk/paparazzi/var/include/ubx_protocol.h **** }
 240:/home/lsk/paparazzi/var/include/ubx_protocol.h **** 
 241:/home/lsk/paparazzi/var/include/ubx_protocol.h **** #define UBX_CFG_NAV_ID 0x03
 242:/home/lsk/paparazzi/var/include/ubx_protocol.h **** #define UBX_CFG_NAV_Platform(_ubx_payload) (uint8_t)(*((uint8_t*)_ubx_payload+0))
 243:/home/lsk/paparazzi/var/include/ubx_protocol.h **** #define UBX_CFG_NAV_MinSvs(_ubx_payload) (uint8_t)(*((uint8_t*)_ubx_payload+1))
 244:/home/lsk/paparazzi/var/include/ubx_protocol.h **** #define UBX_CFG_NAV_MaxSvs(_ubx_payload) (uint8_t)(*((uint8_t*)_ubx_payload+2))
 245:/home/lsk/paparazzi/var/include/ubx_protocol.h **** #define UBX_CFG_NAV_MinCN0(_ubx_payload) (uint8_t)(*((uint8_t*)_ubx_payload+3))
 246:/home/lsk/paparazzi/var/include/ubx_protocol.h **** #define UBX_CFG_NAV_AbsCN0(_ubx_payload) (uint8_t)(*((uint8_t*)_ubx_payload+4))
 247:/home/lsk/paparazzi/var/include/ubx_protocol.h **** #define UBX_CFG_NAV_MinELE(_ubx_payload) (uint8_t)(*((uint8_t*)_ubx_payload+5))
 248:/home/lsk/paparazzi/var/include/ubx_protocol.h **** #define UBX_CFG_NAV_DGPSTTR(_ubx_payload) (uint8_t)(*((uint8_t*)_ubx_payload+6))
 249:/home/lsk/paparazzi/var/include/ubx_protocol.h **** #define UBX_CFG_NAV_DGPST0(_ubx_payload) (uint8_t)(*((uint8_t*)_ubx_payload+7))
 250:/home/lsk/paparazzi/var/include/ubx_protocol.h **** #define UBX_CFG_NAV_PRCAGE(_ubx_payload) (uint8_t)(*((uint8_t*)_ubx_payload+8))
 251:/home/lsk/paparazzi/var/include/ubx_protocol.h **** #define UBX_CFG_NAV_CPCAGE(_ubx_payload) (uint8_t)(*((uint8_t*)_ubx_payload+9))
 252:/home/lsk/paparazzi/var/include/ubx_protocol.h **** #define UBX_CFG_NAV_MinCLT(_ubx_payload) (uint16_t)(*((uint8_t*)_ubx_payload+10)|*((uint8_t*)_ubx_p
 253:/home/lsk/paparazzi/var/include/ubx_protocol.h **** #define UBX_CFG_NAV_AbsCLT(_ubx_payload) (uint16_t)(*((uint8_t*)_ubx_payload+12)|*((uint8_t*)_ubx_p
 254:/home/lsk/paparazzi/var/include/ubx_protocol.h **** #define UBX_CFG_NAV_MaxDR(_ubx_payload) (uint8_t)(*((uint8_t*)_ubx_payload+14))
 255:/home/lsk/paparazzi/var/include/ubx_protocol.h **** #define UBX_CFG_NAV_NAVOPT(_ubx_payload) (uint8_t)(*((uint8_t*)_ubx_payload+15))
 256:/home/lsk/paparazzi/var/include/ubx_protocol.h **** #define UBX_CFG_NAV_PDOP(_ubx_payload) (uint16_t)(*((uint8_t*)_ubx_payload+16)|*((uint8_t*)_ubx_pay
 257:/home/lsk/paparazzi/var/include/ubx_protocol.h **** #define UBX_CFG_NAV_TDOP(_ubx_payload) (uint16_t)(*((uint8_t*)_ubx_payload+18)|*((uint8_t*)_ubx_pay
 258:/home/lsk/paparazzi/var/include/ubx_protocol.h **** #define UBX_CFG_NAV_PACC(_ubx_payload) (uint16_t)(*((uint8_t*)_ubx_payload+20)|*((uint8_t*)_ubx_pay
 259:/home/lsk/paparazzi/var/include/ubx_protocol.h **** #define UBX_CFG_NAV_TACC(_ubx_payload) (uint16_t)(*((uint8_t*)_ubx_payload+22)|*((uint8_t*)_ubx_pay
 260:/home/lsk/paparazzi/var/include/ubx_protocol.h **** #define UBX_CFG_NAV_FACC(_ubx_payload) (uint16_t)(*((uint8_t*)_ubx_payload+24)|*((uint8_t*)_ubx_pay
 261:/home/lsk/paparazzi/var/include/ubx_protocol.h **** #define UBX_CFG_NAV_StaticThres(_ubx_payload) (uint8_t)(*((uint8_t*)_ubx_payload+26))
 262:/home/lsk/paparazzi/var/include/ubx_protocol.h **** #define UBX_CFG_NAV_reserved(_ubx_payload) (uint8_t)(*((uint8_t*)_ubx_payload+27))
 263:/home/lsk/paparazzi/var/include/ubx_protocol.h **** 
 264:/home/lsk/paparazzi/var/include/ubx_protocol.h **** static inline void UbxSend_CFG_NAV(struct link_device *dev, uint8_t platform, uint8_t minsvs, uint8
 265:/home/lsk/paparazzi/var/include/ubx_protocol.h ****   ubx_header(dev, UBX_CFG_ID, UBX_CFG_NAV_ID, 28);
 266:/home/lsk/paparazzi/var/include/ubx_protocol.h ****   uint8_t _platform = platform; ubx_send_bytes(dev, 1, (uint8_t*)&_platform);
 267:/home/lsk/paparazzi/var/include/ubx_protocol.h ****   uint8_t _minsvs = minsvs; ubx_send_bytes(dev, 1, (uint8_t*)&_minsvs);
 268:/home/lsk/paparazzi/var/include/ubx_protocol.h ****   uint8_t _maxsvs = maxsvs; ubx_send_bytes(dev, 1, (uint8_t*)&_maxsvs);
 269:/home/lsk/paparazzi/var/include/ubx_protocol.h ****   uint8_t _mincn0 = mincn0; ubx_send_bytes(dev, 1, (uint8_t*)&_mincn0);
 270:/home/lsk/paparazzi/var/include/ubx_protocol.h ****   uint8_t _abscn0 = abscn0; ubx_send_bytes(dev, 1, (uint8_t*)&_abscn0);
 271:/home/lsk/paparazzi/var/include/ubx_protocol.h ****   uint8_t _minele = minele; ubx_send_bytes(dev, 1, (uint8_t*)&_minele);
 272:/home/lsk/paparazzi/var/include/ubx_protocol.h ****   uint8_t _dgpsttr = dgpsttr; ubx_send_bytes(dev, 1, (uint8_t*)&_dgpsttr);
 273:/home/lsk/paparazzi/var/include/ubx_protocol.h ****   uint8_t _dgpst0 = dgpst0; ubx_send_bytes(dev, 1, (uint8_t*)&_dgpst0);
 274:/home/lsk/paparazzi/var/include/ubx_protocol.h ****   uint8_t _prcage = prcage; ubx_send_bytes(dev, 1, (uint8_t*)&_prcage);
 275:/home/lsk/paparazzi/var/include/ubx_protocol.h ****   uint8_t _cpcage = cpcage; ubx_send_bytes(dev, 1, (uint8_t*)&_cpcage);
 276:/home/lsk/paparazzi/var/include/ubx_protocol.h ****   uint16_t _minclt = minclt; ubx_send_bytes(dev, 2, (uint8_t*)&_minclt);
 277:/home/lsk/paparazzi/var/include/ubx_protocol.h ****   uint16_t _absclt = absclt; ubx_send_bytes(dev, 2, (uint8_t*)&_absclt);
 278:/home/lsk/paparazzi/var/include/ubx_protocol.h ****   uint8_t _maxdr = maxdr; ubx_send_bytes(dev, 1, (uint8_t*)&_maxdr);
 279:/home/lsk/paparazzi/var/include/ubx_protocol.h ****   uint8_t _navopt = navopt; ubx_send_bytes(dev, 1, (uint8_t*)&_navopt);
 280:/home/lsk/paparazzi/var/include/ubx_protocol.h ****   uint16_t _pdop = pdop; ubx_send_bytes(dev, 2, (uint8_t*)&_pdop);
 281:/home/lsk/paparazzi/var/include/ubx_protocol.h ****   uint16_t _tdop = tdop; ubx_send_bytes(dev, 2, (uint8_t*)&_tdop);
 282:/home/lsk/paparazzi/var/include/ubx_protocol.h ****   uint16_t _pacc = pacc; ubx_send_bytes(dev, 2, (uint8_t*)&_pacc);
 283:/home/lsk/paparazzi/var/include/ubx_protocol.h ****   uint16_t _tacc = tacc; ubx_send_bytes(dev, 2, (uint8_t*)&_tacc);
 284:/home/lsk/paparazzi/var/include/ubx_protocol.h ****   uint16_t _facc = facc; ubx_send_bytes(dev, 2, (uint8_t*)&_facc);
 285:/home/lsk/paparazzi/var/include/ubx_protocol.h ****   uint8_t _staticthres = staticthres; ubx_send_bytes(dev, 1, (uint8_t*)&_staticthres);
 286:/home/lsk/paparazzi/var/include/ubx_protocol.h ****   uint8_t _reserved = reserved; ubx_send_bytes(dev, 1, (uint8_t*)&_reserved);
 287:/home/lsk/paparazzi/var/include/ubx_protocol.h ****   ubx_trailer(dev);
 288:/home/lsk/paparazzi/var/include/ubx_protocol.h **** }
 289:/home/lsk/paparazzi/var/include/ubx_protocol.h **** 
 290:/home/lsk/paparazzi/var/include/ubx_protocol.h **** #define UBX_CFG_RST_ID 0x04
 291:/home/lsk/paparazzi/var/include/ubx_protocol.h **** #define UBX_CFG_RST_nav_bbr(_ubx_payload) (uint16_t)(*((uint8_t*)_ubx_payload+0)|*((uint8_t*)_ubx_p
 292:/home/lsk/paparazzi/var/include/ubx_protocol.h **** #define UBX_CFG_RST_Reset(_ubx_payload) (uint8_t)(*((uint8_t*)_ubx_payload+2))
 293:/home/lsk/paparazzi/var/include/ubx_protocol.h **** #define UBX_CFG_RST_Res(_ubx_payload) (uint8_t)(*((uint8_t*)_ubx_payload+3))
 294:/home/lsk/paparazzi/var/include/ubx_protocol.h **** 
 295:/home/lsk/paparazzi/var/include/ubx_protocol.h **** static inline void UbxSend_CFG_RST(struct link_device *dev, uint16_t nav_bbr, uint8_t reset, uint8_
 296:/home/lsk/paparazzi/var/include/ubx_protocol.h ****   ubx_header(dev, UBX_CFG_ID, UBX_CFG_RST_ID, 4);
 297:/home/lsk/paparazzi/var/include/ubx_protocol.h ****   uint16_t _nav_bbr = nav_bbr; ubx_send_bytes(dev, 2, (uint8_t*)&_nav_bbr);
 298:/home/lsk/paparazzi/var/include/ubx_protocol.h ****   uint8_t _reset = reset; ubx_send_bytes(dev, 1, (uint8_t*)&_reset);
 299:/home/lsk/paparazzi/var/include/ubx_protocol.h ****   uint8_t _res = res; ubx_send_bytes(dev, 1, (uint8_t*)&_res);
 300:/home/lsk/paparazzi/var/include/ubx_protocol.h ****   ubx_trailer(dev);
 301:/home/lsk/paparazzi/var/include/ubx_protocol.h **** }
 302:/home/lsk/paparazzi/var/include/ubx_protocol.h **** 
 303:/home/lsk/paparazzi/var/include/ubx_protocol.h **** #define UBX_CFG_RATE_ID 0x08
 304:/home/lsk/paparazzi/var/include/ubx_protocol.h **** #define UBX_CFG_RATE_Meas(_ubx_payload) (uint16_t)(*((uint8_t*)_ubx_payload+0)|*((uint8_t*)_ubx_pay
 305:/home/lsk/paparazzi/var/include/ubx_protocol.h **** #define UBX_CFG_RATE_Nav(_ubx_payload) (uint16_t)(*((uint8_t*)_ubx_payload+2)|*((uint8_t*)_ubx_payl
 306:/home/lsk/paparazzi/var/include/ubx_protocol.h **** #define UBX_CFG_RATE_Time(_ubx_payload) (uint16_t)(*((uint8_t*)_ubx_payload+4)|*((uint8_t*)_ubx_pay
 307:/home/lsk/paparazzi/var/include/ubx_protocol.h **** 
 308:/home/lsk/paparazzi/var/include/ubx_protocol.h **** static inline void UbxSend_CFG_RATE(struct link_device *dev, uint16_t meas, uint16_t nav, uint16_t 
 309:/home/lsk/paparazzi/var/include/ubx_protocol.h ****   ubx_header(dev, UBX_CFG_ID, UBX_CFG_RATE_ID, 6);
 310:/home/lsk/paparazzi/var/include/ubx_protocol.h ****   uint16_t _meas = meas; ubx_send_bytes(dev, 2, (uint8_t*)&_meas);
 311:/home/lsk/paparazzi/var/include/ubx_protocol.h ****   uint16_t _nav = nav; ubx_send_bytes(dev, 2, (uint8_t*)&_nav);
 312:/home/lsk/paparazzi/var/include/ubx_protocol.h ****   uint16_t _time = time; ubx_send_bytes(dev, 2, (uint8_t*)&_time);
 313:/home/lsk/paparazzi/var/include/ubx_protocol.h ****   ubx_trailer(dev);
 314:/home/lsk/paparazzi/var/include/ubx_protocol.h **** }
 315:/home/lsk/paparazzi/var/include/ubx_protocol.h **** 
 316:/home/lsk/paparazzi/var/include/ubx_protocol.h **** #define UBX_CFG_CFG_ID 0x09
 317:/home/lsk/paparazzi/var/include/ubx_protocol.h **** #define UBX_CFG_CFG_Clear_mask(_ubx_payload) (uint32_t)(*((uint8_t*)_ubx_payload+0)|*((uint8_t*)_ub
 318:/home/lsk/paparazzi/var/include/ubx_protocol.h **** #define UBX_CFG_CFG_Save_mask(_ubx_payload) (uint32_t)(*((uint8_t*)_ubx_payload+4)|*((uint8_t*)_ubx
 319:/home/lsk/paparazzi/var/include/ubx_protocol.h **** #define UBX_CFG_CFG_Load_mask(_ubx_payload) (uint32_t)(*((uint8_t*)_ubx_payload+8)|*((uint8_t*)_ubx
 320:/home/lsk/paparazzi/var/include/ubx_protocol.h **** 
 321:/home/lsk/paparazzi/var/include/ubx_protocol.h **** static inline void UbxSend_CFG_CFG(struct link_device *dev, uint32_t clear_mask, uint32_t save_mask
 322:/home/lsk/paparazzi/var/include/ubx_protocol.h ****   ubx_header(dev, UBX_CFG_ID, UBX_CFG_CFG_ID, 12);
 323:/home/lsk/paparazzi/var/include/ubx_protocol.h ****   uint32_t _clear_mask = clear_mask; ubx_send_bytes(dev, 4, (uint8_t*)&_clear_mask);
 324:/home/lsk/paparazzi/var/include/ubx_protocol.h ****   uint32_t _save_mask = save_mask; ubx_send_bytes(dev, 4, (uint8_t*)&_save_mask);
 325:/home/lsk/paparazzi/var/include/ubx_protocol.h ****   uint32_t _load_mask = load_mask; ubx_send_bytes(dev, 4, (uint8_t*)&_load_mask);
 326:/home/lsk/paparazzi/var/include/ubx_protocol.h ****   ubx_trailer(dev);
 327:/home/lsk/paparazzi/var/include/ubx_protocol.h **** }
 328:/home/lsk/paparazzi/var/include/ubx_protocol.h **** 
 329:/home/lsk/paparazzi/var/include/ubx_protocol.h **** #define UBX_CFG_SBAS_ID 0x16
 330:/home/lsk/paparazzi/var/include/ubx_protocol.h **** #define UBX_CFG_SBAS_mode(_ubx_payload) (uint8_t)(*((uint8_t*)_ubx_payload+0))
 331:/home/lsk/paparazzi/var/include/ubx_protocol.h **** #define UBX_CFG_SBAS_usage(_ubx_payload) (uint8_t)(*((uint8_t*)_ubx_payload+1))
 332:/home/lsk/paparazzi/var/include/ubx_protocol.h **** #define UBX_CFG_SBAS_maxbas(_ubx_payload) (uint8_t)(*((uint8_t*)_ubx_payload+2))
 333:/home/lsk/paparazzi/var/include/ubx_protocol.h **** #define UBX_CFG_SBAS_reserved(_ubx_payload) (uint8_t)(*((uint8_t*)_ubx_payload+3))
 334:/home/lsk/paparazzi/var/include/ubx_protocol.h **** #define UBX_CFG_SBAS_scanmode(_ubx_payload) (uint32_t)(*((uint8_t*)_ubx_payload+4)|*((uint8_t*)_ubx
 335:/home/lsk/paparazzi/var/include/ubx_protocol.h **** 
 336:/home/lsk/paparazzi/var/include/ubx_protocol.h **** static inline void UbxSend_CFG_SBAS(struct link_device *dev, uint8_t mode, uint8_t usage, uint8_t m
 337:/home/lsk/paparazzi/var/include/ubx_protocol.h ****   ubx_header(dev, UBX_CFG_ID, UBX_CFG_SBAS_ID, 8);
 338:/home/lsk/paparazzi/var/include/ubx_protocol.h ****   uint8_t _mode = mode; ubx_send_bytes(dev, 1, (uint8_t*)&_mode);
 339:/home/lsk/paparazzi/var/include/ubx_protocol.h ****   uint8_t _usage = usage; ubx_send_bytes(dev, 1, (uint8_t*)&_usage);
 340:/home/lsk/paparazzi/var/include/ubx_protocol.h ****   uint8_t _maxbas = maxbas; ubx_send_bytes(dev, 1, (uint8_t*)&_maxbas);
 341:/home/lsk/paparazzi/var/include/ubx_protocol.h ****   uint8_t _reserved = reserved; ubx_send_bytes(dev, 1, (uint8_t*)&_reserved);
 342:/home/lsk/paparazzi/var/include/ubx_protocol.h ****   uint32_t _scanmode = scanmode; ubx_send_bytes(dev, 4, (uint8_t*)&_scanmode);
 343:/home/lsk/paparazzi/var/include/ubx_protocol.h ****   ubx_trailer(dev);
 344:/home/lsk/paparazzi/var/include/ubx_protocol.h **** }
 345:/home/lsk/paparazzi/var/include/ubx_protocol.h **** 
 346:/home/lsk/paparazzi/var/include/ubx_protocol.h **** #define UBX_CFG_NAV5_ID 0x24
 347:/home/lsk/paparazzi/var/include/ubx_protocol.h **** #define UBX_CFG_NAV5_mask(_ubx_payload) (uint16_t)(*((uint8_t*)_ubx_payload+0)|*((uint8_t*)_ubx_pay
 348:/home/lsk/paparazzi/var/include/ubx_protocol.h **** #define UBX_CFG_NAV5_dynModel(_ubx_payload) (uint8_t)(*((uint8_t*)_ubx_payload+2))
 349:/home/lsk/paparazzi/var/include/ubx_protocol.h **** #define UBX_CFG_NAV5_fixModel(_ubx_payload) (uint8_t)(*((uint8_t*)_ubx_payload+3))
 350:/home/lsk/paparazzi/var/include/ubx_protocol.h **** #define UBX_CFG_NAV5_fixedAlt(_ubx_payload) (int32_t)(*((uint8_t*)_ubx_payload+4)|*((uint8_t*)_ubx_
 351:/home/lsk/paparazzi/var/include/ubx_protocol.h **** #define UBX_CFG_NAV5_fixedAltVar(_ubx_payload) (uint32_t)(*((uint8_t*)_ubx_payload+8)|*((uint8_t*)_
 352:/home/lsk/paparazzi/var/include/ubx_protocol.h **** #define UBX_CFG_NAV5_minElev(_ubx_payload) (int8_t)(*((uint8_t*)_ubx_payload+12))
 353:/home/lsk/paparazzi/var/include/ubx_protocol.h **** #define UBX_CFG_NAV5_drLimit(_ubx_payload) (uint8_t)(*((uint8_t*)_ubx_payload+13))
 354:/home/lsk/paparazzi/var/include/ubx_protocol.h **** #define UBX_CFG_NAV5_dDop(_ubx_payload) (uint16_t)(*((uint8_t*)_ubx_payload+14)|*((uint8_t*)_ubx_pa
 355:/home/lsk/paparazzi/var/include/ubx_protocol.h **** #define UBX_CFG_NAV5_tDop(_ubx_payload) (uint16_t)(*((uint8_t*)_ubx_payload+16)|*((uint8_t*)_ubx_pa
 356:/home/lsk/paparazzi/var/include/ubx_protocol.h **** #define UBX_CFG_NAV5_pAcc(_ubx_payload) (uint16_t)(*((uint8_t*)_ubx_payload+18)|*((uint8_t*)_ubx_pa
 357:/home/lsk/paparazzi/var/include/ubx_protocol.h **** #define UBX_CFG_NAV5_tAcc(_ubx_payload) (uint16_t)(*((uint8_t*)_ubx_payload+20)|*((uint8_t*)_ubx_pa
 358:/home/lsk/paparazzi/var/include/ubx_protocol.h **** #define UBX_CFG_NAV5_staticHoldThresh(_ubx_payload) (uint8_t)(*((uint8_t*)_ubx_payload+22))
 359:/home/lsk/paparazzi/var/include/ubx_protocol.h **** #define UBX_CFG_NAV5_res1(_ubx_payload) (uint8_t)(*((uint8_t*)_ubx_payload+23))
 360:/home/lsk/paparazzi/var/include/ubx_protocol.h **** #define UBX_CFG_NAV5_res2(_ubx_payload) (uint32_t)(*((uint8_t*)_ubx_payload+24)|*((uint8_t*)_ubx_pa
 361:/home/lsk/paparazzi/var/include/ubx_protocol.h **** #define UBX_CFG_NAV5_res3(_ubx_payload) (uint32_t)(*((uint8_t*)_ubx_payload+28)|*((uint8_t*)_ubx_pa
 362:/home/lsk/paparazzi/var/include/ubx_protocol.h **** #define UBX_CFG_NAV5_res4(_ubx_payload) (uint32_t)(*((uint8_t*)_ubx_payload+32)|*((uint8_t*)_ubx_pa
 363:/home/lsk/paparazzi/var/include/ubx_protocol.h **** 
 364:/home/lsk/paparazzi/var/include/ubx_protocol.h **** static inline void UbxSend_CFG_NAV5(struct link_device *dev, uint16_t mask, uint8_t dynmodel, uint8
 365:/home/lsk/paparazzi/var/include/ubx_protocol.h ****   ubx_header(dev, UBX_CFG_ID, UBX_CFG_NAV5_ID, 36);
 366:/home/lsk/paparazzi/var/include/ubx_protocol.h ****   uint16_t _mask = mask; ubx_send_bytes(dev, 2, (uint8_t*)&_mask);
 367:/home/lsk/paparazzi/var/include/ubx_protocol.h ****   uint8_t _dynmodel = dynmodel; ubx_send_bytes(dev, 1, (uint8_t*)&_dynmodel);
 368:/home/lsk/paparazzi/var/include/ubx_protocol.h ****   uint8_t _fixmodel = fixmodel; ubx_send_bytes(dev, 1, (uint8_t*)&_fixmodel);
 369:/home/lsk/paparazzi/var/include/ubx_protocol.h ****   int32_t _fixedalt = fixedalt; ubx_send_bytes(dev, 4, (uint8_t*)&_fixedalt);
 370:/home/lsk/paparazzi/var/include/ubx_protocol.h ****   uint32_t _fixedaltvar = fixedaltvar; ubx_send_bytes(dev, 4, (uint8_t*)&_fixedaltvar);
 371:/home/lsk/paparazzi/var/include/ubx_protocol.h ****   int8_t _minelev = minelev; ubx_send_bytes(dev, 1, (uint8_t*)&_minelev);
 372:/home/lsk/paparazzi/var/include/ubx_protocol.h ****   uint8_t _drlimit = drlimit; ubx_send_bytes(dev, 1, (uint8_t*)&_drlimit);
 373:/home/lsk/paparazzi/var/include/ubx_protocol.h ****   uint16_t _ddop = ddop; ubx_send_bytes(dev, 2, (uint8_t*)&_ddop);
 374:/home/lsk/paparazzi/var/include/ubx_protocol.h ****   uint16_t _tdop = tdop; ubx_send_bytes(dev, 2, (uint8_t*)&_tdop);
 375:/home/lsk/paparazzi/var/include/ubx_protocol.h ****   uint16_t _pacc = pacc; ubx_send_bytes(dev, 2, (uint8_t*)&_pacc);
 376:/home/lsk/paparazzi/var/include/ubx_protocol.h ****   uint16_t _tacc = tacc; ubx_send_bytes(dev, 2, (uint8_t*)&_tacc);
 377:/home/lsk/paparazzi/var/include/ubx_protocol.h ****   uint8_t _staticholdthresh = staticholdthresh; ubx_send_bytes(dev, 1, (uint8_t*)&_staticholdthresh
 378:/home/lsk/paparazzi/var/include/ubx_protocol.h ****   uint8_t _res1 = res1; ubx_send_bytes(dev, 1, (uint8_t*)&_res1);
 379:/home/lsk/paparazzi/var/include/ubx_protocol.h ****   uint32_t _res2 = res2; ubx_send_bytes(dev, 4, (uint8_t*)&_res2);
 380:/home/lsk/paparazzi/var/include/ubx_protocol.h ****   uint32_t _res3 = res3; ubx_send_bytes(dev, 4, (uint8_t*)&_res3);
 381:/home/lsk/paparazzi/var/include/ubx_protocol.h ****   uint32_t _res4 = res4; ubx_send_bytes(dev, 4, (uint8_t*)&_res4);
 382:/home/lsk/paparazzi/var/include/ubx_protocol.h ****   ubx_trailer(dev);
 383:/home/lsk/paparazzi/var/include/ubx_protocol.h **** }
 384:/home/lsk/paparazzi/var/include/ubx_protocol.h **** 
 385:/home/lsk/paparazzi/var/include/ubx_protocol.h **** #define UBX_ACK_ID 0x05
 386:/home/lsk/paparazzi/var/include/ubx_protocol.h **** 
 387:/home/lsk/paparazzi/var/include/ubx_protocol.h **** #define UBX_ACK_ACK_ID 0x01
 388:/home/lsk/paparazzi/var/include/ubx_protocol.h **** #define UBX_ACK_ACK_ClsID(_ubx_payload) (uint8_t)(*((uint8_t*)_ubx_payload+0))
 389:/home/lsk/paparazzi/var/include/ubx_protocol.h **** #define UBX_ACK_ACK_MsgID(_ubx_payload) (uint8_t)(*((uint8_t*)_ubx_payload+1))
 390:/home/lsk/paparazzi/var/include/ubx_protocol.h **** 
 391:/home/lsk/paparazzi/var/include/ubx_protocol.h **** static inline void UbxSend_ACK_ACK(struct link_device *dev, uint8_t clsid, uint8_t msgid) {
 392:/home/lsk/paparazzi/var/include/ubx_protocol.h ****   ubx_header(dev, UBX_ACK_ID, UBX_ACK_ACK_ID, 2);
 393:/home/lsk/paparazzi/var/include/ubx_protocol.h ****   uint8_t _clsid = clsid; ubx_send_bytes(dev, 1, (uint8_t*)&_clsid);
 394:/home/lsk/paparazzi/var/include/ubx_protocol.h ****   uint8_t _msgid = msgid; ubx_send_bytes(dev, 1, (uint8_t*)&_msgid);
 395:/home/lsk/paparazzi/var/include/ubx_protocol.h ****   ubx_trailer(dev);
 396:/home/lsk/paparazzi/var/include/ubx_protocol.h **** }
 397:/home/lsk/paparazzi/var/include/ubx_protocol.h **** 
 398:/home/lsk/paparazzi/var/include/ubx_protocol.h **** #define UBX_ACK_NAK_ID 0x00
 399:/home/lsk/paparazzi/var/include/ubx_protocol.h **** #define UBX_ACK_NAK_ClsID(_ubx_payload) (uint8_t)(*((uint8_t*)_ubx_payload+0))
 400:/home/lsk/paparazzi/var/include/ubx_protocol.h **** #define UBX_ACK_NAK_MsgID(_ubx_payload) (uint8_t)(*((uint8_t*)_ubx_payload+1))
 401:/home/lsk/paparazzi/var/include/ubx_protocol.h **** 
 402:/home/lsk/paparazzi/var/include/ubx_protocol.h **** static inline void UbxSend_ACK_NAK(struct link_device *dev, uint8_t clsid, uint8_t msgid) {
 403:/home/lsk/paparazzi/var/include/ubx_protocol.h ****   ubx_header(dev, UBX_ACK_ID, UBX_ACK_NAK_ID, 2);
 404:/home/lsk/paparazzi/var/include/ubx_protocol.h ****   uint8_t _clsid = clsid; ubx_send_bytes(dev, 1, (uint8_t*)&_clsid);
 405:/home/lsk/paparazzi/var/include/ubx_protocol.h ****   uint8_t _msgid = msgid; ubx_send_bytes(dev, 1, (uint8_t*)&_msgid);
 406:/home/lsk/paparazzi/var/include/ubx_protocol.h ****   ubx_trailer(dev);
 407:/home/lsk/paparazzi/var/include/ubx_protocol.h **** }
 408:/home/lsk/paparazzi/var/include/ubx_protocol.h **** 
 409:/home/lsk/paparazzi/var/include/ubx_protocol.h **** #define UBX_RXM_ID 0x02
 410:/home/lsk/paparazzi/var/include/ubx_protocol.h **** 
 411:/home/lsk/paparazzi/var/include/ubx_protocol.h **** #define UBX_RXM_RAW_ID 0x10
 412:/home/lsk/paparazzi/var/include/ubx_protocol.h **** #define UBX_RXM_RAW_iTOW(_ubx_payload) (int32_t)(*((uint8_t*)_ubx_payload+0)|*((uint8_t*)_ubx_paylo
 413:/home/lsk/paparazzi/var/include/ubx_protocol.h **** #define UBX_RXM_RAW_week(_ubx_payload) (int16_t)(*((uint8_t*)_ubx_payload+4)|*((uint8_t*)_ubx_paylo
 414:/home/lsk/paparazzi/var/include/ubx_protocol.h **** #define UBX_RXM_RAW_numSV(_ubx_payload) (uint8_t)(*((uint8_t*)_ubx_payload+6))
 415:/home/lsk/paparazzi/var/include/ubx_protocol.h **** #define UBX_RXM_RAW_reserverd1(_ubx_payload) (uint8_t)(*((uint8_t*)_ubx_payload+7))
 416:/home/lsk/paparazzi/var/include/ubx_protocol.h **** #define UBX_RXM_RAW_cpMes(_ubx_payload,_ubx_block) ({ union { uint64_t u; double f; } _f; _f.u = (u
 417:/home/lsk/paparazzi/var/include/ubx_protocol.h **** #define UBX_RXM_RAW_prMes(_ubx_payload,_ubx_block) ({ union { uint64_t u; double f; } _f; _f.u = (u
 418:/home/lsk/paparazzi/var/include/ubx_protocol.h **** #define UBX_RXM_RAW_doMes(_ubx_payload,_ubx_block) ({ union { uint32_t u; float f; } _f; _f.u = (ui
 419:/home/lsk/paparazzi/var/include/ubx_protocol.h **** #define UBX_RXM_RAW_sv(_ubx_payload,_ubx_block) (uint8_t)(*((uint8_t*)_ubx_payload+28+24*_ubx_block
 420:/home/lsk/paparazzi/var/include/ubx_protocol.h **** #define UBX_RXM_RAW_mesQI(_ubx_payload,_ubx_block) (int8_t)(*((uint8_t*)_ubx_payload+29+24*_ubx_blo
 421:/home/lsk/paparazzi/var/include/ubx_protocol.h **** #define UBX_RXM_RAW_cno(_ubx_payload,_ubx_block) (int8_t)(*((uint8_t*)_ubx_payload+30+24*_ubx_block
 422:/home/lsk/paparazzi/var/include/ubx_protocol.h **** #define UBX_RXM_RAW_lli(_ubx_payload,_ubx_block) (uint8_t)(*((uint8_t*)_ubx_payload+31+24*_ubx_bloc
 423:/home/lsk/paparazzi/var/include/ubx_protocol.h **** 
 424:/home/lsk/paparazzi/var/include/ubx_protocol.h **** static inline void UbxSend_RXM_RAW(struct link_device *dev, int32_t itow, int16_t week, uint8_t num
 425:/home/lsk/paparazzi/var/include/ubx_protocol.h ****   ubx_header(dev, UBX_RXM_ID, UBX_RXM_RAW_ID, 32);
 426:/home/lsk/paparazzi/var/include/ubx_protocol.h ****   int32_t _itow = itow; ubx_send_bytes(dev, 4, (uint8_t*)&_itow);
 427:/home/lsk/paparazzi/var/include/ubx_protocol.h ****   int16_t _week = week; ubx_send_bytes(dev, 2, (uint8_t*)&_week);
 428:/home/lsk/paparazzi/var/include/ubx_protocol.h ****   uint8_t _numsv = numsv; ubx_send_bytes(dev, 1, (uint8_t*)&_numsv);
 429:/home/lsk/paparazzi/var/include/ubx_protocol.h ****   uint8_t _reserverd1 = reserverd1; ubx_send_bytes(dev, 1, (uint8_t*)&_reserverd1);
 430:/home/lsk/paparazzi/var/include/ubx_protocol.h ****   double _cpmes = cpmes; ubx_send_bytes(dev, 8, (uint8_t*)&_cpmes);
 431:/home/lsk/paparazzi/var/include/ubx_protocol.h ****   double _prmes = prmes; ubx_send_bytes(dev, 8, (uint8_t*)&_prmes);
 432:/home/lsk/paparazzi/var/include/ubx_protocol.h ****   float _domes = domes; ubx_send_bytes(dev, 4, (uint8_t*)&_domes);
 433:/home/lsk/paparazzi/var/include/ubx_protocol.h ****   uint8_t _sv = sv; ubx_send_bytes(dev, 1, (uint8_t*)&_sv);
 434:/home/lsk/paparazzi/var/include/ubx_protocol.h ****   int8_t _mesqi = mesqi; ubx_send_bytes(dev, 1, (uint8_t*)&_mesqi);
 435:/home/lsk/paparazzi/var/include/ubx_protocol.h ****   int8_t _cno = cno; ubx_send_bytes(dev, 1, (uint8_t*)&_cno);
 436:/home/lsk/paparazzi/var/include/ubx_protocol.h ****   uint8_t _lli = lli; ubx_send_bytes(dev, 1, (uint8_t*)&_lli);
 437:/home/lsk/paparazzi/var/include/ubx_protocol.h ****   ubx_trailer(dev);
 438:/home/lsk/paparazzi/var/include/ubx_protocol.h **** }
 439:/home/lsk/paparazzi/var/include/ubx_protocol.h **** 
 440:/home/lsk/paparazzi/var/include/ubx_protocol.h **** #define UBX_RXM_SFRB_ID 0x11
 441:/home/lsk/paparazzi/var/include/ubx_protocol.h **** #define UBX_RXM_SFRB_chn(_ubx_payload) (uint8_t)(*((uint8_t*)_ubx_payload+0))
 442:/home/lsk/paparazzi/var/include/ubx_protocol.h **** #define UBX_RXM_SFRB_svid(_ubx_payload) (uint8_t)(*((uint8_t*)_ubx_payload+1))
 443:/home/lsk/paparazzi/var/include/ubx_protocol.h **** #define UBX_RXM_SFRB_dwrd0(_ubx_payload) (uint32_t)(*((uint8_t*)_ubx_payload+2)|*((uint8_t*)_ubx_pa
 444:/home/lsk/paparazzi/var/include/ubx_protocol.h **** #define UBX_RXM_SFRB_dwrd1(_ubx_payload) (uint32_t)(*((uint8_t*)_ubx_payload+6)|*((uint8_t*)_ubx_pa
 445:/home/lsk/paparazzi/var/include/ubx_protocol.h **** #define UBX_RXM_SFRB_dwrd2(_ubx_payload) (uint32_t)(*((uint8_t*)_ubx_payload+10)|*((uint8_t*)_ubx_p
 446:/home/lsk/paparazzi/var/include/ubx_protocol.h **** #define UBX_RXM_SFRB_dwrd3(_ubx_payload) (uint32_t)(*((uint8_t*)_ubx_payload+14)|*((uint8_t*)_ubx_p
 447:/home/lsk/paparazzi/var/include/ubx_protocol.h **** #define UBX_RXM_SFRB_dwrd4(_ubx_payload) (uint32_t)(*((uint8_t*)_ubx_payload+18)|*((uint8_t*)_ubx_p
 448:/home/lsk/paparazzi/var/include/ubx_protocol.h **** #define UBX_RXM_SFRB_dwrd5(_ubx_payload) (uint32_t)(*((uint8_t*)_ubx_payload+22)|*((uint8_t*)_ubx_p
 449:/home/lsk/paparazzi/var/include/ubx_protocol.h **** #define UBX_RXM_SFRB_dwrd6(_ubx_payload) (uint32_t)(*((uint8_t*)_ubx_payload+26)|*((uint8_t*)_ubx_p
 450:/home/lsk/paparazzi/var/include/ubx_protocol.h **** #define UBX_RXM_SFRB_dwrd7(_ubx_payload) (uint32_t)(*((uint8_t*)_ubx_payload+30)|*((uint8_t*)_ubx_p
 451:/home/lsk/paparazzi/var/include/ubx_protocol.h **** #define UBX_RXM_SFRB_dwrd8(_ubx_payload) (uint32_t)(*((uint8_t*)_ubx_payload+34)|*((uint8_t*)_ubx_p
 452:/home/lsk/paparazzi/var/include/ubx_protocol.h **** #define UBX_RXM_SFRB_dwrd9(_ubx_payload) (uint32_t)(*((uint8_t*)_ubx_payload+38)|*((uint8_t*)_ubx_p
 453:/home/lsk/paparazzi/var/include/ubx_protocol.h **** 
 454:/home/lsk/paparazzi/var/include/ubx_protocol.h **** static inline void UbxSend_RXM_SFRB(struct link_device *dev, uint8_t chn, uint8_t svid, uint32_t dw
 455:/home/lsk/paparazzi/var/include/ubx_protocol.h ****   ubx_header(dev, UBX_RXM_ID, UBX_RXM_SFRB_ID, 42);
 456:/home/lsk/paparazzi/var/include/ubx_protocol.h ****   uint8_t _chn = chn; ubx_send_bytes(dev, 1, (uint8_t*)&_chn);
 457:/home/lsk/paparazzi/var/include/ubx_protocol.h ****   uint8_t _svid = svid; ubx_send_bytes(dev, 1, (uint8_t*)&_svid);
 458:/home/lsk/paparazzi/var/include/ubx_protocol.h ****   uint32_t _dwrd0 = dwrd0; ubx_send_bytes(dev, 4, (uint8_t*)&_dwrd0);
 459:/home/lsk/paparazzi/var/include/ubx_protocol.h ****   uint32_t _dwrd1 = dwrd1; ubx_send_bytes(dev, 4, (uint8_t*)&_dwrd1);
 460:/home/lsk/paparazzi/var/include/ubx_protocol.h ****   uint32_t _dwrd2 = dwrd2; ubx_send_bytes(dev, 4, (uint8_t*)&_dwrd2);
 461:/home/lsk/paparazzi/var/include/ubx_protocol.h ****   uint32_t _dwrd3 = dwrd3; ubx_send_bytes(dev, 4, (uint8_t*)&_dwrd3);
 462:/home/lsk/paparazzi/var/include/ubx_protocol.h ****   uint32_t _dwrd4 = dwrd4; ubx_send_bytes(dev, 4, (uint8_t*)&_dwrd4);
 463:/home/lsk/paparazzi/var/include/ubx_protocol.h ****   uint32_t _dwrd5 = dwrd5; ubx_send_bytes(dev, 4, (uint8_t*)&_dwrd5);
 464:/home/lsk/paparazzi/var/include/ubx_protocol.h ****   uint32_t _dwrd6 = dwrd6; ubx_send_bytes(dev, 4, (uint8_t*)&_dwrd6);
 465:/home/lsk/paparazzi/var/include/ubx_protocol.h ****   uint32_t _dwrd7 = dwrd7; ubx_send_bytes(dev, 4, (uint8_t*)&_dwrd7);
 466:/home/lsk/paparazzi/var/include/ubx_protocol.h ****   uint32_t _dwrd8 = dwrd8; ubx_send_bytes(dev, 4, (uint8_t*)&_dwrd8);
 467:/home/lsk/paparazzi/var/include/ubx_protocol.h ****   uint32_t _dwrd9 = dwrd9; ubx_send_bytes(dev, 4, (uint8_t*)&_dwrd9);
 468:/home/lsk/paparazzi/var/include/ubx_protocol.h ****   ubx_trailer(dev);
 469:/home/lsk/paparazzi/var/include/ubx_protocol.h **** }
 470:/home/lsk/paparazzi/var/include/ubx_protocol.h **** 
 471:/home/lsk/paparazzi/var/include/ubx_protocol.h **** #define UBX_MON_ID 0x0A
 472:/home/lsk/paparazzi/var/include/ubx_protocol.h **** 
 473:/home/lsk/paparazzi/var/include/ubx_protocol.h **** #define UBX_MON_GET_VER_ID 0x04
 474:/home/lsk/paparazzi/var/include/ubx_protocol.h **** 
 475:/home/lsk/paparazzi/var/include/ubx_protocol.h **** static inline void UbxSend_MON_GET_VER(struct link_device *dev) {
 476:/home/lsk/paparazzi/var/include/ubx_protocol.h ****   ubx_header(dev, UBX_MON_ID, UBX_MON_GET_VER_ID, 0);
 578              		.loc 2 476 0
 579 0128 2846     		mov	r0, r5
 580 012a 0A21     		movs	r1, #10
 581 012c 0422     		movs	r2, #4
 582 012e 0023     		movs	r3, #0
 583 0130 FFF7FEFF 		bl	ubx_header
 584              	.LVL47:
 585 0134 C0E1     		b	.L62
 586              	.LVL48:
 587              	.L35:
 588              	.LBE44:
 589              	.LBE43:
 458:modules/gps/gps_ubx_ucenter.c ****       break;
 459:modules/gps/gps_ubx_ucenter.c ****     case 2:
 460:modules/gps/gps_ubx_ucenter.c ****     case 3:
 461:modules/gps/gps_ubx_ucenter.c ****     case 4:
 462:modules/gps/gps_ubx_ucenter.c ****     case 5:
 463:modules/gps/gps_ubx_ucenter.c ****       // UBX_G5010 takes 0.7 seconds to answer a firmware request
 464:modules/gps/gps_ubx_ucenter.c ****       // Version info is important for proper configuration as different firmwares have different s
 465:modules/gps/gps_ubx_ucenter.c ****       break;
 466:modules/gps/gps_ubx_ucenter.c ****     case 6:
 467:modules/gps/gps_ubx_ucenter.c ****       // Send some debugging info: detected baudrate, software version etc...
 468:modules/gps/gps_ubx_ucenter.c ****       gps_ubx_ucenter.replies[0] = (gps_ubx_ucenter.baud_init / 1000);
 590              		.loc 1 468 0
 591 0136 6368     		ldr	r3, [r4, #4]
 592              	.LVL49:
 469:modules/gps/gps_ubx_ucenter.c ****       gps_ubx_ucenter.replies[1] = (gps_ubx_ucenter.baud_init - 1000 * gps_ubx_ucenter.replies[0]) 
 593              		.loc 1 469 0
 594 0138 6549     		ldr	r1, .L70+8
 468:modules/gps/gps_ubx_ucenter.c ****       gps_ubx_ucenter.replies[0] = (gps_ubx_ucenter.baud_init / 1000);
 595              		.loc 1 468 0
 596 013a 4FF47A78 		mov	r8, #1000
 597 013e B3FBF8F2 		udiv	r2, r3, r8
 598 0142 E274     		strb	r2, [r4, #19]
 599 0144 D2B2     		uxtb	r2, r2
 600              		.loc 1 469 0
 601 0146 01FB0233 		mla	r3, r1, r2, r3
 602 014a 6427     		movs	r7, #100
 603 014c B3FBF7F3 		udiv	r3, r3, r7
 470:modules/gps/gps_ubx_ucenter.c ****       gps_ubx_ucenter.replies[2] = gps_ubx_ucenter.sw_ver_h;
 604              		.loc 1 470 0
 605 0150 227B     		ldrb	r2, [r4, #12]	@ zero_extendqisi2
 469:modules/gps/gps_ubx_ucenter.c ****       gps_ubx_ucenter.replies[1] = (gps_ubx_ucenter.baud_init - 1000 * gps_ubx_ucenter.replies[0]) 
 606              		.loc 1 469 0
 607 0152 2375     		strb	r3, [r4, #20]
 471:modules/gps/gps_ubx_ucenter.c ****       gps_ubx_ucenter.replies[3] = gps_ubx_ucenter.sw_ver_l;
 608              		.loc 1 471 0
 609 0154 637B     		ldrb	r3, [r4, #13]	@ zero_extendqisi2
 610 0156 A375     		strb	r3, [r4, #22]
 472:modules/gps/gps_ubx_ucenter.c ****       gps_ubx_ucenter.replies[4] = gps_ubx_ucenter.hw_ver_h;
 473:modules/gps/gps_ubx_ucenter.c ****       gps_ubx_ucenter.replies[5] = gps_ubx_ucenter.hw_ver_l;
 611              		.loc 1 473 0
 612 0158 218A     		ldrh	r1, [r4, #16]
 472:modules/gps/gps_ubx_ucenter.c ****       gps_ubx_ucenter.replies[4] = gps_ubx_ucenter.hw_ver_h;
 613              		.loc 1 472 0
 614 015a E389     		ldrh	r3, [r4, #14]
 470:modules/gps/gps_ubx_ucenter.c ****       gps_ubx_ucenter.replies[2] = gps_ubx_ucenter.sw_ver_h;
 615              		.loc 1 470 0
 616 015c 6275     		strb	r2, [r4, #21]
 617              	.LBB45:
 618              	.LBB46:
 335:modules/gps/gps_ubx_ucenter.c ****   if (gps_ubx_ucenter.sw_ver_h < 5 && gps_ubx_ucenter.hw_ver_h < 6) {
 619              		.loc 1 335 0
 620 015e 042A     		cmp	r2, #4
 621              	.LBE46:
 622              	.LBE45:
 472:modules/gps/gps_ubx_ucenter.c ****       gps_ubx_ucenter.replies[4] = gps_ubx_ucenter.hw_ver_h;
 623              		.loc 1 472 0
 624 0160 E375     		strb	r3, [r4, #23]
 625              		.loc 1 473 0
 626 0162 2176     		strb	r1, [r4, #24]
 627              	.LBB52:
 628              	.LBB51:
 335:modules/gps/gps_ubx_ucenter.c ****   if (gps_ubx_ucenter.sw_ver_h < 5 && gps_ubx_ucenter.hw_ver_h < 6) {
 629              		.loc 1 335 0
 630 0164 00F2B680 		bhi	.L48
 631 0168 052B     		cmp	r3, #5
 632 016a 00F2B380 		bhi	.L48
 336:modules/gps/gps_ubx_ucenter.c ****     UbxSend_CFG_NAV(gps_ubx_ucenter.dev,
 633              		.loc 1 336 0
 634 016e 564B     		ldr	r3, .L70
 635 0170 9D6A     		ldr	r5, [r3, #40]
 636              	.LVL50:
 637              	.LBB47:
 638              	.LBB48:
 265:/home/lsk/paparazzi/var/include/ubx_protocol.h ****   ubx_header(dev, UBX_CFG_ID, UBX_CFG_NAV_ID, 28);
 639              		.loc 2 265 0
 640 0172 0621     		movs	r1, #6
 641 0174 2846     		mov	r0, r5
 642 0176 0322     		movs	r2, #3
 643 0178 1C23     		movs	r3, #28
 644 017a FFF7FEFF 		bl	ubx_header
 645              	.LVL51:
 266:/home/lsk/paparazzi/var/include/ubx_protocol.h ****   uint8_t _platform = platform; ubx_send_bytes(dev, 1, (uint8_t*)&_platform);
 646              		.loc 2 266 0
 647 017e 0CAA     		add	r2, sp, #48
 648 0180 0623     		movs	r3, #6
 649 0182 02F8293D 		strb	r3, [r2, #-41]!
 650 0186 2846     		mov	r0, r5
 651 0188 0121     		movs	r1, #1
 652 018a FFF7FEFF 		bl	ubx_send_bytes
 653              	.LVL52:
 267:/home/lsk/paparazzi/var/include/ubx_protocol.h ****   uint8_t _minsvs = minsvs; ubx_send_bytes(dev, 1, (uint8_t*)&_minsvs);
 654              		.loc 2 267 0
 655 018e 0CAA     		add	r2, sp, #48
 656 0190 0323     		movs	r3, #3
 657 0192 02F8283D 		strb	r3, [r2, #-40]!
 658 0196 2846     		mov	r0, r5
 659 0198 0121     		movs	r1, #1
 660 019a FFF7FEFF 		bl	ubx_send_bytes
 661              	.LVL53:
 268:/home/lsk/paparazzi/var/include/ubx_protocol.h ****   uint8_t _maxsvs = maxsvs; ubx_send_bytes(dev, 1, (uint8_t*)&_maxsvs);
 662              		.loc 2 268 0
 663 019e 0CAA     		add	r2, sp, #48
 664 01a0 1023     		movs	r3, #16
 665 01a2 02F8273D 		strb	r3, [r2, #-39]!
 666 01a6 2846     		mov	r0, r5
 667 01a8 0121     		movs	r1, #1
 668 01aa FFF7FEFF 		bl	ubx_send_bytes
 669              	.LVL54:
 269:/home/lsk/paparazzi/var/include/ubx_protocol.h ****   uint8_t _mincn0 = mincn0; ubx_send_bytes(dev, 1, (uint8_t*)&_mincn0);
 670              		.loc 2 269 0
 671 01ae 0CAA     		add	r2, sp, #48
 672 01b0 1823     		movs	r3, #24
 673 01b2 02F8263D 		strb	r3, [r2, #-38]!
 674 01b6 2846     		mov	r0, r5
 675 01b8 0121     		movs	r1, #1
 676 01ba FFF7FEFF 		bl	ubx_send_bytes
 677              	.LVL55:
 270:/home/lsk/paparazzi/var/include/ubx_protocol.h ****   uint8_t _abscn0 = abscn0; ubx_send_bytes(dev, 1, (uint8_t*)&_abscn0);
 678              		.loc 2 270 0
 679 01be 0CAA     		add	r2, sp, #48
 680 01c0 4FF01409 		mov	r9, #20
 681 01c4 02F8259D 		strb	r9, [r2, #-37]!
 682 01c8 2846     		mov	r0, r5
 683 01ca 0121     		movs	r1, #1
 684 01cc FFF7FEFF 		bl	ubx_send_bytes
 685              	.LVL56:
 271:/home/lsk/paparazzi/var/include/ubx_protocol.h ****   uint8_t _minele = minele; ubx_send_bytes(dev, 1, (uint8_t*)&_minele);
 686              		.loc 2 271 0
 687 01d0 0523     		movs	r3, #5
 688 01d2 2846     		mov	r0, r5
 689 01d4 0121     		movs	r1, #1
 690 01d6 03AA     		add	r2, sp, #12
 691 01d8 8DF80C30 		strb	r3, [sp, #12]
 272:/home/lsk/paparazzi/var/include/ubx_protocol.h ****   uint8_t _dgpsttr = dgpsttr; ubx_send_bytes(dev, 1, (uint8_t*)&_dgpsttr);
 692              		.loc 2 272 0
 693 01dc 0026     		movs	r6, #0
 271:/home/lsk/paparazzi/var/include/ubx_protocol.h ****   uint8_t _minele = minele; ubx_send_bytes(dev, 1, (uint8_t*)&_minele);
 694              		.loc 2 271 0
 695 01de FFF7FEFF 		bl	ubx_send_bytes
 696              	.LVL57:
 272:/home/lsk/paparazzi/var/include/ubx_protocol.h ****   uint8_t _dgpsttr = dgpsttr; ubx_send_bytes(dev, 1, (uint8_t*)&_dgpsttr);
 697              		.loc 2 272 0
 698 01e2 2846     		mov	r0, r5
 699 01e4 0121     		movs	r1, #1
 700 01e6 0DF10D02 		add	r2, sp, #13
 273:/home/lsk/paparazzi/var/include/ubx_protocol.h ****   uint8_t _dgpst0 = dgpst0; ubx_send_bytes(dev, 1, (uint8_t*)&_dgpst0);
 701              		.loc 2 273 0
 702 01ea 4FF03C0A 		mov	r10, #60
 272:/home/lsk/paparazzi/var/include/ubx_protocol.h ****   uint8_t _dgpsttr = dgpsttr; ubx_send_bytes(dev, 1, (uint8_t*)&_dgpsttr);
 703              		.loc 2 272 0
 704 01ee 8DF80D60 		strb	r6, [sp, #13]
 705 01f2 FFF7FEFF 		bl	ubx_send_bytes
 706              	.LVL58:
 273:/home/lsk/paparazzi/var/include/ubx_protocol.h ****   uint8_t _dgpst0 = dgpst0; ubx_send_bytes(dev, 1, (uint8_t*)&_dgpst0);
 707              		.loc 2 273 0
 708 01f6 2846     		mov	r0, r5
 709 01f8 0121     		movs	r1, #1
 710 01fa 0DF10E02 		add	r2, sp, #14
 711 01fe 8DF80EA0 		strb	r10, [sp, #14]
 712 0202 FFF7FEFF 		bl	ubx_send_bytes
 713              	.LVL59:
 274:/home/lsk/paparazzi/var/include/ubx_protocol.h ****   uint8_t _prcage = prcage; ubx_send_bytes(dev, 1, (uint8_t*)&_prcage);
 714              		.loc 2 274 0
 715 0206 2846     		mov	r0, r5
 716 0208 0121     		movs	r1, #1
 717 020a 0DF10F02 		add	r2, sp, #15
 718 020e 8DF80FA0 		strb	r10, [sp, #15]
 719 0212 FFF7FEFF 		bl	ubx_send_bytes
 720              	.LVL60:
 275:/home/lsk/paparazzi/var/include/ubx_protocol.h ****   uint8_t _cpcage = cpcage; ubx_send_bytes(dev, 1, (uint8_t*)&_cpcage);
 721              		.loc 2 275 0
 722 0216 0CAA     		add	r2, sp, #48
 723 0218 2846     		mov	r0, r5
 724 021a 02F8209D 		strb	r9, [r2, #-32]!
 725 021e 0121     		movs	r1, #1
 726 0220 FFF7FEFF 		bl	ubx_send_bytes
 727              	.LVL61:
 276:/home/lsk/paparazzi/var/include/ubx_protocol.h ****   uint16_t _minclt = minclt; ubx_send_bytes(dev, 2, (uint8_t*)&_minclt);
 728              		.loc 2 276 0
 729 0224 0CAA     		add	r2, sp, #48
 730 0226 2846     		mov	r0, r5
 731 0228 22F8188D 		strh	r8, [r2, #-24]!	@ movhi
 732 022c 0221     		movs	r1, #2
 733 022e FFF7FEFF 		bl	ubx_send_bytes
 734              	.LVL62:
 277:/home/lsk/paparazzi/var/include/ubx_protocol.h ****   uint16_t _absclt = absclt; ubx_send_bytes(dev, 2, (uint8_t*)&_absclt);
 735              		.loc 2 277 0
 736 0232 0CAA     		add	r2, sp, #48
 737 0234 2846     		mov	r0, r5
 738 0236 22F8166D 		strh	r6, [r2, #-22]!	@ movhi
 739 023a 0221     		movs	r1, #2
 740 023c FFF7FEFF 		bl	ubx_send_bytes
 741              	.LVL63:
 278:/home/lsk/paparazzi/var/include/ubx_protocol.h ****   uint8_t _maxdr = maxdr; ubx_send_bytes(dev, 1, (uint8_t*)&_maxdr);
 742              		.loc 2 278 0
 743 0240 0CAA     		add	r2, sp, #48
 744 0242 2846     		mov	r0, r5
 745 0244 02F81F6D 		strb	r6, [r2, #-31]!
 746 0248 0121     		movs	r1, #1
 747 024a FFF7FEFF 		bl	ubx_send_bytes
 748              	.LVL64:
 279:/home/lsk/paparazzi/var/include/ubx_protocol.h ****   uint8_t _navopt = navopt; ubx_send_bytes(dev, 1, (uint8_t*)&_navopt);
 749              		.loc 2 279 0
 750 024e 0CAA     		add	r2, sp, #48
 751 0250 1723     		movs	r3, #23
 752 0252 02F81E3D 		strb	r3, [r2, #-30]!
 753 0256 2846     		mov	r0, r5
 754 0258 0121     		movs	r1, #1
 755 025a FFF7FEFF 		bl	ubx_send_bytes
 756              	.LVL65:
 280:/home/lsk/paparazzi/var/include/ubx_protocol.h ****   uint16_t _pdop = pdop; ubx_send_bytes(dev, 2, (uint8_t*)&_pdop);
 757              		.loc 2 280 0
 758 025e 0CAA     		add	r2, sp, #48
 759 0260 4FF0FA08 		mov	r8, #250
 760 0264 22F8148D 		strh	r8, [r2, #-20]!	@ movhi
 761 0268 2846     		mov	r0, r5
 762 026a 0221     		movs	r1, #2
 763 026c FFF7FEFF 		bl	ubx_send_bytes
 764              	.LVL66:
 281:/home/lsk/paparazzi/var/include/ubx_protocol.h ****   uint16_t _tdop = tdop; ubx_send_bytes(dev, 2, (uint8_t*)&_tdop);
 765              		.loc 2 281 0
 766 0270 0CAA     		add	r2, sp, #48
 767 0272 2846     		mov	r0, r5
 768 0274 22F8108D 		strh	r8, [r2, #-16]!	@ movhi
 769 0278 0221     		movs	r1, #2
 770 027a FFF7FEFF 		bl	ubx_send_bytes
 771              	.LVL67:
 282:/home/lsk/paparazzi/var/include/ubx_protocol.h ****   uint16_t _pacc = pacc; ubx_send_bytes(dev, 2, (uint8_t*)&_pacc);
 772              		.loc 2 282 0
 773 027e 0CAA     		add	r2, sp, #48
 774 0280 2846     		mov	r0, r5
 775 0282 22F80C7D 		strh	r7, [r2, #-12]!	@ movhi
 776 0286 0221     		movs	r1, #2
 777 0288 FFF7FEFF 		bl	ubx_send_bytes
 778              	.LVL68:
 283:/home/lsk/paparazzi/var/include/ubx_protocol.h ****   uint16_t _tacc = tacc; ubx_send_bytes(dev, 2, (uint8_t*)&_tacc);
 779              		.loc 2 283 0
 780 028c 0CAA     		add	r2, sp, #48
 781 028e 4FF49673 		mov	r3, #300
 782 0292 22F8083D 		strh	r3, [r2, #-8]!	@ movhi
 783 0296 2846     		mov	r0, r5
 784 0298 0221     		movs	r1, #2
 785 029a FFF7FEFF 		bl	ubx_send_bytes
 786              	.LVL69:
 284:/home/lsk/paparazzi/var/include/ubx_protocol.h ****   uint16_t _facc = facc; ubx_send_bytes(dev, 2, (uint8_t*)&_facc);
 787              		.loc 2 284 0
 788 029e 0CAA     		add	r2, sp, #48
 789 02a0 0F23     		movs	r3, #15
 790 02a2 22F8043D 		strh	r3, [r2, #-4]!	@ movhi
 791 02a6 2846     		mov	r0, r5
 792 02a8 0221     		movs	r1, #2
 793 02aa FFF7FEFF 		bl	ubx_send_bytes
 794              	.LVL70:
 285:/home/lsk/paparazzi/var/include/ubx_protocol.h ****   uint8_t _staticthres = staticthres; ubx_send_bytes(dev, 1, (uint8_t*)&_staticthres);
 795              		.loc 2 285 0
 796 02ae 0CAA     		add	r2, sp, #48
 797 02b0 2846     		mov	r0, r5
 798 02b2 02F81C6D 		strb	r6, [r2, #-28]!
 799 02b6 0121     		movs	r1, #1
 800 02b8 FFF7FEFF 		bl	ubx_send_bytes
 801              	.LVL71:
 286:/home/lsk/paparazzi/var/include/ubx_protocol.h ****   uint8_t _reserved = reserved; ubx_send_bytes(dev, 1, (uint8_t*)&_reserved);
 802              		.loc 2 286 0
 803 02bc 0CAA     		add	r2, sp, #48
 804 02be 2846     		mov	r0, r5
 805 02c0 02F81A6D 		strb	r6, [r2, #-26]!
 806 02c4 0121     		movs	r1, #1
 807 02c6 F5E0     		b	.L61
 808              	.L71:
 809              		.align	2
 810              	.L70:
 811 02c8 00000000 		.word	.LANCHOR0
 812 02cc 00000000 		.word	uart3
 813 02d0 18FCFFFF 		.word	-1000
 814              	.LVL72:
 815              	.L48:
 816              	.LBE48:
 817              	.LBE47:
 341:modules/gps/gps_ubx_ucenter.c ****     UbxSend_CFG_NAV5(gps_ubx_ucenter.dev,
 818              		.loc 1 341 0
 819 02d4 A56A     		ldr	r5, [r4, #40]
 820              	.LVL73:
 821              	.LBB49:
 822              	.LBB50:
 365:/home/lsk/paparazzi/var/include/ubx_protocol.h ****   ubx_header(dev, UBX_CFG_ID, UBX_CFG_NAV5_ID, 36);
 823              		.loc 2 365 0
 824 02d6 2422     		movs	r2, #36
 825 02d8 1346     		mov	r3, r2
 826 02da 2846     		mov	r0, r5
 827 02dc 0621     		movs	r1, #6
 828 02de FFF7FEFF 		bl	ubx_header
 829              	.LVL74:
 366:/home/lsk/paparazzi/var/include/ubx_protocol.h ****   uint16_t _mask = mask; ubx_send_bytes(dev, 2, (uint8_t*)&_mask);
 830              		.loc 2 366 0
 831 02e2 0CAA     		add	r2, sp, #48
 832 02e4 4FF00508 		mov	r8, #5
 833 02e8 22F81E8D 		strh	r8, [r2, #-30]!	@ movhi
 834 02ec 2846     		mov	r0, r5
 835 02ee 0221     		movs	r1, #2
 836 02f0 FFF7FEFF 		bl	ubx_send_bytes
 837              	.LVL75:
 367:/home/lsk/paparazzi/var/include/ubx_protocol.h ****   uint8_t _dynmodel = dynmodel; ubx_send_bytes(dev, 1, (uint8_t*)&_dynmodel);
 838              		.loc 2 367 0
 839 02f4 0723     		movs	r3, #7
 840 02f6 2846     		mov	r0, r5
 841 02f8 0121     		movs	r1, #1
 842 02fa 03AA     		add	r2, sp, #12
 843 02fc 8DF80C30 		strb	r3, [sp, #12]
 368:/home/lsk/paparazzi/var/include/ubx_protocol.h ****   uint8_t _fixmodel = fixmodel; ubx_send_bytes(dev, 1, (uint8_t*)&_fixmodel);
 844              		.loc 2 368 0
 845 0300 0227     		movs	r7, #2
 367:/home/lsk/paparazzi/var/include/ubx_protocol.h ****   uint8_t _dynmodel = dynmodel; ubx_send_bytes(dev, 1, (uint8_t*)&_dynmodel);
 846              		.loc 2 367 0
 847 0302 FFF7FEFF 		bl	ubx_send_bytes
 848              	.LVL76:
 368:/home/lsk/paparazzi/var/include/ubx_protocol.h ****   uint8_t _fixmodel = fixmodel; ubx_send_bytes(dev, 1, (uint8_t*)&_fixmodel);
 849              		.loc 2 368 0
 850 0306 2846     		mov	r0, r5
 851 0308 0121     		movs	r1, #1
 852 030a 0DF10D02 		add	r2, sp, #13
 853 030e 8DF80D70 		strb	r7, [sp, #13]
 854 0312 FFF7FEFF 		bl	ubx_send_bytes
 855              	.LVL77:
 369:/home/lsk/paparazzi/var/include/ubx_protocol.h ****   int32_t _fixedalt = fixedalt; ubx_send_bytes(dev, 4, (uint8_t*)&_fixedalt);
 856              		.loc 2 369 0
 857 0316 0CAA     		add	r2, sp, #48
 858 0318 0026     		movs	r6, #0
 859 031a 42F8146D 		str	r6, [r2, #-20]!
 860 031e 2846     		mov	r0, r5
 861 0320 0421     		movs	r1, #4
 862 0322 FFF7FEFF 		bl	ubx_send_bytes
 863              	.LVL78:
 370:/home/lsk/paparazzi/var/include/ubx_protocol.h ****   uint32_t _fixedaltvar = fixedaltvar; ubx_send_bytes(dev, 4, (uint8_t*)&_fixedaltvar);
 864              		.loc 2 370 0
 865 0326 0CAA     		add	r2, sp, #48
 866 0328 2846     		mov	r0, r5
 867 032a 42F8106D 		str	r6, [r2, #-16]!
 868 032e 0421     		movs	r1, #4
 869 0330 FFF7FEFF 		bl	ubx_send_bytes
 870              	.LVL79:
 371:/home/lsk/paparazzi/var/include/ubx_protocol.h ****   int8_t _minelev = minelev; ubx_send_bytes(dev, 1, (uint8_t*)&_minelev);
 871              		.loc 2 371 0
 872 0334 2846     		mov	r0, r5
 873 0336 0121     		movs	r1, #1
 874 0338 0DF10E02 		add	r2, sp, #14
 875 033c 8DF80E80 		strb	r8, [sp, #14]
 876 0340 FFF7FEFF 		bl	ubx_send_bytes
 877              	.LVL80:
 372:/home/lsk/paparazzi/var/include/ubx_protocol.h ****   uint8_t _drlimit = drlimit; ubx_send_bytes(dev, 1, (uint8_t*)&_drlimit);
 878              		.loc 2 372 0
 879 0344 2846     		mov	r0, r5
 880 0346 0121     		movs	r1, #1
 881 0348 0DF10F02 		add	r2, sp, #15
 882 034c 8DF80F60 		strb	r6, [sp, #15]
 883 0350 FFF7FEFF 		bl	ubx_send_bytes
 884              	.LVL81:
 373:/home/lsk/paparazzi/var/include/ubx_protocol.h ****   uint16_t _ddop = ddop; ubx_send_bytes(dev, 2, (uint8_t*)&_ddop);
 885              		.loc 2 373 0
 886 0354 0CAA     		add	r2, sp, #48
 887 0356 4FF01908 		mov	r8, #25
 888 035a 22F81C8D 		strh	r8, [r2, #-28]!	@ movhi
 889 035e 2846     		mov	r0, r5
 890 0360 3946     		mov	r1, r7
 891 0362 FFF7FEFF 		bl	ubx_send_bytes
 892              	.LVL82:
 374:/home/lsk/paparazzi/var/include/ubx_protocol.h ****   uint16_t _tdop = tdop; ubx_send_bytes(dev, 2, (uint8_t*)&_tdop);
 893              		.loc 2 374 0
 894 0366 0CAA     		add	r2, sp, #48
 895 0368 2846     		mov	r0, r5
 896 036a 22F81A8D 		strh	r8, [r2, #-26]!	@ movhi
 897 036e 3946     		mov	r1, r7
 898 0370 FFF7FEFF 		bl	ubx_send_bytes
 899              	.LVL83:
 375:/home/lsk/paparazzi/var/include/ubx_protocol.h ****   uint16_t _pacc = pacc; ubx_send_bytes(dev, 2, (uint8_t*)&_pacc);
 900              		.loc 2 375 0
 901 0374 0CAA     		add	r2, sp, #48
 902 0376 6423     		movs	r3, #100
 903 0378 22F8183D 		strh	r3, [r2, #-24]!	@ movhi
 904 037c 2846     		mov	r0, r5
 905 037e 3946     		mov	r1, r7
 906 0380 FFF7FEFF 		bl	ubx_send_bytes
 907              	.LVL84:
 376:/home/lsk/paparazzi/var/include/ubx_protocol.h ****   uint16_t _tacc = tacc; ubx_send_bytes(dev, 2, (uint8_t*)&_tacc);
 908              		.loc 2 376 0
 909 0384 0CAA     		add	r2, sp, #48
 910 0386 4FF49673 		mov	r3, #300
 911 038a 22F8163D 		strh	r3, [r2, #-22]!	@ movhi
 912 038e 2846     		mov	r0, r5
 913 0390 3946     		mov	r1, r7
 914 0392 FFF7FEFF 		bl	ubx_send_bytes
 915              	.LVL85:
 377:/home/lsk/paparazzi/var/include/ubx_protocol.h ****   uint8_t _staticholdthresh = staticholdthresh; ubx_send_bytes(dev, 1, (uint8_t*)&_staticholdthresh
 916              		.loc 2 377 0
 917 0396 0CAA     		add	r2, sp, #48
 918 0398 2846     		mov	r0, r5
 919 039a 02F8206D 		strb	r6, [r2, #-32]!
 920 039e 0121     		movs	r1, #1
 921 03a0 FFF7FEFF 		bl	ubx_send_bytes
 922              	.LVL86:
 378:/home/lsk/paparazzi/var/include/ubx_protocol.h ****   uint8_t _res1 = res1; ubx_send_bytes(dev, 1, (uint8_t*)&_res1);
 923              		.loc 2 378 0
 924 03a4 0CAA     		add	r2, sp, #48
 925 03a6 2846     		mov	r0, r5
 926 03a8 02F81F6D 		strb	r6, [r2, #-31]!
 927 03ac 0121     		movs	r1, #1
 928 03ae FFF7FEFF 		bl	ubx_send_bytes
 929              	.LVL87:
 379:/home/lsk/paparazzi/var/include/ubx_protocol.h ****   uint32_t _res2 = res2; ubx_send_bytes(dev, 4, (uint8_t*)&_res2);
 930              		.loc 2 379 0
 931 03b2 0CAA     		add	r2, sp, #48
 932 03b4 2846     		mov	r0, r5
 933 03b6 42F80C6D 		str	r6, [r2, #-12]!
 934 03ba 0421     		movs	r1, #4
 935 03bc FFF7FEFF 		bl	ubx_send_bytes
 936              	.LVL88:
 380:/home/lsk/paparazzi/var/include/ubx_protocol.h ****   uint32_t _res3 = res3; ubx_send_bytes(dev, 4, (uint8_t*)&_res3);
 937              		.loc 2 380 0
 938 03c0 0CAA     		add	r2, sp, #48
 939 03c2 42F8086D 		str	r6, [r2, #-8]!
 940 03c6 6CE0     		b	.L64
 941              	.LVL89:
 942              	.L36:
 943              	.LBE50:
 944              	.LBE49:
 945              	.LBE51:
 946              	.LBE52:
 474:modules/gps/gps_ubx_ucenter.c **** #if DEBUG_GPS_UBX_UCENTER
 475:modules/gps/gps_ubx_ucenter.c ****       DOWNLINK_SEND_DEBUG(DefaultChannel, DefaultDevice, 6, gps_ubx_ucenter.replies);
 476:modules/gps/gps_ubx_ucenter.c **** #endif
 477:modules/gps/gps_ubx_ucenter.c ****       // Configure CFG-NAV(5) message
 478:modules/gps/gps_ubx_ucenter.c ****       gps_ubx_ucenter_config_nav();
 479:modules/gps/gps_ubx_ucenter.c ****       break;
 480:modules/gps/gps_ubx_ucenter.c ****     case 7:
 481:modules/gps/gps_ubx_ucenter.c ****       // Geodetic Position Solution
 482:modules/gps/gps_ubx_ucenter.c ****       gps_ubx_ucenter_enable_msg(UBX_NAV_ID, UBX_NAV_POSLLH_ID, 1);
 947              		.loc 1 482 0
 948 03c8 0220     		movs	r0, #2
 949 03ca 00E0     		b	.L65
 950              	.L37:
 483:modules/gps/gps_ubx_ucenter.c ****       break;
 484:modules/gps/gps_ubx_ucenter.c ****     case 8:
 485:modules/gps/gps_ubx_ucenter.c ****       // Velocity Solution in NED
 486:modules/gps/gps_ubx_ucenter.c ****       gps_ubx_ucenter_enable_msg(UBX_NAV_ID, UBX_NAV_VELNED_ID, 1);
 951              		.loc 1 486 0
 952 03cc 1220     		movs	r0, #18
 953              	.L65:
 954 03ce 0121     		movs	r1, #1
 955              	.L67:
 956 03d0 FFF7FEFF 		bl	gps_ubx_ucenter_enable_msg.constprop.0
 957              	.LVL90:
 958 03d4 73E0     		b	.L31
 959              	.LVL91:
 960              	.L38:
 487:modules/gps/gps_ubx_ucenter.c ****       break;
 488:modules/gps/gps_ubx_ucenter.c ****     case 9:
 489:modules/gps/gps_ubx_ucenter.c ****       // Receiver Navigation Status
 490:modules/gps/gps_ubx_ucenter.c ****       gps_ubx_ucenter_enable_msg(UBX_NAV_ID, UBX_NAV_STATUS_ID, 1);
 961              		.loc 1 490 0
 962 03d6 0320     		movs	r0, #3
 963 03d8 F9E7     		b	.L65
 964              	.L39:
 491:modules/gps/gps_ubx_ucenter.c ****       break;
 492:modules/gps/gps_ubx_ucenter.c ****     case 10:
 493:modules/gps/gps_ubx_ucenter.c ****       // Space Vehicle Information
 494:modules/gps/gps_ubx_ucenter.c ****       gps_ubx_ucenter_enable_msg(UBX_NAV_ID, UBX_NAV_SVINFO_ID, 4);
 965              		.loc 1 494 0
 966 03da 3020     		movs	r0, #48
 967 03dc 0421     		movs	r1, #4
 968 03de F7E7     		b	.L67
 969              	.L40:
 495:modules/gps/gps_ubx_ucenter.c ****       break;
 496:modules/gps/gps_ubx_ucenter.c ****     case 11:
 497:modules/gps/gps_ubx_ucenter.c ****       // Navigation Solution Information
 498:modules/gps/gps_ubx_ucenter.c **** #if GPS_UBX_UCENTER_SLOW_NAV_SOL
 499:modules/gps/gps_ubx_ucenter.c ****       gps_ubx_ucenter_enable_msg(UBX_NAV_ID, UBX_NAV_SOL_ID, 8);
 500:modules/gps/gps_ubx_ucenter.c **** #else
 501:modules/gps/gps_ubx_ucenter.c ****       gps_ubx_ucenter_enable_msg(UBX_NAV_ID, UBX_NAV_SOL_ID, 1);
 970              		.loc 1 501 0
 971 03e0 0620     		movs	r0, #6
 972 03e2 F4E7     		b	.L65
 973              	.L41:
 502:modules/gps/gps_ubx_ucenter.c **** #endif
 503:modules/gps/gps_ubx_ucenter.c ****       break;
 504:modules/gps/gps_ubx_ucenter.c ****     case 12:
 505:modules/gps/gps_ubx_ucenter.c ****       // Disable UTM on old Lea4P
 506:modules/gps/gps_ubx_ucenter.c ****       gps_ubx_ucenter_enable_msg(UBX_NAV_ID, UBX_NAV_POSUTM_ID, 0);
 974              		.loc 1 506 0
 975 03e4 0820     		movs	r0, #8
 976 03e6 0021     		movs	r1, #0
 977 03e8 F2E7     		b	.L67
 978              	.L42:
 979              	.LBB53:
 980              	.LBB54:
 424:modules/gps/gps_ubx_ucenter.c ****   UbxSend_CFG_SBAS(gps_ubx_ucenter.dev, GPS_SBAS_ENABLED, GPS_SBAS_RANGING | GPS_SBAS_CORRECTIONS |
 981              		.loc 1 424 0
 982 03ea A56A     		ldr	r5, [r4, #40]
 983              	.LVL92:
 984              	.LBB55:
 985              	.LBB56:
 337:/home/lsk/paparazzi/var/include/ubx_protocol.h ****   ubx_header(dev, UBX_CFG_ID, UBX_CFG_SBAS_ID, 8);
 986              		.loc 2 337 0
 987 03ec 0823     		movs	r3, #8
 988              	.LVL93:
 989 03ee 2846     		mov	r0, r5
 990 03f0 0621     		movs	r1, #6
 991 03f2 1622     		movs	r2, #22
 992 03f4 FFF7FEFF 		bl	ubx_header
 993              	.LVL94:
 338:/home/lsk/paparazzi/var/include/ubx_protocol.h ****   uint8_t _mode = mode; ubx_send_bytes(dev, 1, (uint8_t*)&_mode);
 994              		.loc 2 338 0
 995 03f8 0CAA     		add	r2, sp, #48
 996 03fa 0126     		movs	r6, #1
 997 03fc 02F8146D 		strb	r6, [r2, #-20]!
 998 0400 2846     		mov	r0, r5
 999 0402 3146     		mov	r1, r6
 1000 0404 FFF7FEFF 		bl	ubx_send_bytes
 1001              	.LVL95:
 339:/home/lsk/paparazzi/var/include/ubx_protocol.h ****   uint8_t _usage = usage; ubx_send_bytes(dev, 1, (uint8_t*)&_usage);
 1002              		.loc 2 339 0
 1003 0408 0CAA     		add	r2, sp, #48
 1004 040a 0723     		movs	r3, #7
 1005 040c 02F8103D 		strb	r3, [r2, #-16]!
 1006 0410 2846     		mov	r0, r5
 1007 0412 3146     		mov	r1, r6
 1008 0414 FFF7FEFF 		bl	ubx_send_bytes
 1009              	.LVL96:
 340:/home/lsk/paparazzi/var/include/ubx_protocol.h ****   uint8_t _maxbas = maxbas; ubx_send_bytes(dev, 1, (uint8_t*)&_maxbas);
 1010              		.loc 2 340 0
 1011 0418 0CAA     		add	r2, sp, #48
 1012 041a 2846     		mov	r0, r5
 1013 041c 02F80C6D 		strb	r6, [r2, #-12]!
 1014 0420 3146     		mov	r1, r6
 1015 0422 FFF7FEFF 		bl	ubx_send_bytes
 1016              	.LVL97:
 341:/home/lsk/paparazzi/var/include/ubx_protocol.h ****   uint8_t _reserved = reserved; ubx_send_bytes(dev, 1, (uint8_t*)&_reserved);
 1017              		.loc 2 341 0
 1018 0426 0CAA     		add	r2, sp, #48
 1019 0428 0027     		movs	r7, #0
 1020 042a 02F8087D 		strb	r7, [r2, #-8]!
 1021 042e 2846     		mov	r0, r5
 1022 0430 3146     		mov	r1, r6
 1023 0432 FFF7FEFF 		bl	ubx_send_bytes
 1024              	.LVL98:
 342:/home/lsk/paparazzi/var/include/ubx_protocol.h ****   uint32_t _scanmode = scanmode; ubx_send_bytes(dev, 4, (uint8_t*)&_scanmode);
 1025              		.loc 2 342 0
 1026 0436 0CAA     		add	r2, sp, #48
 1027 0438 42F8047D 		str	r7, [r2, #-4]!
 1028 043c 38E0     		b	.L66
 1029              	.LVL99:
 1030              	.L43:
 1031              	.LBE56:
 1032              	.LBE55:
 1033              	.LBE54:
 1034              	.LBE53:
 507:modules/gps/gps_ubx_ucenter.c ****       break;
 508:modules/gps/gps_ubx_ucenter.c ****     case 13:
 509:modules/gps/gps_ubx_ucenter.c ****       // SBAS Configuration
 510:modules/gps/gps_ubx_ucenter.c ****       gps_ubx_ucenter_config_sbas();
 511:modules/gps/gps_ubx_ucenter.c ****       break;
 512:modules/gps/gps_ubx_ucenter.c ****     case 14:
 513:modules/gps/gps_ubx_ucenter.c ****       // Poll Navigation/Measurement Rate Settings
 514:modules/gps/gps_ubx_ucenter.c ****       UbxSend_CFG_RATE(gps_ubx_ucenter.dev, GPS_UBX_UCENTER_RATE, 0x0001, 0x0000);
 1035              		.loc 1 514 0
 1036 043e A56A     		ldr	r5, [r4, #40]
 1037              	.LVL100:
 1038              	.LBB57:
 1039              	.LBB58:
 309:/home/lsk/paparazzi/var/include/ubx_protocol.h ****   ubx_header(dev, UBX_CFG_ID, UBX_CFG_RATE_ID, 6);
 1040              		.loc 2 309 0
 1041 0440 0621     		movs	r1, #6
 1042 0442 0B46     		mov	r3, r1
 1043              	.LVL101:
 1044 0444 2846     		mov	r0, r5
 1045 0446 0822     		movs	r2, #8
 1046 0448 FFF7FEFF 		bl	ubx_header
 1047              	.LVL102:
 310:/home/lsk/paparazzi/var/include/ubx_protocol.h ****   uint16_t _meas = meas; ubx_send_bytes(dev, 2, (uint8_t*)&_meas);
 1048              		.loc 2 310 0
 1049 044c 0CAA     		add	r2, sp, #48
 1050 044e FA23     		movs	r3, #250
 1051 0450 22F80C3D 		strh	r3, [r2, #-12]!	@ movhi
 1052 0454 2846     		mov	r0, r5
 1053 0456 0221     		movs	r1, #2
 1054 0458 FFF7FEFF 		bl	ubx_send_bytes
 1055              	.LVL103:
 311:/home/lsk/paparazzi/var/include/ubx_protocol.h ****   uint16_t _nav = nav; ubx_send_bytes(dev, 2, (uint8_t*)&_nav);
 1056              		.loc 2 311 0
 1057 045c 0CAA     		add	r2, sp, #48
 1058 045e 0123     		movs	r3, #1
 1059 0460 22F8083D 		strh	r3, [r2, #-8]!	@ movhi
 1060 0464 2846     		mov	r0, r5
 1061 0466 0221     		movs	r1, #2
 1062 0468 FFF7FEFF 		bl	ubx_send_bytes
 1063              	.LVL104:
 312:/home/lsk/paparazzi/var/include/ubx_protocol.h ****   uint16_t _time = time; ubx_send_bytes(dev, 2, (uint8_t*)&_time);
 1064              		.loc 2 312 0
 1065 046c 0CAA     		add	r2, sp, #48
 1066 046e 0023     		movs	r3, #0
 1067 0470 22F8043D 		strh	r3, [r2, #-4]!	@ movhi
 1068 0474 2846     		mov	r0, r5
 1069 0476 0221     		movs	r1, #2
 1070 0478 1CE0     		b	.L61
 1071              	.LVL105:
 1072              	.L44:
 1073              	.LBE58:
 1074              	.LBE57:
 515:modules/gps/gps_ubx_ucenter.c ****       break;
 516:modules/gps/gps_ubx_ucenter.c ****     case 15:
 517:modules/gps/gps_ubx_ucenter.c ****       // Raw Measurement Data
 518:modules/gps/gps_ubx_ucenter.c **** #if USE_GPS_UBX_RXM_RAW
 519:modules/gps/gps_ubx_ucenter.c ****       gps_ubx_ucenter_enable_msg(UBX_RXM_ID, UBX_RXM_RAW_ID, 1);
 520:modules/gps/gps_ubx_ucenter.c **** #endif
 521:modules/gps/gps_ubx_ucenter.c ****       break;
 522:modules/gps/gps_ubx_ucenter.c ****     case 16:
 523:modules/gps/gps_ubx_ucenter.c ****       // Subframe Buffer
 524:modules/gps/gps_ubx_ucenter.c **** #if USE_GPS_UBX_RXM_SFRB
 525:modules/gps/gps_ubx_ucenter.c ****       gps_ubx_ucenter_enable_msg(UBX_RXM_ID, UBX_RXM_SFRB_ID, 1);
 526:modules/gps/gps_ubx_ucenter.c **** #endif
 527:modules/gps/gps_ubx_ucenter.c ****       break;
 528:modules/gps/gps_ubx_ucenter.c ****     case 17:
 529:modules/gps/gps_ubx_ucenter.c ****       // Try to save on non-ROM devices...
 530:modules/gps/gps_ubx_ucenter.c ****       UbxSend_CFG_CFG(gps_ubx_ucenter.dev, 0x00000000, 0xffffffff, 0x00000000);
 1075              		.loc 1 530 0
 1076 047a A56A     		ldr	r5, [r4, #40]
 1077              	.LVL106:
 1078              	.LBB59:
 1079              	.LBB60:
 322:/home/lsk/paparazzi/var/include/ubx_protocol.h ****   ubx_header(dev, UBX_CFG_ID, UBX_CFG_CFG_ID, 12);
 1080              		.loc 2 322 0
 1081 047c 0C23     		movs	r3, #12
 1082              	.LVL107:
 1083 047e 2846     		mov	r0, r5
 1084 0480 0621     		movs	r1, #6
 1085 0482 0922     		movs	r2, #9
 1086 0484 FFF7FEFF 		bl	ubx_header
 1087              	.LVL108:
 323:/home/lsk/paparazzi/var/include/ubx_protocol.h ****   uint32_t _clear_mask = clear_mask; ubx_send_bytes(dev, 4, (uint8_t*)&_clear_mask);
 1088              		.loc 2 323 0
 1089 0488 0CAA     		add	r2, sp, #48
 1090 048a 0026     		movs	r6, #0
 1091 048c 42F80C6D 		str	r6, [r2, #-12]!
 1092 0490 2846     		mov	r0, r5
 1093 0492 0421     		movs	r1, #4
 1094 0494 FFF7FEFF 		bl	ubx_send_bytes
 1095              	.LVL109:
 324:/home/lsk/paparazzi/var/include/ubx_protocol.h ****   uint32_t _save_mask = save_mask; ubx_send_bytes(dev, 4, (uint8_t*)&_save_mask);
 1096              		.loc 2 324 0
 1097 0498 0CAA     		add	r2, sp, #48
 1098 049a 4FF0FF33 		mov	r3, #-1
 1099 049e 42F8083D 		str	r3, [r2, #-8]!
 1100              	.LVL110:
 1101              	.L64:
 1102 04a2 2846     		mov	r0, r5
 1103 04a4 0421     		movs	r1, #4
 1104 04a6 FFF7FEFF 		bl	ubx_send_bytes
 1105              	.LVL111:
 325:/home/lsk/paparazzi/var/include/ubx_protocol.h ****   uint32_t _load_mask = load_mask; ubx_send_bytes(dev, 4, (uint8_t*)&_load_mask);
 1106              		.loc 2 325 0
 1107 04aa 0CAA     		add	r2, sp, #48
 1108 04ac 42F8046D 		str	r6, [r2, #-4]!
 1109              	.L66:
 1110 04b0 2846     		mov	r0, r5
 1111 04b2 0421     		movs	r1, #4
 1112              	.L61:
 1113 04b4 FFF7FEFF 		bl	ubx_send_bytes
 1114              	.LVL112:
 1115              	.L62:
 326:/home/lsk/paparazzi/var/include/ubx_protocol.h ****   ubx_trailer(dev);
 1116              		.loc 2 326 0
 1117 04b8 2846     		mov	r0, r5
 1118 04ba FFF7FEFF 		bl	ubx_trailer
 1119              	.LVL113:
 1120              	.L31:
 1121              	.LBE60:
 1122              	.LBE59:
 531:modules/gps/gps_ubx_ucenter.c ****       break;
 532:modules/gps/gps_ubx_ucenter.c ****     case 18:
 533:modules/gps/gps_ubx_ucenter.c **** #if DEBUG_GPS_UBX_UCENTER
 534:modules/gps/gps_ubx_ucenter.c ****       // Debug Downlink the result of all configuration steps: see messages
 535:modules/gps/gps_ubx_ucenter.c ****       // To view, enable DEBUG message in your telemetry configuration .xml
 536:modules/gps/gps_ubx_ucenter.c ****       DOWNLINK_SEND_DEBUG(DefaultChannel, DefaultDevice, GPS_UBX_UCENTER_CONFIG_STEPS, gps_ubx_ucen
 537:modules/gps/gps_ubx_ucenter.c ****       for (int i = 0; i < GPS_UBX_UCENTER_CONFIG_STEPS; i++) {
 538:modules/gps/gps_ubx_ucenter.c ****         DEBUG_PRINT("%u\n", gps_ubx_ucenter.replies[i]);
 539:modules/gps/gps_ubx_ucenter.c ****       }
 540:modules/gps/gps_ubx_ucenter.c **** #endif
 541:modules/gps/gps_ubx_ucenter.c ****       return FALSE;
 542:modules/gps/gps_ubx_ucenter.c ****     default:
 543:modules/gps/gps_ubx_ucenter.c ****       break;
 544:modules/gps/gps_ubx_ucenter.c ****   }
 545:modules/gps/gps_ubx_ucenter.c **** 
 546:modules/gps/gps_ubx_ucenter.c ****   gps_ubx_ucenter.reply = GPS_UBX_UCENTER_REPLY_NONE;
 1123              		.loc 1 546 0
 1124 04be 0023     		movs	r3, #0
 1125 04c0 6370     		strb	r3, [r4, #1]
 1126 04c2 03E0     		b	.L19
 1127              	.L28:
 1128              	.LBE40:
 1129              	.LBE39:
 103:modules/gps/gps_ubx_ucenter.c ****         gps_ubx_ucenter.status = GPS_UBX_UCENTER_STATUS_CONFIG;
 1130              		.loc 1 103 0
 1131 04c4 0223     		movs	r3, #2
 1132 04c6 2370     		strb	r3, [r4]
 104:modules/gps/gps_ubx_ucenter.c ****         gps_ubx_ucenter.cnt = 0;
 1133              		.loc 1 104 0
 1134 04c8 0023     		movs	r3, #0
 1135 04ca 04E0     		b	.L69
 1136              	.L19:
 113:modules/gps/gps_ubx_ucenter.c ****         gps_ubx_ucenter.cnt++;
 1137              		.loc 1 113 0
 1138 04cc A378     		ldrb	r3, [r4, #2]	@ zero_extendqisi2
 1139 04ce 0133     		adds	r3, r3, #1
 1140 04d0 01E0     		b	.L69
 1141              	.LVL114:
 1142              	.L45:
 119:modules/gps/gps_ubx_ucenter.c ****         gps_ubx_ucenter.status = GPS_UBX_UCENTER_STATUS_STOPPED;
 1143              		.loc 1 119 0
 1144 04d2 0023     		movs	r3, #0
 1145              	.LVL115:
 1146 04d4 2370     		strb	r3, [r4]
 1147              	.L69:
 120:modules/gps/gps_ubx_ucenter.c ****         gps_ubx_ucenter.cnt = 0;
 1148              		.loc 1 120 0
 1149 04d6 A370     		strb	r3, [r4, #2]
 1150              	.L15:
 130:modules/gps/gps_ubx_ucenter.c **** }
 1151              		.loc 1 130 0
 1152 04d8 0CB0     		add	sp, sp, #48
 1153              		@ sp needed
 1154 04da BDE8F087 		pop	{r4, r5, r6, r7, r8, r9, r10, pc}
 1155              		.cfi_endproc
 1156              	.LFE373:
 1158 04de 00BF     		.section	.text.gps_ubx_ucenter_event,"ax",%progbits
 1159              		.align	1
 1160              		.global	gps_ubx_ucenter_event
 1161              		.thumb
 1162              		.thumb_func
 1164              	gps_ubx_ucenter_event:
 1165              	.LFB374:
 137:modules/gps/gps_ubx_ucenter.c **** {
 1166              		.loc 1 137 0
 1167              		.cfi_startproc
 1168              		@ args = 0, pretend = 0, frame = 0
 1169              		@ frame_needed = 0, uses_anonymous_args = 0
 1170              		@ link register save eliminated.
 139:modules/gps/gps_ubx_ucenter.c ****   if (gps_ubx_ucenter.status == GPS_UBX_UCENTER_STATUS_STOPPED) {
 1171              		.loc 1 139 0
 1172 0000 284A     		ldr	r2, .L82
 1173 0002 1378     		ldrb	r3, [r2]	@ zero_extendqisi2
 1174 0004 002B     		cmp	r3, #0
 1175 0006 4BD0     		beq	.L72
 144:modules/gps/gps_ubx_ucenter.c ****   switch (gps_ubx.msg_class) {
 1176              		.loc 1 144 0
 1177 0008 274B     		ldr	r3, .L82+4
 1178 000a 93F80811 		ldrb	r1, [r3, #264]	@ zero_extendqisi2
 1179 000e 0629     		cmp	r1, #6
 1180 0010 33D0     		beq	.L74
 1181 0012 0A29     		cmp	r1, #10
 1182 0014 08D0     		beq	.L75
 1183 0016 0529     		cmp	r1, #5
 1184 0018 42D1     		bne	.L72
 146:modules/gps/gps_ubx_ucenter.c ****       if (gps_ubx.msg_id == UBX_ACK_ACK_ID) {
 1185              		.loc 1 146 0
 1186 001a 93F80731 		ldrb	r3, [r3, #263]	@ zero_extendqisi2
 1187 001e 012B     		cmp	r3, #1
 150:modules/gps/gps_ubx_ucenter.c ****         gps_ubx_ucenter.reply = GPS_UBX_UCENTER_REPLY_NACK;
 1188              		.loc 1 150 0
 1189 0020 18BF     		it	ne
 1190 0022 0223     		movne	r3, #2
 1191 0024 5370     		strb	r3, [r2, #1]
 1192 0026 7047     		bx	lr
 1193              	.L75:
 155:modules/gps/gps_ubx_ucenter.c ****       if (gps_ubx.msg_id == UBX_MON_VER_ID) {
 1194              		.loc 1 155 0
 1195 0028 93F80711 		ldrb	r1, [r3, #263]	@ zero_extendqisi2
 1196 002c 0429     		cmp	r1, #4
 1197 002e 37D1     		bne	.L72
 156:modules/gps/gps_ubx_ucenter.c ****         gps_ubx_ucenter.reply = GPS_UBX_UCENTER_REPLY_VERSION;
 1198              		.loc 1 156 0
 1199 0030 0321     		movs	r1, #3
 1200 0032 5170     		strb	r1, [r2, #1]
 157:modules/gps/gps_ubx_ucenter.c ****         gps_ubx_ucenter.sw_ver_h = UBX_MON_VER_c(gps_ubx.msg_buf, 0) - '0';
 1201              		.loc 1 157 0
 1202 0034 197A     		ldrb	r1, [r3, #8]	@ zero_extendqisi2
 159:modules/gps/gps_ubx_ucenter.c ****         gps_ubx_ucenter.sw_ver_l += UBX_MON_VER_c(gps_ubx.msg_buf, 3) - '0';
 1203              		.loc 1 159 0
 1204 0036 D87A     		ldrb	r0, [r3, #11]	@ zero_extendqisi2
 157:modules/gps/gps_ubx_ucenter.c ****         gps_ubx_ucenter.sw_ver_h = UBX_MON_VER_c(gps_ubx.msg_buf, 0) - '0';
 1205              		.loc 1 157 0
 1206 0038 3039     		subs	r1, r1, #48
 1207 003a 1173     		strb	r1, [r2, #12]
 158:modules/gps/gps_ubx_ucenter.c ****         gps_ubx_ucenter.sw_ver_l = 10 * (UBX_MON_VER_c(gps_ubx.msg_buf, 2) - '0');
 1208              		.loc 1 158 0
 1209 003c 997A     		ldrb	r1, [r3, #10]	@ zero_extendqisi2
 1210 003e 3039     		subs	r1, r1, #48
 159:modules/gps/gps_ubx_ucenter.c ****         gps_ubx_ucenter.sw_ver_l += UBX_MON_VER_c(gps_ubx.msg_buf, 3) - '0';
 1211              		.loc 1 159 0
 1212 0040 3038     		subs	r0, r0, #48
 158:modules/gps/gps_ubx_ucenter.c ****         gps_ubx_ucenter.sw_ver_l = 10 * (UBX_MON_VER_c(gps_ubx.msg_buf, 2) - '0');
 1213              		.loc 1 158 0
 1214 0042 01EB8101 		add	r1, r1, r1, lsl #2
 159:modules/gps/gps_ubx_ucenter.c ****         gps_ubx_ucenter.sw_ver_l += UBX_MON_VER_c(gps_ubx.msg_buf, 3) - '0';
 1215              		.loc 1 159 0
 1216 0046 00EB4101 		add	r1, r0, r1, lsl #1
 1217 004a 5173     		strb	r1, [r2, #13]
 161:modules/gps/gps_ubx_ucenter.c ****         gps_ubx_ucenter.hw_ver_h += 10 * (UBX_MON_VER_c(gps_ubx.msg_buf, 32) - '0');
 1218              		.loc 1 161 0
 1219 004c 93F82810 		ldrb	r1, [r3, #40]	@ zero_extendqisi2
 160:modules/gps/gps_ubx_ucenter.c ****         gps_ubx_ucenter.hw_ver_h = UBX_MON_VER_c(gps_ubx.msg_buf, 33) - '0';
 1220              		.loc 1 160 0
 1221 0050 93F82900 		ldrb	r0, [r3, #41]	@ zero_extendqisi2
 161:modules/gps/gps_ubx_ucenter.c ****         gps_ubx_ucenter.hw_ver_h += 10 * (UBX_MON_VER_c(gps_ubx.msg_buf, 32) - '0');
 1222              		.loc 1 161 0
 1223 0054 3039     		subs	r1, r1, #48
 160:modules/gps/gps_ubx_ucenter.c ****         gps_ubx_ucenter.hw_ver_h = UBX_MON_VER_c(gps_ubx.msg_buf, 33) - '0';
 1224              		.loc 1 160 0
 1225 0056 3038     		subs	r0, r0, #48
 161:modules/gps/gps_ubx_ucenter.c ****         gps_ubx_ucenter.hw_ver_h += 10 * (UBX_MON_VER_c(gps_ubx.msg_buf, 32) - '0');
 1226              		.loc 1 161 0
 1227 0058 01EB8101 		add	r1, r1, r1, lsl #2
 1228 005c 00EB4101 		add	r1, r0, r1, lsl #1
 1229 0060 D181     		strh	r1, [r2, #14]	@ movhi
 162:modules/gps/gps_ubx_ucenter.c ****         gps_ubx_ucenter.hw_ver_l = UBX_MON_VER_c(gps_ubx.msg_buf, 37) - '0';
 1230              		.loc 1 162 0
 1231 0062 93F82D10 		ldrb	r1, [r3, #45]	@ zero_extendqisi2
 163:modules/gps/gps_ubx_ucenter.c ****         gps_ubx_ucenter.hw_ver_l += 10 * (UBX_MON_VER_c(gps_ubx.msg_buf, 36) - '0');
 1232              		.loc 1 163 0
 1233 0066 93F82C30 		ldrb	r3, [r3, #44]	@ zero_extendqisi2
 1234 006a 303B     		subs	r3, r3, #48
 162:modules/gps/gps_ubx_ucenter.c ****         gps_ubx_ucenter.hw_ver_l = UBX_MON_VER_c(gps_ubx.msg_buf, 37) - '0';
 1235              		.loc 1 162 0
 1236 006c 3039     		subs	r1, r1, #48
 163:modules/gps/gps_ubx_ucenter.c ****         gps_ubx_ucenter.hw_ver_l += 10 * (UBX_MON_VER_c(gps_ubx.msg_buf, 36) - '0');
 1237              		.loc 1 163 0
 1238 006e 03EB8303 		add	r3, r3, r3, lsl #2
 1239 0072 01EB4303 		add	r3, r1, r3, lsl #1
 1240 0076 1382     		strh	r3, [r2, #16]	@ movhi
 1241 0078 7047     		bx	lr
 1242              	.L74:
 170:modules/gps/gps_ubx_ucenter.c ****       if (gps_ubx.msg_id == UBX_CFG_PRT_ID) {
 1243              		.loc 1 170 0
 1244 007a 93F80711 		ldrb	r1, [r3, #263]	@ zero_extendqisi2
 1245 007e 79B9     		cbnz	r1, .L72
 171:modules/gps/gps_ubx_ucenter.c ****         gps_ubx_ucenter.reply = GPS_UBX_UCENTER_REPLY_CFG_PRT;
 1246              		.loc 1 171 0
 1247 0080 0421     		movs	r1, #4
 173:modules/gps/gps_ubx_ucenter.c ****         gps_ubx_ucenter.baud_run = UBX_CFG_PRT_Baudrate(gps_ubx.msg_buf, 0);
 1248              		.loc 1 173 0
 1249 0082 987C     		ldrb	r0, [r3, #18]	@ zero_extendqisi2
 171:modules/gps/gps_ubx_ucenter.c ****         gps_ubx_ucenter.reply = GPS_UBX_UCENTER_REPLY_CFG_PRT;
 1250              		.loc 1 171 0
 1251 0084 5170     		strb	r1, [r2, #1]
 172:modules/gps/gps_ubx_ucenter.c ****         gps_ubx_ucenter.port_id = UBX_CFG_PRT_PortId(gps_ubx.msg_buf, 0);
 1252              		.loc 1 172 0
 1253 0086 197A     		ldrb	r1, [r3, #8]	@ zero_extendqisi2
 1254 0088 9174     		strb	r1, [r2, #18]
 173:modules/gps/gps_ubx_ucenter.c ****         gps_ubx_ucenter.baud_run = UBX_CFG_PRT_Baudrate(gps_ubx.msg_buf, 0);
 1255              		.loc 1 173 0
 1256 008a D97C     		ldrb	r1, [r3, #19]	@ zero_extendqisi2
 1257 008c 0004     		lsls	r0, r0, #16
 1258 008e 40EA0160 		orr	r0, r0, r1, lsl #24
 1259 0092 597C     		ldrb	r1, [r3, #17]	@ zero_extendqisi2
 1260 0094 1B7C     		ldrb	r3, [r3, #16]	@ zero_extendqisi2
 1261 0096 43EA0121 		orr	r1, r3, r1, lsl #8
 1262 009a 40EA0103 		orr	r3, r0, r1
 1263 009e 9360     		str	r3, [r2, #8]
 1264              	.L72:
 1265 00a0 7047     		bx	lr
 1266              	.L83:
 1267 00a2 00BF     		.align	2
 1268              	.L82:
 1269 00a4 00000000 		.word	.LANCHOR0
 1270 00a8 00000000 		.word	gps_ubx
 1271              		.cfi_endproc
 1272              	.LFE374:
 1274              		.global	gps_ubx_ucenter
 1275              		.section	.bss.gps_ubx_ucenter,"aw",%nobits
 1276              		.align	2
 1277              		.set	.LANCHOR0,. + 0
 1280              	gps_ubx_ucenter:
 1281 0000 00000000 		.space	44
 1281      00000000 
 1281      00000000 
 1281      00000000 
 1281      00000000 
 1282              		.text
 1283              	.Letext0:
 1284              		.file 3 "/home/lsk/gcc-arm-none-eabi-4_8-2014q3/arm-none-eabi/include/machine/_default_types.h"
 1285              		.file 4 "/home/lsk/gcc-arm-none-eabi-4_8-2014q3/arm-none-eabi/include/stdint.h"
 1286              		.file 5 "/home/lsk/paparazzi/sw/include/std.h"
 1287              		.file 6 "./mcu_periph/link_device.h"
 1288              		.file 7 "./modules/gps/gps_ubx_ucenter.h"
 1289              		.file 8 "./mcu_periph/uart.h"
 1290              		.file 9 "./subsystems/gps/gps_ubx.h"
 1291              		.file 10 "./subsystems/datalink/transport.h"
 1292              		.file 11 "./mcu_periph/sys_time.h"
 1293              		.file 12 "./subsystems/datalink/xbee.h"
 1294              		.file 13 "./subsystems/datalink/datalink.h"
 1295              		.file 14 "./subsystems/datalink/w5100.h"
 1296              		.file 15 "../ext/libopencm3/include/libopencm3/stm32/f4/rcc.h"