   1              		.syntax unified
   2              		.cpu cortex-m4
   3              		.eabi_attribute 27, 3
   4              		.fpu fpv4-sp-d16
   5              		.eabi_attribute 20, 1
   6              		.eabi_attribute 21, 1
   7              		.eabi_attribute 23, 3
   8              		.eabi_attribute 24, 1
   9              		.eabi_attribute 25, 1
  10              		.eabi_attribute 26, 1
  11              		.eabi_attribute 30, 4
  12              		.eabi_attribute 34, 1
  13              		.eabi_attribute 18, 4
  14              		.thumb
  15              		.file	"guidance_h.c"
  16              		.text
  17              	.Ltext0:
  18              		.cfi_sections	.debug_frame
  19              		.section	.text.stateGetPositionNed_i,"ax",%progbits
  20              		.align	1
  21              		.thumb
  22              		.thumb_func
  24              	stateGetPositionNed_i:
  25              	.LFB86:
  26              		.file 1 "./state.h"
   1:./state.h     **** /*
   2:./state.h     ****  * Copyright (C) 2011-2012 Felix Ruess <felix.ruess@gmail.com>
   3:./state.h     ****  *
   4:./state.h     ****  * This file is part of paparazzi.
   5:./state.h     ****  *
   6:./state.h     ****  * paparazzi is free software; you can redistribute it and/or modify
   7:./state.h     ****  * it under the terms of the GNU General Public License as published by
   8:./state.h     ****  * the Free Software Foundation; either version 2, or (at your option)
   9:./state.h     ****  * any later version.
  10:./state.h     ****  *
  11:./state.h     ****  * paparazzi is distributed in the hope that it will be useful,
  12:./state.h     ****  * but WITHOUT ANY WARRANTY; without even the implied warranty of
  13:./state.h     ****  * MERCHANTABILITY or FITNESS FOR A PARTICULAR PURPOSE.  See the
  14:./state.h     ****  * GNU General Public License for more details.
  15:./state.h     ****  *
  16:./state.h     ****  * You should have received a copy of the GNU General Public License
  17:./state.h     ****  * along with paparazzi; see the file COPYING.  If not, see
  18:./state.h     ****  * <http://www.gnu.org/licenses/>.
  19:./state.h     ****  */
  20:./state.h     **** 
  21:./state.h     **** /**
  22:./state.h     ****  * @file state.h
  23:./state.h     ****  *
  24:./state.h     ****  * API to get/set the generic vehicle states.
  25:./state.h     ****  *
  26:./state.h     ****  * Also see the @ref state_interface "State Interface" page.
  27:./state.h     ****  *
  28:./state.h     ****  * @author Felix Ruess <felix.ruess@gmail.com>
  29:./state.h     ****  */
  30:./state.h     **** 
  31:./state.h     **** #ifndef STATE_H
  32:./state.h     **** #define STATE_H
  33:./state.h     **** 
  34:./state.h     **** #include "math/pprz_algebra_int.h"
  35:./state.h     **** #include "math/pprz_algebra_float.h"
  36:./state.h     **** #include "math/pprz_geodetic_int.h"
  37:./state.h     **** #include "math/pprz_geodetic_float.h"
  38:./state.h     **** #include "math/pprz_orientation_conversion.h"
  39:./state.h     **** 
  40:./state.h     **** #include "std.h"
  41:./state.h     **** #include <string.h>
  42:./state.h     **** 
  43:./state.h     **** /**
  44:./state.h     ****  * This general state interface holds all the most important vehicle states like
  45:./state.h     ****  * position, velocity, attitude, etc. It handles coordinate system and
  46:./state.h     ****  * fixed-/floating-point conversion on the fly when needed.
  47:./state.h     ****  *
  48:./state.h     ****  * You can set e.g. the position in any coordinate system you wish:
  49:./state.h     ****  * stateSetPositionNed_i() to set the position in fixed-point NED coordinates.
  50:./state.h     ****  * If you need to read the position somewhere else in a different representation,
  51:./state.h     ****  * call: stateGetPositionLla_f() and only then the LLA float position representation
  52:./state.h     ****  * is calculated on the fly and returned. It's also only calculated once,
  53:./state.h     ****  * until a new position is set which invalidates all the other representations again.
  54:./state.h     ****  */
  55:./state.h     **** 
  56:./state.h     **** /**
  57:./state.h     ****  * @defgroup state_interface State interface
  58:./state.h     ****  * @{
  59:./state.h     ****  */
  60:./state.h     **** 
  61:./state.h     **** /**
  62:./state.h     ****  * @defgroup state_position Position representations
  63:./state.h     ****  * @{
  64:./state.h     ****  */
  65:./state.h     **** #define POS_ECEF_I 0
  66:./state.h     **** #define POS_NED_I  1
  67:./state.h     **** #define POS_ENU_I  2
  68:./state.h     **** #define POS_LLA_I  3
  69:./state.h     **** #define POS_UTM_I  4
  70:./state.h     **** #define POS_ECEF_F 5
  71:./state.h     **** #define POS_NED_F  6
  72:./state.h     **** #define POS_ENU_F  7
  73:./state.h     **** #define POS_LLA_F  8
  74:./state.h     **** #define POS_UTM_F  9
  75:./state.h     **** #define POS_LOCAL_COORD ((1<<POS_NED_I)|(1<<POS_NED_F)|(1<<POS_ENU_I)|(1<<POS_ENU_F))
  76:./state.h     **** #define POS_GLOBAL_COORD ((1<<POS_ECEF_I)|(1<<POS_ECEF_F)|(1<<POS_LLA_I)|(1<<POS_LLA_F)|(1<<POS_UTM
  77:./state.h     **** /**@}*/
  78:./state.h     **** 
  79:./state.h     **** /**
  80:./state.h     ****  * @defgroup state_velocity Speed representations
  81:./state.h     ****  * @{
  82:./state.h     ****  */
  83:./state.h     **** #define SPEED_ECEF_I  0
  84:./state.h     **** #define SPEED_NED_I   1
  85:./state.h     **** #define SPEED_ENU_I   2
  86:./state.h     **** #define SPEED_HNORM_I 3
  87:./state.h     **** #define SPEED_HDIR_I  4
  88:./state.h     **** #define SPEED_ECEF_F  5
  89:./state.h     **** #define SPEED_NED_F   6
  90:./state.h     **** #define SPEED_ENU_F   7
  91:./state.h     **** #define SPEED_HNORM_F 8
  92:./state.h     **** #define SPEED_HDIR_F  9
  93:./state.h     **** #define SPEED_LOCAL_COORD ((1<<SPEED_NED_I)|(1<<SPEED_ENU_I)|(1<<SPEED_NED_F)|(1<<SPEED_ENU_F))
  94:./state.h     **** /**@}*/
  95:./state.h     **** 
  96:./state.h     **** /**
  97:./state.h     ****  * @defgroup state_acceleration Acceleration representations
  98:./state.h     ****  * @{
  99:./state.h     ****  */
 100:./state.h     **** #define ACCEL_ECEF_I 0
 101:./state.h     **** #define ACCEL_NED_I  1
 102:./state.h     **** #define ACCEL_ECEF_F 2
 103:./state.h     **** #define ACCEL_NED_F  3
 104:./state.h     **** /**@}*/
 105:./state.h     **** 
 106:./state.h     **** /**
 107:./state.h     ****  * @defgroup state_rate Angular rate representations
 108:./state.h     ****  * @{
 109:./state.h     ****  */
 110:./state.h     **** #define RATE_I 0
 111:./state.h     **** #define RATE_F 1
 112:./state.h     **** /**@}*/
 113:./state.h     **** 
 114:./state.h     **** /**
 115:./state.h     ****  * @defgroup state_wind_airspeed Wind- and airspeed representations
 116:./state.h     ****  * @{
 117:./state.h     ****  */
 118:./state.h     **** #define WINDSPEED_I 0
 119:./state.h     **** #define AIRSPEED_I  1
 120:./state.h     **** #define WINDSPEED_F 2
 121:./state.h     **** #define AIRSPEED_F  3
 122:./state.h     **** #define AOA_F       4
 123:./state.h     **** #define SIDESLIP_F  5
 124:./state.h     **** /**@}*/
 125:./state.h     **** 
 126:./state.h     **** 
 127:./state.h     **** /**
 128:./state.h     ****  * Structure holding vehicle state data.
 129:./state.h     ****  */
 130:./state.h     **** struct State {
 131:./state.h     **** 
 132:./state.h     ****   /** @addtogroup state_position
 133:./state.h     ****    *  @{ */
 134:./state.h     **** 
 135:./state.h     ****   /**
 136:./state.h     ****    * Holds the status bits for all position representations.
 137:./state.h     ****    * When the corresponding bit is set the representation
 138:./state.h     ****    * is already computed.
 139:./state.h     ****    */
 140:./state.h     ****   uint16_t pos_status;
 141:./state.h     **** 
 142:./state.h     ****   /**
 143:./state.h     ****    * Position in EarthCenteredEarthFixed coordinates.
 144:./state.h     ****    * Units: centimeters
 145:./state.h     ****    */
 146:./state.h     ****   struct EcefCoor_i ecef_pos_i;
 147:./state.h     **** 
 148:./state.h     ****   /**
 149:./state.h     ****    * Position in Latitude, Longitude and Altitude.
 150:./state.h     ****    * Units lat,lon: degrees*1e7
 151:./state.h     ****    * Units alt: milimeters above reference ellipsoid
 152:./state.h     ****    */
 153:./state.h     ****   struct LlaCoor_i lla_pos_i;
 154:./state.h     **** 
 155:./state.h     ****   /**
 156:./state.h     ****    * Definition of the local (flat earth) coordinate system.
 157:./state.h     ****    * Defines the origin of the local NorthEastDown coordinate system
 158:./state.h     ****    * in ECEF (EarthCenteredEarthFixed) and LLA (LatitudeLongitudeAlt)
 159:./state.h     ****    * coordinates and the roation matrix from ECEF to local frame.
 160:./state.h     ****    * (int version)
 161:./state.h     ****    */
 162:./state.h     ****   struct LtpDef_i ned_origin_i;
 163:./state.h     **** 
 164:./state.h     ****   /**
 165:./state.h     ****    * true if local int coordinate frame is initialsed
 166:./state.h     ****    */
 167:./state.h     ****   bool_t ned_initialized_i;
 168:./state.h     **** 
 169:./state.h     ****   /**
 170:./state.h     ****    * Position in North East Down coordinates.
 171:./state.h     ****    * with respect to ned_origin_i (flat earth)
 172:./state.h     ****    * Units: m in BFP with INT32_POS_FRAC
 173:./state.h     ****    */
 174:./state.h     ****   struct NedCoor_i ned_pos_i;
 175:./state.h     **** 
 176:./state.h     ****   /**
 177:./state.h     ****    * Position in East North Up coordinates.
 178:./state.h     ****    * with respect to ned_origin_i (flat earth)
 179:./state.h     ****    * Units: m in BFP with INT32_POS_FRAC
 180:./state.h     ****    */
 181:./state.h     ****   struct EnuCoor_i enu_pos_i;
 182:./state.h     **** 
 183:./state.h     ****   /**
 184:./state.h     ****    * Position in UTM coordinates.
 185:./state.h     ****    * Units x,y: meters.
 186:./state.h     ****    * Units z: meters above MSL
 187:./state.h     ****    */
 188:./state.h     ****   struct UtmCoor_f utm_pos_f;
 189:./state.h     **** 
 190:./state.h     ****   /**
 191:./state.h     ****    * Altitude above ground level.
 192:./state.h     ****    * Unit: meters
 193:./state.h     ****    */
 194:./state.h     ****   float alt_agl_f;
 195:./state.h     **** 
 196:./state.h     ****   /**
 197:./state.h     ****    * Position in Latitude, Longitude and Altitude.
 198:./state.h     ****    * Units lat,lon: radians
 199:./state.h     ****    * Units alt: meters above reference ellipsoid
 200:./state.h     ****    */
 201:./state.h     ****   struct LlaCoor_f lla_pos_f;
 202:./state.h     **** 
 203:./state.h     ****   /**
 204:./state.h     ****    * Position in EarthCenteredEarthFixed coordinates.
 205:./state.h     ****    * Units: meters
 206:./state.h     ****    */
 207:./state.h     ****   struct EcefCoor_f ecef_pos_f;
 208:./state.h     **** 
 209:./state.h     ****   /**
 210:./state.h     ****    * Definition of the local (flat earth) coordinate system.
 211:./state.h     ****    * Defines the origin of the local NorthEastDown coordinate system
 212:./state.h     ****    * in ECEF (EarthCenteredEarthFixed) and LLA (LatitudeLongitudeAlt)
 213:./state.h     ****    * coordinates and the roation matrix from ECEF to local frame.
 214:./state.h     ****    * (float version)
 215:./state.h     ****    */
 216:./state.h     ****   struct LtpDef_f ned_origin_f;
 217:./state.h     **** 
 218:./state.h     ****   /// True if local float coordinate frame is initialsed
 219:./state.h     ****   bool_t ned_initialized_f;
 220:./state.h     **** 
 221:./state.h     ****   /**
 222:./state.h     ****    * Definition of the origin of Utm coordinate system.
 223:./state.h     ****    * Defines the origin of the local NorthEastDown coordinate system
 224:./state.h     ****    * in UTM coordinates, used as a reference when ned_origin is not
 225:./state.h     ****    * initialized.
 226:./state.h     ****    * (float version)
 227:./state.h     ****    */
 228:./state.h     ****   struct UtmCoor_f utm_origin_f;
 229:./state.h     **** 
 230:./state.h     ****   /// True if utm origin (float) coordinate frame is initialsed
 231:./state.h     ****   bool_t utm_initialized_f;
 232:./state.h     **** 
 233:./state.h     ****   /**
 234:./state.h     ****    * Position in North East Down coordinates.
 235:./state.h     ****    * with respect to ned_origin_i (flat earth)
 236:./state.h     ****    * Units: meters
 237:./state.h     ****    */
 238:./state.h     ****   struct NedCoor_f ned_pos_f;
 239:./state.h     **** 
 240:./state.h     ****   /**
 241:./state.h     ****    * Position in East North Up coordinates.
 242:./state.h     ****    * with respect to ned_origin_i (flat earth)
 243:./state.h     ****    * Units: meters
 244:./state.h     ****    */
 245:./state.h     ****   struct EnuCoor_f enu_pos_f;
 246:./state.h     ****   /** @}*/
 247:./state.h     **** 
 248:./state.h     **** 
 249:./state.h     ****   /** @addtogroup state_velocity
 250:./state.h     ****    *  @{ */
 251:./state.h     ****   /**
 252:./state.h     ****    * Holds the status bits for all ground speed representations.
 253:./state.h     ****    * When the corresponding bit is one the representation
 254:./state.h     ****    * is already computed.
 255:./state.h     ****    */
 256:./state.h     ****   uint16_t speed_status;
 257:./state.h     **** 
 258:./state.h     ****   /**
 259:./state.h     ****    * Velocity in EarthCenteredEarthFixed coordinates.
 260:./state.h     ****    * Units: m/s in BFP with #INT32_SPEED_FRAC
 261:./state.h     ****    */
 262:./state.h     ****   struct EcefCoor_i ecef_speed_i;
 263:./state.h     **** 
 264:./state.h     ****   /**
 265:./state.h     ****    * Velocity in North East Down coordinates.
 266:./state.h     ****    * Units: m/s in BFP with #INT32_SPEED_FRAC
 267:./state.h     ****    */
 268:./state.h     ****   struct NedCoor_i ned_speed_i;
 269:./state.h     **** 
 270:./state.h     ****   /**
 271:./state.h     ****    * Velocity in East North Up coordinates.
 272:./state.h     ****    * Units: m/s in BFP with #INT32_SPEED_FRAC
 273:./state.h     ****    */
 274:./state.h     ****   struct EnuCoor_i enu_speed_i;
 275:./state.h     **** 
 276:./state.h     ****   /**
 277:./state.h     ****    * Norm of horizontal ground speed.
 278:./state.h     ****    * Unit: m/s in BFP with #INT32_SPEED_FRAC
 279:./state.h     ****    */
 280:./state.h     ****   uint32_t h_speed_norm_i;
 281:./state.h     **** 
 282:./state.h     ****   /**
 283:./state.h     ****    * Direction of horizontal ground speed.
 284:./state.h     ****    * Unit: rad in BFP with #INT32_ANGLE_FRAC
 285:./state.h     ****    * (clockwise, zero=north)
 286:./state.h     ****    */
 287:./state.h     ****   int32_t h_speed_dir_i;
 288:./state.h     **** 
 289:./state.h     ****   /**
 290:./state.h     ****    * Velocity in EarthCenteredEarthFixed coordinates.
 291:./state.h     ****    * Units: m/s
 292:./state.h     ****    */
 293:./state.h     ****   struct EcefCoor_f ecef_speed_f;
 294:./state.h     **** 
 295:./state.h     ****   /**
 296:./state.h     ****    * @brief speed in North East Down coordinates
 297:./state.h     ****    * @details Units: m/s */
 298:./state.h     ****   struct NedCoor_f ned_speed_f;
 299:./state.h     **** 
 300:./state.h     ****   /**
 301:./state.h     ****    * Velocity in East North Up coordinates.
 302:./state.h     ****    * Units: m/s
 303:./state.h     ****    */
 304:./state.h     ****   struct EnuCoor_f enu_speed_f;
 305:./state.h     **** 
 306:./state.h     ****   /**
 307:./state.h     ****    * Norm of horizontal ground speed.
 308:./state.h     ****    * Unit: m/s
 309:./state.h     ****    */
 310:./state.h     ****   float h_speed_norm_f;
 311:./state.h     **** 
 312:./state.h     ****   /**
 313:./state.h     ****    * Direction of horizontal ground speed.
 314:./state.h     ****    * Unit: rad (clockwise, zero=north)
 315:./state.h     ****    */
 316:./state.h     ****   float h_speed_dir_f;
 317:./state.h     ****   /** @}*/
 318:./state.h     **** 
 319:./state.h     **** 
 320:./state.h     ****   /** @addtogroup state_acceleration
 321:./state.h     ****    *  @{ */
 322:./state.h     ****   /**
 323:./state.h     ****    * Holds the status bits for all acceleration representations.
 324:./state.h     ****    * When the corresponding bit is one the representation
 325:./state.h     ****    * is already computed.
 326:./state.h     ****    */
 327:./state.h     ****   uint8_t accel_status;
 328:./state.h     **** 
 329:./state.h     ****   /**
 330:./state.h     ****    * Acceleration in North East Down coordinates.
 331:./state.h     ****    * Units: m/s^2 in BFP with #INT32_ACCEL_FRAC
 332:./state.h     ****    */
 333:./state.h     ****   struct NedCoor_i ned_accel_i;
 334:./state.h     **** 
 335:./state.h     ****   /**
 336:./state.h     ****    * Acceleration in EarthCenteredEarthFixed coordinates.
 337:./state.h     ****    * Units: m/s^2 in BFP with INT32_ACCEL_FRAC
 338:./state.h     ****    */
 339:./state.h     ****   struct EcefCoor_i ecef_accel_i;
 340:./state.h     **** 
 341:./state.h     ****   /**
 342:./state.h     ****    * Acceleration in North East Down coordinates.
 343:./state.h     ****    * Units: m/s^2
 344:./state.h     ****    */
 345:./state.h     ****   struct NedCoor_f ned_accel_f;
 346:./state.h     **** 
 347:./state.h     ****   /**
 348:./state.h     ****    * Acceleration in EarthCenteredEarthFixed coordinates.
 349:./state.h     ****    * Units: m/s^2
 350:./state.h     ****    */
 351:./state.h     ****   struct EcefCoor_f ecef_accel_f;
 352:./state.h     ****   /** @}*/
 353:./state.h     **** 
 354:./state.h     **** 
 355:./state.h     ****   /** @defgroup state_attitude Attitude representations
 356:./state.h     ****    */
 357:./state.h     ****   struct OrientationReps ned_to_body_orientation;
 358:./state.h     **** 
 359:./state.h     **** 
 360:./state.h     ****   /** @addtogroup state_rate
 361:./state.h     ****    *  @{ */
 362:./state.h     ****   /**
 363:./state.h     ****    * Holds the status bits for all angular rate representations.
 364:./state.h     ****    * When the corresponding bit is one the representation
 365:./state.h     ****    * is already computed.
 366:./state.h     ****    */
 367:./state.h     ****   uint8_t rate_status;
 368:./state.h     **** 
 369:./state.h     ****   /**
 370:./state.h     ****    * Angular rates in body frame.
 371:./state.h     ****    * Units: rad/s in BFP with #INT32_RATE_FRAC
 372:./state.h     ****    */
 373:./state.h     ****   struct Int32Rates  body_rates_i;
 374:./state.h     **** 
 375:./state.h     ****   /**
 376:./state.h     ****    * Angular rates in body frame.
 377:./state.h     ****    * Units: rad/s
 378:./state.h     ****    */
 379:./state.h     ****   struct FloatRates  body_rates_f;
 380:./state.h     ****   /** @}*/
 381:./state.h     **** 
 382:./state.h     **** 
 383:./state.h     ****   /** @addtogroup state_wind_airspeed
 384:./state.h     ****    *  @{ */
 385:./state.h     ****   /**
 386:./state.h     ****    * Holds the status bits for all wind- and airspeed representations.
 387:./state.h     ****    * When the corresponding bit is one the representation
 388:./state.h     ****    * is already computed.
 389:./state.h     ****    */
 390:./state.h     ****   uint8_t wind_air_status;
 391:./state.h     **** 
 392:./state.h     ****   /**
 393:./state.h     ****    * Horizontal windspeed in north/east.
 394:./state.h     ****    * Units: m/s in BFP with #INT32_SPEED_FRAC
 395:./state.h     ****    */
 396:./state.h     ****   struct Int32Vect2 h_windspeed_i;
 397:./state.h     **** 
 398:./state.h     ****   /**
 399:./state.h     ****    * Norm of horizontal ground speed.
 400:./state.h     ****    * @details Unit: m/s in BFP with #INT32_SPEED_FRAC
 401:./state.h     ****    */
 402:./state.h     ****   int32_t airspeed_i;
 403:./state.h     **** 
 404:./state.h     ****   /**
 405:./state.h     ****    * Horizontal windspeed.
 406:./state.h     ****    * Units: m/s with x=north, y=east
 407:./state.h     ****    */
 408:./state.h     ****   struct FloatVect2 h_windspeed_f;
 409:./state.h     **** 
 410:./state.h     ****   /**
 411:./state.h     ****    * Norm of relative air speed.
 412:./state.h     ****    * Unit: m/s
 413:./state.h     ****    */
 414:./state.h     ****   float airspeed_f;
 415:./state.h     **** 
 416:./state.h     ****   /**
 417:./state.h     ****    * Angle of attack
 418:./state.h     ****    * Unit: rad
 419:./state.h     ****    */
 420:./state.h     ****   float angle_of_attack_f;
 421:./state.h     **** 
 422:./state.h     ****   /**
 423:./state.h     ****    * Sideslip angle
 424:./state.h     ****    * Unit: rad
 425:./state.h     ****    */
 426:./state.h     ****   float sideslip_f;
 427:./state.h     **** 
 428:./state.h     ****   /** @}*/
 429:./state.h     **** 
 430:./state.h     **** };
 431:./state.h     **** 
 432:./state.h     **** extern struct State state;
 433:./state.h     **** 
 434:./state.h     **** extern void stateInit(void);
 435:./state.h     **** 
 436:./state.h     **** /** @addtogroup state_position
 437:./state.h     ****  *  @{ */
 438:./state.h     **** 
 439:./state.h     **** /// Set the local (flat earth) coordinate frame origin (int).
 440:./state.h     **** static inline void stateSetLocalOrigin_i(struct LtpDef_i *ltp_def)
 441:./state.h     **** {
 442:./state.h     ****   memcpy(&state.ned_origin_i, ltp_def, sizeof(struct LtpDef_i));
 443:./state.h     ****   /* convert to float */
 444:./state.h     ****   ECEF_FLOAT_OF_BFP(state.ned_origin_f.ecef, state.ned_origin_i.ecef);
 445:./state.h     ****   LLA_FLOAT_OF_BFP(state.ned_origin_f.lla, state.ned_origin_i.lla);
 446:./state.h     ****   HIGH_RES_RMAT_FLOAT_OF_BFP(state.ned_origin_f.ltp_of_ecef, state.ned_origin_i.ltp_of_ecef);
 447:./state.h     ****   state.ned_origin_f.hmsl = M_OF_MM(state.ned_origin_i.hmsl);
 448:./state.h     **** 
 449:./state.h     ****   /* clear bits for all local frame representations */
 450:./state.h     ****   state.pos_status &= ~(POS_LOCAL_COORD);
 451:./state.h     ****   state.speed_status &= ~(SPEED_LOCAL_COORD);
 452:./state.h     ****   ClearBit(state.accel_status, ACCEL_NED_I);
 453:./state.h     ****   ClearBit(state.accel_status, ACCEL_NED_F);
 454:./state.h     **** 
 455:./state.h     ****   state.ned_initialized_i = TRUE;
 456:./state.h     ****   state.ned_initialized_f = TRUE;
 457:./state.h     **** }
 458:./state.h     **** 
 459:./state.h     **** /// Set the local (flat earth) coordinate frame origin from UTM (float).
 460:./state.h     **** static inline void stateSetLocalUtmOrigin_f(struct UtmCoor_f *utm_def)
 461:./state.h     **** {
 462:./state.h     ****   memcpy(&state.utm_origin_f, utm_def, sizeof(struct UtmCoor_f));
 463:./state.h     ****   state.utm_initialized_f = TRUE;
 464:./state.h     **** 
 465:./state.h     ****   /* clear bits for all local frame representations */
 466:./state.h     ****   state.pos_status &= ~(POS_LOCAL_COORD);
 467:./state.h     ****   state.speed_status &= ~(SPEED_LOCAL_COORD);
 468:./state.h     ****   ClearBit(state.accel_status, ACCEL_NED_I);
 469:./state.h     ****   ClearBit(state.accel_status, ACCEL_NED_F);
 470:./state.h     **** }
 471:./state.h     **** /*******************************************************************************
 472:./state.h     ****  *                                                                             *
 473:./state.h     ****  * Set and Get functions for the POSITION representations                      *
 474:./state.h     ****  *                                                                             *
 475:./state.h     ****  ******************************************************************************/
 476:./state.h     **** 
 477:./state.h     **** /************* declaration of transformation functions ************/
 478:./state.h     **** extern void stateCalcPositionEcef_i(void);
 479:./state.h     **** extern void stateCalcPositionNed_i(void);
 480:./state.h     **** extern void stateCalcPositionEnu_i(void);
 481:./state.h     **** extern void stateCalcPositionLla_i(void);
 482:./state.h     **** extern void stateCalcPositionUtm_f(void);
 483:./state.h     **** extern void stateCalcPositionEcef_f(void);
 484:./state.h     **** extern void stateCalcPositionNed_f(void);
 485:./state.h     **** extern void stateCalcPositionEnu_f(void);
 486:./state.h     **** extern void stateCalcPositionLla_f(void);
 487:./state.h     **** 
 488:./state.h     **** /*********************** validity test functions ******************/
 489:./state.h     **** 
 490:./state.h     **** /// Test if local coordinates are valid.
 491:./state.h     **** static inline bool_t stateIsLocalCoordinateValid(void)
 492:./state.h     **** {
 493:./state.h     ****   return ((state.ned_initialized_i || state.ned_initialized_f || state.utm_initialized_f)
 494:./state.h     ****           && (state.pos_status & (POS_LOCAL_COORD)));
 495:./state.h     **** }
 496:./state.h     **** 
 497:./state.h     **** /// Test if global coordinates are valid.
 498:./state.h     **** static inline bool_t stateIsGlobalCoordinateValid(void)
 499:./state.h     **** {
 500:./state.h     ****   return ((state.pos_status & (POS_GLOBAL_COORD)) || stateIsLocalCoordinateValid());
 501:./state.h     **** }
 502:./state.h     **** 
 503:./state.h     **** /************************ Set functions ****************************/
 504:./state.h     **** 
 505:./state.h     **** /// Set position from ECEF coordinates (int).
 506:./state.h     **** static inline void stateSetPositionEcef_i(struct EcefCoor_i *ecef_pos)
 507:./state.h     **** {
 508:./state.h     ****   VECT3_COPY(state.ecef_pos_i, *ecef_pos);
 509:./state.h     ****   /* clear bits for all position representations and only set the new one */
 510:./state.h     ****   state.pos_status = (1 << POS_ECEF_I);
 511:./state.h     **** }
 512:./state.h     **** 
 513:./state.h     **** /// Set position from local NED coordinates (int).
 514:./state.h     **** static inline void stateSetPositionNed_i(struct NedCoor_i *ned_pos)
 515:./state.h     **** {
 516:./state.h     ****   VECT3_COPY(state.ned_pos_i, *ned_pos);
 517:./state.h     ****   /* clear bits for all position representations and only set the new one */
 518:./state.h     ****   state.pos_status = (1 << POS_NED_I);
 519:./state.h     **** }
 520:./state.h     **** 
 521:./state.h     **** /// Set position from local ENU coordinates (int).
 522:./state.h     **** static inline void stateSetPositionEnu_i(struct EnuCoor_i *enu_pos)
 523:./state.h     **** {
 524:./state.h     ****   VECT3_COPY(state.enu_pos_i, *enu_pos);
 525:./state.h     ****   /* clear bits for all position representations and only set the new one */
 526:./state.h     ****   state.pos_status = (1 << POS_ENU_I);
 527:./state.h     **** }
 528:./state.h     **** 
 529:./state.h     **** /// Set position from LLA coordinates (int).
 530:./state.h     **** static inline void stateSetPositionLla_i(struct LlaCoor_i *lla_pos)
 531:./state.h     **** {
 532:./state.h     ****   LLA_COPY(state.lla_pos_i, *lla_pos);
 533:./state.h     ****   /* clear bits for all position representations and only set the new one */
 534:./state.h     ****   state.pos_status = (1 << POS_LLA_I);
 535:./state.h     **** }
 536:./state.h     **** 
 537:./state.h     **** /// Set multiple position coordinates (int).
 538:./state.h     **** static inline void stateSetPosition_i(
 539:./state.h     ****   struct EcefCoor_i *ecef_pos,
 540:./state.h     ****   struct NedCoor_i *ned_pos,
 541:./state.h     ****   struct EnuCoor_i *enu_pos,
 542:./state.h     ****   struct LlaCoor_i *lla_pos)
 543:./state.h     **** {
 544:./state.h     ****   /* clear all status bit */
 545:./state.h     ****   state.pos_status = 0;
 546:./state.h     ****   if (ecef_pos != NULL) {
 547:./state.h     ****     VECT3_COPY(state.ecef_pos_i, *ecef_pos);
 548:./state.h     ****     state.pos_status |= (1 << POS_ECEF_I);
 549:./state.h     ****   }
 550:./state.h     ****   if (ned_pos != NULL) {
 551:./state.h     ****     VECT3_COPY(state.ned_pos_i, *ned_pos);
 552:./state.h     ****     state.pos_status |= (1 << POS_NED_I);
 553:./state.h     ****   }
 554:./state.h     ****   if (enu_pos != NULL) {
 555:./state.h     ****     VECT3_COPY(state.enu_pos_i, *enu_pos);
 556:./state.h     ****     state.pos_status |= (1 << POS_ENU_I);
 557:./state.h     ****   }
 558:./state.h     ****   if (lla_pos != NULL) {
 559:./state.h     ****     LLA_COPY(state.lla_pos_i, *lla_pos);
 560:./state.h     ****     state.pos_status |= (1 << POS_LLA_I);
 561:./state.h     ****   }
 562:./state.h     **** }
 563:./state.h     **** 
 564:./state.h     **** /// Set position from UTM coordinates (float).
 565:./state.h     **** static inline void stateSetPositionUtm_f(struct UtmCoor_f *utm_pos)
 566:./state.h     **** {
 567:./state.h     ****   memcpy(&state.utm_pos_f, utm_pos, sizeof(struct UtmCoor_f));
 568:./state.h     ****   /* clear bits for all position representations and only set the new one */
 569:./state.h     ****   state.pos_status = (1 << POS_UTM_F);
 570:./state.h     **** }
 571:./state.h     **** 
 572:./state.h     **** /// Set position from ECEF coordinates (float).
 573:./state.h     **** static inline void stateSetPositionEcef_f(struct EcefCoor_f *ecef_pos)
 574:./state.h     **** {
 575:./state.h     ****   VECT3_COPY(state.ecef_pos_f, *ecef_pos);
 576:./state.h     ****   /* clear bits for all position representations and only set the new one */
 577:./state.h     ****   state.pos_status = (1 << POS_ECEF_F);
 578:./state.h     **** }
 579:./state.h     **** 
 580:./state.h     **** /// Set position from local NED coordinates (float).
 581:./state.h     **** static inline void stateSetPositionNed_f(struct NedCoor_f *ned_pos)
 582:./state.h     **** {
 583:./state.h     ****   VECT3_COPY(state.ned_pos_f, *ned_pos);
 584:./state.h     ****   /* clear bits for all position representations and only set the new one */
 585:./state.h     ****   state.pos_status = (1 << POS_NED_F);
 586:./state.h     **** }
 587:./state.h     **** 
 588:./state.h     **** /// Set position from local ENU coordinates (float).
 589:./state.h     **** static inline void stateSetPositionEnu_f(struct EnuCoor_f *enu_pos)
 590:./state.h     **** {
 591:./state.h     ****   VECT3_COPY(state.enu_pos_f, *enu_pos);
 592:./state.h     ****   /* clear bits for all position representations and only set the new one */
 593:./state.h     ****   state.pos_status = (1 << POS_ENU_F);
 594:./state.h     **** }
 595:./state.h     **** 
 596:./state.h     **** /// Set position from LLA coordinates (float).
 597:./state.h     **** static inline void stateSetPositionLla_f(struct LlaCoor_f *lla_pos)
 598:./state.h     **** {
 599:./state.h     ****   LLA_COPY(state.lla_pos_f, *lla_pos);
 600:./state.h     ****   /* clear bits for all position representations and only set the new one */
 601:./state.h     ****   state.pos_status = (1 << POS_LLA_F);
 602:./state.h     **** }
 603:./state.h     **** 
 604:./state.h     **** /// Set multiple position coordinates (float).
 605:./state.h     **** static inline void stateSetPosition_f(
 606:./state.h     ****   struct EcefCoor_f *ecef_pos,
 607:./state.h     ****   struct NedCoor_f *ned_pos,
 608:./state.h     ****   struct EnuCoor_f *enu_pos,
 609:./state.h     ****   struct LlaCoor_f *lla_pos,
 610:./state.h     ****   struct UtmCoor_f *utm_pos)
 611:./state.h     **** {
 612:./state.h     ****   /* clear all status bit */
 613:./state.h     ****   state.pos_status = 0;
 614:./state.h     ****   if (ecef_pos != NULL) {
 615:./state.h     ****     VECT3_COPY(state.ecef_pos_f, *ecef_pos);
 616:./state.h     ****     state.pos_status |= (1 << POS_ECEF_F);
 617:./state.h     ****   }
 618:./state.h     ****   if (ned_pos != NULL) {
 619:./state.h     ****     VECT3_COPY(state.ned_pos_f, *ned_pos);
 620:./state.h     ****     state.pos_status |= (1 << POS_NED_F);
 621:./state.h     ****   }
 622:./state.h     ****   if (enu_pos != NULL) {
 623:./state.h     ****     VECT3_COPY(state.enu_pos_f, *enu_pos);
 624:./state.h     ****     state.pos_status |= (1 << POS_ENU_F);
 625:./state.h     ****   }
 626:./state.h     ****   if (lla_pos != NULL) {
 627:./state.h     ****     LLA_COPY(state.lla_pos_f, *lla_pos);
 628:./state.h     ****     state.pos_status |= (1 << POS_LLA_F);
 629:./state.h     ****   }
 630:./state.h     ****   if (utm_pos != NULL) {
 631:./state.h     ****     memcpy(&state.utm_pos_f, utm_pos, sizeof(struct UtmCoor_f));
 632:./state.h     ****     state.pos_status |= (1 << POS_UTM_F);
 633:./state.h     ****   }
 634:./state.h     **** }
 635:./state.h     **** 
 636:./state.h     **** /************************ Get functions ****************************/
 637:./state.h     **** 
 638:./state.h     **** /// Get position in ECEF coordinates (int).
 639:./state.h     **** static inline struct EcefCoor_i *stateGetPositionEcef_i(void)
 640:./state.h     **** {
 641:./state.h     ****   if (!bit_is_set(state.pos_status, POS_ECEF_I)) {
 642:./state.h     ****     stateCalcPositionEcef_i();
 643:./state.h     ****   }
 644:./state.h     ****   return &state.ecef_pos_i;
 645:./state.h     **** }
 646:./state.h     **** 
 647:./state.h     **** /// Get position in local NED coordinates (int).
 648:./state.h     **** static inline struct NedCoor_i *stateGetPositionNed_i(void)
 649:./state.h     **** {
  27              		.loc 1 649 0
  28              		.cfi_startproc
  29              		@ args = 0, pretend = 0, frame = 0
  30              		@ frame_needed = 0, uses_anonymous_args = 0
  31 0000 08B5     		push	{r3, lr}
  32              		.cfi_def_cfa_offset 8
  33              		.cfi_offset 3, -8
  34              		.cfi_offset 14, -4
 650:./state.h     ****   if (!bit_is_set(state.pos_status, POS_NED_I)) {
  35              		.loc 1 650 0
  36 0002 044B     		ldr	r3, .L4
  37 0004 1B88     		ldrh	r3, [r3]
  38 0006 9B07     		lsls	r3, r3, #30
  39 0008 01D4     		bmi	.L2
 651:./state.h     ****     stateCalcPositionNed_i();
  40              		.loc 1 651 0
  41 000a FFF7FEFF 		bl	stateCalcPositionNed_i
  42              	.LVL0:
  43              	.L2:
 652:./state.h     ****   }
 653:./state.h     ****   return &state.ned_pos_i;
 654:./state.h     **** }
  44              		.loc 1 654 0
  45 000e 0248     		ldr	r0, .L4+4
  46 0010 08BD     		pop	{r3, pc}
  47              	.L5:
  48 0012 00BF     		.align	2
  49              	.L4:
  50 0014 00000000 		.word	state
  51 0018 60000000 		.word	state+96
  52              		.cfi_endproc
  53              	.LFE86:
  55              		.section	.text.stateGetSpeedNed_i,"ax",%progbits
  56              		.align	1
  57              		.thumb
  58              		.thumb_func
  60              	stateGetSpeedNed_i:
  61              	.LFB102:
 655:./state.h     **** 
 656:./state.h     **** /// Get position in local ENU coordinates (int).
 657:./state.h     **** static inline struct EnuCoor_i *stateGetPositionEnu_i(void)
 658:./state.h     **** {
 659:./state.h     ****   if (!bit_is_set(state.pos_status, POS_ENU_I)) {
 660:./state.h     ****     stateCalcPositionEnu_i();
 661:./state.h     ****   }
 662:./state.h     ****   return &state.enu_pos_i;
 663:./state.h     **** }
 664:./state.h     **** 
 665:./state.h     **** /// Get position in LLA coordinates (int).
 666:./state.h     **** static inline struct LlaCoor_i *stateGetPositionLla_i(void)
 667:./state.h     **** {
 668:./state.h     ****   if (!bit_is_set(state.pos_status, POS_LLA_I)) {
 669:./state.h     ****     stateCalcPositionLla_i();
 670:./state.h     ****   }
 671:./state.h     ****   return &state.lla_pos_i;
 672:./state.h     **** }
 673:./state.h     **** 
 674:./state.h     **** /// Get position in UTM coordinates (float).
 675:./state.h     **** static inline struct UtmCoor_f *stateGetPositionUtm_f(void)
 676:./state.h     **** {
 677:./state.h     ****   if (!bit_is_set(state.pos_status, POS_UTM_F)) {
 678:./state.h     ****     stateCalcPositionUtm_f();
 679:./state.h     ****   }
 680:./state.h     ****   return &state.utm_pos_f;
 681:./state.h     **** }
 682:./state.h     **** 
 683:./state.h     **** /// Get position in ECEF coordinates (float).
 684:./state.h     **** static inline struct EcefCoor_f *stateGetPositionEcef_f(void)
 685:./state.h     **** {
 686:./state.h     ****   if (!bit_is_set(state.pos_status, POS_ECEF_F)) {
 687:./state.h     ****     stateCalcPositionEcef_f();
 688:./state.h     ****   }
 689:./state.h     ****   return &state.ecef_pos_f;
 690:./state.h     **** }
 691:./state.h     **** 
 692:./state.h     **** /// Get position in local NED coordinates (float).
 693:./state.h     **** static inline struct NedCoor_f *stateGetPositionNed_f(void)
 694:./state.h     **** {
 695:./state.h     ****   if (!bit_is_set(state.pos_status, POS_NED_F)) {
 696:./state.h     ****     stateCalcPositionNed_f();
 697:./state.h     ****   }
 698:./state.h     ****   return &state.ned_pos_f;
 699:./state.h     **** }
 700:./state.h     **** 
 701:./state.h     **** /// Get position in local ENU coordinates (float).
 702:./state.h     **** static inline struct EnuCoor_f *stateGetPositionEnu_f(void)
 703:./state.h     **** {
 704:./state.h     ****   if (!bit_is_set(state.pos_status, POS_ENU_F)) {
 705:./state.h     ****     stateCalcPositionEnu_f();
 706:./state.h     ****   }
 707:./state.h     ****   return &state.enu_pos_f;
 708:./state.h     **** }
 709:./state.h     **** 
 710:./state.h     **** /// Get position in LLA coordinates (float).
 711:./state.h     **** static inline struct LlaCoor_f *stateGetPositionLla_f(void)
 712:./state.h     **** {
 713:./state.h     ****   if (!bit_is_set(state.pos_status, POS_LLA_F)) {
 714:./state.h     ****     stateCalcPositionLla_f();
 715:./state.h     ****   }
 716:./state.h     ****   return &state.lla_pos_f;
 717:./state.h     **** }
 718:./state.h     **** 
 719:./state.h     **** /** @}*/
 720:./state.h     **** 
 721:./state.h     **** 
 722:./state.h     **** 
 723:./state.h     **** /******************************************************************************
 724:./state.h     ****  *                                                                            *
 725:./state.h     ****  * Set and Get functions for the SPEED representations                        *
 726:./state.h     ****  *                                                                            *
 727:./state.h     ****  *****************************************************************************/
 728:./state.h     **** /** @addtogroup state_velocity
 729:./state.h     ****  *  @{ */
 730:./state.h     **** 
 731:./state.h     **** /************* declaration of transformation functions ************/
 732:./state.h     **** extern void stateCalcSpeedNed_i(void);
 733:./state.h     **** extern void stateCalcSpeedEnu_i(void);
 734:./state.h     **** extern void stateCalcSpeedEcef_i(void);
 735:./state.h     **** extern void stateCalcHorizontalSpeedNorm_i(void);
 736:./state.h     **** extern void stateCalcHorizontalSpeedDir_i(void);
 737:./state.h     **** extern void stateCalcSpeedNed_f(void);
 738:./state.h     **** extern void stateCalcSpeedEnu_f(void);
 739:./state.h     **** extern void stateCalcSpeedEcef_f(void);
 740:./state.h     **** extern void stateCalcHorizontalSpeedNorm_f(void);
 741:./state.h     **** extern void stateCalcHorizontalSpeedDir_f(void);
 742:./state.h     **** 
 743:./state.h     **** /************************ Set functions ****************************/
 744:./state.h     **** 
 745:./state.h     **** /// Set ground speed in local NED coordinates (int).
 746:./state.h     **** static inline void stateSetSpeedNed_i(struct NedCoor_i *ned_speed)
 747:./state.h     **** {
 748:./state.h     ****   VECT3_COPY(state.ned_speed_i, *ned_speed);
 749:./state.h     ****   /* clear bits for all speed representations and only set the new one */
 750:./state.h     ****   state.speed_status = (1 << SPEED_NED_I);
 751:./state.h     **** }
 752:./state.h     **** 
 753:./state.h     **** /// Set ground speed in local ENU coordinates (int).
 754:./state.h     **** static inline void stateSetSpeedEnu_i(struct EnuCoor_i *enu_speed)
 755:./state.h     **** {
 756:./state.h     ****   VECT3_COPY(state.enu_speed_i, *enu_speed);
 757:./state.h     ****   /* clear bits for all speed representations and only set the new one */
 758:./state.h     ****   state.speed_status = (1 << SPEED_ENU_I);
 759:./state.h     **** }
 760:./state.h     **** 
 761:./state.h     **** /// Set ground speed in ECEF coordinates (int).
 762:./state.h     **** static inline void stateSetSpeedEcef_i(struct EcefCoor_i *ecef_speed)
 763:./state.h     **** {
 764:./state.h     ****   VECT3_COPY(state.ecef_speed_i, *ecef_speed);
 765:./state.h     ****   /* clear bits for all speed representations and only set the new one */
 766:./state.h     ****   state.speed_status = (1 << SPEED_ECEF_I);
 767:./state.h     **** }
 768:./state.h     **** 
 769:./state.h     **** /// Set multiple speed coordinates (int).
 770:./state.h     **** static inline void stateSetSpeed_i(
 771:./state.h     ****   struct EcefCoor_i *ecef_speed,
 772:./state.h     ****   struct NedCoor_i *ned_speed,
 773:./state.h     ****   struct EnuCoor_i *enu_speed)
 774:./state.h     **** {
 775:./state.h     ****   /* clear all status bit */
 776:./state.h     ****   state.speed_status = 0;
 777:./state.h     ****   if (ecef_speed != NULL) {
 778:./state.h     ****     VECT3_COPY(state.ecef_speed_i, *ecef_speed);
 779:./state.h     ****     state.speed_status |= (1 << SPEED_ECEF_I);
 780:./state.h     ****   }
 781:./state.h     ****   if (ned_speed != NULL) {
 782:./state.h     ****     VECT3_COPY(state.ned_speed_i, *ned_speed);
 783:./state.h     ****     state.speed_status |= (1 << SPEED_NED_I);
 784:./state.h     ****   }
 785:./state.h     ****   if (enu_speed != NULL) {
 786:./state.h     ****     VECT3_COPY(state.enu_speed_i, *enu_speed);
 787:./state.h     ****     state.speed_status |= (1 << SPEED_ENU_I);
 788:./state.h     ****   }
 789:./state.h     **** }
 790:./state.h     **** 
 791:./state.h     **** /// Set ground speed in local NED coordinates (float).
 792:./state.h     **** static inline void stateSetSpeedNed_f(struct NedCoor_f *ned_speed)
 793:./state.h     **** {
 794:./state.h     ****   VECT3_COPY(state.ned_speed_f, *ned_speed);
 795:./state.h     ****   /* clear bits for all speed representations and only set the new one */
 796:./state.h     ****   state.speed_status = (1 << SPEED_NED_F);
 797:./state.h     **** }
 798:./state.h     **** 
 799:./state.h     **** /// Set ground speed in local ENU coordinates (float).
 800:./state.h     **** static inline void stateSetSpeedEnu_f(struct EnuCoor_f *enu_speed)
 801:./state.h     **** {
 802:./state.h     ****   VECT3_COPY(state.enu_speed_f, *enu_speed);
 803:./state.h     ****   /* clear bits for all speed representations and only set the new one */
 804:./state.h     ****   state.speed_status = (1 << SPEED_ENU_F);
 805:./state.h     **** }
 806:./state.h     **** 
 807:./state.h     **** /// Set ground speed in ECEF coordinates (float).
 808:./state.h     **** static inline void stateSetSpeedEcef_f(struct EcefCoor_f *ecef_speed)
 809:./state.h     **** {
 810:./state.h     ****   VECT3_COPY(state.ecef_speed_f, *ecef_speed);
 811:./state.h     ****   /* clear bits for all speed representations and only set the new one */
 812:./state.h     ****   state.speed_status = (1 << SPEED_ECEF_F);
 813:./state.h     **** }
 814:./state.h     **** 
 815:./state.h     **** /// Set multiple speed coordinates (float).
 816:./state.h     **** static inline void stateSetSpeed_f(
 817:./state.h     ****   struct EcefCoor_f *ecef_speed,
 818:./state.h     ****   struct NedCoor_f *ned_speed,
 819:./state.h     ****   struct EnuCoor_f *enu_speed)
 820:./state.h     **** {
 821:./state.h     ****   /* clear all status bit */
 822:./state.h     ****   state.speed_status = 0;
 823:./state.h     ****   if (ecef_speed != NULL) {
 824:./state.h     ****     VECT3_COPY(state.ecef_speed_f, *ecef_speed);
 825:./state.h     ****     state.speed_status |= (1 << SPEED_ECEF_F);
 826:./state.h     ****   }
 827:./state.h     ****   if (ned_speed != NULL) {
 828:./state.h     ****     VECT3_COPY(state.ned_speed_f, *ned_speed);
 829:./state.h     ****     state.speed_status |= (1 << SPEED_NED_F);
 830:./state.h     ****   }
 831:./state.h     ****   if (enu_speed != NULL) {
 832:./state.h     ****     VECT3_COPY(state.enu_speed_f, *enu_speed);
 833:./state.h     ****     state.speed_status |= (1 << SPEED_ENU_F);
 834:./state.h     ****   }
 835:./state.h     **** }
 836:./state.h     **** 
 837:./state.h     **** /************************ Get functions ****************************/
 838:./state.h     **** 
 839:./state.h     **** /// Get ground speed in local NED coordinates (int).
 840:./state.h     **** static inline struct NedCoor_i *stateGetSpeedNed_i(void)
 841:./state.h     **** {
  62              		.loc 1 841 0
  63              		.cfi_startproc
  64              		@ args = 0, pretend = 0, frame = 0
  65              		@ frame_needed = 0, uses_anonymous_args = 0
  66 0000 08B5     		push	{r3, lr}
  67              		.cfi_def_cfa_offset 8
  68              		.cfi_offset 3, -8
  69              		.cfi_offset 14, -4
 842:./state.h     ****   if (!bit_is_set(state.speed_status, SPEED_NED_I)) {
  70              		.loc 1 842 0
  71 0002 044B     		ldr	r3, .L8
  72 0004 B3F81431 		ldrh	r3, [r3, #276]
  73 0008 9B07     		lsls	r3, r3, #30
  74 000a 01D4     		bmi	.L7
 843:./state.h     ****     stateCalcSpeedNed_i();
  75              		.loc 1 843 0
  76 000c FFF7FEFF 		bl	stateCalcSpeedNed_i
  77              	.LVL1:
  78              	.L7:
 844:./state.h     ****   }
 845:./state.h     ****   return &state.ned_speed_i;
 846:./state.h     **** }
  79              		.loc 1 846 0
  80 0010 0148     		ldr	r0, .L8+4
  81 0012 08BD     		pop	{r3, pc}
  82              	.L9:
  83              		.align	2
  84              	.L8:
  85 0014 00000000 		.word	state
  86 0018 24010000 		.word	state+292
  87              		.cfi_endproc
  88              	.LFE102:
  90              		.section	.text.reset_guidance_reference_from_current_position,"ax",%progbits
  91              		.align	1
  92              		.thumb
  93              		.thumb_func
  95              	reset_guidance_reference_from_current_position:
  96              	.LFB466:
  97              		.file 2 "firmwares/rotorcraft/guidance/guidance_h.c"
   1:firmwares/rotorcraft/guidance/guidance_h.c **** /*
   2:firmwares/rotorcraft/guidance/guidance_h.c ****  * Copyright (C) 2008-2009 Antoine Drouin <poinix@gmail.com>
   3:firmwares/rotorcraft/guidance/guidance_h.c ****  *
   4:firmwares/rotorcraft/guidance/guidance_h.c ****  * This file is part of paparazzi.
   5:firmwares/rotorcraft/guidance/guidance_h.c ****  *
   6:firmwares/rotorcraft/guidance/guidance_h.c ****  * paparazzi is free software; you can redistribute it and/or modify
   7:firmwares/rotorcraft/guidance/guidance_h.c ****  * it under the terms of the GNU General Public License as published by
   8:firmwares/rotorcraft/guidance/guidance_h.c ****  * the Free Software Foundation; either version 2, or (at your option)
   9:firmwares/rotorcraft/guidance/guidance_h.c ****  * any later version.
  10:firmwares/rotorcraft/guidance/guidance_h.c ****  *
  11:firmwares/rotorcraft/guidance/guidance_h.c ****  * paparazzi is distributed in the hope that it will be useful,
  12:firmwares/rotorcraft/guidance/guidance_h.c ****  * but WITHOUT ANY WARRANTY; without even the implied warranty of
  13:firmwares/rotorcraft/guidance/guidance_h.c ****  * MERCHANTABILITY or FITNESS FOR A PARTICULAR PURPOSE.  See the
  14:firmwares/rotorcraft/guidance/guidance_h.c ****  * GNU General Public License for more details.
  15:firmwares/rotorcraft/guidance/guidance_h.c ****  *
  16:firmwares/rotorcraft/guidance/guidance_h.c ****  * You should have received a copy of the GNU General Public License
  17:firmwares/rotorcraft/guidance/guidance_h.c ****  * along with paparazzi; see the file COPYING.  If not, write to
  18:firmwares/rotorcraft/guidance/guidance_h.c ****  * the Free Software Foundation, 59 Temple Place - Suite 330,
  19:firmwares/rotorcraft/guidance/guidance_h.c ****  * Boston, MA 02111-1307, USA.
  20:firmwares/rotorcraft/guidance/guidance_h.c ****  */
  21:firmwares/rotorcraft/guidance/guidance_h.c **** 
  22:firmwares/rotorcraft/guidance/guidance_h.c **** /** @file firmwares/rotorcraft/guidance/guidance_h.c
  23:firmwares/rotorcraft/guidance/guidance_h.c ****  *  Horizontal guidance for rotorcrafts.
  24:firmwares/rotorcraft/guidance/guidance_h.c ****  *
  25:firmwares/rotorcraft/guidance/guidance_h.c ****  */
  26:firmwares/rotorcraft/guidance/guidance_h.c **** 
  27:firmwares/rotorcraft/guidance/guidance_h.c **** #include "generated/airframe.h"
  28:firmwares/rotorcraft/guidance/guidance_h.c **** 
  29:firmwares/rotorcraft/guidance/guidance_h.c **** #include "firmwares/rotorcraft/guidance/guidance_h.h"
  30:firmwares/rotorcraft/guidance/guidance_h.c **** #include "firmwares/rotorcraft/guidance/guidance_module.h"
  31:firmwares/rotorcraft/guidance/guidance_h.c **** #include "firmwares/rotorcraft/stabilization.h"
  32:firmwares/rotorcraft/guidance/guidance_h.c **** #include "firmwares/rotorcraft/stabilization/stabilization_attitude_rc_setpoint.h"
  33:firmwares/rotorcraft/guidance/guidance_h.c **** #include "firmwares/rotorcraft/navigation.h"
  34:firmwares/rotorcraft/guidance/guidance_h.c **** #include "subsystems/radio_control.h"
  35:firmwares/rotorcraft/guidance/guidance_h.c **** 
  36:firmwares/rotorcraft/guidance/guidance_h.c **** #include "firmwares/rotorcraft/stabilization/stabilization_none.h"
  37:firmwares/rotorcraft/guidance/guidance_h.c **** #include "firmwares/rotorcraft/stabilization/stabilization_rate.h"
  38:firmwares/rotorcraft/guidance/guidance_h.c **** #include "firmwares/rotorcraft/stabilization/stabilization_attitude.h"
  39:firmwares/rotorcraft/guidance/guidance_h.c **** 
  40:firmwares/rotorcraft/guidance/guidance_h.c **** /* for guidance_v_thrust_coeff */
  41:firmwares/rotorcraft/guidance/guidance_h.c **** #include "firmwares/rotorcraft/guidance/guidance_v.h"
  42:firmwares/rotorcraft/guidance/guidance_h.c **** 
  43:firmwares/rotorcraft/guidance/guidance_h.c **** #include "state.h"
  44:firmwares/rotorcraft/guidance/guidance_h.c **** 
  45:firmwares/rotorcraft/guidance/guidance_h.c **** #ifndef GUIDANCE_H_AGAIN
  46:firmwares/rotorcraft/guidance/guidance_h.c **** #define GUIDANCE_H_AGAIN 0
  47:firmwares/rotorcraft/guidance/guidance_h.c **** #endif
  48:firmwares/rotorcraft/guidance/guidance_h.c **** 
  49:firmwares/rotorcraft/guidance/guidance_h.c **** #ifndef GUIDANCE_H_VGAIN
  50:firmwares/rotorcraft/guidance/guidance_h.c **** #define GUIDANCE_H_VGAIN 0
  51:firmwares/rotorcraft/guidance/guidance_h.c **** #endif
  52:firmwares/rotorcraft/guidance/guidance_h.c **** 
  53:firmwares/rotorcraft/guidance/guidance_h.c **** /* error if some gains are negative */
  54:firmwares/rotorcraft/guidance/guidance_h.c **** #if (GUIDANCE_H_PGAIN < 0) ||                   \
  55:firmwares/rotorcraft/guidance/guidance_h.c ****   (GUIDANCE_H_DGAIN < 0)   ||                   \
  56:firmwares/rotorcraft/guidance/guidance_h.c ****   (GUIDANCE_H_IGAIN < 0)   ||                   \
  57:firmwares/rotorcraft/guidance/guidance_h.c ****   (GUIDANCE_H_AGAIN < 0)   ||                   \
  58:firmwares/rotorcraft/guidance/guidance_h.c ****   (GUIDANCE_H_VGAIN < 0)
  59:firmwares/rotorcraft/guidance/guidance_h.c **** #error "ALL control gains have to be positive!!!"
  60:firmwares/rotorcraft/guidance/guidance_h.c **** #endif
  61:firmwares/rotorcraft/guidance/guidance_h.c **** 
  62:firmwares/rotorcraft/guidance/guidance_h.c **** #ifndef GUIDANCE_H_MAX_BANK
  63:firmwares/rotorcraft/guidance/guidance_h.c **** #define GUIDANCE_H_MAX_BANK RadOfDeg(20)
  64:firmwares/rotorcraft/guidance/guidance_h.c **** #endif
  65:firmwares/rotorcraft/guidance/guidance_h.c **** 
  66:firmwares/rotorcraft/guidance/guidance_h.c **** PRINT_CONFIG_VAR(GUIDANCE_H_USE_REF)
  67:firmwares/rotorcraft/guidance/guidance_h.c **** PRINT_CONFIG_VAR(GUIDANCE_H_USE_SPEED_REF)
  68:firmwares/rotorcraft/guidance/guidance_h.c **** 
  69:firmwares/rotorcraft/guidance/guidance_h.c **** #ifndef GUIDANCE_H_APPROX_FORCE_BY_THRUST
  70:firmwares/rotorcraft/guidance/guidance_h.c **** #define GUIDANCE_H_APPROX_FORCE_BY_THRUST FALSE
  71:firmwares/rotorcraft/guidance/guidance_h.c **** #endif
  72:firmwares/rotorcraft/guidance/guidance_h.c **** 
  73:firmwares/rotorcraft/guidance/guidance_h.c **** 
  74:firmwares/rotorcraft/guidance/guidance_h.c **** uint8_t guidance_h_mode;
  75:firmwares/rotorcraft/guidance/guidance_h.c **** bool_t guidance_h_use_ref;
  76:firmwares/rotorcraft/guidance/guidance_h.c **** bool_t guidance_h_approx_force_by_thrust;
  77:firmwares/rotorcraft/guidance/guidance_h.c **** 
  78:firmwares/rotorcraft/guidance/guidance_h.c **** struct Int32Vect2 guidance_h_pos_sp;
  79:firmwares/rotorcraft/guidance/guidance_h.c **** struct Int32Vect2 guidance_h_pos_ref;
  80:firmwares/rotorcraft/guidance/guidance_h.c **** struct Int32Vect2 guidance_h_speed_ref;
  81:firmwares/rotorcraft/guidance/guidance_h.c **** struct Int32Vect2 guidance_h_accel_ref;
  82:firmwares/rotorcraft/guidance/guidance_h.c **** #if GUIDANCE_H_USE_SPEED_REF
  83:firmwares/rotorcraft/guidance/guidance_h.c **** struct Int32Vect2 guidance_h_speed_sp;
  84:firmwares/rotorcraft/guidance/guidance_h.c **** #endif
  85:firmwares/rotorcraft/guidance/guidance_h.c **** struct Int32Vect2 guidance_h_pos_err;
  86:firmwares/rotorcraft/guidance/guidance_h.c **** struct Int32Vect2 guidance_h_speed_err;
  87:firmwares/rotorcraft/guidance/guidance_h.c **** struct Int32Vect2 guidance_h_trim_att_integrator;
  88:firmwares/rotorcraft/guidance/guidance_h.c **** 
  89:firmwares/rotorcraft/guidance/guidance_h.c **** struct Int32Vect2  guidance_h_cmd_earth;
  90:firmwares/rotorcraft/guidance/guidance_h.c **** struct Int32Eulers guidance_h_rc_sp;
  91:firmwares/rotorcraft/guidance/guidance_h.c **** int32_t guidance_h_heading_sp;
  92:firmwares/rotorcraft/guidance/guidance_h.c **** 
  93:firmwares/rotorcraft/guidance/guidance_h.c **** int32_t guidance_h_pgain;
  94:firmwares/rotorcraft/guidance/guidance_h.c **** int32_t guidance_h_dgain;
  95:firmwares/rotorcraft/guidance/guidance_h.c **** int32_t guidance_h_igain;
  96:firmwares/rotorcraft/guidance/guidance_h.c **** int32_t guidance_h_again;
  97:firmwares/rotorcraft/guidance/guidance_h.c **** int32_t guidance_h_vgain;
  98:firmwares/rotorcraft/guidance/guidance_h.c **** 
  99:firmwares/rotorcraft/guidance/guidance_h.c **** int32_t transition_percentage;
 100:firmwares/rotorcraft/guidance/guidance_h.c **** int32_t transition_theta_offset;
 101:firmwares/rotorcraft/guidance/guidance_h.c **** 
 102:firmwares/rotorcraft/guidance/guidance_h.c **** 
 103:firmwares/rotorcraft/guidance/guidance_h.c **** static void guidance_h_update_reference(void);
 104:firmwares/rotorcraft/guidance/guidance_h.c **** static void guidance_h_traj_run(bool_t in_flight);
 105:firmwares/rotorcraft/guidance/guidance_h.c **** static void guidance_h_hover_enter(void);
 106:firmwares/rotorcraft/guidance/guidance_h.c **** static void guidance_h_nav_enter(void);
 107:firmwares/rotorcraft/guidance/guidance_h.c **** static inline void transition_run(void);
 108:firmwares/rotorcraft/guidance/guidance_h.c **** static void read_rc_setpoint_speed_i(struct Int32Vect2 *speed_sp, bool_t in_flight);
 109:firmwares/rotorcraft/guidance/guidance_h.c **** 
 110:firmwares/rotorcraft/guidance/guidance_h.c **** #if PERIODIC_TELEMETRY
 111:firmwares/rotorcraft/guidance/guidance_h.c **** #include "subsystems/datalink/telemetry.h"
 112:firmwares/rotorcraft/guidance/guidance_h.c **** 
 113:firmwares/rotorcraft/guidance/guidance_h.c **** static void send_gh(struct transport_tx *trans, struct link_device *dev)
 114:firmwares/rotorcraft/guidance/guidance_h.c **** {
 115:firmwares/rotorcraft/guidance/guidance_h.c ****   struct NedCoor_i *pos = stateGetPositionNed_i();
 116:firmwares/rotorcraft/guidance/guidance_h.c ****   pprz_msg_send_GUIDANCE_H_INT(trans, dev, AC_ID,
 117:firmwares/rotorcraft/guidance/guidance_h.c ****                                &guidance_h_pos_sp.x, &guidance_h_pos_sp.y,
 118:firmwares/rotorcraft/guidance/guidance_h.c ****                                &guidance_h_pos_ref.x, &guidance_h_pos_ref.y,
 119:firmwares/rotorcraft/guidance/guidance_h.c ****                                &(pos->x), &(pos->y));
 120:firmwares/rotorcraft/guidance/guidance_h.c **** }
 121:firmwares/rotorcraft/guidance/guidance_h.c **** 
 122:firmwares/rotorcraft/guidance/guidance_h.c **** static void send_hover_loop(struct transport_tx *trans, struct link_device *dev)
 123:firmwares/rotorcraft/guidance/guidance_h.c **** {
 124:firmwares/rotorcraft/guidance/guidance_h.c ****   struct NedCoor_i *pos = stateGetPositionNed_i();
 125:firmwares/rotorcraft/guidance/guidance_h.c ****   struct NedCoor_i *speed = stateGetSpeedNed_i();
 126:firmwares/rotorcraft/guidance/guidance_h.c ****   struct NedCoor_i *accel = stateGetAccelNed_i();
 127:firmwares/rotorcraft/guidance/guidance_h.c ****   pprz_msg_send_HOVER_LOOP(trans, dev, AC_ID,
 128:firmwares/rotorcraft/guidance/guidance_h.c ****                            &guidance_h_pos_sp.x,
 129:firmwares/rotorcraft/guidance/guidance_h.c ****                            &guidance_h_pos_sp.y,
 130:firmwares/rotorcraft/guidance/guidance_h.c ****                            &(pos->x), &(pos->y),
 131:firmwares/rotorcraft/guidance/guidance_h.c ****                            &(speed->x), &(speed->y),
 132:firmwares/rotorcraft/guidance/guidance_h.c ****                            &(accel->x), &(accel->y),
 133:firmwares/rotorcraft/guidance/guidance_h.c ****                            &guidance_h_pos_err.x,
 134:firmwares/rotorcraft/guidance/guidance_h.c ****                            &guidance_h_pos_err.y,
 135:firmwares/rotorcraft/guidance/guidance_h.c ****                            &guidance_h_speed_err.x,
 136:firmwares/rotorcraft/guidance/guidance_h.c ****                            &guidance_h_speed_err.y,
 137:firmwares/rotorcraft/guidance/guidance_h.c ****                            &guidance_h_trim_att_integrator.x,
 138:firmwares/rotorcraft/guidance/guidance_h.c ****                            &guidance_h_trim_att_integrator.y,
 139:firmwares/rotorcraft/guidance/guidance_h.c ****                            &guidance_h_cmd_earth.x,
 140:firmwares/rotorcraft/guidance/guidance_h.c ****                            &guidance_h_cmd_earth.y,
 141:firmwares/rotorcraft/guidance/guidance_h.c ****                            &guidance_h_heading_sp);
 142:firmwares/rotorcraft/guidance/guidance_h.c **** }
 143:firmwares/rotorcraft/guidance/guidance_h.c **** 
 144:firmwares/rotorcraft/guidance/guidance_h.c **** static void send_href(struct transport_tx *trans, struct link_device *dev)
 145:firmwares/rotorcraft/guidance/guidance_h.c **** {
 146:firmwares/rotorcraft/guidance/guidance_h.c ****   pprz_msg_send_GUIDANCE_H_REF_INT(trans, dev, AC_ID,
 147:firmwares/rotorcraft/guidance/guidance_h.c ****                                    &guidance_h_pos_sp.x, &guidance_h_pos_ref.x,
 148:firmwares/rotorcraft/guidance/guidance_h.c ****                                    &guidance_h_speed_sp.x, &guidance_h_speed_ref.x,
 149:firmwares/rotorcraft/guidance/guidance_h.c ****                                    &guidance_h_accel_ref.x,
 150:firmwares/rotorcraft/guidance/guidance_h.c ****                                    &guidance_h_pos_sp.y, &guidance_h_pos_ref.y,
 151:firmwares/rotorcraft/guidance/guidance_h.c ****                                    &guidance_h_speed_sp.y, &guidance_h_speed_ref.y,
 152:firmwares/rotorcraft/guidance/guidance_h.c ****                                    &guidance_h_accel_ref.y);
 153:firmwares/rotorcraft/guidance/guidance_h.c **** }
 154:firmwares/rotorcraft/guidance/guidance_h.c **** 
 155:firmwares/rotorcraft/guidance/guidance_h.c **** static void send_tune_hover(struct transport_tx *trans, struct link_device *dev)
 156:firmwares/rotorcraft/guidance/guidance_h.c **** {
 157:firmwares/rotorcraft/guidance/guidance_h.c ****   pprz_msg_send_ROTORCRAFT_TUNE_HOVER(trans, dev, AC_ID,
 158:firmwares/rotorcraft/guidance/guidance_h.c ****                                       &radio_control.values[RADIO_ROLL],
 159:firmwares/rotorcraft/guidance/guidance_h.c ****                                       &radio_control.values[RADIO_PITCH],
 160:firmwares/rotorcraft/guidance/guidance_h.c ****                                       &radio_control.values[RADIO_YAW],
 161:firmwares/rotorcraft/guidance/guidance_h.c ****                                       &stabilization_cmd[COMMAND_ROLL],
 162:firmwares/rotorcraft/guidance/guidance_h.c ****                                       &stabilization_cmd[COMMAND_PITCH],
 163:firmwares/rotorcraft/guidance/guidance_h.c ****                                       &stabilization_cmd[COMMAND_YAW],
 164:firmwares/rotorcraft/guidance/guidance_h.c ****                                       &stabilization_cmd[COMMAND_THRUST],
 165:firmwares/rotorcraft/guidance/guidance_h.c ****                                       &(stateGetNedToBodyEulers_i()->phi),
 166:firmwares/rotorcraft/guidance/guidance_h.c ****                                       &(stateGetNedToBodyEulers_i()->theta),
 167:firmwares/rotorcraft/guidance/guidance_h.c ****                                       &(stateGetNedToBodyEulers_i()->psi));
 168:firmwares/rotorcraft/guidance/guidance_h.c **** }
 169:firmwares/rotorcraft/guidance/guidance_h.c **** 
 170:firmwares/rotorcraft/guidance/guidance_h.c **** #endif
 171:firmwares/rotorcraft/guidance/guidance_h.c **** 
 172:firmwares/rotorcraft/guidance/guidance_h.c **** void guidance_h_init(void)
 173:firmwares/rotorcraft/guidance/guidance_h.c **** {
 174:firmwares/rotorcraft/guidance/guidance_h.c **** 
 175:firmwares/rotorcraft/guidance/guidance_h.c ****   guidance_h_mode = GUIDANCE_H_MODE_KILL;
 176:firmwares/rotorcraft/guidance/guidance_h.c ****   guidance_h_use_ref = GUIDANCE_H_USE_REF;
 177:firmwares/rotorcraft/guidance/guidance_h.c ****   guidance_h_approx_force_by_thrust = GUIDANCE_H_APPROX_FORCE_BY_THRUST;
 178:firmwares/rotorcraft/guidance/guidance_h.c **** 
 179:firmwares/rotorcraft/guidance/guidance_h.c ****   INT_VECT2_ZERO(guidance_h_pos_sp);
 180:firmwares/rotorcraft/guidance/guidance_h.c ****   INT_VECT2_ZERO(guidance_h_trim_att_integrator);
 181:firmwares/rotorcraft/guidance/guidance_h.c ****   INT_EULERS_ZERO(guidance_h_rc_sp);
 182:firmwares/rotorcraft/guidance/guidance_h.c ****   guidance_h_heading_sp = 0;
 183:firmwares/rotorcraft/guidance/guidance_h.c ****   guidance_h_pgain = GUIDANCE_H_PGAIN;
 184:firmwares/rotorcraft/guidance/guidance_h.c ****   guidance_h_igain = GUIDANCE_H_IGAIN;
 185:firmwares/rotorcraft/guidance/guidance_h.c ****   guidance_h_dgain = GUIDANCE_H_DGAIN;
 186:firmwares/rotorcraft/guidance/guidance_h.c ****   guidance_h_again = GUIDANCE_H_AGAIN;
 187:firmwares/rotorcraft/guidance/guidance_h.c ****   guidance_h_vgain = GUIDANCE_H_VGAIN;
 188:firmwares/rotorcraft/guidance/guidance_h.c ****   transition_percentage = 0;
 189:firmwares/rotorcraft/guidance/guidance_h.c ****   transition_theta_offset = 0;
 190:firmwares/rotorcraft/guidance/guidance_h.c **** 
 191:firmwares/rotorcraft/guidance/guidance_h.c ****   gh_ref_init();
 192:firmwares/rotorcraft/guidance/guidance_h.c **** 
 193:firmwares/rotorcraft/guidance/guidance_h.c **** #if PERIODIC_TELEMETRY
 194:firmwares/rotorcraft/guidance/guidance_h.c ****   register_periodic_telemetry(DefaultPeriodic, "GUIDANCE_H_INT", send_gh);
 195:firmwares/rotorcraft/guidance/guidance_h.c ****   register_periodic_telemetry(DefaultPeriodic, "HOVER_LOOP", send_hover_loop);
 196:firmwares/rotorcraft/guidance/guidance_h.c ****   register_periodic_telemetry(DefaultPeriodic, "GUIDANCE_H_REF", send_href);
 197:firmwares/rotorcraft/guidance/guidance_h.c ****   register_periodic_telemetry(DefaultPeriodic, "ROTORCRAFT_TUNE_HOVER", send_tune_hover);
 198:firmwares/rotorcraft/guidance/guidance_h.c **** #endif
 199:firmwares/rotorcraft/guidance/guidance_h.c **** }
 200:firmwares/rotorcraft/guidance/guidance_h.c **** 
 201:firmwares/rotorcraft/guidance/guidance_h.c **** 
 202:firmwares/rotorcraft/guidance/guidance_h.c **** static inline void reset_guidance_reference_from_current_position(void)
 203:firmwares/rotorcraft/guidance/guidance_h.c **** {
  98              		.loc 2 203 0
  99              		.cfi_startproc
 100              		@ args = 0, pretend = 0, frame = 0
 101              		@ frame_needed = 0, uses_anonymous_args = 0
 102 0000 73B5     		push	{r0, r1, r4, r5, r6, lr}
 103              		.cfi_def_cfa_offset 24
 104              		.cfi_offset 0, -24
 105              		.cfi_offset 1, -20
 106              		.cfi_offset 4, -16
 107              		.cfi_offset 5, -12
 108              		.cfi_offset 6, -8
 109              		.cfi_offset 14, -4
 204:firmwares/rotorcraft/guidance/guidance_h.c ****   VECT2_COPY(guidance_h_pos_ref, *stateGetPositionNed_i());
 110              		.loc 2 204 0
 111 0002 FFF7FEFF 		bl	stateGetPositionNed_i
 112              	.LVL2:
 113 0006 114D     		ldr	r5, .L11
 114 0008 0368     		ldr	r3, [r0]
 115 000a 2B60     		str	r3, [r5]
 116 000c FFF7FEFF 		bl	stateGetPositionNed_i
 117              	.LVL3:
 118 0010 4368     		ldr	r3, [r0, #4]
 119 0012 6B60     		str	r3, [r5, #4]
 205:firmwares/rotorcraft/guidance/guidance_h.c ****   VECT2_COPY(guidance_h_speed_ref, *stateGetSpeedNed_i());
 120              		.loc 2 205 0
 121 0014 FFF7FEFF 		bl	stateGetSpeedNed_i
 122              	.LVL4:
 123 0018 0D4E     		ldr	r6, .L11+4
 124 001a 0368     		ldr	r3, [r0]
 125 001c 3360     		str	r3, [r6]
 126 001e FFF7FEFF 		bl	stateGetSpeedNed_i
 127              	.LVL5:
 128 0022 4368     		ldr	r3, [r0, #4]
 129 0024 7360     		str	r3, [r6, #4]
 206:firmwares/rotorcraft/guidance/guidance_h.c ****   INT_VECT2_ZERO(guidance_h_accel_ref);
 130              		.loc 2 206 0
 131 0026 0B4B     		ldr	r3, .L11+8
 132 0028 0024     		movs	r4, #0
 133 002a 1C60     		str	r4, [r3]
 134 002c 5C60     		str	r4, [r3, #4]
 207:firmwares/rotorcraft/guidance/guidance_h.c ****   gh_set_ref(guidance_h_pos_ref, guidance_h_speed_ref, guidance_h_accel_ref);
 135              		.loc 2 207 0
 136 002e 93E80300 		ldmia	r3, {r0, r1}
 137 0032 96E80C00 		ldmia	r6, {r2, r3}
 138 0036 8DE80300 		stmia	sp, {r0, r1}
 139 003a 95E80300 		ldmia	r5, {r0, r1}
 140 003e FFF7FEFF 		bl	gh_set_ref
 141              	.LVL6:
 208:firmwares/rotorcraft/guidance/guidance_h.c **** 
 209:firmwares/rotorcraft/guidance/guidance_h.c ****   INT_VECT2_ZERO(guidance_h_trim_att_integrator);
 142              		.loc 2 209 0
 143 0042 054B     		ldr	r3, .L11+12
 144 0044 1C60     		str	r4, [r3]
 145 0046 5C60     		str	r4, [r3, #4]
 210:firmwares/rotorcraft/guidance/guidance_h.c **** }
 146              		.loc 2 210 0
 147 0048 02B0     		add	sp, sp, #8
 148              		@ sp needed
 149 004a 70BD     		pop	{r4, r5, r6, pc}
 150              	.L12:
 151              		.align	2
 152              	.L11:
 153 004c 00000000 		.word	.LANCHOR0
 154 0050 00000000 		.word	.LANCHOR1
 155 0054 00000000 		.word	.LANCHOR2
 156 0058 00000000 		.word	.LANCHOR3
 157              		.cfi_endproc
 158              	.LFE466:
 160              		.section	.text.guidance_h_update_reference,"ax",%progbits
 161              		.align	1
 162              		.thumb
 163              		.thumb_func
 165              	guidance_h_update_reference:
 166              	.LFB470:
 211:firmwares/rotorcraft/guidance/guidance_h.c **** 
 212:firmwares/rotorcraft/guidance/guidance_h.c **** void guidance_h_mode_changed(uint8_t new_mode)
 213:firmwares/rotorcraft/guidance/guidance_h.c **** {
 214:firmwares/rotorcraft/guidance/guidance_h.c ****   if (new_mode == guidance_h_mode) {
 215:firmwares/rotorcraft/guidance/guidance_h.c ****     return;
 216:firmwares/rotorcraft/guidance/guidance_h.c ****   }
 217:firmwares/rotorcraft/guidance/guidance_h.c **** 
 218:firmwares/rotorcraft/guidance/guidance_h.c ****   if (new_mode != GUIDANCE_H_MODE_FORWARD && new_mode != GUIDANCE_H_MODE_RATE) {
 219:firmwares/rotorcraft/guidance/guidance_h.c ****     transition_percentage = 0;
 220:firmwares/rotorcraft/guidance/guidance_h.c ****     transition_theta_offset = 0;
 221:firmwares/rotorcraft/guidance/guidance_h.c ****   }
 222:firmwares/rotorcraft/guidance/guidance_h.c **** 
 223:firmwares/rotorcraft/guidance/guidance_h.c ****   switch (new_mode) {
 224:firmwares/rotorcraft/guidance/guidance_h.c ****     case GUIDANCE_H_MODE_RC_DIRECT:
 225:firmwares/rotorcraft/guidance/guidance_h.c ****       stabilization_none_enter();
 226:firmwares/rotorcraft/guidance/guidance_h.c ****       break;
 227:firmwares/rotorcraft/guidance/guidance_h.c **** 
 228:firmwares/rotorcraft/guidance/guidance_h.c ****     case GUIDANCE_H_MODE_RATE:
 229:firmwares/rotorcraft/guidance/guidance_h.c ****       stabilization_rate_enter();
 230:firmwares/rotorcraft/guidance/guidance_h.c ****       break;
 231:firmwares/rotorcraft/guidance/guidance_h.c **** 
 232:firmwares/rotorcraft/guidance/guidance_h.c ****     case GUIDANCE_H_MODE_CARE_FREE:
 233:firmwares/rotorcraft/guidance/guidance_h.c ****       stabilization_attitude_reset_care_free_heading();
 234:firmwares/rotorcraft/guidance/guidance_h.c ****     case GUIDANCE_H_MODE_FORWARD:
 235:firmwares/rotorcraft/guidance/guidance_h.c ****     case GUIDANCE_H_MODE_ATTITUDE:
 236:firmwares/rotorcraft/guidance/guidance_h.c **** #if NO_ATTITUDE_RESET_ON_MODE_CHANGE
 237:firmwares/rotorcraft/guidance/guidance_h.c ****       /* reset attitude stabilization if previous mode was not using it */
 238:firmwares/rotorcraft/guidance/guidance_h.c ****       if (guidance_h_mode == GUIDANCE_H_MODE_KILL ||
 239:firmwares/rotorcraft/guidance/guidance_h.c ****           guidance_h_mode == GUIDANCE_H_MODE_RATE ||
 240:firmwares/rotorcraft/guidance/guidance_h.c ****           guidance_h_mode == GUIDANCE_H_MODE_RC_DIRECT)
 241:firmwares/rotorcraft/guidance/guidance_h.c **** #endif
 242:firmwares/rotorcraft/guidance/guidance_h.c ****         stabilization_attitude_enter();
 243:firmwares/rotorcraft/guidance/guidance_h.c ****       break;
 244:firmwares/rotorcraft/guidance/guidance_h.c **** 
 245:firmwares/rotorcraft/guidance/guidance_h.c ****     case GUIDANCE_H_MODE_HOVER:
 246:firmwares/rotorcraft/guidance/guidance_h.c ****       guidance_h_hover_enter();
 247:firmwares/rotorcraft/guidance/guidance_h.c **** #if NO_ATTITUDE_RESET_ON_MODE_CHANGE
 248:firmwares/rotorcraft/guidance/guidance_h.c ****       /* reset attitude stabilization if previous mode was not using it */
 249:firmwares/rotorcraft/guidance/guidance_h.c ****       if (guidance_h_mode == GUIDANCE_H_MODE_KILL ||
 250:firmwares/rotorcraft/guidance/guidance_h.c ****           guidance_h_mode == GUIDANCE_H_MODE_RATE ||
 251:firmwares/rotorcraft/guidance/guidance_h.c ****           guidance_h_mode == GUIDANCE_H_MODE_RC_DIRECT)
 252:firmwares/rotorcraft/guidance/guidance_h.c **** #endif
 253:firmwares/rotorcraft/guidance/guidance_h.c ****         stabilization_attitude_enter();
 254:firmwares/rotorcraft/guidance/guidance_h.c ****       break;
 255:firmwares/rotorcraft/guidance/guidance_h.c **** 
 256:firmwares/rotorcraft/guidance/guidance_h.c **** #if GUIDANCE_H_MODE_MODULE_SETTING == GUIDANCE_H_MODE_MODULE
 257:firmwares/rotorcraft/guidance/guidance_h.c ****     case GUIDANCE_H_MODE_MODULE:
 258:firmwares/rotorcraft/guidance/guidance_h.c ****       guidance_h_module_enter();
 259:firmwares/rotorcraft/guidance/guidance_h.c ****       break;
 260:firmwares/rotorcraft/guidance/guidance_h.c **** #endif
 261:firmwares/rotorcraft/guidance/guidance_h.c **** 
 262:firmwares/rotorcraft/guidance/guidance_h.c ****     case GUIDANCE_H_MODE_NAV:
 263:firmwares/rotorcraft/guidance/guidance_h.c ****       guidance_h_nav_enter();
 264:firmwares/rotorcraft/guidance/guidance_h.c **** #if NO_ATTITUDE_RESET_ON_MODE_CHANGE
 265:firmwares/rotorcraft/guidance/guidance_h.c ****       /* reset attitude stabilization if previous mode was not using it */
 266:firmwares/rotorcraft/guidance/guidance_h.c ****       if (guidance_h_mode == GUIDANCE_H_MODE_KILL ||
 267:firmwares/rotorcraft/guidance/guidance_h.c ****           guidance_h_mode == GUIDANCE_H_MODE_RATE ||
 268:firmwares/rotorcraft/guidance/guidance_h.c ****           guidance_h_mode == GUIDANCE_H_MODE_RC_DIRECT)
 269:firmwares/rotorcraft/guidance/guidance_h.c **** #endif
 270:firmwares/rotorcraft/guidance/guidance_h.c ****         stabilization_attitude_enter();
 271:firmwares/rotorcraft/guidance/guidance_h.c ****       break;
 272:firmwares/rotorcraft/guidance/guidance_h.c **** 
 273:firmwares/rotorcraft/guidance/guidance_h.c ****     default:
 274:firmwares/rotorcraft/guidance/guidance_h.c ****       break;
 275:firmwares/rotorcraft/guidance/guidance_h.c ****   }
 276:firmwares/rotorcraft/guidance/guidance_h.c **** 
 277:firmwares/rotorcraft/guidance/guidance_h.c ****   guidance_h_mode = new_mode;
 278:firmwares/rotorcraft/guidance/guidance_h.c **** 
 279:firmwares/rotorcraft/guidance/guidance_h.c **** }
 280:firmwares/rotorcraft/guidance/guidance_h.c **** 
 281:firmwares/rotorcraft/guidance/guidance_h.c **** 
 282:firmwares/rotorcraft/guidance/guidance_h.c **** void guidance_h_read_rc(bool_t  in_flight)
 283:firmwares/rotorcraft/guidance/guidance_h.c **** {
 284:firmwares/rotorcraft/guidance/guidance_h.c **** 
 285:firmwares/rotorcraft/guidance/guidance_h.c ****   switch (guidance_h_mode) {
 286:firmwares/rotorcraft/guidance/guidance_h.c **** 
 287:firmwares/rotorcraft/guidance/guidance_h.c ****     case GUIDANCE_H_MODE_RC_DIRECT:
 288:firmwares/rotorcraft/guidance/guidance_h.c ****       stabilization_none_read_rc();
 289:firmwares/rotorcraft/guidance/guidance_h.c ****       break;
 290:firmwares/rotorcraft/guidance/guidance_h.c **** 
 291:firmwares/rotorcraft/guidance/guidance_h.c ****     case GUIDANCE_H_MODE_RATE:
 292:firmwares/rotorcraft/guidance/guidance_h.c **** #if SWITCH_STICKS_FOR_RATE_CONTROL
 293:firmwares/rotorcraft/guidance/guidance_h.c ****       stabilization_rate_read_rc_switched_sticks();
 294:firmwares/rotorcraft/guidance/guidance_h.c **** #else
 295:firmwares/rotorcraft/guidance/guidance_h.c ****       stabilization_rate_read_rc();
 296:firmwares/rotorcraft/guidance/guidance_h.c **** #endif
 297:firmwares/rotorcraft/guidance/guidance_h.c ****       break;
 298:firmwares/rotorcraft/guidance/guidance_h.c ****     case GUIDANCE_H_MODE_CARE_FREE:
 299:firmwares/rotorcraft/guidance/guidance_h.c ****       stabilization_attitude_read_rc(in_flight, TRUE, FALSE);
 300:firmwares/rotorcraft/guidance/guidance_h.c ****       break;
 301:firmwares/rotorcraft/guidance/guidance_h.c ****     case GUIDANCE_H_MODE_FORWARD:
 302:firmwares/rotorcraft/guidance/guidance_h.c ****       stabilization_attitude_read_rc(in_flight, FALSE, TRUE);
 303:firmwares/rotorcraft/guidance/guidance_h.c ****       break;
 304:firmwares/rotorcraft/guidance/guidance_h.c ****     case GUIDANCE_H_MODE_ATTITUDE:
 305:firmwares/rotorcraft/guidance/guidance_h.c ****       stabilization_attitude_read_rc(in_flight, FALSE, FALSE);
 306:firmwares/rotorcraft/guidance/guidance_h.c ****       break;
 307:firmwares/rotorcraft/guidance/guidance_h.c ****     case GUIDANCE_H_MODE_HOVER:
 308:firmwares/rotorcraft/guidance/guidance_h.c ****       stabilization_attitude_read_rc_setpoint_eulers(&guidance_h_rc_sp, in_flight, FALSE, FALSE);
 309:firmwares/rotorcraft/guidance/guidance_h.c **** #if GUIDANCE_H_USE_SPEED_REF
 310:firmwares/rotorcraft/guidance/guidance_h.c ****       read_rc_setpoint_speed_i(&guidance_h_speed_sp, in_flight);
 311:firmwares/rotorcraft/guidance/guidance_h.c **** #endif
 312:firmwares/rotorcraft/guidance/guidance_h.c ****       break;
 313:firmwares/rotorcraft/guidance/guidance_h.c **** 
 314:firmwares/rotorcraft/guidance/guidance_h.c **** #if GUIDANCE_H_MODE_MODULE_SETTING == GUIDANCE_H_MODE_MODULE
 315:firmwares/rotorcraft/guidance/guidance_h.c ****     case GUIDANCE_H_MODE_MODULE:
 316:firmwares/rotorcraft/guidance/guidance_h.c ****       guidance_h_module_read_rc();
 317:firmwares/rotorcraft/guidance/guidance_h.c ****       break;
 318:firmwares/rotorcraft/guidance/guidance_h.c **** #endif
 319:firmwares/rotorcraft/guidance/guidance_h.c **** 
 320:firmwares/rotorcraft/guidance/guidance_h.c ****     case GUIDANCE_H_MODE_NAV:
 321:firmwares/rotorcraft/guidance/guidance_h.c ****       if (radio_control.status == RC_OK) {
 322:firmwares/rotorcraft/guidance/guidance_h.c ****         stabilization_attitude_read_rc_setpoint_eulers(&guidance_h_rc_sp, in_flight, FALSE, FALSE);
 323:firmwares/rotorcraft/guidance/guidance_h.c ****       } else {
 324:firmwares/rotorcraft/guidance/guidance_h.c ****         INT_EULERS_ZERO(guidance_h_rc_sp);
 325:firmwares/rotorcraft/guidance/guidance_h.c ****       }
 326:firmwares/rotorcraft/guidance/guidance_h.c ****       break;
 327:firmwares/rotorcraft/guidance/guidance_h.c ****     default:
 328:firmwares/rotorcraft/guidance/guidance_h.c ****       break;
 329:firmwares/rotorcraft/guidance/guidance_h.c ****   }
 330:firmwares/rotorcraft/guidance/guidance_h.c **** 
 331:firmwares/rotorcraft/guidance/guidance_h.c **** }
 332:firmwares/rotorcraft/guidance/guidance_h.c **** 
 333:firmwares/rotorcraft/guidance/guidance_h.c **** 
 334:firmwares/rotorcraft/guidance/guidance_h.c **** void guidance_h_run(bool_t  in_flight)
 335:firmwares/rotorcraft/guidance/guidance_h.c **** {
 336:firmwares/rotorcraft/guidance/guidance_h.c ****   switch (guidance_h_mode) {
 337:firmwares/rotorcraft/guidance/guidance_h.c **** 
 338:firmwares/rotorcraft/guidance/guidance_h.c ****     case GUIDANCE_H_MODE_RC_DIRECT:
 339:firmwares/rotorcraft/guidance/guidance_h.c ****       stabilization_none_run(in_flight);
 340:firmwares/rotorcraft/guidance/guidance_h.c ****       break;
 341:firmwares/rotorcraft/guidance/guidance_h.c **** 
 342:firmwares/rotorcraft/guidance/guidance_h.c ****     case GUIDANCE_H_MODE_RATE:
 343:firmwares/rotorcraft/guidance/guidance_h.c ****       stabilization_rate_run(in_flight);
 344:firmwares/rotorcraft/guidance/guidance_h.c ****       break;
 345:firmwares/rotorcraft/guidance/guidance_h.c **** 
 346:firmwares/rotorcraft/guidance/guidance_h.c ****     case GUIDANCE_H_MODE_FORWARD:
 347:firmwares/rotorcraft/guidance/guidance_h.c ****       if (transition_percentage < (100 << INT32_PERCENTAGE_FRAC)) {
 348:firmwares/rotorcraft/guidance/guidance_h.c ****         transition_run();
 349:firmwares/rotorcraft/guidance/guidance_h.c ****       }
 350:firmwares/rotorcraft/guidance/guidance_h.c ****     case GUIDANCE_H_MODE_CARE_FREE:
 351:firmwares/rotorcraft/guidance/guidance_h.c ****     case GUIDANCE_H_MODE_ATTITUDE:
 352:firmwares/rotorcraft/guidance/guidance_h.c ****       stabilization_attitude_run(in_flight);
 353:firmwares/rotorcraft/guidance/guidance_h.c ****       break;
 354:firmwares/rotorcraft/guidance/guidance_h.c **** 
 355:firmwares/rotorcraft/guidance/guidance_h.c ****     case GUIDANCE_H_MODE_HOVER:
 356:firmwares/rotorcraft/guidance/guidance_h.c ****       if (!in_flight) {
 357:firmwares/rotorcraft/guidance/guidance_h.c ****         guidance_h_hover_enter();
 358:firmwares/rotorcraft/guidance/guidance_h.c ****       }
 359:firmwares/rotorcraft/guidance/guidance_h.c **** 
 360:firmwares/rotorcraft/guidance/guidance_h.c ****       guidance_h_update_reference();
 361:firmwares/rotorcraft/guidance/guidance_h.c **** 
 362:firmwares/rotorcraft/guidance/guidance_h.c ****       /* set psi command */
 363:firmwares/rotorcraft/guidance/guidance_h.c ****       guidance_h_heading_sp = guidance_h_rc_sp.psi;
 364:firmwares/rotorcraft/guidance/guidance_h.c ****       /* compute x,y earth commands */
 365:firmwares/rotorcraft/guidance/guidance_h.c ****       guidance_h_traj_run(in_flight);
 366:firmwares/rotorcraft/guidance/guidance_h.c ****       /* set final attitude setpoint */
 367:firmwares/rotorcraft/guidance/guidance_h.c ****       stabilization_attitude_set_earth_cmd_i(&guidance_h_cmd_earth,
 368:firmwares/rotorcraft/guidance/guidance_h.c ****                                              guidance_h_heading_sp);
 369:firmwares/rotorcraft/guidance/guidance_h.c ****       stabilization_attitude_run(in_flight);
 370:firmwares/rotorcraft/guidance/guidance_h.c ****       break;
 371:firmwares/rotorcraft/guidance/guidance_h.c **** 
 372:firmwares/rotorcraft/guidance/guidance_h.c ****     case GUIDANCE_H_MODE_NAV:
 373:firmwares/rotorcraft/guidance/guidance_h.c ****       if (!in_flight) {
 374:firmwares/rotorcraft/guidance/guidance_h.c ****         guidance_h_nav_enter();
 375:firmwares/rotorcraft/guidance/guidance_h.c ****       }
 376:firmwares/rotorcraft/guidance/guidance_h.c **** 
 377:firmwares/rotorcraft/guidance/guidance_h.c ****       if (horizontal_mode == HORIZONTAL_MODE_ATTITUDE) {
 378:firmwares/rotorcraft/guidance/guidance_h.c ****         struct Int32Eulers sp_cmd_i;
 379:firmwares/rotorcraft/guidance/guidance_h.c ****         sp_cmd_i.phi = nav_roll;
 380:firmwares/rotorcraft/guidance/guidance_h.c ****         sp_cmd_i.theta = nav_pitch;
 381:firmwares/rotorcraft/guidance/guidance_h.c ****         /** @todo: heading can't be set via attitude block yet.
 382:firmwares/rotorcraft/guidance/guidance_h.c ****          * use current euler psi for now, should be real heading
 383:firmwares/rotorcraft/guidance/guidance_h.c ****          */
 384:firmwares/rotorcraft/guidance/guidance_h.c ****         sp_cmd_i.psi = stateGetNedToBodyEulers_i()->psi;
 385:firmwares/rotorcraft/guidance/guidance_h.c ****         stabilization_attitude_set_rpy_setpoint_i(&sp_cmd_i);
 386:firmwares/rotorcraft/guidance/guidance_h.c ****       } else {
 387:firmwares/rotorcraft/guidance/guidance_h.c ****         INT32_VECT2_NED_OF_ENU(guidance_h_pos_sp, navigation_carrot);
 388:firmwares/rotorcraft/guidance/guidance_h.c **** 
 389:firmwares/rotorcraft/guidance/guidance_h.c ****         guidance_h_update_reference();
 390:firmwares/rotorcraft/guidance/guidance_h.c **** 
 391:firmwares/rotorcraft/guidance/guidance_h.c ****         /* set psi command */
 392:firmwares/rotorcraft/guidance/guidance_h.c ****         guidance_h_heading_sp = nav_heading;
 393:firmwares/rotorcraft/guidance/guidance_h.c ****         INT32_ANGLE_NORMALIZE(guidance_h_heading_sp);
 394:firmwares/rotorcraft/guidance/guidance_h.c ****         /* compute x,y earth commands */
 395:firmwares/rotorcraft/guidance/guidance_h.c ****         guidance_h_traj_run(in_flight);
 396:firmwares/rotorcraft/guidance/guidance_h.c ****         /* set final attitude setpoint */
 397:firmwares/rotorcraft/guidance/guidance_h.c ****         stabilization_attitude_set_earth_cmd_i(&guidance_h_cmd_earth,
 398:firmwares/rotorcraft/guidance/guidance_h.c ****                                                guidance_h_heading_sp);
 399:firmwares/rotorcraft/guidance/guidance_h.c ****       }
 400:firmwares/rotorcraft/guidance/guidance_h.c ****       stabilization_attitude_run(in_flight);
 401:firmwares/rotorcraft/guidance/guidance_h.c ****       break;
 402:firmwares/rotorcraft/guidance/guidance_h.c **** 
 403:firmwares/rotorcraft/guidance/guidance_h.c **** #if GUIDANCE_H_MODE_MODULE_SETTING == GUIDANCE_H_MODE_MODULE
 404:firmwares/rotorcraft/guidance/guidance_h.c ****     case GUIDANCE_H_MODE_MODULE:
 405:firmwares/rotorcraft/guidance/guidance_h.c ****       guidance_h_module_run(in_flight);
 406:firmwares/rotorcraft/guidance/guidance_h.c ****       break;
 407:firmwares/rotorcraft/guidance/guidance_h.c **** #endif
 408:firmwares/rotorcraft/guidance/guidance_h.c **** 
 409:firmwares/rotorcraft/guidance/guidance_h.c ****     default:
 410:firmwares/rotorcraft/guidance/guidance_h.c ****       break;
 411:firmwares/rotorcraft/guidance/guidance_h.c ****   }
 412:firmwares/rotorcraft/guidance/guidance_h.c **** }
 413:firmwares/rotorcraft/guidance/guidance_h.c **** 
 414:firmwares/rotorcraft/guidance/guidance_h.c **** 
 415:firmwares/rotorcraft/guidance/guidance_h.c **** static void guidance_h_update_reference(void)
 416:firmwares/rotorcraft/guidance/guidance_h.c **** {
 167              		.loc 2 416 0
 168              		.cfi_startproc
 169              		@ args = 0, pretend = 0, frame = 0
 170              		@ frame_needed = 0, uses_anonymous_args = 0
 171 0000 F8B5     		push	{r3, r4, r5, r6, r7, lr}
 172              		.cfi_def_cfa_offset 24
 173              		.cfi_offset 3, -24
 174              		.cfi_offset 4, -20
 175              		.cfi_offset 5, -16
 176              		.cfi_offset 6, -12
 177              		.cfi_offset 7, -8
 178              		.cfi_offset 14, -4
 417:firmwares/rotorcraft/guidance/guidance_h.c ****   /* compute reference even if usage temporarily disabled via guidance_h_use_ref */
 418:firmwares/rotorcraft/guidance/guidance_h.c **** #if GUIDANCE_H_USE_REF
 419:firmwares/rotorcraft/guidance/guidance_h.c **** #if GUIDANCE_H_USE_SPEED_REF
 420:firmwares/rotorcraft/guidance/guidance_h.c ****   if (guidance_h_mode == GUIDANCE_H_MODE_HOVER) {
 179              		.loc 2 420 0
 180 0002 214C     		ldr	r4, .L20
 181 0004 2378     		ldrb	r3, [r4]	@ zero_extendqisi2
 182 0006 032B     		cmp	r3, #3
 183 0008 05D1     		bne	.L14
 421:firmwares/rotorcraft/guidance/guidance_h.c ****     gh_update_ref_from_speed_sp(guidance_h_speed_sp);
 184              		.loc 2 421 0
 185 000a 204B     		ldr	r3, .L20+4
 186 000c 93E80300 		ldmia	r3, {r0, r1}
 187 0010 FFF7FEFF 		bl	gh_update_ref_from_speed_sp
 188              	.LVL7:
 189 0014 04E0     		b	.L15
 190              	.L14:
 422:firmwares/rotorcraft/guidance/guidance_h.c ****   } else
 423:firmwares/rotorcraft/guidance/guidance_h.c **** #endif
 424:firmwares/rotorcraft/guidance/guidance_h.c ****     gh_update_ref_from_pos_sp(guidance_h_pos_sp);
 191              		.loc 2 424 0
 192 0016 1E4B     		ldr	r3, .L20+8
 193 0018 93E80300 		ldmia	r3, {r0, r1}
 194 001c FFF7FEFF 		bl	gh_update_ref_from_pos_sp
 195              	.LVL8:
 196              	.L15:
 425:firmwares/rotorcraft/guidance/guidance_h.c **** #endif
 426:firmwares/rotorcraft/guidance/guidance_h.c **** 
 427:firmwares/rotorcraft/guidance/guidance_h.c ****   /* either use the reference or simply copy the pos setpoint */
 428:firmwares/rotorcraft/guidance/guidance_h.c ****   if (guidance_h_use_ref) {
 197              		.loc 2 428 0
 198 0020 1C4B     		ldr	r3, .L20+12
 199 0022 1D48     		ldr	r0, .L20+16
 200 0024 1B78     		ldrb	r3, [r3]	@ zero_extendqisi2
 201 0026 1D4E     		ldr	r6, .L20+20
 202 0028 1D4D     		ldr	r5, .L20+24
 203 002a D3B1     		cbz	r3, .L16
 429:firmwares/rotorcraft/guidance/guidance_h.c ****     /* convert our reference to generic representation */
 430:firmwares/rotorcraft/guidance/guidance_h.c ****     INT32_VECT2_RSHIFT(guidance_h_pos_ref,   gh_ref.pos, (GH_POS_REF_FRAC - INT32_POS_FRAC));
 204              		.loc 2 430 0
 205 002c 1D49     		ldr	r1, .L20+28
 431:firmwares/rotorcraft/guidance/guidance_h.c ****     INT32_VECT2_LSHIFT(guidance_h_speed_ref, gh_ref.speed, (INT32_SPEED_FRAC - GH_SPEED_REF_FRAC));
 206              		.loc 2 431 0
 207 002e 8B68     		ldr	r3, [r1, #8]
 430:firmwares/rotorcraft/guidance/guidance_h.c ****     INT32_VECT2_RSHIFT(guidance_h_pos_ref,   gh_ref.pos, (GH_POS_REF_FRAC - INT32_POS_FRAC));
 208              		.loc 2 430 0
 209 0030 0F69     		ldr	r7, [r1, #16]
 210 0032 D1F814C0 		ldr	ip, [r1, #20]
 211              		.loc 2 431 0
 212 0036 9B00     		lsls	r3, r3, #2
 213 0038 3360     		str	r3, [r6]
 214 003a CB68     		ldr	r3, [r1, #12]
 215 003c 9B00     		lsls	r3, r3, #2
 216 003e 7360     		str	r3, [r6, #4]
 432:firmwares/rotorcraft/guidance/guidance_h.c ****     INT32_VECT2_LSHIFT(guidance_h_accel_ref, gh_ref.accel, (INT32_ACCEL_FRAC - GH_ACCEL_REF_FRAC));
 217              		.loc 2 432 0
 218 0040 0B68     		ldr	r3, [r1]
 430:firmwares/rotorcraft/guidance/guidance_h.c ****     INT32_VECT2_RSHIFT(guidance_h_pos_ref,   gh_ref.pos, (GH_POS_REF_FRAC - INT32_POS_FRAC));
 219              		.loc 2 430 0
 220 0042 BA0C     		lsrs	r2, r7, #18
 221 0044 8F69     		ldr	r7, [r1, #24]
 222 0046 42EA8C32 		orr	r2, r2, ip, lsl #14
 223              		.loc 2 432 0
 224 004a 9B00     		lsls	r3, r3, #2
 430:firmwares/rotorcraft/guidance/guidance_h.c ****     INT32_VECT2_RSHIFT(guidance_h_pos_ref,   gh_ref.pos, (GH_POS_REF_FRAC - INT32_POS_FRAC));
 225              		.loc 2 430 0
 226 004c D1F81CC0 		ldr	ip, [r1, #28]
 227 0050 0260     		str	r2, [r0]
 228              		.loc 2 432 0
 229 0052 2B60     		str	r3, [r5]
 430:firmwares/rotorcraft/guidance/guidance_h.c ****     INT32_VECT2_RSHIFT(guidance_h_pos_ref,   gh_ref.pos, (GH_POS_REF_FRAC - INT32_POS_FRAC));
 230              		.loc 2 430 0
 231 0054 BA0C     		lsrs	r2, r7, #18
 232              		.loc 2 432 0
 233 0056 4B68     		ldr	r3, [r1, #4]
 430:firmwares/rotorcraft/guidance/guidance_h.c ****     INT32_VECT2_RSHIFT(guidance_h_pos_ref,   gh_ref.pos, (GH_POS_REF_FRAC - INT32_POS_FRAC));
 234              		.loc 2 430 0
 235 0058 42EA8C32 		orr	r2, r2, ip, lsl #14
 236 005c 4260     		str	r2, [r0, #4]
 237              		.loc 2 432 0
 238 005e 9B00     		lsls	r3, r3, #2
 239 0060 07E0     		b	.L19
 240              	.L16:
 433:firmwares/rotorcraft/guidance/guidance_h.c ****   } else {
 434:firmwares/rotorcraft/guidance/guidance_h.c ****     VECT2_COPY(guidance_h_pos_ref, guidance_h_pos_sp);
 241              		.loc 2 434 0
 242 0062 0B4A     		ldr	r2, .L20+8
 435:firmwares/rotorcraft/guidance/guidance_h.c ****     INT_VECT2_ZERO(guidance_h_speed_ref);
 243              		.loc 2 435 0
 244 0064 3360     		str	r3, [r6]
 434:firmwares/rotorcraft/guidance/guidance_h.c ****     VECT2_COPY(guidance_h_pos_ref, guidance_h_pos_sp);
 245              		.loc 2 434 0
 246 0066 1168     		ldr	r1, [r2]
 247 0068 5268     		ldr	r2, [r2, #4]
 248 006a 0160     		str	r1, [r0]
 249 006c 4260     		str	r2, [r0, #4]
 250              		.loc 2 435 0
 251 006e 7360     		str	r3, [r6, #4]
 436:firmwares/rotorcraft/guidance/guidance_h.c ****     INT_VECT2_ZERO(guidance_h_accel_ref);
 252              		.loc 2 436 0
 253 0070 2B60     		str	r3, [r5]
 254              	.L19:
 255 0072 6B60     		str	r3, [r5, #4]
 437:firmwares/rotorcraft/guidance/guidance_h.c ****   }
 438:firmwares/rotorcraft/guidance/guidance_h.c **** 
 439:firmwares/rotorcraft/guidance/guidance_h.c **** #if GUIDANCE_H_USE_SPEED_REF
 440:firmwares/rotorcraft/guidance/guidance_h.c ****   if (guidance_h_mode == GUIDANCE_H_MODE_HOVER) {
 256              		.loc 2 440 0
 257 0074 2378     		ldrb	r3, [r4]	@ zero_extendqisi2
 258 0076 032B     		cmp	r3, #3
 259 0078 04D1     		bne	.L13
 441:firmwares/rotorcraft/guidance/guidance_h.c ****     VECT2_COPY(guidance_h_pos_sp, guidance_h_pos_ref); // for display only
 260              		.loc 2 441 0
 261 007a 054B     		ldr	r3, .L20+8
 262 007c 0268     		ldr	r2, [r0]
 263 007e 1A60     		str	r2, [r3]
 264 0080 4268     		ldr	r2, [r0, #4]
 265 0082 5A60     		str	r2, [r3, #4]
 266              	.L13:
 267 0084 F8BD     		pop	{r3, r4, r5, r6, r7, pc}
 268              	.L21:
 269 0086 00BF     		.align	2
 270              	.L20:
 271 0088 00000000 		.word	.LANCHOR4
 272 008c 00000000 		.word	.LANCHOR5
 273 0090 00000000 		.word	.LANCHOR6
 274 0094 00000000 		.word	.LANCHOR7
 275 0098 00000000 		.word	.LANCHOR0
 276 009c 00000000 		.word	.LANCHOR1
 277 00a0 00000000 		.word	.LANCHOR2
 278 00a4 00000000 		.word	gh_ref
 279              		.cfi_endproc
 280              	.LFE470:
 282              		.global	__aeabi_i2d
 283              		.global	__aeabi_dcmplt
 284              		.global	__aeabi_dcmpgt
 285              		.section	.text.guidance_h_traj_run,"ax",%progbits
 286              		.align	1
 287              		.thumb
 288              		.thumb_func
 290              	guidance_h_traj_run:
 291              	.LFB471:
 442:firmwares/rotorcraft/guidance/guidance_h.c ****   }
 443:firmwares/rotorcraft/guidance/guidance_h.c **** #endif
 444:firmwares/rotorcraft/guidance/guidance_h.c **** }
 445:firmwares/rotorcraft/guidance/guidance_h.c **** 
 446:firmwares/rotorcraft/guidance/guidance_h.c **** 
 447:firmwares/rotorcraft/guidance/guidance_h.c **** #define MAX_POS_ERR   POS_BFP_OF_REAL(16.)
 448:firmwares/rotorcraft/guidance/guidance_h.c **** #define MAX_SPEED_ERR SPEED_BFP_OF_REAL(16.)
 449:firmwares/rotorcraft/guidance/guidance_h.c **** 
 450:firmwares/rotorcraft/guidance/guidance_h.c **** #ifndef GUIDANCE_H_THRUST_CMD_FILTER
 451:firmwares/rotorcraft/guidance/guidance_h.c **** #define GUIDANCE_H_THRUST_CMD_FILTER 10
 452:firmwares/rotorcraft/guidance/guidance_h.c **** #endif
 453:firmwares/rotorcraft/guidance/guidance_h.c **** 
 454:firmwares/rotorcraft/guidance/guidance_h.c **** /* with a pgain of 100 and a scale of 2,
 455:firmwares/rotorcraft/guidance/guidance_h.c ****  * you get an angle of 5.6 degrees for 1m pos error */
 456:firmwares/rotorcraft/guidance/guidance_h.c **** #define GH_GAIN_SCALE 2
 457:firmwares/rotorcraft/guidance/guidance_h.c **** 
 458:firmwares/rotorcraft/guidance/guidance_h.c **** static void guidance_h_traj_run(bool_t in_flight)
 459:firmwares/rotorcraft/guidance/guidance_h.c **** {
 292              		.loc 2 459 0
 293              		.cfi_startproc
 294              		@ args = 0, pretend = 0, frame = 0
 295              		@ frame_needed = 0, uses_anonymous_args = 0
 296              	.LVL9:
 297 0000 2DE9F84F 		push	{r3, r4, r5, r6, r7, r8, r9, r10, fp, lr}
 298              		.cfi_def_cfa_offset 40
 299              		.cfi_offset 3, -40
 300              		.cfi_offset 4, -36
 301              		.cfi_offset 5, -32
 302              		.cfi_offset 6, -28
 303              		.cfi_offset 7, -24
 304              		.cfi_offset 8, -20
 305              		.cfi_offset 9, -16
 306              		.cfi_offset 10, -12
 307              		.cfi_offset 11, -8
 308              		.cfi_offset 14, -4
 460:firmwares/rotorcraft/guidance/guidance_h.c ****   /* maximum bank angle: default 20 deg, max 40 deg*/
 461:firmwares/rotorcraft/guidance/guidance_h.c ****   static const int32_t traj_max_bank = Min(BFP_OF_REAL(GUIDANCE_H_MAX_BANK, INT32_ANGLE_FRAC),
 462:firmwares/rotorcraft/guidance/guidance_h.c ****                                        BFP_OF_REAL(RadOfDeg(40), INT32_ANGLE_FRAC));
 463:firmwares/rotorcraft/guidance/guidance_h.c ****   static const int32_t total_max_bank = BFP_OF_REAL(RadOfDeg(45), INT32_ANGLE_FRAC);
 464:firmwares/rotorcraft/guidance/guidance_h.c **** 
 465:firmwares/rotorcraft/guidance/guidance_h.c ****   /* compute position error    */
 466:firmwares/rotorcraft/guidance/guidance_h.c ****   VECT2_DIFF(guidance_h_pos_err, guidance_h_pos_ref, *stateGetPositionNed_i());
 309              		.loc 2 466 0
 310 0004 A84C     		ldr	r4, .L52
 311 0006 A94F     		ldr	r7, .L52+4
 312 0008 2568     		ldr	r5, [r4]
 459:firmwares/rotorcraft/guidance/guidance_h.c **** {
 313              		.loc 2 459 0
 314 000a 2DED028B 		fstmfdd	sp!, {d8}
 315              		.cfi_def_cfa_offset 48
 316              		.cfi_offset 80, -48
 459:firmwares/rotorcraft/guidance/guidance_h.c **** {
 317              		.loc 2 459 0
 318 000e 0646     		mov	r6, r0
 319              		.loc 2 466 0
 320 0010 FFF7FEFF 		bl	stateGetPositionNed_i
 321              	.LVL10:
 322 0014 0368     		ldr	r3, [r0]
 323 0016 6468     		ldr	r4, [r4, #4]
 324 0018 ED1A     		subs	r5, r5, r3
 325 001a 3D60     		str	r5, [r7]
 326 001c FFF7FEFF 		bl	stateGetPositionNed_i
 327              	.LVL11:
 467:firmwares/rotorcraft/guidance/guidance_h.c ****   /* saturate it               */
 468:firmwares/rotorcraft/guidance/guidance_h.c ****   VECT2_STRIM(guidance_h_pos_err, -MAX_POS_ERR, MAX_POS_ERR);
 328              		.loc 2 468 0
 329 0020 D7F80090 		ldr	r9, [r7]
 466:firmwares/rotorcraft/guidance/guidance_h.c ****   VECT2_DIFF(guidance_h_pos_err, guidance_h_pos_ref, *stateGetPositionNed_i());
 330              		.loc 2 466 0
 331 0024 4368     		ldr	r3, [r0, #4]
 332              		.loc 2 468 0
 333 0026 4846     		mov	r0, r9
 466:firmwares/rotorcraft/guidance/guidance_h.c ****   VECT2_DIFF(guidance_h_pos_err, guidance_h_pos_ref, *stateGetPositionNed_i());
 334              		.loc 2 466 0
 335 0028 C3EB0408 		rsb	r8, r3, r4
 336              		.loc 2 468 0
 337 002c FFF7FEFF 		bl	__aeabi_i2d
 338              	.LVL12:
 339 0030 0022     		movs	r2, #0
 340 0032 9F4B     		ldr	r3, .L52+8
 341 0034 0446     		mov	r4, r0
 342 0036 0D46     		mov	r5, r1
 343 0038 FFF7FEFF 		bl	__aeabi_dcmplt
 344              	.LVL13:
 345 003c 58B9     		cbnz	r0, .L34
 346              		.loc 2 468 0 is_stmt 0 discriminator 2
 347 003e 9D4B     		ldr	r3, .L52+12
 348 0040 2046     		mov	r0, r4
 349 0042 2946     		mov	r1, r5
 350 0044 0022     		movs	r2, #0
 351 0046 FFF7FEFF 		bl	__aeabi_dcmpgt
 352              	.LVL14:
 353 004a 0028     		cmp	r0, #0
 354 004c 0CBF     		ite	eq
 355 004e 4B46     		moveq	r3, r9
 356 0050 4FF48053 		movne	r3, #4096
 357 0054 00E0     		b	.L23
 358              	.L34:
 359              		.loc 2 468 0
 360 0056 984B     		ldr	r3, .L52+16
 361              	.L23:
 362              		.loc 2 468 0 discriminator 6
 363 0058 3B60     		str	r3, [r7]
 364 005a 4046     		mov	r0, r8
 365 005c FFF7FEFF 		bl	__aeabi_i2d
 366              	.LVL15:
 367 0060 0022     		movs	r2, #0
 368 0062 934B     		ldr	r3, .L52+8
 369 0064 0446     		mov	r4, r0
 370 0066 0D46     		mov	r5, r1
 371 0068 FFF7FEFF 		bl	__aeabi_dcmplt
 372              	.LVL16:
 373 006c 58B9     		cbnz	r0, .L36
 374              		.loc 2 468 0 discriminator 2
 375 006e 914B     		ldr	r3, .L52+12
 376 0070 2046     		mov	r0, r4
 377 0072 2946     		mov	r1, r5
 378 0074 0022     		movs	r2, #0
 379 0076 FFF7FEFF 		bl	__aeabi_dcmpgt
 380              	.LVL17:
 381 007a 0028     		cmp	r0, #0
 382 007c 0CBF     		ite	eq
 383 007e 4346     		moveq	r3, r8
 384 0080 4FF48053 		movne	r3, #4096
 385 0084 00E0     		b	.L25
 386              	.L36:
 387              		.loc 2 468 0
 388 0086 8C4B     		ldr	r3, .L52+16
 389              	.L25:
 469:firmwares/rotorcraft/guidance/guidance_h.c **** 
 470:firmwares/rotorcraft/guidance/guidance_h.c ****   /* compute speed error    */
 471:firmwares/rotorcraft/guidance/guidance_h.c ****   VECT2_DIFF(guidance_h_speed_err, guidance_h_speed_ref, *stateGetSpeedNed_i());
 390              		.loc 2 471 0 is_stmt 1 discriminator 6
 391 0088 DFF88082 		ldr	r8, .L52+100
 468:firmwares/rotorcraft/guidance/guidance_h.c ****   VECT2_STRIM(guidance_h_pos_err, -MAX_POS_ERR, MAX_POS_ERR);
 392              		.loc 2 468 0 discriminator 6
 393 008c 7B60     		str	r3, [r7, #4]
 394              		.loc 2 471 0 discriminator 6
 395 008e D8F80040 		ldr	r4, [r8]
 396 0092 DFF87C92 		ldr	r9, .L52+104
 397 0096 FFF7FEFF 		bl	stateGetSpeedNed_i
 398              	.LVL18:
 399 009a 0368     		ldr	r3, [r0]
 400 009c E41A     		subs	r4, r4, r3
 401 009e C9F80040 		str	r4, [r9]
 402 00a2 D8F80440 		ldr	r4, [r8, #4]
 403 00a6 FFF7FEFF 		bl	stateGetSpeedNed_i
 404              	.LVL19:
 472:firmwares/rotorcraft/guidance/guidance_h.c ****   /* saturate it               */
 473:firmwares/rotorcraft/guidance/guidance_h.c ****   VECT2_STRIM(guidance_h_speed_err, -MAX_SPEED_ERR, MAX_SPEED_ERR);
 405              		.loc 2 473 0 discriminator 6
 406 00aa D9F800B0 		ldr	fp, [r9]
 471:firmwares/rotorcraft/guidance/guidance_h.c ****   VECT2_DIFF(guidance_h_speed_err, guidance_h_speed_ref, *stateGetSpeedNed_i());
 407              		.loc 2 471 0 discriminator 6
 408 00ae 4368     		ldr	r3, [r0, #4]
 409              		.loc 2 473 0 discriminator 6
 410 00b0 5846     		mov	r0, fp
 471:firmwares/rotorcraft/guidance/guidance_h.c ****   VECT2_DIFF(guidance_h_speed_err, guidance_h_speed_ref, *stateGetSpeedNed_i());
 411              		.loc 2 471 0 discriminator 6
 412 00b2 C3EB040A 		rsb	r10, r3, r4
 413              		.loc 2 473 0 discriminator 6
 414 00b6 FFF7FEFF 		bl	__aeabi_i2d
 415              	.LVL20:
 416 00ba 0022     		movs	r2, #0
 417 00bc 7F4B     		ldr	r3, .L52+20
 418 00be 0446     		mov	r4, r0
 419 00c0 0D46     		mov	r5, r1
 420 00c2 FFF7FEFF 		bl	__aeabi_dcmplt
 421              	.LVL21:
 422 00c6 50B9     		cbnz	r0, .L38
 423              		.loc 2 473 0 is_stmt 0 discriminator 2
 424 00c8 2046     		mov	r0, r4
 425 00ca 2946     		mov	r1, r5
 426 00cc 0022     		movs	r2, #0
 427 00ce 7C4B     		ldr	r3, .L52+24
 428 00d0 FFF7FEFF 		bl	__aeabi_dcmpgt
 429              	.LVL22:
 430 00d4 0028     		cmp	r0, #0
 431 00d6 18BF     		it	ne
 432 00d8 4FF4000B 		movne	fp, #8388608
 433 00dc 01E0     		b	.L27
 434              	.L38:
 435              		.loc 2 473 0
 436 00de DFF8E4B1 		ldr	fp, .L52+28
 437              	.L27:
 438              		.loc 2 473 0 discriminator 6
 439 00e2 C9F800B0 		str	fp, [r9]
 440 00e6 5046     		mov	r0, r10
 441 00e8 FFF7FEFF 		bl	__aeabi_i2d
 442              	.LVL23:
 443 00ec 0022     		movs	r2, #0
 444 00ee 734B     		ldr	r3, .L52+20
 445 00f0 0446     		mov	r4, r0
 446 00f2 0D46     		mov	r5, r1
 447 00f4 FFF7FEFF 		bl	__aeabi_dcmplt
 448              	.LVL24:
 449 00f8 58B9     		cbnz	r0, .L40
 450              		.loc 2 473 0 discriminator 2
 451 00fa 714B     		ldr	r3, .L52+24
 452 00fc 2046     		mov	r0, r4
 453 00fe 2946     		mov	r1, r5
 454 0100 0022     		movs	r2, #0
 455 0102 FFF7FEFF 		bl	__aeabi_dcmpgt
 456              	.LVL25:
 457 0106 0028     		cmp	r0, #0
 458 0108 0CBF     		ite	eq
 459 010a 5346     		moveq	r3, r10
 460 010c 4FF40003 		movne	r3, #8388608
 461 0110 00E0     		b	.L29
 462              	.L40:
 463              		.loc 2 473 0
 464 0112 6C4B     		ldr	r3, .L52+28
 465              	.L29:
 474:firmwares/rotorcraft/guidance/guidance_h.c **** 
 475:firmwares/rotorcraft/guidance/guidance_h.c ****   /* run PID */
 476:firmwares/rotorcraft/guidance/guidance_h.c ****   int32_t pd_x =
 477:firmwares/rotorcraft/guidance/guidance_h.c ****     ((guidance_h_pgain * guidance_h_pos_err.x) >> (INT32_POS_FRAC - GH_GAIN_SCALE)) +
 466              		.loc 2 477 0 is_stmt 1 discriminator 6
 467 0114 6C4A     		ldr	r2, .L52+32
 478:firmwares/rotorcraft/guidance/guidance_h.c ****     ((guidance_h_dgain * (guidance_h_speed_err.x >> 2)) >> (INT32_SPEED_FRAC - GH_GAIN_SCALE - 2));
 479:firmwares/rotorcraft/guidance/guidance_h.c ****   int32_t pd_y =
 480:firmwares/rotorcraft/guidance/guidance_h.c ****     ((guidance_h_pgain * guidance_h_pos_err.y) >> (INT32_POS_FRAC - GH_GAIN_SCALE)) +
 468              		.loc 2 480 0 discriminator 6
 469 0116 7C68     		ldr	r4, [r7, #4]
 477:firmwares/rotorcraft/guidance/guidance_h.c ****     ((guidance_h_pgain * guidance_h_pos_err.x) >> (INT32_POS_FRAC - GH_GAIN_SCALE)) +
 470              		.loc 2 477 0 discriminator 6
 471 0118 1068     		ldr	r0, [r2]
 478:firmwares/rotorcraft/guidance/guidance_h.c ****     ((guidance_h_dgain * (guidance_h_speed_err.x >> 2)) >> (INT32_SPEED_FRAC - GH_GAIN_SCALE - 2));
 472              		.loc 2 478 0 discriminator 6
 473 011a 6C4A     		ldr	r2, .L52+36
 473:firmwares/rotorcraft/guidance/guidance_h.c ****   VECT2_STRIM(guidance_h_speed_err, -MAX_SPEED_ERR, MAX_SPEED_ERR);
 474              		.loc 2 473 0 discriminator 6
 475 011c C9F80430 		str	r3, [r9, #4]
 478:firmwares/rotorcraft/guidance/guidance_h.c ****     ((guidance_h_dgain * (guidance_h_speed_err.x >> 2)) >> (INT32_SPEED_FRAC - GH_GAIN_SCALE - 2));
 476              		.loc 2 478 0 discriminator 6
 477 0120 1168     		ldr	r1, [r2]
 477:firmwares/rotorcraft/guidance/guidance_h.c ****     ((guidance_h_pgain * guidance_h_pos_err.x) >> (INT32_POS_FRAC - GH_GAIN_SCALE)) +
 478              		.loc 2 477 0 discriminator 6
 479 0122 3A68     		ldr	r2, [r7]
 481:firmwares/rotorcraft/guidance/guidance_h.c ****     ((guidance_h_dgain * (guidance_h_speed_err.y >> 2)) >> (INT32_SPEED_FRAC - GH_GAIN_SCALE - 2));
 480              		.loc 2 481 0 discriminator 6
 481 0124 9B10     		asrs	r3, r3, #2
 478:firmwares/rotorcraft/guidance/guidance_h.c ****     ((guidance_h_dgain * (guidance_h_speed_err.x >> 2)) >> (INT32_SPEED_FRAC - GH_GAIN_SCALE - 2));
 482              		.loc 2 478 0 discriminator 6
 483 0126 4FEAAB0B 		asr	fp, fp, #2
 484 012a 0BFB01FB 		mul	fp, fp, r1
 485              		.loc 2 481 0 discriminator 6
 486 012e 5943     		muls	r1, r3, r1
 477:firmwares/rotorcraft/guidance/guidance_h.c ****     ((guidance_h_pgain * guidance_h_pos_err.x) >> (INT32_POS_FRAC - GH_GAIN_SCALE)) +
 487              		.loc 2 477 0 discriminator 6
 488 0130 4243     		muls	r2, r0, r2
 489              		.loc 2 481 0 discriminator 6
 490 0132 C913     		asrs	r1, r1, #15
 480:firmwares/rotorcraft/guidance/guidance_h.c ****     ((guidance_h_pgain * guidance_h_pos_err.y) >> (INT32_POS_FRAC - GH_GAIN_SCALE)) +
 491              		.loc 2 480 0 discriminator 6
 492 0134 6043     		muls	r0, r4, r0
 479:firmwares/rotorcraft/guidance/guidance_h.c ****   int32_t pd_y =
 493              		.loc 2 479 0 discriminator 6
 494 0136 01EBA01C 		add	ip, r1, r0, asr #6
 482:firmwares/rotorcraft/guidance/guidance_h.c ****   guidance_h_cmd_earth.x =
 483:firmwares/rotorcraft/guidance/guidance_h.c ****     pd_x +
 484:firmwares/rotorcraft/guidance/guidance_h.c ****     ((guidance_h_vgain * guidance_h_speed_ref.x) >> 17) + /* speed feedforward gain */
 495              		.loc 2 484 0 discriminator 6
 496 013a 654B     		ldr	r3, .L52+40
 485:firmwares/rotorcraft/guidance/guidance_h.c ****     ((guidance_h_again * guidance_h_accel_ref.x) >> 8);   /* acceleration feedforward gain */
 497              		.loc 2 485 0 discriminator 6
 498 013c 6549     		ldr	r1, .L52+44
 486:firmwares/rotorcraft/guidance/guidance_h.c ****   guidance_h_cmd_earth.y =
 487:firmwares/rotorcraft/guidance/guidance_h.c ****     pd_y +
 488:firmwares/rotorcraft/guidance/guidance_h.c ****     ((guidance_h_vgain * guidance_h_speed_ref.y) >> 17) + /* speed feedforward gain */
 489:firmwares/rotorcraft/guidance/guidance_h.c ****     ((guidance_h_again * guidance_h_accel_ref.y) >> 8);   /* acceleration feedforward gain */
 499              		.loc 2 489 0 discriminator 6
 500 013e 664C     		ldr	r4, .L52+48
 485:firmwares/rotorcraft/guidance/guidance_h.c ****     ((guidance_h_again * guidance_h_accel_ref.x) >> 8);   /* acceleration feedforward gain */
 501              		.loc 2 485 0 discriminator 6
 502 0140 0868     		ldr	r0, [r1]
 484:firmwares/rotorcraft/guidance/guidance_h.c ****     ((guidance_h_vgain * guidance_h_speed_ref.x) >> 17) + /* speed feedforward gain */
 503              		.loc 2 484 0 discriminator 6
 504 0142 1B68     		ldr	r3, [r3]
 488:firmwares/rotorcraft/guidance/guidance_h.c ****     ((guidance_h_vgain * guidance_h_speed_ref.y) >> 17) + /* speed feedforward gain */
 505              		.loc 2 488 0 discriminator 6
 506 0144 D8F80410 		ldr	r1, [r8, #4]
 507              		.loc 2 489 0 discriminator 6
 508 0148 6568     		ldr	r5, [r4, #4]
 488:firmwares/rotorcraft/guidance/guidance_h.c ****     ((guidance_h_vgain * guidance_h_speed_ref.y) >> 17) + /* speed feedforward gain */
 509              		.loc 2 488 0 discriminator 6
 510 014a 5943     		muls	r1, r3, r1
 511              		.loc 2 489 0 discriminator 6
 512 014c 4543     		muls	r5, r0, r5
 487:firmwares/rotorcraft/guidance/guidance_h.c ****     pd_y +
 513              		.loc 2 487 0 discriminator 6
 514 014e 0CEB6141 		add	r1, ip, r1, asr #17
 488:firmwares/rotorcraft/guidance/guidance_h.c ****     ((guidance_h_vgain * guidance_h_speed_ref.y) >> 17) + /* speed feedforward gain */
 515              		.loc 2 488 0 discriminator 6
 516 0152 01EB2521 		add	r1, r1, r5, asr #8
 484:firmwares/rotorcraft/guidance/guidance_h.c ****     ((guidance_h_vgain * guidance_h_speed_ref.x) >> 17) + /* speed feedforward gain */
 517              		.loc 2 484 0 discriminator 6
 518 0156 D8F80050 		ldr	r5, [r8]
 478:firmwares/rotorcraft/guidance/guidance_h.c ****     ((guidance_h_dgain * (guidance_h_speed_err.x >> 2)) >> (INT32_SPEED_FRAC - GH_GAIN_SCALE - 2));
 519              		.loc 2 478 0 discriminator 6
 520 015a 4FEAEB3B 		asr	fp, fp, #15
 484:firmwares/rotorcraft/guidance/guidance_h.c ****     ((guidance_h_vgain * guidance_h_speed_ref.x) >> 17) + /* speed feedforward gain */
 521              		.loc 2 484 0 discriminator 6
 522 015e 6B43     		muls	r3, r5, r3
 476:firmwares/rotorcraft/guidance/guidance_h.c ****   int32_t pd_x =
 523              		.loc 2 476 0 discriminator 6
 524 0160 0BEBA212 		add	r2, fp, r2, asr #6
 525              	.LVL26:
 483:firmwares/rotorcraft/guidance/guidance_h.c ****     pd_x +
 526              		.loc 2 483 0 discriminator 6
 527 0164 02EB6345 		add	r5, r2, r3, asr #17
 485:firmwares/rotorcraft/guidance/guidance_h.c ****     ((guidance_h_again * guidance_h_accel_ref.x) >> 8);   /* acceleration feedforward gain */
 528              		.loc 2 485 0 discriminator 6
 529 0168 2368     		ldr	r3, [r4]
 490:firmwares/rotorcraft/guidance/guidance_h.c **** 
 491:firmwares/rotorcraft/guidance/guidance_h.c ****   /* trim max bank angle from PD */
 492:firmwares/rotorcraft/guidance/guidance_h.c ****   VECT2_STRIM(guidance_h_cmd_earth, -traj_max_bank, traj_max_bank);
 530              		.loc 2 492 0 discriminator 6
 531 016a 5C4C     		ldr	r4, .L52+52
 485:firmwares/rotorcraft/guidance/guidance_h.c ****     ((guidance_h_again * guidance_h_accel_ref.x) >> 8);   /* acceleration feedforward gain */
 532              		.loc 2 485 0 discriminator 6
 533 016c 4343     		muls	r3, r0, r3
 484:firmwares/rotorcraft/guidance/guidance_h.c ****     ((guidance_h_vgain * guidance_h_speed_ref.x) >> 17) + /* speed feedforward gain */
 534              		.loc 2 484 0 discriminator 6
 535 016e 05EB2323 		add	r3, r5, r3, asr #8
 536              		.loc 2 492 0 discriminator 6
 537 0172 40F28A77 		movw	r7, #1930
 538 0176 5A48     		ldr	r0, .L52+56
 539 0178 BB42     		cmp	r3, r7
 540 017a A8BF     		it	ge
 541 017c 3B46     		movge	r3, r7
 542 017e B942     		cmp	r1, r7
 543 0180 A8BF     		it	ge
 544 0182 3946     		movge	r1, r7
 545 0184 8342     		cmp	r3, r0
 546 0186 ACBF     		ite	ge
 547 0188 1D46     		movge	r5, r3
 548 018a 0546     		movlt	r5, r0
 549 018c 8142     		cmp	r1, r0
 550 018e B8BF     		it	lt
 551 0190 0146     		movlt	r1, r0
 552 0192 2560     		str	r5, [r4]
 553 0194 6160     		str	r1, [r4, #4]
 554 0196 534B     		ldr	r3, .L52+60
 493:firmwares/rotorcraft/guidance/guidance_h.c **** 
 494:firmwares/rotorcraft/guidance/guidance_h.c ****   /* Update pos & speed error integral, zero it if not in_flight.
 495:firmwares/rotorcraft/guidance/guidance_h.c ****    * Integrate twice as fast when not only POS but also SPEED are wrong,
 496:firmwares/rotorcraft/guidance/guidance_h.c ****    * but do not integrate POS errors when the SPEED is already catching up.
 497:firmwares/rotorcraft/guidance/guidance_h.c ****    */
 498:firmwares/rotorcraft/guidance/guidance_h.c ****   if (in_flight) {
 555              		.loc 2 498 0 discriminator 6
 556 0198 F6B1     		cbz	r6, .L31
 499:firmwares/rotorcraft/guidance/guidance_h.c ****     /* ANGLE_FRAC (12) * GAIN (8) * LOOP_FREQ (9) -> INTEGRATOR HIGH RES ANGLE_FRAX (28) */
 500:firmwares/rotorcraft/guidance/guidance_h.c ****     guidance_h_trim_att_integrator.x += (guidance_h_igain * pd_x);
 557              		.loc 2 500 0
 558 019a 5348     		ldr	r0, .L52+64
 559 019c 0768     		ldr	r7, [r0]
 501:firmwares/rotorcraft/guidance/guidance_h.c ****     guidance_h_trim_att_integrator.y += (guidance_h_igain * pd_y);
 560              		.loc 2 501 0
 561 019e 5868     		ldr	r0, [r3, #4]
 562 01a0 0CFB070C 		mla	ip, ip, r7, r0
 563              	.LVL27:
 500:firmwares/rotorcraft/guidance/guidance_h.c ****     guidance_h_trim_att_integrator.x += (guidance_h_igain * pd_x);
 564              		.loc 2 500 0
 565 01a4 1868     		ldr	r0, [r3]
 566 01a6 02FB0702 		mla	r2, r2, r7, r0
 567              	.LVL28:
 502:firmwares/rotorcraft/guidance/guidance_h.c ****     /* saturate it  */
 503:firmwares/rotorcraft/guidance/guidance_h.c ****     VECT2_STRIM(guidance_h_trim_att_integrator, -(traj_max_bank << 16), (traj_max_bank << 16));
 568              		.loc 2 503 0
 569 01aa 5048     		ldr	r0, .L52+68
 570 01ac 504F     		ldr	r7, .L52+72
 571 01ae 8242     		cmp	r2, r0
 572 01b0 A8BF     		it	ge
 573 01b2 0246     		movge	r2, r0
 574 01b4 8445     		cmp	ip, r0
 575 01b6 B8BF     		it	lt
 576 01b8 6046     		movlt	r0, ip
 577 01ba BA42     		cmp	r2, r7
 578 01bc B8BF     		it	lt
 579 01be 3A46     		movlt	r2, r7
 580 01c0 B842     		cmp	r0, r7
 581 01c2 B8BF     		it	lt
 582 01c4 3846     		movlt	r0, r7
 583 01c6 1A60     		str	r2, [r3]
 504:firmwares/rotorcraft/guidance/guidance_h.c ****     /* add it to the command */
 505:firmwares/rotorcraft/guidance/guidance_h.c ****     guidance_h_cmd_earth.x += (guidance_h_trim_att_integrator.x >> 16);
 506:firmwares/rotorcraft/guidance/guidance_h.c ****     guidance_h_cmd_earth.y += (guidance_h_trim_att_integrator.y >> 16);
 584              		.loc 2 506 0
 585 01c8 01EB2041 		add	r1, r1, r0, asr #16
 505:firmwares/rotorcraft/guidance/guidance_h.c ****     guidance_h_cmd_earth.x += (guidance_h_trim_att_integrator.x >> 16);
 586              		.loc 2 505 0
 587 01cc 05EB2242 		add	r2, r5, r2, asr #16
 503:firmwares/rotorcraft/guidance/guidance_h.c ****     VECT2_STRIM(guidance_h_trim_att_integrator, -(traj_max_bank << 16), (traj_max_bank << 16));
 588              		.loc 2 503 0
 589 01d0 5860     		str	r0, [r3, #4]
 505:firmwares/rotorcraft/guidance/guidance_h.c ****     guidance_h_cmd_earth.x += (guidance_h_trim_att_integrator.x >> 16);
 590              		.loc 2 505 0
 591 01d2 2260     		str	r2, [r4]
 592              		.loc 2 506 0
 593 01d4 6160     		str	r1, [r4, #4]
 594 01d6 01E0     		b	.L32
 595              	.LVL29:
 596              	.L31:
 507:firmwares/rotorcraft/guidance/guidance_h.c ****   } else {
 508:firmwares/rotorcraft/guidance/guidance_h.c ****     INT_VECT2_ZERO(guidance_h_trim_att_integrator);
 597              		.loc 2 508 0
 598 01d8 1E60     		str	r6, [r3]
 599 01da 5E60     		str	r6, [r3, #4]
 600              	.LVL30:
 601              	.L32:
 509:firmwares/rotorcraft/guidance/guidance_h.c ****   }
 510:firmwares/rotorcraft/guidance/guidance_h.c **** 
 511:firmwares/rotorcraft/guidance/guidance_h.c ****   /* compute a better approximation of force commands by taking thrust into account */
 512:firmwares/rotorcraft/guidance/guidance_h.c ****   if (guidance_h_approx_force_by_thrust && in_flight) {
 602              		.loc 2 512 0
 603 01dc 454B     		ldr	r3, .L52+76
 604 01de 1B78     		ldrb	r3, [r3]	@ zero_extendqisi2
 605 01e0 002B     		cmp	r3, #0
 606 01e2 46D0     		beq	.L33
 607              		.loc 2 512 0 is_stmt 0 discriminator 1
 608 01e4 002E     		cmp	r6, #0
 609 01e6 44D0     		beq	.L33
 610              	.LVL31:
 611              	.LBB3:
 513:firmwares/rotorcraft/guidance/guidance_h.c ****     static int32_t thrust_cmd_filt;
 514:firmwares/rotorcraft/guidance/guidance_h.c ****     int32_t vertical_thrust = (stabilization_cmd[COMMAND_THRUST] * guidance_v_thrust_coeff) >> INT3
 612              		.loc 2 514 0 is_stmt 1
 613 01e8 434A     		ldr	r2, .L52+80
 614 01ea 4448     		ldr	r0, .L52+84
 615              	.LVL32:
 515:firmwares/rotorcraft/guidance/guidance_h.c ****     thrust_cmd_filt = (thrust_cmd_filt * GUIDANCE_H_THRUST_CMD_FILTER + vertical_thrust) /
 616              		.loc 2 515 0
 617 01ec 444B     		ldr	r3, .L52+88
 514:firmwares/rotorcraft/guidance/guidance_h.c ****     int32_t vertical_thrust = (stabilization_cmd[COMMAND_THRUST] * guidance_v_thrust_coeff) >> INT3
 618              		.loc 2 514 0
 619 01ee 0068     		ldr	r0, [r0]
 620              	.LVL33:
 621 01f0 D268     		ldr	r2, [r2, #12]
 622              		.loc 2 515 0
 623 01f2 1968     		ldr	r1, [r3]
 516:firmwares/rotorcraft/guidance/guidance_h.c ****                       (GUIDANCE_H_THRUST_CMD_FILTER + 1);
 517:firmwares/rotorcraft/guidance/guidance_h.c ****     guidance_h_cmd_earth.x = ANGLE_BFP_OF_REAL(atan2f((guidance_h_cmd_earth.x * MAX_PPRZ / INT32_AN
 624              		.loc 2 517 0
 625 01f4 9FED438A 		flds	s16, .L52+92
 514:firmwares/rotorcraft/guidance/guidance_h.c ****     int32_t vertical_thrust = (stabilization_cmd[COMMAND_THRUST] * guidance_v_thrust_coeff) >> INT3
 626              		.loc 2 514 0
 627 01f8 4243     		muls	r2, r0, r2
 628 01fa 9213     		asrs	r2, r2, #14
 515:firmwares/rotorcraft/guidance/guidance_h.c ****     thrust_cmd_filt = (thrust_cmd_filt * GUIDANCE_H_THRUST_CMD_FILTER + vertical_thrust) /
 629              		.loc 2 515 0
 630 01fc 0A20     		movs	r0, #10
 631              	.LVL34:
 632 01fe 00FB0122 		mla	r2, r0, r1, r2
 633 0202 0B20     		movs	r0, #11
 634 0204 92FBF0F2 		sdiv	r2, r2, r0
 635              		.loc 2 517 0
 636 0208 2068     		ldr	r0, [r4]
 515:firmwares/rotorcraft/guidance/guidance_h.c ****     thrust_cmd_filt = (thrust_cmd_filt * GUIDANCE_H_THRUST_CMD_FILTER + vertical_thrust) /
 637              		.loc 2 515 0
 638 020a 1A60     		str	r2, [r3]
 639              		.loc 2 517 0
 640 020c 4FF41656 		mov	r6, #9600
 641 0210 41F62115 		movw	r5, #6433
 642 0214 7043     		muls	r0, r6, r0
 643 0216 90FBF5F0 		sdiv	r0, r0, r5
 644 021a 07EE102A 		fmsr	s14, r2	@ int
 645 021e 07EE900A 		fmsr	s15, r0	@ int
 646 0222 F8EEC78A 		fsitos	s17, s14
 647 0226 F8EEE77A 		fsitos	s15, s15
 648 022a 18EE901A 		fmrs	r1, s17
 649 022e 17EE900A 		fmrs	r0, s15
 650 0232 FFF7FEFF 		bl	atan2f
 651              	.LVL35:
 652 0236 07EE100A 		fmsr	s14, r0
 518:firmwares/rotorcraft/guidance/guidance_h.c ****                              thrust_cmd_filt));
 519:firmwares/rotorcraft/guidance/guidance_h.c ****     guidance_h_cmd_earth.y = ANGLE_BFP_OF_REAL(atan2f((guidance_h_cmd_earth.y * MAX_PPRZ / INT32_AN
 653              		.loc 2 519 0
 654 023a 6068     		ldr	r0, [r4, #4]
 517:firmwares/rotorcraft/guidance/guidance_h.c ****     guidance_h_cmd_earth.x = ANGLE_BFP_OF_REAL(atan2f((guidance_h_cmd_earth.x * MAX_PPRZ / INT32_AN
 655              		.loc 2 517 0
 656 023c 67EE087A 		fmuls	s15, s14, s16
 657              		.loc 2 519 0
 658 0240 7043     		muls	r0, r6, r0
 517:firmwares/rotorcraft/guidance/guidance_h.c ****     guidance_h_cmd_earth.x = ANGLE_BFP_OF_REAL(atan2f((guidance_h_cmd_earth.x * MAX_PPRZ / INT32_AN
 659              		.loc 2 517 0
 660 0242 FDEEE77A 		ftosizs	s15, s15
 661              		.loc 2 519 0
 662 0246 90FBF5F0 		sdiv	r0, r0, r5
 517:firmwares/rotorcraft/guidance/guidance_h.c ****     guidance_h_cmd_earth.x = ANGLE_BFP_OF_REAL(atan2f((guidance_h_cmd_earth.x * MAX_PPRZ / INT32_AN
 663              		.loc 2 517 0
 664 024a C4ED007A 		fsts	s15, [r4]	@ int
 665              		.loc 2 519 0
 666 024e 07EE900A 		fmsr	s15, r0	@ int
 667 0252 F8EEE77A 		fsitos	s15, s15
 668 0256 18EE901A 		fmrs	r1, s17
 669 025a 17EE900A 		fmrs	r0, s15
 670 025e FFF7FEFF 		bl	atan2f
 671              	.LVL36:
 672 0262 07EE100A 		fmsr	s14, r0
 673 0266 27EE088A 		fmuls	s16, s14, s16
 674 026a BDEEC88A 		ftosizs	s16, s16
 675 026e 84ED018A 		fsts	s16, [r4, #4]	@ int
 676              	.L33:
 677              	.LBE3:
 520:firmwares/rotorcraft/guidance/guidance_h.c ****                              thrust_cmd_filt));
 521:firmwares/rotorcraft/guidance/guidance_h.c ****   }
 522:firmwares/rotorcraft/guidance/guidance_h.c **** 
 523:firmwares/rotorcraft/guidance/guidance_h.c ****   VECT2_STRIM(guidance_h_cmd_earth, -total_max_bank, total_max_bank);
 678              		.loc 2 523 0
 679 0272 2368     		ldr	r3, [r4]
 524:firmwares/rotorcraft/guidance/guidance_h.c **** }
 680              		.loc 2 524 0
 681 0274 BDEC028B 		fldmfdd	sp!, {d8}
 523:firmwares/rotorcraft/guidance/guidance_h.c ****   VECT2_STRIM(guidance_h_cmd_earth, -total_max_bank, total_max_bank);
 682              		.loc 2 523 0
 683 0278 B3F5496F 		cmp	r3, #3216
 684 027c B4BF     		ite	lt
 685 027e 1A46     		movlt	r2, r3
 686 0280 4FF44962 		movge	r2, #3216
 687 0284 204B     		ldr	r3, .L52+96
 688 0286 9A42     		cmp	r2, r3
 689 0288 ACBF     		ite	ge
 690 028a 2260     		strge	r2, [r4]
 691 028c 2360     		strlt	r3, [r4]
 692 028e 6268     		ldr	r2, [r4, #4]
 693 0290 B2F5496F 		cmp	r2, #3216
 694 0294 A8BF     		it	ge
 695 0296 4FF44962 		movge	r2, #3216
 696 029a 9A42     		cmp	r2, r3
 697 029c ACBF     		ite	ge
 698 029e 6260     		strge	r2, [r4, #4]
 699 02a0 6360     		strlt	r3, [r4, #4]
 700              		.loc 2 524 0
 701 02a2 BDE8F88F 		pop	{r3, r4, r5, r6, r7, r8, r9, r10, fp, pc}
 702              	.L53:
 703 02a6 00BF     		.align	2
 704              	.L52:
 705 02a8 00000000 		.word	.LANCHOR0
 706 02ac 00000000 		.word	.LANCHOR8
 707 02b0 0000B0C0 		.word	-1062207488
 708 02b4 0000B040 		.word	1085276160
 709 02b8 00F0FFFF 		.word	-4096
 710 02bc 000060C1 		.word	-1050673152
 711 02c0 00006041 		.word	1096810496
 712 02c4 000080FF 		.word	-8388608
 713 02c8 00000000 		.word	.LANCHOR10
 714 02cc 00000000 		.word	.LANCHOR11
 715 02d0 00000000 		.word	.LANCHOR12
 716 02d4 00000000 		.word	.LANCHOR13
 717 02d8 00000000 		.word	.LANCHOR2
 718 02dc 00000000 		.word	.LANCHOR14
 719 02e0 76F8FFFF 		.word	-1930
 720 02e4 00000000 		.word	.LANCHOR3
 721 02e8 00000000 		.word	.LANCHOR15
 722 02ec 00008A07 		.word	126484480
 723 02f0 000076F8 		.word	-126484480
 724 02f4 00000000 		.word	.LANCHOR16
 725 02f8 00000000 		.word	stabilization_cmd
 726 02fc 00000000 		.word	guidance_v_thrust_coeff
 727 0300 00000000 		.word	.LANCHOR17
 728 0304 00008045 		.word	1166016512
 729 0308 70F3FFFF 		.word	-3216
 730 030c 00000000 		.word	.LANCHOR1
 731 0310 00000000 		.word	.LANCHOR9
 732              		.cfi_endproc
 733              	.LFE471:
 735              		.section	.text.send_href,"ax",%progbits
 736              		.align	1
 737              		.thumb
 738              		.thumb_func
 740              	send_href:
 741              	.LFB463:
 145:firmwares/rotorcraft/guidance/guidance_h.c **** {
 742              		.loc 2 145 0
 743              		.cfi_startproc
 744              		@ args = 0, pretend = 0, frame = 16
 745              		@ frame_needed = 0, uses_anonymous_args = 0
 746              	.LVL37:
 747 0000 2DE9F04F 		push	{r4, r5, r6, r7, r8, r9, r10, fp, lr}
 748              		.cfi_def_cfa_offset 36
 749              		.cfi_offset 4, -36
 750              		.cfi_offset 5, -32
 751              		.cfi_offset 6, -28
 752              		.cfi_offset 7, -24
 753              		.cfi_offset 8, -20
 754              		.cfi_offset 9, -16
 755              		.cfi_offset 10, -12
 756              		.cfi_offset 11, -8
 757              		.cfi_offset 14, -4
 758              	.LBB6:
 759              	.LBB7:
 760              		.file 3 "/home/lsk/paparazzi/var/include/messages.h"
   1:/home/lsk/paparazzi/var/include/messages.h **** /* Automatically generated by gen_messages from /home/lsk/paparazzi/conf/messages.xml */
   2:/home/lsk/paparazzi/var/include/messages.h **** /* Please DO NOT EDIT */
   3:/home/lsk/paparazzi/var/include/messages.h **** /* Macros to send and receive messages of class telemetry */
   4:/home/lsk/paparazzi/var/include/messages.h **** #ifndef _VAR_MESSAGES_telemetry_H_
   5:/home/lsk/paparazzi/var/include/messages.h **** #define _VAR_MESSAGES_telemetry_H_
   6:/home/lsk/paparazzi/var/include/messages.h **** #include "subsystems/datalink/transport.h"
   7:/home/lsk/paparazzi/var/include/messages.h **** #include "mcu_periph/link_device.h"
   8:/home/lsk/paparazzi/var/include/messages.h **** #if DOWNLINK
   9:/home/lsk/paparazzi/var/include/messages.h **** #define DL_AUTOPILOT_VERSION 1
  10:/home/lsk/paparazzi/var/include/messages.h **** #define DL_ALIVE 2
  11:/home/lsk/paparazzi/var/include/messages.h **** #define DL_PONG 3
  12:/home/lsk/paparazzi/var/include/messages.h **** #define DL_TAKEOFF 4
  13:/home/lsk/paparazzi/var/include/messages.h **** #define DL_ARDRONE_NAVDATA 5
  14:/home/lsk/paparazzi/var/include/messages.h **** #define DL_ATTITUDE 6
  15:/home/lsk/paparazzi/var/include/messages.h **** #define DL_IR_SENSORS 7
  16:/home/lsk/paparazzi/var/include/messages.h **** #define DL_GPS 8
  17:/home/lsk/paparazzi/var/include/messages.h **** #define DL_NAVIGATION_REF 9
  18:/home/lsk/paparazzi/var/include/messages.h **** #define DL_NAVIGATION 10
  19:/home/lsk/paparazzi/var/include/messages.h **** #define DL_PPRZ_MODE 11
  20:/home/lsk/paparazzi/var/include/messages.h **** #define DL_BAT 12
  21:/home/lsk/paparazzi/var/include/messages.h **** #define DL_DEBUG_MCU_LINK 13
  22:/home/lsk/paparazzi/var/include/messages.h **** #define DL_CALIBRATION 14
  23:/home/lsk/paparazzi/var/include/messages.h **** #define DL_SETTINGS 15
  24:/home/lsk/paparazzi/var/include/messages.h **** #define DL_DESIRED 16
  25:/home/lsk/paparazzi/var/include/messages.h **** #define DL_GPS_SOL 17
  26:/home/lsk/paparazzi/var/include/messages.h **** #define DL_ADC_GENERIC 18
  27:/home/lsk/paparazzi/var/include/messages.h **** #define DL_TEST_FORMAT 19
  28:/home/lsk/paparazzi/var/include/messages.h **** #define DL_CAM 20
  29:/home/lsk/paparazzi/var/include/messages.h **** #define DL_CIRCLE 21
  30:/home/lsk/paparazzi/var/include/messages.h **** #define DL_SEGMENT 22
  31:/home/lsk/paparazzi/var/include/messages.h **** #define DL_SVINFO 25
  32:/home/lsk/paparazzi/var/include/messages.h **** #define DL_DEBUG 26
  33:/home/lsk/paparazzi/var/include/messages.h **** #define DL_SURVEY 27
  34:/home/lsk/paparazzi/var/include/messages.h **** #define DL_WC_RSSI 28
  35:/home/lsk/paparazzi/var/include/messages.h **** #define DL_RANGEFINDER 29
  36:/home/lsk/paparazzi/var/include/messages.h **** #define DL_DATALINK_REPORT 30
  37:/home/lsk/paparazzi/var/include/messages.h **** #define DL_DL_VALUE 31
  38:/home/lsk/paparazzi/var/include/messages.h **** #define DL_MARK 32
  39:/home/lsk/paparazzi/var/include/messages.h **** #define DL_SYS_MON 33
  40:/home/lsk/paparazzi/var/include/messages.h **** #define DL_MOTOR 34
  41:/home/lsk/paparazzi/var/include/messages.h **** #define DL_WP_MOVED 35
  42:/home/lsk/paparazzi/var/include/messages.h **** #define DL_MKK 36
  43:/home/lsk/paparazzi/var/include/messages.h **** #define DL_ENERGY 37
  44:/home/lsk/paparazzi/var/include/messages.h **** #define DL_BARO_BMP85_CALIB 38
  45:/home/lsk/paparazzi/var/include/messages.h **** #define DL_BARO_BMP85 39
  46:/home/lsk/paparazzi/var/include/messages.h **** #define DL_SPEED_LOOP 40
  47:/home/lsk/paparazzi/var/include/messages.h **** #define DL_ALT_KALMAN 41
  48:/home/lsk/paparazzi/var/include/messages.h **** #define DL_ESTIMATOR 42
  49:/home/lsk/paparazzi/var/include/messages.h **** #define DL_TUNE_ROLL 43
  50:/home/lsk/paparazzi/var/include/messages.h **** #define DL_BARO_MS5534A 44
  51:/home/lsk/paparazzi/var/include/messages.h **** #define DL_PRESSURE 45
  52:/home/lsk/paparazzi/var/include/messages.h **** #define DL_BARO_WORDS 46
  53:/home/lsk/paparazzi/var/include/messages.h **** #define DL_WP_MOVED_LLA 47
  54:/home/lsk/paparazzi/var/include/messages.h **** #define DL_CHRONO 48
  55:/home/lsk/paparazzi/var/include/messages.h **** #define DL_WP_MOVED_ENU 49
  56:/home/lsk/paparazzi/var/include/messages.h **** #define DL_WINDTURBINE_STATUS_ 50
  57:/home/lsk/paparazzi/var/include/messages.h **** #define DL_RC_3CH_ 51
  58:/home/lsk/paparazzi/var/include/messages.h **** #define DL_MPPT 52
  59:/home/lsk/paparazzi/var/include/messages.h **** #define DL_DEBUG_IR_I2C 53
  60:/home/lsk/paparazzi/var/include/messages.h **** #define DL_AIRSPEED 54
  61:/home/lsk/paparazzi/var/include/messages.h **** #define DL_XSENS 55
  62:/home/lsk/paparazzi/var/include/messages.h **** #define DL_BARO_ETS 56
  63:/home/lsk/paparazzi/var/include/messages.h **** #define DL_AIRSPEED_ETS 57
  64:/home/lsk/paparazzi/var/include/messages.h **** #define DL_PBN 58
  65:/home/lsk/paparazzi/var/include/messages.h **** #define DL_GPS_LLA 59
  66:/home/lsk/paparazzi/var/include/messages.h **** #define DL_H_CTL_A 60
  67:/home/lsk/paparazzi/var/include/messages.h **** #define DL_TURB_PRESSURE_RAW 61
  68:/home/lsk/paparazzi/var/include/messages.h **** #define DL_TURB_PRESSURE_VOLTAGE 62
  69:/home/lsk/paparazzi/var/include/messages.h **** #define DL_CAM_POINT 63
  70:/home/lsk/paparazzi/var/include/messages.h **** #define DL_DC_INFO 64
  71:/home/lsk/paparazzi/var/include/messages.h **** #define DL_AMSYS_BARO 65
  72:/home/lsk/paparazzi/var/include/messages.h **** #define DL_AMSYS_AIRSPEED 66
  73:/home/lsk/paparazzi/var/include/messages.h **** #define DL_FLIGHT_BENCHMARK 67
  74:/home/lsk/paparazzi/var/include/messages.h **** #define DL_MPL3115_BARO 68
  75:/home/lsk/paparazzi/var/include/messages.h **** #define DL_AOA_ADC 69
  76:/home/lsk/paparazzi/var/include/messages.h **** #define DL_XTEND_RSSI 70
  77:/home/lsk/paparazzi/var/include/messages.h **** #define DL_SUPERBITRF 72
  78:/home/lsk/paparazzi/var/include/messages.h **** #define DL_GX3_INFO 73
  79:/home/lsk/paparazzi/var/include/messages.h **** #define DL_EXPLAIN 74
  80:/home/lsk/paparazzi/var/include/messages.h **** #define DL_VIDEO_TELEMETRY 75
  81:/home/lsk/paparazzi/var/include/messages.h **** #define DL_VF_UPDATE 76
  82:/home/lsk/paparazzi/var/include/messages.h **** #define DL_VF_PREDICT 77
  83:/home/lsk/paparazzi/var/include/messages.h **** #define DL_INV_FILTER 78
  84:/home/lsk/paparazzi/var/include/messages.h **** #define DL_MISSION_STATUS 79
  85:/home/lsk/paparazzi/var/include/messages.h **** #define DL_CROSS_TRACK_ERROR 80
  86:/home/lsk/paparazzi/var/include/messages.h **** #define DL_GENERIC_COM 81
  87:/home/lsk/paparazzi/var/include/messages.h **** #define DL_FORMATION_SLOT_TM 82
  88:/home/lsk/paparazzi/var/include/messages.h **** #define DL_FORMATION_STATUS_TM 83
  89:/home/lsk/paparazzi/var/include/messages.h **** #define DL_BMP_STATUS 84
  90:/home/lsk/paparazzi/var/include/messages.h **** #define DL_MLX_STATUS 85
  91:/home/lsk/paparazzi/var/include/messages.h **** #define DL_TMP_STATUS 86
  92:/home/lsk/paparazzi/var/include/messages.h **** #define DL_WIND_INFO_RET 87
  93:/home/lsk/paparazzi/var/include/messages.h **** #define DL_SCP_STATUS 88
  94:/home/lsk/paparazzi/var/include/messages.h **** #define DL_SHT_STATUS 89
  95:/home/lsk/paparazzi/var/include/messages.h **** #define DL_ENOSE_STATUS 90
  96:/home/lsk/paparazzi/var/include/messages.h **** #define DL_DPICCO_STATUS 91
  97:/home/lsk/paparazzi/var/include/messages.h **** #define DL_ANTENNA_DEBUG 92
  98:/home/lsk/paparazzi/var/include/messages.h **** #define DL_ANTENNA_STATUS 93
  99:/home/lsk/paparazzi/var/include/messages.h **** #define DL_MOTOR_BENCH_STATUS 94
 100:/home/lsk/paparazzi/var/include/messages.h **** #define DL_MOTOR_BENCH_STATIC 95
 101:/home/lsk/paparazzi/var/include/messages.h **** #define DL_HIH_STATUS 96
 102:/home/lsk/paparazzi/var/include/messages.h **** #define DL_TEMT_STATUS 97
 103:/home/lsk/paparazzi/var/include/messages.h **** #define DL_GP2Y_STATUS 98
 104:/home/lsk/paparazzi/var/include/messages.h **** #define DL_SHT_I2C_SERIAL 99
 105:/home/lsk/paparazzi/var/include/messages.h **** #define DL_PPM 100
 106:/home/lsk/paparazzi/var/include/messages.h **** #define DL_RC 101
 107:/home/lsk/paparazzi/var/include/messages.h **** #define DL_COMMANDS 102
 108:/home/lsk/paparazzi/var/include/messages.h **** #define DL_FBW_STATUS 103
 109:/home/lsk/paparazzi/var/include/messages.h **** #define DL_ADC 104
 110:/home/lsk/paparazzi/var/include/messages.h **** #define DL_ACTUATORS 105
 111:/home/lsk/paparazzi/var/include/messages.h **** #define DL_DC_SHOT 110
 112:/home/lsk/paparazzi/var/include/messages.h **** #define DL_TEST_BOARD_RESULTS 111
 113:/home/lsk/paparazzi/var/include/messages.h **** #define DL_MLX_SERIAL 113
 114:/home/lsk/paparazzi/var/include/messages.h **** #define DL_PAYLOAD 114
 115:/home/lsk/paparazzi/var/include/messages.h **** #define DL_HTM_STATUS 115
 116:/home/lsk/paparazzi/var/include/messages.h **** #define DL_BARO_MS5611 116
 117:/home/lsk/paparazzi/var/include/messages.h **** #define DL_MS5611_COEFF 117
 118:/home/lsk/paparazzi/var/include/messages.h **** #define DL_ATMOSPHERE_CHARGE 118
 119:/home/lsk/paparazzi/var/include/messages.h **** #define DL_SOLAR_RADIATION 119
 120:/home/lsk/paparazzi/var/include/messages.h **** #define DL_TCAS_TA 120
 121:/home/lsk/paparazzi/var/include/messages.h **** #define DL_TCAS_RA 121
 122:/home/lsk/paparazzi/var/include/messages.h **** #define DL_TCAS_RESOLVED 122
 123:/home/lsk/paparazzi/var/include/messages.h **** #define DL_TCAS_DEBUG 123
 124:/home/lsk/paparazzi/var/include/messages.h **** #define DL_POTENTIAL 124
 125:/home/lsk/paparazzi/var/include/messages.h **** #define DL_VERTICAL_ENERGY 125
 126:/home/lsk/paparazzi/var/include/messages.h **** #define DL_TEMP_TCOUPLE 126
 127:/home/lsk/paparazzi/var/include/messages.h **** #define DL_SHT_I2C_STATUS 127
 128:/home/lsk/paparazzi/var/include/messages.h **** #define DL_CAMERA_SNAPSHOT 128
 129:/home/lsk/paparazzi/var/include/messages.h **** #define DL_TIMESTAMP 129
 130:/home/lsk/paparazzi/var/include/messages.h **** #define DL_STAB_ATTITUDE_FLOAT 130
 131:/home/lsk/paparazzi/var/include/messages.h **** #define DL_IMU_GYRO_SCALED 131
 132:/home/lsk/paparazzi/var/include/messages.h **** #define DL_IMU_ACCEL_SCALED 132
 133:/home/lsk/paparazzi/var/include/messages.h **** #define DL_IMU_MAG_SCALED 133
 134:/home/lsk/paparazzi/var/include/messages.h **** #define DL_FILTER 134
 135:/home/lsk/paparazzi/var/include/messages.h **** #define DL_FILTER2 135
 136:/home/lsk/paparazzi/var/include/messages.h **** #define DL_RATE_LOOP 136
 137:/home/lsk/paparazzi/var/include/messages.h **** #define DL_FILTER_ALIGNER 137
 138:/home/lsk/paparazzi/var/include/messages.h **** #define DL_AIRSPEED_MS45XX 138
 139:/home/lsk/paparazzi/var/include/messages.h **** #define DL_FILTER_COR 139
 140:/home/lsk/paparazzi/var/include/messages.h **** #define DL_STAB_ATTITUDE_INT 140
 141:/home/lsk/paparazzi/var/include/messages.h **** #define DL_STAB_ATTITUDE_REF_INT 141
 142:/home/lsk/paparazzi/var/include/messages.h **** #define DL_STAB_ATTITUDE_REF_FLOAT 142
 143:/home/lsk/paparazzi/var/include/messages.h **** #define DL_ROTORCRAFT_CMD 143
 144:/home/lsk/paparazzi/var/include/messages.h **** #define DL_GUIDANCE_H_INT 144
 145:/home/lsk/paparazzi/var/include/messages.h **** #define DL_VERT_LOOP 145
 146:/home/lsk/paparazzi/var/include/messages.h **** #define DL_HOVER_LOOP 146
 147:/home/lsk/paparazzi/var/include/messages.h **** #define DL_ROTORCRAFT_FP 147
 148:/home/lsk/paparazzi/var/include/messages.h **** #define DL_TEMP_ADC 148
 149:/home/lsk/paparazzi/var/include/messages.h **** #define DL_GUIDANCE_H_REF_INT 149
 150:/home/lsk/paparazzi/var/include/messages.h **** #define DL_ROTORCRAFT_TUNE_HOVER 150
 151:/home/lsk/paparazzi/var/include/messages.h **** #define DL_INS_Z 151
 152:/home/lsk/paparazzi/var/include/messages.h **** #define DL_PCAP01_STATUS 152
 153:/home/lsk/paparazzi/var/include/messages.h **** #define DL_GEIGER_COUNTER 153
 154:/home/lsk/paparazzi/var/include/messages.h **** #define DL_INS_REF 154
 155:/home/lsk/paparazzi/var/include/messages.h **** #define DL_GPS_INT 155
 156:/home/lsk/paparazzi/var/include/messages.h **** #define DL_AHRS_EULER_INT 156
 157:/home/lsk/paparazzi/var/include/messages.h **** #define DL_AHRS_QUAT_INT 157
 158:/home/lsk/paparazzi/var/include/messages.h **** #define DL_AHRS_RMAT_INT 158
 159:/home/lsk/paparazzi/var/include/messages.h **** #define DL_ROTORCRAFT_NAV_STATUS 159
 160:/home/lsk/paparazzi/var/include/messages.h **** #define DL_ROTORCRAFT_RADIO_CONTROL 160
 161:/home/lsk/paparazzi/var/include/messages.h **** #define DL_VFF_EXTENDED 161
 162:/home/lsk/paparazzi/var/include/messages.h **** #define DL_VFF 162
 163:/home/lsk/paparazzi/var/include/messages.h **** #define DL_GEO_MAG 163
 164:/home/lsk/paparazzi/var/include/messages.h **** #define DL_HFF 164
 165:/home/lsk/paparazzi/var/include/messages.h **** #define DL_HFF_DBG 165
 166:/home/lsk/paparazzi/var/include/messages.h **** #define DL_HFF_GPS 166
 167:/home/lsk/paparazzi/var/include/messages.h **** #define DL_INS_SONAR 167
 168:/home/lsk/paparazzi/var/include/messages.h **** #define DL_ROTORCRAFT_CAM 168
 169:/home/lsk/paparazzi/var/include/messages.h **** #define DL_AHRS_REF_QUAT 169
 170:/home/lsk/paparazzi/var/include/messages.h **** #define DL_EKF7_XHAT 170
 171:/home/lsk/paparazzi/var/include/messages.h **** #define DL_EKF7_Y 171
 172:/home/lsk/paparazzi/var/include/messages.h **** #define DL_EKF7_P_DIAG 172
 173:/home/lsk/paparazzi/var/include/messages.h **** #define DL_AHRS_EULER 173
 174:/home/lsk/paparazzi/var/include/messages.h **** #define DL_AHRS_MEASUREMENT_EULER 174
 175:/home/lsk/paparazzi/var/include/messages.h **** #define DL_WT 175
 176:/home/lsk/paparazzi/var/include/messages.h **** #define DL_CSC_CAN_DEBUG 176
 177:/home/lsk/paparazzi/var/include/messages.h **** #define DL_CSC_CAN_MSG 177
 178:/home/lsk/paparazzi/var/include/messages.h **** #define DL_AHRS_GYRO_BIAS_INT 178
 179:/home/lsk/paparazzi/var/include/messages.h **** #define DL_FLOW_AP_OTF 179
 180:/home/lsk/paparazzi/var/include/messages.h **** #define DL_FMS_TIME 180
 181:/home/lsk/paparazzi/var/include/messages.h **** #define DL_LOADCELL 181
 182:/home/lsk/paparazzi/var/include/messages.h **** #define DL_FLA_DEBUG 182
 183:/home/lsk/paparazzi/var/include/messages.h **** #define DL_BLMC_FAULT_STATUS 183
 184:/home/lsk/paparazzi/var/include/messages.h **** #define DL_BLMC_SPEEDS 184
 185:/home/lsk/paparazzi/var/include/messages.h **** #define DL_AHRS_DEBUG_QUAT 185
 186:/home/lsk/paparazzi/var/include/messages.h **** #define DL_BLMC_BUSVOLTS 186
 187:/home/lsk/paparazzi/var/include/messages.h **** #define DL_SYSTEM_STATUS 187
 188:/home/lsk/paparazzi/var/include/messages.h **** #define DL_DYNAMIXEL 188
 189:/home/lsk/paparazzi/var/include/messages.h **** #define DL_RMAT_DEBUG 189
 190:/home/lsk/paparazzi/var/include/messages.h **** #define DL_SIMPLE_COMMANDS 190
 191:/home/lsk/paparazzi/var/include/messages.h **** #define DL_VANE_SENSOR 191
 192:/home/lsk/paparazzi/var/include/messages.h **** #define DL_CONTROLLER_GAINS 192
 193:/home/lsk/paparazzi/var/include/messages.h **** #define DL_AHRS_LKF 193
 194:/home/lsk/paparazzi/var/include/messages.h **** #define DL_AHRS_LKF_DEBUG 194
 195:/home/lsk/paparazzi/var/include/messages.h **** #define DL_AHRS_LKF_ACC_DBG 195
 196:/home/lsk/paparazzi/var/include/messages.h **** #define DL_AHRS_LKF_MAG_DBG 196
 197:/home/lsk/paparazzi/var/include/messages.h **** #define DL_NPS_SENSORS_SCALED 197
 198:/home/lsk/paparazzi/var/include/messages.h **** #define DL_INS 198
 199:/home/lsk/paparazzi/var/include/messages.h **** #define DL_GPS_ERROR 199
 200:/home/lsk/paparazzi/var/include/messages.h **** #define DL_IMU_GYRO 200
 201:/home/lsk/paparazzi/var/include/messages.h **** #define DL_IMU_MAG 201
 202:/home/lsk/paparazzi/var/include/messages.h **** #define DL_IMU_ACCEL 202
 203:/home/lsk/paparazzi/var/include/messages.h **** #define DL_IMU_GYRO_RAW 203
 204:/home/lsk/paparazzi/var/include/messages.h **** #define DL_IMU_ACCEL_RAW 204
 205:/home/lsk/paparazzi/var/include/messages.h **** #define DL_IMU_MAG_RAW 205
 206:/home/lsk/paparazzi/var/include/messages.h **** #define DL_IMU_MAG_SETTINGS 206
 207:/home/lsk/paparazzi/var/include/messages.h **** #define DL_IMU_MAG_CURRENT_CALIBRATION 207
 208:/home/lsk/paparazzi/var/include/messages.h **** #define DL_UART_ERRORS 208
 209:/home/lsk/paparazzi/var/include/messages.h **** #define DL_IMU_GYRO_LP 209
 210:/home/lsk/paparazzi/var/include/messages.h **** #define DL_IMU_PRESSURE 210
 211:/home/lsk/paparazzi/var/include/messages.h **** #define DL_IMU_HS_GYRO 211
 212:/home/lsk/paparazzi/var/include/messages.h **** #define DL_TEST_PASSTHROUGH_STATUS 212
 213:/home/lsk/paparazzi/var/include/messages.h **** #define DL_TUNE_VERT 213
 214:/home/lsk/paparazzi/var/include/messages.h **** #define DL_MF_DAQ_STATE 214
 215:/home/lsk/paparazzi/var/include/messages.h **** #define DL_INFO_MSG 215
 216:/home/lsk/paparazzi/var/include/messages.h **** #define DL_BEBOP_ACTUATORS 218
 217:/home/lsk/paparazzi/var/include/messages.h **** #define DL_WEATHER 219
 218:/home/lsk/paparazzi/var/include/messages.h **** #define DL_IMU_TURNTABLE 220
 219:/home/lsk/paparazzi/var/include/messages.h **** #define DL_BARO_RAW 221
 220:/home/lsk/paparazzi/var/include/messages.h **** #define DL_AIR_DATA 222
 221:/home/lsk/paparazzi/var/include/messages.h **** #define DL_AMSL 223
 222:/home/lsk/paparazzi/var/include/messages.h **** #define DL_VIDEO_SYNC 225
 223:/home/lsk/paparazzi/var/include/messages.h **** #define DL_PERIODIC_TELEMETRY_ERR 226
 224:/home/lsk/paparazzi/var/include/messages.h **** #define DL_TIME 227
 225:/home/lsk/paparazzi/var/include/messages.h **** #define DL_OPTIC_FLOW_EST 228
 226:/home/lsk/paparazzi/var/include/messages.h **** #define DL_AHRS_ARDRONE2 230
 227:/home/lsk/paparazzi/var/include/messages.h **** #define DL_ROTORCRAFT_STATUS 231
 228:/home/lsk/paparazzi/var/include/messages.h **** #define DL_STATE_FILTER_STATUS 232
 229:/home/lsk/paparazzi/var/include/messages.h **** #define DL_PX4FLOW 233
 230:/home/lsk/paparazzi/var/include/messages.h **** #define DL_OPTICFLOW 234
 231:/home/lsk/paparazzi/var/include/messages.h **** #define DL_VISUALTARGET 235
 232:/home/lsk/paparazzi/var/include/messages.h **** #define DL_SONAR 236
 233:/home/lsk/paparazzi/var/include/messages.h **** #define DL_PAYLOAD_FLOAT 237
 234:/home/lsk/paparazzi/var/include/messages.h **** #define DL_NPS_POS_LLH 238
 235:/home/lsk/paparazzi/var/include/messages.h **** #define DL_NPS_RPMS 239
 236:/home/lsk/paparazzi/var/include/messages.h **** #define DL_NPS_SPEED_POS 240
 237:/home/lsk/paparazzi/var/include/messages.h **** #define DL_NPS_RATE_ATTITUDE 241
 238:/home/lsk/paparazzi/var/include/messages.h **** #define DL_NPS_GYRO_BIAS 242
 239:/home/lsk/paparazzi/var/include/messages.h **** #define DL_NPS_RANGE_METER 243
 240:/home/lsk/paparazzi/var/include/messages.h **** #define DL_NPS_WIND 244
 241:/home/lsk/paparazzi/var/include/messages.h **** #define DL_PPRZ_DEBUG 247
 242:/home/lsk/paparazzi/var/include/messages.h **** #define DL_NPS_ACCEL_LTP 248
 243:/home/lsk/paparazzi/var/include/messages.h **** #define DL_LOOSE_INS_GPS 249
 244:/home/lsk/paparazzi/var/include/messages.h **** #define DL_AFL_COEFFS 250
 245:/home/lsk/paparazzi/var/include/messages.h **** #define DL_I2C_ERRORS 253
 246:/home/lsk/paparazzi/var/include/messages.h **** #define DL_RDYB_TRAJECTORY 254
 247:/home/lsk/paparazzi/var/include/messages.h **** #define DL_HENRY_GNSS 255
 248:/home/lsk/paparazzi/var/include/messages.h **** #define DL_MSG_telemetry_NB 239
 249:/home/lsk/paparazzi/var/include/messages.h **** 
 250:/home/lsk/paparazzi/var/include/messages.h **** #define DOWNLINK_SEND_AUTOPILOT_VERSION(_trans, _dev, version, nb_desc, desc) pprz_msg_send_AUTOPIL
 251:/home/lsk/paparazzi/var/include/messages.h **** static inline void pprz_msg_send_AUTOPILOT_VERSION(struct transport_tx *trans, struct link_device *
 252:/home/lsk/paparazzi/var/include/messages.h **** 	if (trans->check_available_space(trans->impl, dev, trans->size_of(trans->impl, 0+4+1+nb_desc*1 +2 
 253:/home/lsk/paparazzi/var/include/messages.h **** 	  trans->count_bytes(trans->impl, dev, trans->size_of(trans->impl, 0+4+1+nb_desc*1 +2 /* msg heade
 254:/home/lsk/paparazzi/var/include/messages.h **** 	  trans->start_message(trans->impl, dev, 0+4+1+nb_desc*1 +2 /* msg header overhead */);
 255:/home/lsk/paparazzi/var/include/messages.h **** 	  trans->put_bytes(trans->impl, dev, DL_TYPE_UINT8, DL_FORMAT_SCALAR, 1, &ac_id);
 256:/home/lsk/paparazzi/var/include/messages.h **** 	  trans->put_named_byte(trans->impl, dev, DL_TYPE_UINT8, DL_FORMAT_SCALAR, DL_AUTOPILOT_VERSION, "
 257:/home/lsk/paparazzi/var/include/messages.h **** 	  trans->put_bytes(trans->impl, dev, DL_TYPE_UINT32, DL_FORMAT_SCALAR, 4, (void *) _version);
 258:/home/lsk/paparazzi/var/include/messages.h **** 	  trans->put_bytes(trans->impl, dev, DL_TYPE_ARRAY_LENGTH, DL_FORMAT_SCALAR, 1, (void *) &nb_desc)
 259:/home/lsk/paparazzi/var/include/messages.h **** 	  trans->put_bytes(trans->impl, dev, DL_TYPE_CHAR, DL_FORMAT_ARRAY, 1 * nb_desc, (void *) _desc);
 260:/home/lsk/paparazzi/var/include/messages.h **** 	  trans->end_message(trans->impl, dev);
 261:/home/lsk/paparazzi/var/include/messages.h **** 	} else
 262:/home/lsk/paparazzi/var/include/messages.h **** 	  trans->overrun(trans->impl, dev);
 263:/home/lsk/paparazzi/var/include/messages.h **** }
 264:/home/lsk/paparazzi/var/include/messages.h **** 
 265:/home/lsk/paparazzi/var/include/messages.h **** #define DOWNLINK_SEND_ALIVE(_trans, _dev, nb_md5sum, md5sum) pprz_msg_send_ALIVE(&((_trans).trans_t
 266:/home/lsk/paparazzi/var/include/messages.h **** static inline void pprz_msg_send_ALIVE(struct transport_tx *trans, struct link_device *dev, uint8_t
 267:/home/lsk/paparazzi/var/include/messages.h **** 	if (trans->check_available_space(trans->impl, dev, trans->size_of(trans->impl, 0+1+nb_md5sum*1 +2 
 268:/home/lsk/paparazzi/var/include/messages.h **** 	  trans->count_bytes(trans->impl, dev, trans->size_of(trans->impl, 0+1+nb_md5sum*1 +2 /* msg heade
 269:/home/lsk/paparazzi/var/include/messages.h **** 	  trans->start_message(trans->impl, dev, 0+1+nb_md5sum*1 +2 /* msg header overhead */);
 270:/home/lsk/paparazzi/var/include/messages.h **** 	  trans->put_bytes(trans->impl, dev, DL_TYPE_UINT8, DL_FORMAT_SCALAR, 1, &ac_id);
 271:/home/lsk/paparazzi/var/include/messages.h **** 	  trans->put_named_byte(trans->impl, dev, DL_TYPE_UINT8, DL_FORMAT_SCALAR, DL_ALIVE, "ALIVE");
 272:/home/lsk/paparazzi/var/include/messages.h **** 	  trans->put_bytes(trans->impl, dev, DL_TYPE_ARRAY_LENGTH, DL_FORMAT_SCALAR, 1, (void *) &nb_md5su
 273:/home/lsk/paparazzi/var/include/messages.h **** 	  trans->put_bytes(trans->impl, dev, DL_TYPE_UINT8, DL_FORMAT_ARRAY, 1 * nb_md5sum, (void *) _md5s
 274:/home/lsk/paparazzi/var/include/messages.h **** 	  trans->end_message(trans->impl, dev);
 275:/home/lsk/paparazzi/var/include/messages.h **** 	} else
 276:/home/lsk/paparazzi/var/include/messages.h **** 	  trans->overrun(trans->impl, dev);
 277:/home/lsk/paparazzi/var/include/messages.h **** }
 278:/home/lsk/paparazzi/var/include/messages.h **** 
 279:/home/lsk/paparazzi/var/include/messages.h **** #define DOWNLINK_SEND_PONG(_trans, _dev) pprz_msg_send_PONG(&((_trans).trans_tx), &((_dev).device),
 280:/home/lsk/paparazzi/var/include/messages.h **** static inline void pprz_msg_send_PONG(struct transport_tx *trans, struct link_device *dev, uint8_t 
 281:/home/lsk/paparazzi/var/include/messages.h **** 	if (trans->check_available_space(trans->impl, dev, trans->size_of(trans->impl, 0 +2 /* msg header 
 282:/home/lsk/paparazzi/var/include/messages.h **** 	  trans->count_bytes(trans->impl, dev, trans->size_of(trans->impl, 0 +2 /* msg header overhead */)
 283:/home/lsk/paparazzi/var/include/messages.h **** 	  trans->start_message(trans->impl, dev, 0 +2 /* msg header overhead */);
 284:/home/lsk/paparazzi/var/include/messages.h **** 	  trans->put_bytes(trans->impl, dev, DL_TYPE_UINT8, DL_FORMAT_SCALAR, 1, &ac_id);
 285:/home/lsk/paparazzi/var/include/messages.h **** 	  trans->put_named_byte(trans->impl, dev, DL_TYPE_UINT8, DL_FORMAT_SCALAR, DL_PONG, "PONG");
 286:/home/lsk/paparazzi/var/include/messages.h **** 	  trans->end_message(trans->impl, dev);
 287:/home/lsk/paparazzi/var/include/messages.h **** 	} else
 288:/home/lsk/paparazzi/var/include/messages.h **** 	  trans->overrun(trans->impl, dev);
 289:/home/lsk/paparazzi/var/include/messages.h **** }
 290:/home/lsk/paparazzi/var/include/messages.h **** 
 291:/home/lsk/paparazzi/var/include/messages.h **** #define DOWNLINK_SEND_TAKEOFF(_trans, _dev, cpu_time) pprz_msg_send_TAKEOFF(&((_trans).trans_tx), &
 292:/home/lsk/paparazzi/var/include/messages.h **** static inline void pprz_msg_send_TAKEOFF(struct transport_tx *trans, struct link_device *dev, uint8
 293:/home/lsk/paparazzi/var/include/messages.h **** 	if (trans->check_available_space(trans->impl, dev, trans->size_of(trans->impl, 0+2 +2 /* msg heade
 294:/home/lsk/paparazzi/var/include/messages.h **** 	  trans->count_bytes(trans->impl, dev, trans->size_of(trans->impl, 0+2 +2 /* msg header overhead *
 295:/home/lsk/paparazzi/var/include/messages.h **** 	  trans->start_message(trans->impl, dev, 0+2 +2 /* msg header overhead */);
 296:/home/lsk/paparazzi/var/include/messages.h **** 	  trans->put_bytes(trans->impl, dev, DL_TYPE_UINT8, DL_FORMAT_SCALAR, 1, &ac_id);
 297:/home/lsk/paparazzi/var/include/messages.h **** 	  trans->put_named_byte(trans->impl, dev, DL_TYPE_UINT8, DL_FORMAT_SCALAR, DL_TAKEOFF, "TAKEOFF");
 298:/home/lsk/paparazzi/var/include/messages.h **** 	  trans->put_bytes(trans->impl, dev, DL_TYPE_UINT16, DL_FORMAT_SCALAR, 2, (void *) _cpu_time);
 299:/home/lsk/paparazzi/var/include/messages.h **** 	  trans->end_message(trans->impl, dev);
 300:/home/lsk/paparazzi/var/include/messages.h **** 	} else
 301:/home/lsk/paparazzi/var/include/messages.h **** 	  trans->overrun(trans->impl, dev);
 302:/home/lsk/paparazzi/var/include/messages.h **** }
 303:/home/lsk/paparazzi/var/include/messages.h **** 
 304:/home/lsk/paparazzi/var/include/messages.h **** #define DOWNLINK_SEND_ARDRONE_NAVDATA(_trans, _dev, taille, nu_trame, ax, ay, az, vx, vy, vz, tempe
 305:/home/lsk/paparazzi/var/include/messages.h **** static inline void pprz_msg_send_ARDRONE_NAVDATA(struct transport_tx *trans, struct link_device *de
 306:/home/lsk/paparazzi/var/include/messages.h **** 	if (trans->check_available_space(trans->impl, dev, trans->size_of(trans->impl, 0+2+2+2+2+2+2+2+2+2
 307:/home/lsk/paparazzi/var/include/messages.h **** 	  trans->count_bytes(trans->impl, dev, trans->size_of(trans->impl, 0+2+2+2+2+2+2+2+2+2+2+2+2+2+2+2
 308:/home/lsk/paparazzi/var/include/messages.h **** 	  trans->start_message(trans->impl, dev, 0+2+2+2+2+2+2+2+2+2+2+2+2+2+2+2+2+2+2+2+4+2+2+4+2+2+2+2+2
 309:/home/lsk/paparazzi/var/include/messages.h **** 	  trans->put_bytes(trans->impl, dev, DL_TYPE_UINT8, DL_FORMAT_SCALAR, 1, &ac_id);
 310:/home/lsk/paparazzi/var/include/messages.h **** 	  trans->put_named_byte(trans->impl, dev, DL_TYPE_UINT8, DL_FORMAT_SCALAR, DL_ARDRONE_NAVDATA, "AR
 311:/home/lsk/paparazzi/var/include/messages.h **** 	  trans->put_bytes(trans->impl, dev, DL_TYPE_UINT16, DL_FORMAT_SCALAR, 2, (void *) _taille);
 312:/home/lsk/paparazzi/var/include/messages.h **** 	  trans->put_bytes(trans->impl, dev, DL_TYPE_UINT16, DL_FORMAT_SCALAR, 2, (void *) _nu_trame);
 313:/home/lsk/paparazzi/var/include/messages.h **** 	  trans->put_bytes(trans->impl, dev, DL_TYPE_UINT16, DL_FORMAT_SCALAR, 2, (void *) _ax);
 314:/home/lsk/paparazzi/var/include/messages.h **** 	  trans->put_bytes(trans->impl, dev, DL_TYPE_UINT16, DL_FORMAT_SCALAR, 2, (void *) _ay);
 315:/home/lsk/paparazzi/var/include/messages.h **** 	  trans->put_bytes(trans->impl, dev, DL_TYPE_UINT16, DL_FORMAT_SCALAR, 2, (void *) _az);
 316:/home/lsk/paparazzi/var/include/messages.h **** 	  trans->put_bytes(trans->impl, dev, DL_TYPE_INT16, DL_FORMAT_SCALAR, 2, (void *) _vx);
 317:/home/lsk/paparazzi/var/include/messages.h **** 	  trans->put_bytes(trans->impl, dev, DL_TYPE_INT16, DL_FORMAT_SCALAR, 2, (void *) _vy);
 318:/home/lsk/paparazzi/var/include/messages.h **** 	  trans->put_bytes(trans->impl, dev, DL_TYPE_INT16, DL_FORMAT_SCALAR, 2, (void *) _vz);
 319:/home/lsk/paparazzi/var/include/messages.h **** 	  trans->put_bytes(trans->impl, dev, DL_TYPE_UINT16, DL_FORMAT_SCALAR, 2, (void *) _temperature_ac
 320:/home/lsk/paparazzi/var/include/messages.h **** 	  trans->put_bytes(trans->impl, dev, DL_TYPE_UINT16, DL_FORMAT_SCALAR, 2, (void *) _temperature_gy
 321:/home/lsk/paparazzi/var/include/messages.h **** 	  trans->put_bytes(trans->impl, dev, DL_TYPE_UINT16, DL_FORMAT_SCALAR, 2, (void *) _ultrasound);
 322:/home/lsk/paparazzi/var/include/messages.h **** 	  trans->put_bytes(trans->impl, dev, DL_TYPE_UINT16, DL_FORMAT_SCALAR, 2, (void *) _us_debut_echo)
 323:/home/lsk/paparazzi/var/include/messages.h **** 	  trans->put_bytes(trans->impl, dev, DL_TYPE_UINT16, DL_FORMAT_SCALAR, 2, (void *) _us_fin_echo);
 324:/home/lsk/paparazzi/var/include/messages.h **** 	  trans->put_bytes(trans->impl, dev, DL_TYPE_UINT16, DL_FORMAT_SCALAR, 2, (void *) _us_association
 325:/home/lsk/paparazzi/var/include/messages.h **** 	  trans->put_bytes(trans->impl, dev, DL_TYPE_UINT16, DL_FORMAT_SCALAR, 2, (void *) _us_distance_ec
 326:/home/lsk/paparazzi/var/include/messages.h **** 	  trans->put_bytes(trans->impl, dev, DL_TYPE_UINT16, DL_FORMAT_SCALAR, 2, (void *) _us_curve_time)
 327:/home/lsk/paparazzi/var/include/messages.h **** 	  trans->put_bytes(trans->impl, dev, DL_TYPE_UINT16, DL_FORMAT_SCALAR, 2, (void *) _us_curve_value
 328:/home/lsk/paparazzi/var/include/messages.h **** 	  trans->put_bytes(trans->impl, dev, DL_TYPE_UINT16, DL_FORMAT_SCALAR, 2, (void *) _us_curve_ref);
 329:/home/lsk/paparazzi/var/include/messages.h **** 	  trans->put_bytes(trans->impl, dev, DL_TYPE_UINT16, DL_FORMAT_SCALAR, 2, (void *) _nb_echo);
 330:/home/lsk/paparazzi/var/include/messages.h **** 	  trans->put_bytes(trans->impl, dev, DL_TYPE_UINT32, DL_FORMAT_SCALAR, 4, (void *) _sum_echo);
 331:/home/lsk/paparazzi/var/include/messages.h **** 	  trans->put_bytes(trans->impl, dev, DL_TYPE_INT16, DL_FORMAT_SCALAR, 2, (void *) _gradient);
 332:/home/lsk/paparazzi/var/include/messages.h **** 	  trans->put_bytes(trans->impl, dev, DL_TYPE_UINT16, DL_FORMAT_SCALAR, 2, (void *) _flag_echo_ini)
 333:/home/lsk/paparazzi/var/include/messages.h **** 	  trans->put_bytes(trans->impl, dev, DL_TYPE_INT32, DL_FORMAT_SCALAR, 4, (void *) _pressure);
 334:/home/lsk/paparazzi/var/include/messages.h **** 	  trans->put_bytes(trans->impl, dev, DL_TYPE_UINT16, DL_FORMAT_SCALAR, 2, (void *) _temperature_pr
 335:/home/lsk/paparazzi/var/include/messages.h **** 	  trans->put_bytes(trans->impl, dev, DL_TYPE_INT16, DL_FORMAT_SCALAR, 2, (void *) _mx);
 336:/home/lsk/paparazzi/var/include/messages.h **** 	  trans->put_bytes(trans->impl, dev, DL_TYPE_INT16, DL_FORMAT_SCALAR, 2, (void *) _my);
 337:/home/lsk/paparazzi/var/include/messages.h **** 	  trans->put_bytes(trans->impl, dev, DL_TYPE_INT16, DL_FORMAT_SCALAR, 2, (void *) _mz);
 338:/home/lsk/paparazzi/var/include/messages.h **** 	  trans->put_bytes(trans->impl, dev, DL_TYPE_UINT16, DL_FORMAT_SCALAR, 2, (void *) _chksum);
 339:/home/lsk/paparazzi/var/include/messages.h **** 	  trans->put_bytes(trans->impl, dev, DL_TYPE_UINT32, DL_FORMAT_SCALAR, 4, (void *) _checksum_error
 340:/home/lsk/paparazzi/var/include/messages.h **** 	  trans->end_message(trans->impl, dev);
 341:/home/lsk/paparazzi/var/include/messages.h **** 	} else
 342:/home/lsk/paparazzi/var/include/messages.h **** 	  trans->overrun(trans->impl, dev);
 343:/home/lsk/paparazzi/var/include/messages.h **** }
 344:/home/lsk/paparazzi/var/include/messages.h **** 
 345:/home/lsk/paparazzi/var/include/messages.h **** #define DOWNLINK_SEND_ATTITUDE(_trans, _dev, phi, psi, theta) pprz_msg_send_ATTITUDE(&((_trans).tra
 346:/home/lsk/paparazzi/var/include/messages.h **** static inline void pprz_msg_send_ATTITUDE(struct transport_tx *trans, struct link_device *dev, uint
 347:/home/lsk/paparazzi/var/include/messages.h **** 	if (trans->check_available_space(trans->impl, dev, trans->size_of(trans->impl, 0+4+4+4 +2 /* msg h
 348:/home/lsk/paparazzi/var/include/messages.h **** 	  trans->count_bytes(trans->impl, dev, trans->size_of(trans->impl, 0+4+4+4 +2 /* msg header overhe
 349:/home/lsk/paparazzi/var/include/messages.h **** 	  trans->start_message(trans->impl, dev, 0+4+4+4 +2 /* msg header overhead */);
 350:/home/lsk/paparazzi/var/include/messages.h **** 	  trans->put_bytes(trans->impl, dev, DL_TYPE_UINT8, DL_FORMAT_SCALAR, 1, &ac_id);
 351:/home/lsk/paparazzi/var/include/messages.h **** 	  trans->put_named_byte(trans->impl, dev, DL_TYPE_UINT8, DL_FORMAT_SCALAR, DL_ATTITUDE, "ATTITUDE"
 352:/home/lsk/paparazzi/var/include/messages.h **** 	  trans->put_bytes(trans->impl, dev, DL_TYPE_FLOAT, DL_FORMAT_SCALAR, 4, (void *) _phi);
 353:/home/lsk/paparazzi/var/include/messages.h **** 	  trans->put_bytes(trans->impl, dev, DL_TYPE_FLOAT, DL_FORMAT_SCALAR, 4, (void *) _psi);
 354:/home/lsk/paparazzi/var/include/messages.h **** 	  trans->put_bytes(trans->impl, dev, DL_TYPE_FLOAT, DL_FORMAT_SCALAR, 4, (void *) _theta);
 355:/home/lsk/paparazzi/var/include/messages.h **** 	  trans->end_message(trans->impl, dev);
 356:/home/lsk/paparazzi/var/include/messages.h **** 	} else
 357:/home/lsk/paparazzi/var/include/messages.h **** 	  trans->overrun(trans->impl, dev);
 358:/home/lsk/paparazzi/var/include/messages.h **** }
 359:/home/lsk/paparazzi/var/include/messages.h **** 
 360:/home/lsk/paparazzi/var/include/messages.h **** #define DOWNLINK_SEND_IR_SENSORS(_trans, _dev, ir1, ir2, longitudinal, lateral, vertical) pprz_msg_
 361:/home/lsk/paparazzi/var/include/messages.h **** static inline void pprz_msg_send_IR_SENSORS(struct transport_tx *trans, struct link_device *dev, ui
 362:/home/lsk/paparazzi/var/include/messages.h **** 	if (trans->check_available_space(trans->impl, dev, trans->size_of(trans->impl, 0+2+2+2+2+2 +2 /* m
 363:/home/lsk/paparazzi/var/include/messages.h **** 	  trans->count_bytes(trans->impl, dev, trans->size_of(trans->impl, 0+2+2+2+2+2 +2 /* msg header ov
 364:/home/lsk/paparazzi/var/include/messages.h **** 	  trans->start_message(trans->impl, dev, 0+2+2+2+2+2 +2 /* msg header overhead */);
 365:/home/lsk/paparazzi/var/include/messages.h **** 	  trans->put_bytes(trans->impl, dev, DL_TYPE_UINT8, DL_FORMAT_SCALAR, 1, &ac_id);
 366:/home/lsk/paparazzi/var/include/messages.h **** 	  trans->put_named_byte(trans->impl, dev, DL_TYPE_UINT8, DL_FORMAT_SCALAR, DL_IR_SENSORS, "IR_SENS
 367:/home/lsk/paparazzi/var/include/messages.h **** 	  trans->put_bytes(trans->impl, dev, DL_TYPE_INT16, DL_FORMAT_SCALAR, 2, (void *) _ir1);
 368:/home/lsk/paparazzi/var/include/messages.h **** 	  trans->put_bytes(trans->impl, dev, DL_TYPE_INT16, DL_FORMAT_SCALAR, 2, (void *) _ir2);
 369:/home/lsk/paparazzi/var/include/messages.h **** 	  trans->put_bytes(trans->impl, dev, DL_TYPE_INT16, DL_FORMAT_SCALAR, 2, (void *) _longitudinal);
 370:/home/lsk/paparazzi/var/include/messages.h **** 	  trans->put_bytes(trans->impl, dev, DL_TYPE_INT16, DL_FORMAT_SCALAR, 2, (void *) _lateral);
 371:/home/lsk/paparazzi/var/include/messages.h **** 	  trans->put_bytes(trans->impl, dev, DL_TYPE_INT16, DL_FORMAT_SCALAR, 2, (void *) _vertical);
 372:/home/lsk/paparazzi/var/include/messages.h **** 	  trans->end_message(trans->impl, dev);
 373:/home/lsk/paparazzi/var/include/messages.h **** 	} else
 374:/home/lsk/paparazzi/var/include/messages.h **** 	  trans->overrun(trans->impl, dev);
 375:/home/lsk/paparazzi/var/include/messages.h **** }
 376:/home/lsk/paparazzi/var/include/messages.h **** 
 377:/home/lsk/paparazzi/var/include/messages.h **** #define DOWNLINK_SEND_GPS(_trans, _dev, mode, utm_east, utm_north, course, alt, speed, climb, week,
 378:/home/lsk/paparazzi/var/include/messages.h **** static inline void pprz_msg_send_GPS(struct transport_tx *trans, struct link_device *dev, uint8_t a
 379:/home/lsk/paparazzi/var/include/messages.h **** 	if (trans->check_available_space(trans->impl, dev, trans->size_of(trans->impl, 0+1+4+4+2+4+2+2+2+4
 380:/home/lsk/paparazzi/var/include/messages.h **** 	  trans->count_bytes(trans->impl, dev, trans->size_of(trans->impl, 0+1+4+4+2+4+2+2+2+4+1+1 +2 /* m
 381:/home/lsk/paparazzi/var/include/messages.h **** 	  trans->start_message(trans->impl, dev, 0+1+4+4+2+4+2+2+2+4+1+1 +2 /* msg header overhead */);
 382:/home/lsk/paparazzi/var/include/messages.h **** 	  trans->put_bytes(trans->impl, dev, DL_TYPE_UINT8, DL_FORMAT_SCALAR, 1, &ac_id);
 383:/home/lsk/paparazzi/var/include/messages.h **** 	  trans->put_named_byte(trans->impl, dev, DL_TYPE_UINT8, DL_FORMAT_SCALAR, DL_GPS, "GPS");
 384:/home/lsk/paparazzi/var/include/messages.h **** 	  trans->put_bytes(trans->impl, dev, DL_TYPE_UINT8, DL_FORMAT_SCALAR, 1, (void *) _mode);
 385:/home/lsk/paparazzi/var/include/messages.h **** 	  trans->put_bytes(trans->impl, dev, DL_TYPE_INT32, DL_FORMAT_SCALAR, 4, (void *) _utm_east);
 386:/home/lsk/paparazzi/var/include/messages.h **** 	  trans->put_bytes(trans->impl, dev, DL_TYPE_INT32, DL_FORMAT_SCALAR, 4, (void *) _utm_north);
 387:/home/lsk/paparazzi/var/include/messages.h **** 	  trans->put_bytes(trans->impl, dev, DL_TYPE_INT16, DL_FORMAT_SCALAR, 2, (void *) _course);
 388:/home/lsk/paparazzi/var/include/messages.h **** 	  trans->put_bytes(trans->impl, dev, DL_TYPE_INT32, DL_FORMAT_SCALAR, 4, (void *) _alt);
 389:/home/lsk/paparazzi/var/include/messages.h **** 	  trans->put_bytes(trans->impl, dev, DL_TYPE_UINT16, DL_FORMAT_SCALAR, 2, (void *) _speed);
 390:/home/lsk/paparazzi/var/include/messages.h **** 	  trans->put_bytes(trans->impl, dev, DL_TYPE_INT16, DL_FORMAT_SCALAR, 2, (void *) _climb);
 391:/home/lsk/paparazzi/var/include/messages.h **** 	  trans->put_bytes(trans->impl, dev, DL_TYPE_UINT16, DL_FORMAT_SCALAR, 2, (void *) _week);
 392:/home/lsk/paparazzi/var/include/messages.h **** 	  trans->put_bytes(trans->impl, dev, DL_TYPE_UINT32, DL_FORMAT_SCALAR, 4, (void *) _itow);
 393:/home/lsk/paparazzi/var/include/messages.h **** 	  trans->put_bytes(trans->impl, dev, DL_TYPE_UINT8, DL_FORMAT_SCALAR, 1, (void *) _utm_zone);
 394:/home/lsk/paparazzi/var/include/messages.h **** 	  trans->put_bytes(trans->impl, dev, DL_TYPE_UINT8, DL_FORMAT_SCALAR, 1, (void *) _gps_nb_err);
 395:/home/lsk/paparazzi/var/include/messages.h **** 	  trans->end_message(trans->impl, dev);
 396:/home/lsk/paparazzi/var/include/messages.h **** 	} else
 397:/home/lsk/paparazzi/var/include/messages.h **** 	  trans->overrun(trans->impl, dev);
 398:/home/lsk/paparazzi/var/include/messages.h **** }
 399:/home/lsk/paparazzi/var/include/messages.h **** 
 400:/home/lsk/paparazzi/var/include/messages.h **** #define DOWNLINK_SEND_NAVIGATION_REF(_trans, _dev, utm_east, utm_north, utm_zone, ground_alt) pprz_
 401:/home/lsk/paparazzi/var/include/messages.h **** static inline void pprz_msg_send_NAVIGATION_REF(struct transport_tx *trans, struct link_device *dev
 402:/home/lsk/paparazzi/var/include/messages.h **** 	if (trans->check_available_space(trans->impl, dev, trans->size_of(trans->impl, 0+4+4+1+4 +2 /* msg
 403:/home/lsk/paparazzi/var/include/messages.h **** 	  trans->count_bytes(trans->impl, dev, trans->size_of(trans->impl, 0+4+4+1+4 +2 /* msg header over
 404:/home/lsk/paparazzi/var/include/messages.h **** 	  trans->start_message(trans->impl, dev, 0+4+4+1+4 +2 /* msg header overhead */);
 405:/home/lsk/paparazzi/var/include/messages.h **** 	  trans->put_bytes(trans->impl, dev, DL_TYPE_UINT8, DL_FORMAT_SCALAR, 1, &ac_id);
 406:/home/lsk/paparazzi/var/include/messages.h **** 	  trans->put_named_byte(trans->impl, dev, DL_TYPE_UINT8, DL_FORMAT_SCALAR, DL_NAVIGATION_REF, "NAV
 407:/home/lsk/paparazzi/var/include/messages.h **** 	  trans->put_bytes(trans->impl, dev, DL_TYPE_INT32, DL_FORMAT_SCALAR, 4, (void *) _utm_east);
 408:/home/lsk/paparazzi/var/include/messages.h **** 	  trans->put_bytes(trans->impl, dev, DL_TYPE_INT32, DL_FORMAT_SCALAR, 4, (void *) _utm_north);
 409:/home/lsk/paparazzi/var/include/messages.h **** 	  trans->put_bytes(trans->impl, dev, DL_TYPE_UINT8, DL_FORMAT_SCALAR, 1, (void *) _utm_zone);
 410:/home/lsk/paparazzi/var/include/messages.h **** 	  trans->put_bytes(trans->impl, dev, DL_TYPE_FLOAT, DL_FORMAT_SCALAR, 4, (void *) _ground_alt);
 411:/home/lsk/paparazzi/var/include/messages.h **** 	  trans->end_message(trans->impl, dev);
 412:/home/lsk/paparazzi/var/include/messages.h **** 	} else
 413:/home/lsk/paparazzi/var/include/messages.h **** 	  trans->overrun(trans->impl, dev);
 414:/home/lsk/paparazzi/var/include/messages.h **** }
 415:/home/lsk/paparazzi/var/include/messages.h **** 
 416:/home/lsk/paparazzi/var/include/messages.h **** #define DOWNLINK_SEND_NAVIGATION(_trans, _dev, cur_block, cur_stage, pos_x, pos_y, dist_wp, dist_ho
 417:/home/lsk/paparazzi/var/include/messages.h **** static inline void pprz_msg_send_NAVIGATION(struct transport_tx *trans, struct link_device *dev, ui
 418:/home/lsk/paparazzi/var/include/messages.h **** 	if (trans->check_available_space(trans->impl, dev, trans->size_of(trans->impl, 0+1+1+4+4+4+4+1+1 +
 419:/home/lsk/paparazzi/var/include/messages.h **** 	  trans->count_bytes(trans->impl, dev, trans->size_of(trans->impl, 0+1+1+4+4+4+4+1+1 +2 /* msg hea
 420:/home/lsk/paparazzi/var/include/messages.h **** 	  trans->start_message(trans->impl, dev, 0+1+1+4+4+4+4+1+1 +2 /* msg header overhead */);
 421:/home/lsk/paparazzi/var/include/messages.h **** 	  trans->put_bytes(trans->impl, dev, DL_TYPE_UINT8, DL_FORMAT_SCALAR, 1, &ac_id);
 422:/home/lsk/paparazzi/var/include/messages.h **** 	  trans->put_named_byte(trans->impl, dev, DL_TYPE_UINT8, DL_FORMAT_SCALAR, DL_NAVIGATION, "NAVIGAT
 423:/home/lsk/paparazzi/var/include/messages.h **** 	  trans->put_bytes(trans->impl, dev, DL_TYPE_UINT8, DL_FORMAT_SCALAR, 1, (void *) _cur_block);
 424:/home/lsk/paparazzi/var/include/messages.h **** 	  trans->put_bytes(trans->impl, dev, DL_TYPE_UINT8, DL_FORMAT_SCALAR, 1, (void *) _cur_stage);
 425:/home/lsk/paparazzi/var/include/messages.h **** 	  trans->put_bytes(trans->impl, dev, DL_TYPE_FLOAT, DL_FORMAT_SCALAR, 4, (void *) _pos_x);
 426:/home/lsk/paparazzi/var/include/messages.h **** 	  trans->put_bytes(trans->impl, dev, DL_TYPE_FLOAT, DL_FORMAT_SCALAR, 4, (void *) _pos_y);
 427:/home/lsk/paparazzi/var/include/messages.h **** 	  trans->put_bytes(trans->impl, dev, DL_TYPE_FLOAT, DL_FORMAT_SCALAR, 4, (void *) _dist_wp);
 428:/home/lsk/paparazzi/var/include/messages.h **** 	  trans->put_bytes(trans->impl, dev, DL_TYPE_FLOAT, DL_FORMAT_SCALAR, 4, (void *) _dist_home);
 429:/home/lsk/paparazzi/var/include/messages.h **** 	  trans->put_bytes(trans->impl, dev, DL_TYPE_UINT8, DL_FORMAT_SCALAR, 1, (void *) _circle_count);
 430:/home/lsk/paparazzi/var/include/messages.h **** 	  trans->put_bytes(trans->impl, dev, DL_TYPE_UINT8, DL_FORMAT_SCALAR, 1, (void *) _oval_count);
 431:/home/lsk/paparazzi/var/include/messages.h **** 	  trans->end_message(trans->impl, dev);
 432:/home/lsk/paparazzi/var/include/messages.h **** 	} else
 433:/home/lsk/paparazzi/var/include/messages.h **** 	  trans->overrun(trans->impl, dev);
 434:/home/lsk/paparazzi/var/include/messages.h **** }
 435:/home/lsk/paparazzi/var/include/messages.h **** 
 436:/home/lsk/paparazzi/var/include/messages.h **** #define DOWNLINK_SEND_PPRZ_MODE(_trans, _dev, ap_mode, ap_gaz, ap_lateral, ap_horizontal, if_calib_
 437:/home/lsk/paparazzi/var/include/messages.h **** static inline void pprz_msg_send_PPRZ_MODE(struct transport_tx *trans, struct link_device *dev, uin
 438:/home/lsk/paparazzi/var/include/messages.h **** 	if (trans->check_available_space(trans->impl, dev, trans->size_of(trans->impl, 0+1+1+1+1+1+1 +2 /*
 439:/home/lsk/paparazzi/var/include/messages.h **** 	  trans->count_bytes(trans->impl, dev, trans->size_of(trans->impl, 0+1+1+1+1+1+1 +2 /* msg header 
 440:/home/lsk/paparazzi/var/include/messages.h **** 	  trans->start_message(trans->impl, dev, 0+1+1+1+1+1+1 +2 /* msg header overhead */);
 441:/home/lsk/paparazzi/var/include/messages.h **** 	  trans->put_bytes(trans->impl, dev, DL_TYPE_UINT8, DL_FORMAT_SCALAR, 1, &ac_id);
 442:/home/lsk/paparazzi/var/include/messages.h **** 	  trans->put_named_byte(trans->impl, dev, DL_TYPE_UINT8, DL_FORMAT_SCALAR, DL_PPRZ_MODE, "PPRZ_MOD
 443:/home/lsk/paparazzi/var/include/messages.h **** 	  trans->put_bytes(trans->impl, dev, DL_TYPE_UINT8, DL_FORMAT_SCALAR, 1, (void *) _ap_mode);
 444:/home/lsk/paparazzi/var/include/messages.h **** 	  trans->put_bytes(trans->impl, dev, DL_TYPE_UINT8, DL_FORMAT_SCALAR, 1, (void *) _ap_gaz);
 445:/home/lsk/paparazzi/var/include/messages.h **** 	  trans->put_bytes(trans->impl, dev, DL_TYPE_UINT8, DL_FORMAT_SCALAR, 1, (void *) _ap_lateral);
 446:/home/lsk/paparazzi/var/include/messages.h **** 	  trans->put_bytes(trans->impl, dev, DL_TYPE_UINT8, DL_FORMAT_SCALAR, 1, (void *) _ap_horizontal);
 447:/home/lsk/paparazzi/var/include/messages.h **** 	  trans->put_bytes(trans->impl, dev, DL_TYPE_UINT8, DL_FORMAT_SCALAR, 1, (void *) _if_calib_mode);
 448:/home/lsk/paparazzi/var/include/messages.h **** 	  trans->put_bytes(trans->impl, dev, DL_TYPE_UINT8, DL_FORMAT_SCALAR, 1, (void *) _mcu1_status);
 449:/home/lsk/paparazzi/var/include/messages.h **** 	  trans->end_message(trans->impl, dev);
 450:/home/lsk/paparazzi/var/include/messages.h **** 	} else
 451:/home/lsk/paparazzi/var/include/messages.h **** 	  trans->overrun(trans->impl, dev);
 452:/home/lsk/paparazzi/var/include/messages.h **** }
 453:/home/lsk/paparazzi/var/include/messages.h **** 
 454:/home/lsk/paparazzi/var/include/messages.h **** #define DOWNLINK_SEND_BAT(_trans, _dev, throttle, voltage, amps, flight_time, kill_auto_throttle, b
 455:/home/lsk/paparazzi/var/include/messages.h **** static inline void pprz_msg_send_BAT(struct transport_tx *trans, struct link_device *dev, uint8_t a
 456:/home/lsk/paparazzi/var/include/messages.h **** 	if (trans->check_available_space(trans->impl, dev, trans->size_of(trans->impl, 0+2+2+2+2+1+2+2+2 +
 457:/home/lsk/paparazzi/var/include/messages.h **** 	  trans->count_bytes(trans->impl, dev, trans->size_of(trans->impl, 0+2+2+2+2+1+2+2+2 +2 /* msg hea
 458:/home/lsk/paparazzi/var/include/messages.h **** 	  trans->start_message(trans->impl, dev, 0+2+2+2+2+1+2+2+2 +2 /* msg header overhead */);
 459:/home/lsk/paparazzi/var/include/messages.h **** 	  trans->put_bytes(trans->impl, dev, DL_TYPE_UINT8, DL_FORMAT_SCALAR, 1, &ac_id);
 460:/home/lsk/paparazzi/var/include/messages.h **** 	  trans->put_named_byte(trans->impl, dev, DL_TYPE_UINT8, DL_FORMAT_SCALAR, DL_BAT, "BAT");
 461:/home/lsk/paparazzi/var/include/messages.h **** 	  trans->put_bytes(trans->impl, dev, DL_TYPE_INT16, DL_FORMAT_SCALAR, 2, (void *) _throttle);
 462:/home/lsk/paparazzi/var/include/messages.h **** 	  trans->put_bytes(trans->impl, dev, DL_TYPE_UINT16, DL_FORMAT_SCALAR, 2, (void *) _voltage);
 463:/home/lsk/paparazzi/var/include/messages.h **** 	  trans->put_bytes(trans->impl, dev, DL_TYPE_INT16, DL_FORMAT_SCALAR, 2, (void *) _amps);
 464:/home/lsk/paparazzi/var/include/messages.h **** 	  trans->put_bytes(trans->impl, dev, DL_TYPE_UINT16, DL_FORMAT_SCALAR, 2, (void *) _flight_time);
 465:/home/lsk/paparazzi/var/include/messages.h **** 	  trans->put_bytes(trans->impl, dev, DL_TYPE_UINT8, DL_FORMAT_SCALAR, 1, (void *) _kill_auto_throt
 466:/home/lsk/paparazzi/var/include/messages.h **** 	  trans->put_bytes(trans->impl, dev, DL_TYPE_UINT16, DL_FORMAT_SCALAR, 2, (void *) _block_time);
 467:/home/lsk/paparazzi/var/include/messages.h **** 	  trans->put_bytes(trans->impl, dev, DL_TYPE_UINT16, DL_FORMAT_SCALAR, 2, (void *) _stage_time);
 468:/home/lsk/paparazzi/var/include/messages.h **** 	  trans->put_bytes(trans->impl, dev, DL_TYPE_INT16, DL_FORMAT_SCALAR, 2, (void *) _energy);
 469:/home/lsk/paparazzi/var/include/messages.h **** 	  trans->end_message(trans->impl, dev);
 470:/home/lsk/paparazzi/var/include/messages.h **** 	} else
 471:/home/lsk/paparazzi/var/include/messages.h **** 	  trans->overrun(trans->impl, dev);
 472:/home/lsk/paparazzi/var/include/messages.h **** }
 473:/home/lsk/paparazzi/var/include/messages.h **** 
 474:/home/lsk/paparazzi/var/include/messages.h **** #define DOWNLINK_SEND_DEBUG_MCU_LINK(_trans, _dev, i2c_nb_err, i2c_mcu1_nb_err, ppm_rate) pprz_msg_
 475:/home/lsk/paparazzi/var/include/messages.h **** static inline void pprz_msg_send_DEBUG_MCU_LINK(struct transport_tx *trans, struct link_device *dev
 476:/home/lsk/paparazzi/var/include/messages.h **** 	if (trans->check_available_space(trans->impl, dev, trans->size_of(trans->impl, 0+1+1+1 +2 /* msg h
 477:/home/lsk/paparazzi/var/include/messages.h **** 	  trans->count_bytes(trans->impl, dev, trans->size_of(trans->impl, 0+1+1+1 +2 /* msg header overhe
 478:/home/lsk/paparazzi/var/include/messages.h **** 	  trans->start_message(trans->impl, dev, 0+1+1+1 +2 /* msg header overhead */);
 479:/home/lsk/paparazzi/var/include/messages.h **** 	  trans->put_bytes(trans->impl, dev, DL_TYPE_UINT8, DL_FORMAT_SCALAR, 1, &ac_id);
 480:/home/lsk/paparazzi/var/include/messages.h **** 	  trans->put_named_byte(trans->impl, dev, DL_TYPE_UINT8, DL_FORMAT_SCALAR, DL_DEBUG_MCU_LINK, "DEB
 481:/home/lsk/paparazzi/var/include/messages.h **** 	  trans->put_bytes(trans->impl, dev, DL_TYPE_UINT8, DL_FORMAT_SCALAR, 1, (void *) _i2c_nb_err);
 482:/home/lsk/paparazzi/var/include/messages.h **** 	  trans->put_bytes(trans->impl, dev, DL_TYPE_UINT8, DL_FORMAT_SCALAR, 1, (void *) _i2c_mcu1_nb_err
 483:/home/lsk/paparazzi/var/include/messages.h **** 	  trans->put_bytes(trans->impl, dev, DL_TYPE_UINT8, DL_FORMAT_SCALAR, 1, (void *) _ppm_rate);
 484:/home/lsk/paparazzi/var/include/messages.h **** 	  trans->end_message(trans->impl, dev);
 485:/home/lsk/paparazzi/var/include/messages.h **** 	} else
 486:/home/lsk/paparazzi/var/include/messages.h **** 	  trans->overrun(trans->impl, dev);
 487:/home/lsk/paparazzi/var/include/messages.h **** }
 488:/home/lsk/paparazzi/var/include/messages.h **** 
 489:/home/lsk/paparazzi/var/include/messages.h **** #define DOWNLINK_SEND_CALIBRATION(_trans, _dev, climb_sum_err, climb_gaz_submode) pprz_msg_send_CAL
 490:/home/lsk/paparazzi/var/include/messages.h **** static inline void pprz_msg_send_CALIBRATION(struct transport_tx *trans, struct link_device *dev, u
 491:/home/lsk/paparazzi/var/include/messages.h **** 	if (trans->check_available_space(trans->impl, dev, trans->size_of(trans->impl, 0+4+1 +2 /* msg hea
 492:/home/lsk/paparazzi/var/include/messages.h **** 	  trans->count_bytes(trans->impl, dev, trans->size_of(trans->impl, 0+4+1 +2 /* msg header overhead
 493:/home/lsk/paparazzi/var/include/messages.h **** 	  trans->start_message(trans->impl, dev, 0+4+1 +2 /* msg header overhead */);
 494:/home/lsk/paparazzi/var/include/messages.h **** 	  trans->put_bytes(trans->impl, dev, DL_TYPE_UINT8, DL_FORMAT_SCALAR, 1, &ac_id);
 495:/home/lsk/paparazzi/var/include/messages.h **** 	  trans->put_named_byte(trans->impl, dev, DL_TYPE_UINT8, DL_FORMAT_SCALAR, DL_CALIBRATION, "CALIBR
 496:/home/lsk/paparazzi/var/include/messages.h **** 	  trans->put_bytes(trans->impl, dev, DL_TYPE_FLOAT, DL_FORMAT_SCALAR, 4, (void *) _climb_sum_err);
 497:/home/lsk/paparazzi/var/include/messages.h **** 	  trans->put_bytes(trans->impl, dev, DL_TYPE_UINT8, DL_FORMAT_SCALAR, 1, (void *) _climb_gaz_submo
 498:/home/lsk/paparazzi/var/include/messages.h **** 	  trans->end_message(trans->impl, dev);
 499:/home/lsk/paparazzi/var/include/messages.h **** 	} else
 500:/home/lsk/paparazzi/var/include/messages.h **** 	  trans->overrun(trans->impl, dev);
 501:/home/lsk/paparazzi/var/include/messages.h **** }
 502:/home/lsk/paparazzi/var/include/messages.h **** 
 503:/home/lsk/paparazzi/var/include/messages.h **** #define DOWNLINK_SEND_SETTINGS(_trans, _dev, slider_1_val, slider_2_val) pprz_msg_send_SETTINGS(&((
 504:/home/lsk/paparazzi/var/include/messages.h **** static inline void pprz_msg_send_SETTINGS(struct transport_tx *trans, struct link_device *dev, uint
 505:/home/lsk/paparazzi/var/include/messages.h **** 	if (trans->check_available_space(trans->impl, dev, trans->size_of(trans->impl, 0+4+4 +2 /* msg hea
 506:/home/lsk/paparazzi/var/include/messages.h **** 	  trans->count_bytes(trans->impl, dev, trans->size_of(trans->impl, 0+4+4 +2 /* msg header overhead
 507:/home/lsk/paparazzi/var/include/messages.h **** 	  trans->start_message(trans->impl, dev, 0+4+4 +2 /* msg header overhead */);
 508:/home/lsk/paparazzi/var/include/messages.h **** 	  trans->put_bytes(trans->impl, dev, DL_TYPE_UINT8, DL_FORMAT_SCALAR, 1, &ac_id);
 509:/home/lsk/paparazzi/var/include/messages.h **** 	  trans->put_named_byte(trans->impl, dev, DL_TYPE_UINT8, DL_FORMAT_SCALAR, DL_SETTINGS, "SETTINGS"
 510:/home/lsk/paparazzi/var/include/messages.h **** 	  trans->put_bytes(trans->impl, dev, DL_TYPE_FLOAT, DL_FORMAT_SCALAR, 4, (void *) _slider_1_val);
 511:/home/lsk/paparazzi/var/include/messages.h **** 	  trans->put_bytes(trans->impl, dev, DL_TYPE_FLOAT, DL_FORMAT_SCALAR, 4, (void *) _slider_2_val);
 512:/home/lsk/paparazzi/var/include/messages.h **** 	  trans->end_message(trans->impl, dev);
 513:/home/lsk/paparazzi/var/include/messages.h **** 	} else
 514:/home/lsk/paparazzi/var/include/messages.h **** 	  trans->overrun(trans->impl, dev);
 515:/home/lsk/paparazzi/var/include/messages.h **** }
 516:/home/lsk/paparazzi/var/include/messages.h **** 
 517:/home/lsk/paparazzi/var/include/messages.h **** #define DOWNLINK_SEND_DESIRED(_trans, _dev, roll, pitch, course, x, y, altitude, climb, airspeed) p
 518:/home/lsk/paparazzi/var/include/messages.h **** static inline void pprz_msg_send_DESIRED(struct transport_tx *trans, struct link_device *dev, uint8
 519:/home/lsk/paparazzi/var/include/messages.h **** 	if (trans->check_available_space(trans->impl, dev, trans->size_of(trans->impl, 0+4+4+4+4+4+4+4+4 +
 520:/home/lsk/paparazzi/var/include/messages.h **** 	  trans->count_bytes(trans->impl, dev, trans->size_of(trans->impl, 0+4+4+4+4+4+4+4+4 +2 /* msg hea
 521:/home/lsk/paparazzi/var/include/messages.h **** 	  trans->start_message(trans->impl, dev, 0+4+4+4+4+4+4+4+4 +2 /* msg header overhead */);
 522:/home/lsk/paparazzi/var/include/messages.h **** 	  trans->put_bytes(trans->impl, dev, DL_TYPE_UINT8, DL_FORMAT_SCALAR, 1, &ac_id);
 523:/home/lsk/paparazzi/var/include/messages.h **** 	  trans->put_named_byte(trans->impl, dev, DL_TYPE_UINT8, DL_FORMAT_SCALAR, DL_DESIRED, "DESIRED");
 524:/home/lsk/paparazzi/var/include/messages.h **** 	  trans->put_bytes(trans->impl, dev, DL_TYPE_FLOAT, DL_FORMAT_SCALAR, 4, (void *) _roll);
 525:/home/lsk/paparazzi/var/include/messages.h **** 	  trans->put_bytes(trans->impl, dev, DL_TYPE_FLOAT, DL_FORMAT_SCALAR, 4, (void *) _pitch);
 526:/home/lsk/paparazzi/var/include/messages.h **** 	  trans->put_bytes(trans->impl, dev, DL_TYPE_FLOAT, DL_FORMAT_SCALAR, 4, (void *) _course);
 527:/home/lsk/paparazzi/var/include/messages.h **** 	  trans->put_bytes(trans->impl, dev, DL_TYPE_FLOAT, DL_FORMAT_SCALAR, 4, (void *) _x);
 528:/home/lsk/paparazzi/var/include/messages.h **** 	  trans->put_bytes(trans->impl, dev, DL_TYPE_FLOAT, DL_FORMAT_SCALAR, 4, (void *) _y);
 529:/home/lsk/paparazzi/var/include/messages.h **** 	  trans->put_bytes(trans->impl, dev, DL_TYPE_FLOAT, DL_FORMAT_SCALAR, 4, (void *) _altitude);
 530:/home/lsk/paparazzi/var/include/messages.h **** 	  trans->put_bytes(trans->impl, dev, DL_TYPE_FLOAT, DL_FORMAT_SCALAR, 4, (void *) _climb);
 531:/home/lsk/paparazzi/var/include/messages.h **** 	  trans->put_bytes(trans->impl, dev, DL_TYPE_FLOAT, DL_FORMAT_SCALAR, 4, (void *) _airspeed);
 532:/home/lsk/paparazzi/var/include/messages.h **** 	  trans->end_message(trans->impl, dev);
 533:/home/lsk/paparazzi/var/include/messages.h **** 	} else
 534:/home/lsk/paparazzi/var/include/messages.h **** 	  trans->overrun(trans->impl, dev);
 535:/home/lsk/paparazzi/var/include/messages.h **** }
 536:/home/lsk/paparazzi/var/include/messages.h **** 
 537:/home/lsk/paparazzi/var/include/messages.h **** #define DOWNLINK_SEND_GPS_SOL(_trans, _dev, Pacc, Sacc, PDOP, numSV) pprz_msg_send_GPS_SOL(&((_tran
 538:/home/lsk/paparazzi/var/include/messages.h **** static inline void pprz_msg_send_GPS_SOL(struct transport_tx *trans, struct link_device *dev, uint8
 539:/home/lsk/paparazzi/var/include/messages.h **** 	if (trans->check_available_space(trans->impl, dev, trans->size_of(trans->impl, 0+4+4+2+1 +2 /* msg
 540:/home/lsk/paparazzi/var/include/messages.h **** 	  trans->count_bytes(trans->impl, dev, trans->size_of(trans->impl, 0+4+4+2+1 +2 /* msg header over
 541:/home/lsk/paparazzi/var/include/messages.h **** 	  trans->start_message(trans->impl, dev, 0+4+4+2+1 +2 /* msg header overhead */);
 542:/home/lsk/paparazzi/var/include/messages.h **** 	  trans->put_bytes(trans->impl, dev, DL_TYPE_UINT8, DL_FORMAT_SCALAR, 1, &ac_id);
 543:/home/lsk/paparazzi/var/include/messages.h **** 	  trans->put_named_byte(trans->impl, dev, DL_TYPE_UINT8, DL_FORMAT_SCALAR, DL_GPS_SOL, "GPS_SOL");
 544:/home/lsk/paparazzi/var/include/messages.h **** 	  trans->put_bytes(trans->impl, dev, DL_TYPE_UINT32, DL_FORMAT_SCALAR, 4, (void *) _Pacc);
 545:/home/lsk/paparazzi/var/include/messages.h **** 	  trans->put_bytes(trans->impl, dev, DL_TYPE_UINT32, DL_FORMAT_SCALAR, 4, (void *) _Sacc);
 546:/home/lsk/paparazzi/var/include/messages.h **** 	  trans->put_bytes(trans->impl, dev, DL_TYPE_UINT16, DL_FORMAT_SCALAR, 2, (void *) _PDOP);
 547:/home/lsk/paparazzi/var/include/messages.h **** 	  trans->put_bytes(trans->impl, dev, DL_TYPE_UINT8, DL_FORMAT_SCALAR, 1, (void *) _numSV);
 548:/home/lsk/paparazzi/var/include/messages.h **** 	  trans->end_message(trans->impl, dev);
 549:/home/lsk/paparazzi/var/include/messages.h **** 	} else
 550:/home/lsk/paparazzi/var/include/messages.h **** 	  trans->overrun(trans->impl, dev);
 551:/home/lsk/paparazzi/var/include/messages.h **** }
 552:/home/lsk/paparazzi/var/include/messages.h **** 
 553:/home/lsk/paparazzi/var/include/messages.h **** #define DOWNLINK_SEND_ADC_GENERIC(_trans, _dev, val1, val2) pprz_msg_send_ADC_GENERIC(&((_trans).tr
 554:/home/lsk/paparazzi/var/include/messages.h **** static inline void pprz_msg_send_ADC_GENERIC(struct transport_tx *trans, struct link_device *dev, u
 555:/home/lsk/paparazzi/var/include/messages.h **** 	if (trans->check_available_space(trans->impl, dev, trans->size_of(trans->impl, 0+2+2 +2 /* msg hea
 556:/home/lsk/paparazzi/var/include/messages.h **** 	  trans->count_bytes(trans->impl, dev, trans->size_of(trans->impl, 0+2+2 +2 /* msg header overhead
 557:/home/lsk/paparazzi/var/include/messages.h **** 	  trans->start_message(trans->impl, dev, 0+2+2 +2 /* msg header overhead */);
 558:/home/lsk/paparazzi/var/include/messages.h **** 	  trans->put_bytes(trans->impl, dev, DL_TYPE_UINT8, DL_FORMAT_SCALAR, 1, &ac_id);
 559:/home/lsk/paparazzi/var/include/messages.h **** 	  trans->put_named_byte(trans->impl, dev, DL_TYPE_UINT8, DL_FORMAT_SCALAR, DL_ADC_GENERIC, "ADC_GE
 560:/home/lsk/paparazzi/var/include/messages.h **** 	  trans->put_bytes(trans->impl, dev, DL_TYPE_UINT16, DL_FORMAT_SCALAR, 2, (void *) _val1);
 561:/home/lsk/paparazzi/var/include/messages.h **** 	  trans->put_bytes(trans->impl, dev, DL_TYPE_UINT16, DL_FORMAT_SCALAR, 2, (void *) _val2);
 562:/home/lsk/paparazzi/var/include/messages.h **** 	  trans->end_message(trans->impl, dev);
 563:/home/lsk/paparazzi/var/include/messages.h **** 	} else
 564:/home/lsk/paparazzi/var/include/messages.h **** 	  trans->overrun(trans->impl, dev);
 565:/home/lsk/paparazzi/var/include/messages.h **** }
 566:/home/lsk/paparazzi/var/include/messages.h **** 
 567:/home/lsk/paparazzi/var/include/messages.h **** #define DOWNLINK_SEND_TEST_FORMAT(_trans, _dev, val1, val2) pprz_msg_send_TEST_FORMAT(&((_trans).tr
 568:/home/lsk/paparazzi/var/include/messages.h **** static inline void pprz_msg_send_TEST_FORMAT(struct transport_tx *trans, struct link_device *dev, u
 569:/home/lsk/paparazzi/var/include/messages.h **** 	if (trans->check_available_space(trans->impl, dev, trans->size_of(trans->impl, 0+8+4 +2 /* msg hea
 570:/home/lsk/paparazzi/var/include/messages.h **** 	  trans->count_bytes(trans->impl, dev, trans->size_of(trans->impl, 0+8+4 +2 /* msg header overhead
 571:/home/lsk/paparazzi/var/include/messages.h **** 	  trans->start_message(trans->impl, dev, 0+8+4 +2 /* msg header overhead */);
 572:/home/lsk/paparazzi/var/include/messages.h **** 	  trans->put_bytes(trans->impl, dev, DL_TYPE_UINT8, DL_FORMAT_SCALAR, 1, &ac_id);
 573:/home/lsk/paparazzi/var/include/messages.h **** 	  trans->put_named_byte(trans->impl, dev, DL_TYPE_UINT8, DL_FORMAT_SCALAR, DL_TEST_FORMAT, "TEST_F
 574:/home/lsk/paparazzi/var/include/messages.h **** 	  trans->put_bytes(trans->impl, dev, DL_TYPE_DOUBLE, DL_FORMAT_SCALAR, 8, (void *) _val1);
 575:/home/lsk/paparazzi/var/include/messages.h **** 	  trans->put_bytes(trans->impl, dev, DL_TYPE_FLOAT, DL_FORMAT_SCALAR, 4, (void *) _val2);
 576:/home/lsk/paparazzi/var/include/messages.h **** 	  trans->end_message(trans->impl, dev);
 577:/home/lsk/paparazzi/var/include/messages.h **** 	} else
 578:/home/lsk/paparazzi/var/include/messages.h **** 	  trans->overrun(trans->impl, dev);
 579:/home/lsk/paparazzi/var/include/messages.h **** }
 580:/home/lsk/paparazzi/var/include/messages.h **** 
 581:/home/lsk/paparazzi/var/include/messages.h **** #define DOWNLINK_SEND_CAM(_trans, _dev, phi, theta, target_x, target_y) pprz_msg_send_CAM(&((_trans
 582:/home/lsk/paparazzi/var/include/messages.h **** static inline void pprz_msg_send_CAM(struct transport_tx *trans, struct link_device *dev, uint8_t a
 583:/home/lsk/paparazzi/var/include/messages.h **** 	if (trans->check_available_space(trans->impl, dev, trans->size_of(trans->impl, 0+2+2+2+2 +2 /* msg
 584:/home/lsk/paparazzi/var/include/messages.h **** 	  trans->count_bytes(trans->impl, dev, trans->size_of(trans->impl, 0+2+2+2+2 +2 /* msg header over
 585:/home/lsk/paparazzi/var/include/messages.h **** 	  trans->start_message(trans->impl, dev, 0+2+2+2+2 +2 /* msg header overhead */);
 586:/home/lsk/paparazzi/var/include/messages.h **** 	  trans->put_bytes(trans->impl, dev, DL_TYPE_UINT8, DL_FORMAT_SCALAR, 1, &ac_id);
 587:/home/lsk/paparazzi/var/include/messages.h **** 	  trans->put_named_byte(trans->impl, dev, DL_TYPE_UINT8, DL_FORMAT_SCALAR, DL_CAM, "CAM");
 588:/home/lsk/paparazzi/var/include/messages.h **** 	  trans->put_bytes(trans->impl, dev, DL_TYPE_INT16, DL_FORMAT_SCALAR, 2, (void *) _phi);
 589:/home/lsk/paparazzi/var/include/messages.h **** 	  trans->put_bytes(trans->impl, dev, DL_TYPE_INT16, DL_FORMAT_SCALAR, 2, (void *) _theta);
 590:/home/lsk/paparazzi/var/include/messages.h **** 	  trans->put_bytes(trans->impl, dev, DL_TYPE_INT16, DL_FORMAT_SCALAR, 2, (void *) _target_x);
 591:/home/lsk/paparazzi/var/include/messages.h **** 	  trans->put_bytes(trans->impl, dev, DL_TYPE_INT16, DL_FORMAT_SCALAR, 2, (void *) _target_y);
 592:/home/lsk/paparazzi/var/include/messages.h **** 	  trans->end_message(trans->impl, dev);
 593:/home/lsk/paparazzi/var/include/messages.h **** 	} else
 594:/home/lsk/paparazzi/var/include/messages.h **** 	  trans->overrun(trans->impl, dev);
 595:/home/lsk/paparazzi/var/include/messages.h **** }
 596:/home/lsk/paparazzi/var/include/messages.h **** 
 597:/home/lsk/paparazzi/var/include/messages.h **** #define DOWNLINK_SEND_CIRCLE(_trans, _dev, center_east, center_north, radius) pprz_msg_send_CIRCLE(
 598:/home/lsk/paparazzi/var/include/messages.h **** static inline void pprz_msg_send_CIRCLE(struct transport_tx *trans, struct link_device *dev, uint8_
 599:/home/lsk/paparazzi/var/include/messages.h **** 	if (trans->check_available_space(trans->impl, dev, trans->size_of(trans->impl, 0+4+4+4 +2 /* msg h
 600:/home/lsk/paparazzi/var/include/messages.h **** 	  trans->count_bytes(trans->impl, dev, trans->size_of(trans->impl, 0+4+4+4 +2 /* msg header overhe
 601:/home/lsk/paparazzi/var/include/messages.h **** 	  trans->start_message(trans->impl, dev, 0+4+4+4 +2 /* msg header overhead */);
 602:/home/lsk/paparazzi/var/include/messages.h **** 	  trans->put_bytes(trans->impl, dev, DL_TYPE_UINT8, DL_FORMAT_SCALAR, 1, &ac_id);
 603:/home/lsk/paparazzi/var/include/messages.h **** 	  trans->put_named_byte(trans->impl, dev, DL_TYPE_UINT8, DL_FORMAT_SCALAR, DL_CIRCLE, "CIRCLE");
 604:/home/lsk/paparazzi/var/include/messages.h **** 	  trans->put_bytes(trans->impl, dev, DL_TYPE_FLOAT, DL_FORMAT_SCALAR, 4, (void *) _center_east);
 605:/home/lsk/paparazzi/var/include/messages.h **** 	  trans->put_bytes(trans->impl, dev, DL_TYPE_FLOAT, DL_FORMAT_SCALAR, 4, (void *) _center_north);
 606:/home/lsk/paparazzi/var/include/messages.h **** 	  trans->put_bytes(trans->impl, dev, DL_TYPE_FLOAT, DL_FORMAT_SCALAR, 4, (void *) _radius);
 607:/home/lsk/paparazzi/var/include/messages.h **** 	  trans->end_message(trans->impl, dev);
 608:/home/lsk/paparazzi/var/include/messages.h **** 	} else
 609:/home/lsk/paparazzi/var/include/messages.h **** 	  trans->overrun(trans->impl, dev);
 610:/home/lsk/paparazzi/var/include/messages.h **** }
 611:/home/lsk/paparazzi/var/include/messages.h **** 
 612:/home/lsk/paparazzi/var/include/messages.h **** #define DOWNLINK_SEND_SEGMENT(_trans, _dev, segment_east_1, segment_north_1, segment_east_2, segmen
 613:/home/lsk/paparazzi/var/include/messages.h **** static inline void pprz_msg_send_SEGMENT(struct transport_tx *trans, struct link_device *dev, uint8
 614:/home/lsk/paparazzi/var/include/messages.h **** 	if (trans->check_available_space(trans->impl, dev, trans->size_of(trans->impl, 0+4+4+4+4 +2 /* msg
 615:/home/lsk/paparazzi/var/include/messages.h **** 	  trans->count_bytes(trans->impl, dev, trans->size_of(trans->impl, 0+4+4+4+4 +2 /* msg header over
 616:/home/lsk/paparazzi/var/include/messages.h **** 	  trans->start_message(trans->impl, dev, 0+4+4+4+4 +2 /* msg header overhead */);
 617:/home/lsk/paparazzi/var/include/messages.h **** 	  trans->put_bytes(trans->impl, dev, DL_TYPE_UINT8, DL_FORMAT_SCALAR, 1, &ac_id);
 618:/home/lsk/paparazzi/var/include/messages.h **** 	  trans->put_named_byte(trans->impl, dev, DL_TYPE_UINT8, DL_FORMAT_SCALAR, DL_SEGMENT, "SEGMENT");
 619:/home/lsk/paparazzi/var/include/messages.h **** 	  trans->put_bytes(trans->impl, dev, DL_TYPE_FLOAT, DL_FORMAT_SCALAR, 4, (void *) _segment_east_1)
 620:/home/lsk/paparazzi/var/include/messages.h **** 	  trans->put_bytes(trans->impl, dev, DL_TYPE_FLOAT, DL_FORMAT_SCALAR, 4, (void *) _segment_north_1
 621:/home/lsk/paparazzi/var/include/messages.h **** 	  trans->put_bytes(trans->impl, dev, DL_TYPE_FLOAT, DL_FORMAT_SCALAR, 4, (void *) _segment_east_2)
 622:/home/lsk/paparazzi/var/include/messages.h **** 	  trans->put_bytes(trans->impl, dev, DL_TYPE_FLOAT, DL_FORMAT_SCALAR, 4, (void *) _segment_north_2
 623:/home/lsk/paparazzi/var/include/messages.h **** 	  trans->end_message(trans->impl, dev);
 624:/home/lsk/paparazzi/var/include/messages.h **** 	} else
 625:/home/lsk/paparazzi/var/include/messages.h **** 	  trans->overrun(trans->impl, dev);
 626:/home/lsk/paparazzi/var/include/messages.h **** }
 627:/home/lsk/paparazzi/var/include/messages.h **** 
 628:/home/lsk/paparazzi/var/include/messages.h **** #define DOWNLINK_SEND_SVINFO(_trans, _dev, chn, SVID, Flags, QI, CNO, Elev, Azim) pprz_msg_send_SVI
 629:/home/lsk/paparazzi/var/include/messages.h **** static inline void pprz_msg_send_SVINFO(struct transport_tx *trans, struct link_device *dev, uint8_
 630:/home/lsk/paparazzi/var/include/messages.h **** 	if (trans->check_available_space(trans->impl, dev, trans->size_of(trans->impl, 0+1+1+1+1+1+1+2 +2 
 631:/home/lsk/paparazzi/var/include/messages.h **** 	  trans->count_bytes(trans->impl, dev, trans->size_of(trans->impl, 0+1+1+1+1+1+1+2 +2 /* msg heade
 632:/home/lsk/paparazzi/var/include/messages.h **** 	  trans->start_message(trans->impl, dev, 0+1+1+1+1+1+1+2 +2 /* msg header overhead */);
 633:/home/lsk/paparazzi/var/include/messages.h **** 	  trans->put_bytes(trans->impl, dev, DL_TYPE_UINT8, DL_FORMAT_SCALAR, 1, &ac_id);
 634:/home/lsk/paparazzi/var/include/messages.h **** 	  trans->put_named_byte(trans->impl, dev, DL_TYPE_UINT8, DL_FORMAT_SCALAR, DL_SVINFO, "SVINFO");
 635:/home/lsk/paparazzi/var/include/messages.h **** 	  trans->put_bytes(trans->impl, dev, DL_TYPE_UINT8, DL_FORMAT_SCALAR, 1, (void *) _chn);
 636:/home/lsk/paparazzi/var/include/messages.h **** 	  trans->put_bytes(trans->impl, dev, DL_TYPE_UINT8, DL_FORMAT_SCALAR, 1, (void *) _SVID);
 637:/home/lsk/paparazzi/var/include/messages.h **** 	  trans->put_bytes(trans->impl, dev, DL_TYPE_UINT8, DL_FORMAT_SCALAR, 1, (void *) _Flags);
 638:/home/lsk/paparazzi/var/include/messages.h **** 	  trans->put_bytes(trans->impl, dev, DL_TYPE_UINT8, DL_FORMAT_SCALAR, 1, (void *) _QI);
 639:/home/lsk/paparazzi/var/include/messages.h **** 	  trans->put_bytes(trans->impl, dev, DL_TYPE_UINT8, DL_FORMAT_SCALAR, 1, (void *) _CNO);
 640:/home/lsk/paparazzi/var/include/messages.h **** 	  trans->put_bytes(trans->impl, dev, DL_TYPE_INT8, DL_FORMAT_SCALAR, 1, (void *) _Elev);
 641:/home/lsk/paparazzi/var/include/messages.h **** 	  trans->put_bytes(trans->impl, dev, DL_TYPE_INT16, DL_FORMAT_SCALAR, 2, (void *) _Azim);
 642:/home/lsk/paparazzi/var/include/messages.h **** 	  trans->end_message(trans->impl, dev);
 643:/home/lsk/paparazzi/var/include/messages.h **** 	} else
 644:/home/lsk/paparazzi/var/include/messages.h **** 	  trans->overrun(trans->impl, dev);
 645:/home/lsk/paparazzi/var/include/messages.h **** }
 646:/home/lsk/paparazzi/var/include/messages.h **** 
 647:/home/lsk/paparazzi/var/include/messages.h **** #define DOWNLINK_SEND_DEBUG(_trans, _dev, nb_msg, msg) pprz_msg_send_DEBUG(&((_trans).trans_tx), &(
 648:/home/lsk/paparazzi/var/include/messages.h **** static inline void pprz_msg_send_DEBUG(struct transport_tx *trans, struct link_device *dev, uint8_t
 649:/home/lsk/paparazzi/var/include/messages.h **** 	if (trans->check_available_space(trans->impl, dev, trans->size_of(trans->impl, 0+1+nb_msg*1 +2 /* 
 650:/home/lsk/paparazzi/var/include/messages.h **** 	  trans->count_bytes(trans->impl, dev, trans->size_of(trans->impl, 0+1+nb_msg*1 +2 /* msg header o
 651:/home/lsk/paparazzi/var/include/messages.h **** 	  trans->start_message(trans->impl, dev, 0+1+nb_msg*1 +2 /* msg header overhead */);
 652:/home/lsk/paparazzi/var/include/messages.h **** 	  trans->put_bytes(trans->impl, dev, DL_TYPE_UINT8, DL_FORMAT_SCALAR, 1, &ac_id);
 653:/home/lsk/paparazzi/var/include/messages.h **** 	  trans->put_named_byte(trans->impl, dev, DL_TYPE_UINT8, DL_FORMAT_SCALAR, DL_DEBUG, "DEBUG");
 654:/home/lsk/paparazzi/var/include/messages.h **** 	  trans->put_bytes(trans->impl, dev, DL_TYPE_ARRAY_LENGTH, DL_FORMAT_SCALAR, 1, (void *) &nb_msg);
 655:/home/lsk/paparazzi/var/include/messages.h **** 	  trans->put_bytes(trans->impl, dev, DL_TYPE_UINT8, DL_FORMAT_ARRAY, 1 * nb_msg, (void *) _msg);
 656:/home/lsk/paparazzi/var/include/messages.h **** 	  trans->end_message(trans->impl, dev);
 657:/home/lsk/paparazzi/var/include/messages.h **** 	} else
 658:/home/lsk/paparazzi/var/include/messages.h **** 	  trans->overrun(trans->impl, dev);
 659:/home/lsk/paparazzi/var/include/messages.h **** }
 660:/home/lsk/paparazzi/var/include/messages.h **** 
 661:/home/lsk/paparazzi/var/include/messages.h **** #define DOWNLINK_SEND_SURVEY(_trans, _dev, east, north, west, south) pprz_msg_send_SURVEY(&((_trans
 662:/home/lsk/paparazzi/var/include/messages.h **** static inline void pprz_msg_send_SURVEY(struct transport_tx *trans, struct link_device *dev, uint8_
 663:/home/lsk/paparazzi/var/include/messages.h **** 	if (trans->check_available_space(trans->impl, dev, trans->size_of(trans->impl, 0+4+4+4+4 +2 /* msg
 664:/home/lsk/paparazzi/var/include/messages.h **** 	  trans->count_bytes(trans->impl, dev, trans->size_of(trans->impl, 0+4+4+4+4 +2 /* msg header over
 665:/home/lsk/paparazzi/var/include/messages.h **** 	  trans->start_message(trans->impl, dev, 0+4+4+4+4 +2 /* msg header overhead */);
 666:/home/lsk/paparazzi/var/include/messages.h **** 	  trans->put_bytes(trans->impl, dev, DL_TYPE_UINT8, DL_FORMAT_SCALAR, 1, &ac_id);
 667:/home/lsk/paparazzi/var/include/messages.h **** 	  trans->put_named_byte(trans->impl, dev, DL_TYPE_UINT8, DL_FORMAT_SCALAR, DL_SURVEY, "SURVEY");
 668:/home/lsk/paparazzi/var/include/messages.h **** 	  trans->put_bytes(trans->impl, dev, DL_TYPE_FLOAT, DL_FORMAT_SCALAR, 4, (void *) _east);
 669:/home/lsk/paparazzi/var/include/messages.h **** 	  trans->put_bytes(trans->impl, dev, DL_TYPE_FLOAT, DL_FORMAT_SCALAR, 4, (void *) _north);
 670:/home/lsk/paparazzi/var/include/messages.h **** 	  trans->put_bytes(trans->impl, dev, DL_TYPE_FLOAT, DL_FORMAT_SCALAR, 4, (void *) _west);
 671:/home/lsk/paparazzi/var/include/messages.h **** 	  trans->put_bytes(trans->impl, dev, DL_TYPE_FLOAT, DL_FORMAT_SCALAR, 4, (void *) _south);
 672:/home/lsk/paparazzi/var/include/messages.h **** 	  trans->end_message(trans->impl, dev);
 673:/home/lsk/paparazzi/var/include/messages.h **** 	} else
 674:/home/lsk/paparazzi/var/include/messages.h **** 	  trans->overrun(trans->impl, dev);
 675:/home/lsk/paparazzi/var/include/messages.h **** }
 676:/home/lsk/paparazzi/var/include/messages.h **** 
 677:/home/lsk/paparazzi/var/include/messages.h **** #define DOWNLINK_SEND_WC_RSSI(_trans, _dev, raw_level) pprz_msg_send_WC_RSSI(&((_trans).trans_tx), 
 678:/home/lsk/paparazzi/var/include/messages.h **** static inline void pprz_msg_send_WC_RSSI(struct transport_tx *trans, struct link_device *dev, uint8
 679:/home/lsk/paparazzi/var/include/messages.h **** 	if (trans->check_available_space(trans->impl, dev, trans->size_of(trans->impl, 0+1 +2 /* msg heade
 680:/home/lsk/paparazzi/var/include/messages.h **** 	  trans->count_bytes(trans->impl, dev, trans->size_of(trans->impl, 0+1 +2 /* msg header overhead *
 681:/home/lsk/paparazzi/var/include/messages.h **** 	  trans->start_message(trans->impl, dev, 0+1 +2 /* msg header overhead */);
 682:/home/lsk/paparazzi/var/include/messages.h **** 	  trans->put_bytes(trans->impl, dev, DL_TYPE_UINT8, DL_FORMAT_SCALAR, 1, &ac_id);
 683:/home/lsk/paparazzi/var/include/messages.h **** 	  trans->put_named_byte(trans->impl, dev, DL_TYPE_UINT8, DL_FORMAT_SCALAR, DL_WC_RSSI, "WC_RSSI");
 684:/home/lsk/paparazzi/var/include/messages.h **** 	  trans->put_bytes(trans->impl, dev, DL_TYPE_UINT8, DL_FORMAT_SCALAR, 1, (void *) _raw_level);
 685:/home/lsk/paparazzi/var/include/messages.h **** 	  trans->end_message(trans->impl, dev);
 686:/home/lsk/paparazzi/var/include/messages.h **** 	} else
 687:/home/lsk/paparazzi/var/include/messages.h **** 	  trans->overrun(trans->impl, dev);
 688:/home/lsk/paparazzi/var/include/messages.h **** }
 689:/home/lsk/paparazzi/var/include/messages.h **** 
 690:/home/lsk/paparazzi/var/include/messages.h **** #define DOWNLINK_SEND_RANGEFINDER(_trans, _dev, range, z_dot, z_dot_sum_err, z_dot_setpoint, z_sum_
 691:/home/lsk/paparazzi/var/include/messages.h **** static inline void pprz_msg_send_RANGEFINDER(struct transport_tx *trans, struct link_device *dev, u
 692:/home/lsk/paparazzi/var/include/messages.h **** 	if (trans->check_available_space(trans->impl, dev, trans->size_of(trans->impl, 0+2+4+4+4+4+4+1 +2 
 693:/home/lsk/paparazzi/var/include/messages.h **** 	  trans->count_bytes(trans->impl, dev, trans->size_of(trans->impl, 0+2+4+4+4+4+4+1 +2 /* msg heade
 694:/home/lsk/paparazzi/var/include/messages.h **** 	  trans->start_message(trans->impl, dev, 0+2+4+4+4+4+4+1 +2 /* msg header overhead */);
 695:/home/lsk/paparazzi/var/include/messages.h **** 	  trans->put_bytes(trans->impl, dev, DL_TYPE_UINT8, DL_FORMAT_SCALAR, 1, &ac_id);
 696:/home/lsk/paparazzi/var/include/messages.h **** 	  trans->put_named_byte(trans->impl, dev, DL_TYPE_UINT8, DL_FORMAT_SCALAR, DL_RANGEFINDER, "RANGEF
 697:/home/lsk/paparazzi/var/include/messages.h **** 	  trans->put_bytes(trans->impl, dev, DL_TYPE_UINT16, DL_FORMAT_SCALAR, 2, (void *) _range);
 698:/home/lsk/paparazzi/var/include/messages.h **** 	  trans->put_bytes(trans->impl, dev, DL_TYPE_FLOAT, DL_FORMAT_SCALAR, 4, (void *) _z_dot);
 699:/home/lsk/paparazzi/var/include/messages.h **** 	  trans->put_bytes(trans->impl, dev, DL_TYPE_FLOAT, DL_FORMAT_SCALAR, 4, (void *) _z_dot_sum_err);
 700:/home/lsk/paparazzi/var/include/messages.h **** 	  trans->put_bytes(trans->impl, dev, DL_TYPE_FLOAT, DL_FORMAT_SCALAR, 4, (void *) _z_dot_setpoint)
 701:/home/lsk/paparazzi/var/include/messages.h **** 	  trans->put_bytes(trans->impl, dev, DL_TYPE_FLOAT, DL_FORMAT_SCALAR, 4, (void *) _z_sum_err);
 702:/home/lsk/paparazzi/var/include/messages.h **** 	  trans->put_bytes(trans->impl, dev, DL_TYPE_FLOAT, DL_FORMAT_SCALAR, 4, (void *) _z_setpoint);
 703:/home/lsk/paparazzi/var/include/messages.h **** 	  trans->put_bytes(trans->impl, dev, DL_TYPE_UINT8, DL_FORMAT_SCALAR, 1, (void *) _flying);
 704:/home/lsk/paparazzi/var/include/messages.h **** 	  trans->end_message(trans->impl, dev);
 705:/home/lsk/paparazzi/var/include/messages.h **** 	} else
 706:/home/lsk/paparazzi/var/include/messages.h **** 	  trans->overrun(trans->impl, dev);
 707:/home/lsk/paparazzi/var/include/messages.h **** }
 708:/home/lsk/paparazzi/var/include/messages.h **** 
 709:/home/lsk/paparazzi/var/include/messages.h **** #define DOWNLINK_SEND_DATALINK_REPORT(_trans, _dev, uplink_lost_time, uplink_nb_msgs, downlink_nb_m
 710:/home/lsk/paparazzi/var/include/messages.h **** static inline void pprz_msg_send_DATALINK_REPORT(struct transport_tx *trans, struct link_device *de
 711:/home/lsk/paparazzi/var/include/messages.h **** 	if (trans->check_available_space(trans->impl, dev, trans->size_of(trans->impl, 0+2+2+2+2+1 +2 /* m
 712:/home/lsk/paparazzi/var/include/messages.h **** 	  trans->count_bytes(trans->impl, dev, trans->size_of(trans->impl, 0+2+2+2+2+1 +2 /* msg header ov
 713:/home/lsk/paparazzi/var/include/messages.h **** 	  trans->start_message(trans->impl, dev, 0+2+2+2+2+1 +2 /* msg header overhead */);
 714:/home/lsk/paparazzi/var/include/messages.h **** 	  trans->put_bytes(trans->impl, dev, DL_TYPE_UINT8, DL_FORMAT_SCALAR, 1, &ac_id);
 715:/home/lsk/paparazzi/var/include/messages.h **** 	  trans->put_named_byte(trans->impl, dev, DL_TYPE_UINT8, DL_FORMAT_SCALAR, DL_DATALINK_REPORT, "DA
 716:/home/lsk/paparazzi/var/include/messages.h **** 	  trans->put_bytes(trans->impl, dev, DL_TYPE_UINT16, DL_FORMAT_SCALAR, 2, (void *) _uplink_lost_ti
 717:/home/lsk/paparazzi/var/include/messages.h **** 	  trans->put_bytes(trans->impl, dev, DL_TYPE_UINT16, DL_FORMAT_SCALAR, 2, (void *) _uplink_nb_msgs
 718:/home/lsk/paparazzi/var/include/messages.h **** 	  trans->put_bytes(trans->impl, dev, DL_TYPE_UINT16, DL_FORMAT_SCALAR, 2, (void *) _downlink_nb_ms
 719:/home/lsk/paparazzi/var/include/messages.h **** 	  trans->put_bytes(trans->impl, dev, DL_TYPE_UINT16, DL_FORMAT_SCALAR, 2, (void *) _downlink_rate)
 720:/home/lsk/paparazzi/var/include/messages.h **** 	  trans->put_bytes(trans->impl, dev, DL_TYPE_UINT8, DL_FORMAT_SCALAR, 1, (void *) _downlink_ovrn);
 721:/home/lsk/paparazzi/var/include/messages.h **** 	  trans->end_message(trans->impl, dev);
 722:/home/lsk/paparazzi/var/include/messages.h **** 	} else
 723:/home/lsk/paparazzi/var/include/messages.h **** 	  trans->overrun(trans->impl, dev);
 724:/home/lsk/paparazzi/var/include/messages.h **** }
 725:/home/lsk/paparazzi/var/include/messages.h **** 
 726:/home/lsk/paparazzi/var/include/messages.h **** #define DOWNLINK_SEND_DL_VALUE(_trans, _dev, index, value) pprz_msg_send_DL_VALUE(&((_trans).trans_
 727:/home/lsk/paparazzi/var/include/messages.h **** static inline void pprz_msg_send_DL_VALUE(struct transport_tx *trans, struct link_device *dev, uint
 728:/home/lsk/paparazzi/var/include/messages.h **** 	if (trans->check_available_space(trans->impl, dev, trans->size_of(trans->impl, 0+1+4 +2 /* msg hea
 729:/home/lsk/paparazzi/var/include/messages.h **** 	  trans->count_bytes(trans->impl, dev, trans->size_of(trans->impl, 0+1+4 +2 /* msg header overhead
 730:/home/lsk/paparazzi/var/include/messages.h **** 	  trans->start_message(trans->impl, dev, 0+1+4 +2 /* msg header overhead */);
 731:/home/lsk/paparazzi/var/include/messages.h **** 	  trans->put_bytes(trans->impl, dev, DL_TYPE_UINT8, DL_FORMAT_SCALAR, 1, &ac_id);
 732:/home/lsk/paparazzi/var/include/messages.h **** 	  trans->put_named_byte(trans->impl, dev, DL_TYPE_UINT8, DL_FORMAT_SCALAR, DL_DL_VALUE, "DL_VALUE"
 733:/home/lsk/paparazzi/var/include/messages.h **** 	  trans->put_bytes(trans->impl, dev, DL_TYPE_UINT8, DL_FORMAT_SCALAR, 1, (void *) _index);
 734:/home/lsk/paparazzi/var/include/messages.h **** 	  trans->put_bytes(trans->impl, dev, DL_TYPE_FLOAT, DL_FORMAT_SCALAR, 4, (void *) _value);
 735:/home/lsk/paparazzi/var/include/messages.h **** 	  trans->end_message(trans->impl, dev);
 736:/home/lsk/paparazzi/var/include/messages.h **** 	} else
 737:/home/lsk/paparazzi/var/include/messages.h **** 	  trans->overrun(trans->impl, dev);
 738:/home/lsk/paparazzi/var/include/messages.h **** }
 739:/home/lsk/paparazzi/var/include/messages.h **** 
 740:/home/lsk/paparazzi/var/include/messages.h **** #define DOWNLINK_SEND_MARK(_trans, _dev, ac_id, lat, long) pprz_msg_send_MARK(&((_trans).trans_tx),
 741:/home/lsk/paparazzi/var/include/messages.h **** static inline void pprz_msg_send_MARK(struct transport_tx *trans, struct link_device *dev, uint8_t 
 742:/home/lsk/paparazzi/var/include/messages.h **** 	if (trans->check_available_space(trans->impl, dev, trans->size_of(trans->impl, 0+1+4+4 +2 /* msg h
 743:/home/lsk/paparazzi/var/include/messages.h **** 	  trans->count_bytes(trans->impl, dev, trans->size_of(trans->impl, 0+1+4+4 +2 /* msg header overhe
 744:/home/lsk/paparazzi/var/include/messages.h **** 	  trans->start_message(trans->impl, dev, 0+1+4+4 +2 /* msg header overhead */);
 745:/home/lsk/paparazzi/var/include/messages.h **** 	  trans->put_bytes(trans->impl, dev, DL_TYPE_UINT8, DL_FORMAT_SCALAR, 1, &ac_id);
 746:/home/lsk/paparazzi/var/include/messages.h **** 	  trans->put_named_byte(trans->impl, dev, DL_TYPE_UINT8, DL_FORMAT_SCALAR, DL_MARK, "MARK");
 747:/home/lsk/paparazzi/var/include/messages.h **** 	  trans->put_bytes(trans->impl, dev, DL_TYPE_UINT8, DL_FORMAT_SCALAR, 1, (void *) _ac_id);
 748:/home/lsk/paparazzi/var/include/messages.h **** 	  trans->put_bytes(trans->impl, dev, DL_TYPE_FLOAT, DL_FORMAT_SCALAR, 4, (void *) _lat);
 749:/home/lsk/paparazzi/var/include/messages.h **** 	  trans->put_bytes(trans->impl, dev, DL_TYPE_FLOAT, DL_FORMAT_SCALAR, 4, (void *) _long);
 750:/home/lsk/paparazzi/var/include/messages.h **** 	  trans->end_message(trans->impl, dev);
 751:/home/lsk/paparazzi/var/include/messages.h **** 	} else
 752:/home/lsk/paparazzi/var/include/messages.h **** 	  trans->overrun(trans->impl, dev);
 753:/home/lsk/paparazzi/var/include/messages.h **** }
 754:/home/lsk/paparazzi/var/include/messages.h **** 
 755:/home/lsk/paparazzi/var/include/messages.h **** #define DOWNLINK_SEND_SYS_MON(_trans, _dev, periodic_time, periodic_time_min, periodic_time_max, pe
 756:/home/lsk/paparazzi/var/include/messages.h **** static inline void pprz_msg_send_SYS_MON(struct transport_tx *trans, struct link_device *dev, uint8
 757:/home/lsk/paparazzi/var/include/messages.h **** 	if (trans->check_available_space(trans->impl, dev, trans->size_of(trans->impl, 0+2+2+2+2+2+2+2+1 +
 758:/home/lsk/paparazzi/var/include/messages.h **** 	  trans->count_bytes(trans->impl, dev, trans->size_of(trans->impl, 0+2+2+2+2+2+2+2+1 +2 /* msg hea
 759:/home/lsk/paparazzi/var/include/messages.h **** 	  trans->start_message(trans->impl, dev, 0+2+2+2+2+2+2+2+1 +2 /* msg header overhead */);
 760:/home/lsk/paparazzi/var/include/messages.h **** 	  trans->put_bytes(trans->impl, dev, DL_TYPE_UINT8, DL_FORMAT_SCALAR, 1, &ac_id);
 761:/home/lsk/paparazzi/var/include/messages.h **** 	  trans->put_named_byte(trans->impl, dev, DL_TYPE_UINT8, DL_FORMAT_SCALAR, DL_SYS_MON, "SYS_MON");
 762:/home/lsk/paparazzi/var/include/messages.h **** 	  trans->put_bytes(trans->impl, dev, DL_TYPE_UINT16, DL_FORMAT_SCALAR, 2, (void *) _periodic_time)
 763:/home/lsk/paparazzi/var/include/messages.h **** 	  trans->put_bytes(trans->impl, dev, DL_TYPE_UINT16, DL_FORMAT_SCALAR, 2, (void *) _periodic_time_
 764:/home/lsk/paparazzi/var/include/messages.h **** 	  trans->put_bytes(trans->impl, dev, DL_TYPE_UINT16, DL_FORMAT_SCALAR, 2, (void *) _periodic_time_
 765:/home/lsk/paparazzi/var/include/messages.h **** 	  trans->put_bytes(trans->impl, dev, DL_TYPE_UINT16, DL_FORMAT_SCALAR, 2, (void *) _periodic_cycle
 766:/home/lsk/paparazzi/var/include/messages.h **** 	  trans->put_bytes(trans->impl, dev, DL_TYPE_UINT16, DL_FORMAT_SCALAR, 2, (void *) _periodic_cycle
 767:/home/lsk/paparazzi/var/include/messages.h **** 	  trans->put_bytes(trans->impl, dev, DL_TYPE_UINT16, DL_FORMAT_SCALAR, 2, (void *) _periodic_cycle
 768:/home/lsk/paparazzi/var/include/messages.h **** 	  trans->put_bytes(trans->impl, dev, DL_TYPE_UINT16, DL_FORMAT_SCALAR, 2, (void *) _event_number);
 769:/home/lsk/paparazzi/var/include/messages.h **** 	  trans->put_bytes(trans->impl, dev, DL_TYPE_UINT8, DL_FORMAT_SCALAR, 1, (void *) _cpu_load);
 770:/home/lsk/paparazzi/var/include/messages.h **** 	  trans->end_message(trans->impl, dev);
 771:/home/lsk/paparazzi/var/include/messages.h **** 	} else
 772:/home/lsk/paparazzi/var/include/messages.h **** 	  trans->overrun(trans->impl, dev);
 773:/home/lsk/paparazzi/var/include/messages.h **** }
 774:/home/lsk/paparazzi/var/include/messages.h **** 
 775:/home/lsk/paparazzi/var/include/messages.h **** #define DOWNLINK_SEND_MOTOR(_trans, _dev, rpm, current) pprz_msg_send_MOTOR(&((_trans).trans_tx), &
 776:/home/lsk/paparazzi/var/include/messages.h **** static inline void pprz_msg_send_MOTOR(struct transport_tx *trans, struct link_device *dev, uint8_t
 777:/home/lsk/paparazzi/var/include/messages.h **** 	if (trans->check_available_space(trans->impl, dev, trans->size_of(trans->impl, 0+2+4 +2 /* msg hea
 778:/home/lsk/paparazzi/var/include/messages.h **** 	  trans->count_bytes(trans->impl, dev, trans->size_of(trans->impl, 0+2+4 +2 /* msg header overhead
 779:/home/lsk/paparazzi/var/include/messages.h **** 	  trans->start_message(trans->impl, dev, 0+2+4 +2 /* msg header overhead */);
 780:/home/lsk/paparazzi/var/include/messages.h **** 	  trans->put_bytes(trans->impl, dev, DL_TYPE_UINT8, DL_FORMAT_SCALAR, 1, &ac_id);
 781:/home/lsk/paparazzi/var/include/messages.h **** 	  trans->put_named_byte(trans->impl, dev, DL_TYPE_UINT8, DL_FORMAT_SCALAR, DL_MOTOR, "MOTOR");
 782:/home/lsk/paparazzi/var/include/messages.h **** 	  trans->put_bytes(trans->impl, dev, DL_TYPE_UINT16, DL_FORMAT_SCALAR, 2, (void *) _rpm);
 783:/home/lsk/paparazzi/var/include/messages.h **** 	  trans->put_bytes(trans->impl, dev, DL_TYPE_INT32, DL_FORMAT_SCALAR, 4, (void *) _current);
 784:/home/lsk/paparazzi/var/include/messages.h **** 	  trans->end_message(trans->impl, dev);
 785:/home/lsk/paparazzi/var/include/messages.h **** 	} else
 786:/home/lsk/paparazzi/var/include/messages.h **** 	  trans->overrun(trans->impl, dev);
 787:/home/lsk/paparazzi/var/include/messages.h **** }
 788:/home/lsk/paparazzi/var/include/messages.h **** 
 789:/home/lsk/paparazzi/var/include/messages.h **** #define DOWNLINK_SEND_WP_MOVED(_trans, _dev, wp_id, utm_east, utm_north, alt, utm_zone) pprz_msg_se
 790:/home/lsk/paparazzi/var/include/messages.h **** static inline void pprz_msg_send_WP_MOVED(struct transport_tx *trans, struct link_device *dev, uint
 791:/home/lsk/paparazzi/var/include/messages.h **** 	if (trans->check_available_space(trans->impl, dev, trans->size_of(trans->impl, 0+1+4+4+4+1 +2 /* m
 792:/home/lsk/paparazzi/var/include/messages.h **** 	  trans->count_bytes(trans->impl, dev, trans->size_of(trans->impl, 0+1+4+4+4+1 +2 /* msg header ov
 793:/home/lsk/paparazzi/var/include/messages.h **** 	  trans->start_message(trans->impl, dev, 0+1+4+4+4+1 +2 /* msg header overhead */);
 794:/home/lsk/paparazzi/var/include/messages.h **** 	  trans->put_bytes(trans->impl, dev, DL_TYPE_UINT8, DL_FORMAT_SCALAR, 1, &ac_id);
 795:/home/lsk/paparazzi/var/include/messages.h **** 	  trans->put_named_byte(trans->impl, dev, DL_TYPE_UINT8, DL_FORMAT_SCALAR, DL_WP_MOVED, "WP_MOVED"
 796:/home/lsk/paparazzi/var/include/messages.h **** 	  trans->put_bytes(trans->impl, dev, DL_TYPE_UINT8, DL_FORMAT_SCALAR, 1, (void *) _wp_id);
 797:/home/lsk/paparazzi/var/include/messages.h **** 	  trans->put_bytes(trans->impl, dev, DL_TYPE_FLOAT, DL_FORMAT_SCALAR, 4, (void *) _utm_east);
 798:/home/lsk/paparazzi/var/include/messages.h **** 	  trans->put_bytes(trans->impl, dev, DL_TYPE_FLOAT, DL_FORMAT_SCALAR, 4, (void *) _utm_north);
 799:/home/lsk/paparazzi/var/include/messages.h **** 	  trans->put_bytes(trans->impl, dev, DL_TYPE_FLOAT, DL_FORMAT_SCALAR, 4, (void *) _alt);
 800:/home/lsk/paparazzi/var/include/messages.h **** 	  trans->put_bytes(trans->impl, dev, DL_TYPE_UINT8, DL_FORMAT_SCALAR, 1, (void *) _utm_zone);
 801:/home/lsk/paparazzi/var/include/messages.h **** 	  trans->end_message(trans->impl, dev);
 802:/home/lsk/paparazzi/var/include/messages.h **** 	} else
 803:/home/lsk/paparazzi/var/include/messages.h **** 	  trans->overrun(trans->impl, dev);
 804:/home/lsk/paparazzi/var/include/messages.h **** }
 805:/home/lsk/paparazzi/var/include/messages.h **** 
 806:/home/lsk/paparazzi/var/include/messages.h **** #define DOWNLINK_SEND_MKK(_trans, _dev, nr, rpm, current, temp) pprz_msg_send_MKK(&((_trans).trans_
 807:/home/lsk/paparazzi/var/include/messages.h **** static inline void pprz_msg_send_MKK(struct transport_tx *trans, struct link_device *dev, uint8_t a
 808:/home/lsk/paparazzi/var/include/messages.h **** 	if (trans->check_available_space(trans->impl, dev, trans->size_of(trans->impl, 0+1+1+1+1 +2 /* msg
 809:/home/lsk/paparazzi/var/include/messages.h **** 	  trans->count_bytes(trans->impl, dev, trans->size_of(trans->impl, 0+1+1+1+1 +2 /* msg header over
 810:/home/lsk/paparazzi/var/include/messages.h **** 	  trans->start_message(trans->impl, dev, 0+1+1+1+1 +2 /* msg header overhead */);
 811:/home/lsk/paparazzi/var/include/messages.h **** 	  trans->put_bytes(trans->impl, dev, DL_TYPE_UINT8, DL_FORMAT_SCALAR, 1, &ac_id);
 812:/home/lsk/paparazzi/var/include/messages.h **** 	  trans->put_named_byte(trans->impl, dev, DL_TYPE_UINT8, DL_FORMAT_SCALAR, DL_MKK, "MKK");
 813:/home/lsk/paparazzi/var/include/messages.h **** 	  trans->put_bytes(trans->impl, dev, DL_TYPE_UINT8, DL_FORMAT_SCALAR, 1, (void *) _nr);
 814:/home/lsk/paparazzi/var/include/messages.h **** 	  trans->put_bytes(trans->impl, dev, DL_TYPE_UINT8, DL_FORMAT_SCALAR, 1, (void *) _rpm);
 815:/home/lsk/paparazzi/var/include/messages.h **** 	  trans->put_bytes(trans->impl, dev, DL_TYPE_UINT8, DL_FORMAT_SCALAR, 1, (void *) _current);
 816:/home/lsk/paparazzi/var/include/messages.h **** 	  trans->put_bytes(trans->impl, dev, DL_TYPE_INT8, DL_FORMAT_SCALAR, 1, (void *) _temp);
 817:/home/lsk/paparazzi/var/include/messages.h **** 	  trans->end_message(trans->impl, dev);
 818:/home/lsk/paparazzi/var/include/messages.h **** 	} else
 819:/home/lsk/paparazzi/var/include/messages.h **** 	  trans->overrun(trans->impl, dev);
 820:/home/lsk/paparazzi/var/include/messages.h **** }
 821:/home/lsk/paparazzi/var/include/messages.h **** 
 822:/home/lsk/paparazzi/var/include/messages.h **** #define DOWNLINK_SEND_ENERGY(_trans, _dev, bat, amp, energy, power) pprz_msg_send_ENERGY(&((_trans)
 823:/home/lsk/paparazzi/var/include/messages.h **** static inline void pprz_msg_send_ENERGY(struct transport_tx *trans, struct link_device *dev, uint8_
 824:/home/lsk/paparazzi/var/include/messages.h **** 	if (trans->check_available_space(trans->impl, dev, trans->size_of(trans->impl, 0+4+4+2+4 +2 /* msg
 825:/home/lsk/paparazzi/var/include/messages.h **** 	  trans->count_bytes(trans->impl, dev, trans->size_of(trans->impl, 0+4+4+2+4 +2 /* msg header over
 826:/home/lsk/paparazzi/var/include/messages.h **** 	  trans->start_message(trans->impl, dev, 0+4+4+2+4 +2 /* msg header overhead */);
 827:/home/lsk/paparazzi/var/include/messages.h **** 	  trans->put_bytes(trans->impl, dev, DL_TYPE_UINT8, DL_FORMAT_SCALAR, 1, &ac_id);
 828:/home/lsk/paparazzi/var/include/messages.h **** 	  trans->put_named_byte(trans->impl, dev, DL_TYPE_UINT8, DL_FORMAT_SCALAR, DL_ENERGY, "ENERGY");
 829:/home/lsk/paparazzi/var/include/messages.h **** 	  trans->put_bytes(trans->impl, dev, DL_TYPE_FLOAT, DL_FORMAT_SCALAR, 4, (void *) _bat);
 830:/home/lsk/paparazzi/var/include/messages.h **** 	  trans->put_bytes(trans->impl, dev, DL_TYPE_FLOAT, DL_FORMAT_SCALAR, 4, (void *) _amp);
 831:/home/lsk/paparazzi/var/include/messages.h **** 	  trans->put_bytes(trans->impl, dev, DL_TYPE_UINT16, DL_FORMAT_SCALAR, 2, (void *) _energy);
 832:/home/lsk/paparazzi/var/include/messages.h **** 	  trans->put_bytes(trans->impl, dev, DL_TYPE_FLOAT, DL_FORMAT_SCALAR, 4, (void *) _power);
 833:/home/lsk/paparazzi/var/include/messages.h **** 	  trans->end_message(trans->impl, dev);
 834:/home/lsk/paparazzi/var/include/messages.h **** 	} else
 835:/home/lsk/paparazzi/var/include/messages.h **** 	  trans->overrun(trans->impl, dev);
 836:/home/lsk/paparazzi/var/include/messages.h **** }
 837:/home/lsk/paparazzi/var/include/messages.h **** 
 838:/home/lsk/paparazzi/var/include/messages.h **** #define DOWNLINK_SEND_BARO_BMP85_CALIB(_trans, _dev, a1, a2, a3, a4, a5, a6, b1, b2, mb, mc, md) pp
 839:/home/lsk/paparazzi/var/include/messages.h **** static inline void pprz_msg_send_BARO_BMP85_CALIB(struct transport_tx *trans, struct link_device *d
 840:/home/lsk/paparazzi/var/include/messages.h **** 	if (trans->check_available_space(trans->impl, dev, trans->size_of(trans->impl, 0+2+2+2+2+2+2+2+2+2
 841:/home/lsk/paparazzi/var/include/messages.h **** 	  trans->count_bytes(trans->impl, dev, trans->size_of(trans->impl, 0+2+2+2+2+2+2+2+2+2+2+2 +2 /* m
 842:/home/lsk/paparazzi/var/include/messages.h **** 	  trans->start_message(trans->impl, dev, 0+2+2+2+2+2+2+2+2+2+2+2 +2 /* msg header overhead */);
 843:/home/lsk/paparazzi/var/include/messages.h **** 	  trans->put_bytes(trans->impl, dev, DL_TYPE_UINT8, DL_FORMAT_SCALAR, 1, &ac_id);
 844:/home/lsk/paparazzi/var/include/messages.h **** 	  trans->put_named_byte(trans->impl, dev, DL_TYPE_UINT8, DL_FORMAT_SCALAR, DL_BARO_BMP85_CALIB, "B
 845:/home/lsk/paparazzi/var/include/messages.h **** 	  trans->put_bytes(trans->impl, dev, DL_TYPE_INT16, DL_FORMAT_SCALAR, 2, (void *) _a1);
 846:/home/lsk/paparazzi/var/include/messages.h **** 	  trans->put_bytes(trans->impl, dev, DL_TYPE_INT16, DL_FORMAT_SCALAR, 2, (void *) _a2);
 847:/home/lsk/paparazzi/var/include/messages.h **** 	  trans->put_bytes(trans->impl, dev, DL_TYPE_INT16, DL_FORMAT_SCALAR, 2, (void *) _a3);
 848:/home/lsk/paparazzi/var/include/messages.h **** 	  trans->put_bytes(trans->impl, dev, DL_TYPE_UINT16, DL_FORMAT_SCALAR, 2, (void *) _a4);
 849:/home/lsk/paparazzi/var/include/messages.h **** 	  trans->put_bytes(trans->impl, dev, DL_TYPE_UINT16, DL_FORMAT_SCALAR, 2, (void *) _a5);
 850:/home/lsk/paparazzi/var/include/messages.h **** 	  trans->put_bytes(trans->impl, dev, DL_TYPE_UINT16, DL_FORMAT_SCALAR, 2, (void *) _a6);
 851:/home/lsk/paparazzi/var/include/messages.h **** 	  trans->put_bytes(trans->impl, dev, DL_TYPE_INT16, DL_FORMAT_SCALAR, 2, (void *) _b1);
 852:/home/lsk/paparazzi/var/include/messages.h **** 	  trans->put_bytes(trans->impl, dev, DL_TYPE_INT16, DL_FORMAT_SCALAR, 2, (void *) _b2);
 853:/home/lsk/paparazzi/var/include/messages.h **** 	  trans->put_bytes(trans->impl, dev, DL_TYPE_INT16, DL_FORMAT_SCALAR, 2, (void *) _mb);
 854:/home/lsk/paparazzi/var/include/messages.h **** 	  trans->put_bytes(trans->impl, dev, DL_TYPE_INT16, DL_FORMAT_SCALAR, 2, (void *) _mc);
 855:/home/lsk/paparazzi/var/include/messages.h **** 	  trans->put_bytes(trans->impl, dev, DL_TYPE_INT16, DL_FORMAT_SCALAR, 2, (void *) _md);
 856:/home/lsk/paparazzi/var/include/messages.h **** 	  trans->end_message(trans->impl, dev);
 857:/home/lsk/paparazzi/var/include/messages.h **** 	} else
 858:/home/lsk/paparazzi/var/include/messages.h **** 	  trans->overrun(trans->impl, dev);
 859:/home/lsk/paparazzi/var/include/messages.h **** }
 860:/home/lsk/paparazzi/var/include/messages.h **** 
 861:/home/lsk/paparazzi/var/include/messages.h **** #define DOWNLINK_SEND_BARO_BMP85(_trans, _dev, UT, UP, P, T, MSL) pprz_msg_send_BARO_BMP85(&((_tran
 862:/home/lsk/paparazzi/var/include/messages.h **** static inline void pprz_msg_send_BARO_BMP85(struct transport_tx *trans, struct link_device *dev, ui
 863:/home/lsk/paparazzi/var/include/messages.h **** 	if (trans->check_available_space(trans->impl, dev, trans->size_of(trans->impl, 0+4+4+4+4+4 +2 /* m
 864:/home/lsk/paparazzi/var/include/messages.h **** 	  trans->count_bytes(trans->impl, dev, trans->size_of(trans->impl, 0+4+4+4+4+4 +2 /* msg header ov
 865:/home/lsk/paparazzi/var/include/messages.h **** 	  trans->start_message(trans->impl, dev, 0+4+4+4+4+4 +2 /* msg header overhead */);
 866:/home/lsk/paparazzi/var/include/messages.h **** 	  trans->put_bytes(trans->impl, dev, DL_TYPE_UINT8, DL_FORMAT_SCALAR, 1, &ac_id);
 867:/home/lsk/paparazzi/var/include/messages.h **** 	  trans->put_named_byte(trans->impl, dev, DL_TYPE_UINT8, DL_FORMAT_SCALAR, DL_BARO_BMP85, "BARO_BM
 868:/home/lsk/paparazzi/var/include/messages.h **** 	  trans->put_bytes(trans->impl, dev, DL_TYPE_INT32, DL_FORMAT_SCALAR, 4, (void *) _UT);
 869:/home/lsk/paparazzi/var/include/messages.h **** 	  trans->put_bytes(trans->impl, dev, DL_TYPE_INT32, DL_FORMAT_SCALAR, 4, (void *) _UP);
 870:/home/lsk/paparazzi/var/include/messages.h **** 	  trans->put_bytes(trans->impl, dev, DL_TYPE_UINT32, DL_FORMAT_SCALAR, 4, (void *) _P);
 871:/home/lsk/paparazzi/var/include/messages.h **** 	  trans->put_bytes(trans->impl, dev, DL_TYPE_FLOAT, DL_FORMAT_SCALAR, 4, (void *) _T);
 872:/home/lsk/paparazzi/var/include/messages.h **** 	  trans->put_bytes(trans->impl, dev, DL_TYPE_FLOAT, DL_FORMAT_SCALAR, 4, (void *) _MSL);
 873:/home/lsk/paparazzi/var/include/messages.h **** 	  trans->end_message(trans->impl, dev);
 874:/home/lsk/paparazzi/var/include/messages.h **** 	} else
 875:/home/lsk/paparazzi/var/include/messages.h **** 	  trans->overrun(trans->impl, dev);
 876:/home/lsk/paparazzi/var/include/messages.h **** }
 877:/home/lsk/paparazzi/var/include/messages.h **** 
 878:/home/lsk/paparazzi/var/include/messages.h **** #define DOWNLINK_SEND_SPEED_LOOP(_trans, _dev, ve_set_point, ve, vn_set_point, vn, north_sp, east_s
 879:/home/lsk/paparazzi/var/include/messages.h **** static inline void pprz_msg_send_SPEED_LOOP(struct transport_tx *trans, struct link_device *dev, ui
 880:/home/lsk/paparazzi/var/include/messages.h **** 	if (trans->check_available_space(trans->impl, dev, trans->size_of(trans->impl, 0+4+4+4+4+4+4 +2 /*
 881:/home/lsk/paparazzi/var/include/messages.h **** 	  trans->count_bytes(trans->impl, dev, trans->size_of(trans->impl, 0+4+4+4+4+4+4 +2 /* msg header 
 882:/home/lsk/paparazzi/var/include/messages.h **** 	  trans->start_message(trans->impl, dev, 0+4+4+4+4+4+4 +2 /* msg header overhead */);
 883:/home/lsk/paparazzi/var/include/messages.h **** 	  trans->put_bytes(trans->impl, dev, DL_TYPE_UINT8, DL_FORMAT_SCALAR, 1, &ac_id);
 884:/home/lsk/paparazzi/var/include/messages.h **** 	  trans->put_named_byte(trans->impl, dev, DL_TYPE_UINT8, DL_FORMAT_SCALAR, DL_SPEED_LOOP, "SPEED_L
 885:/home/lsk/paparazzi/var/include/messages.h **** 	  trans->put_bytes(trans->impl, dev, DL_TYPE_FLOAT, DL_FORMAT_SCALAR, 4, (void *) _ve_set_point);
 886:/home/lsk/paparazzi/var/include/messages.h **** 	  trans->put_bytes(trans->impl, dev, DL_TYPE_FLOAT, DL_FORMAT_SCALAR, 4, (void *) _ve);
 887:/home/lsk/paparazzi/var/include/messages.h **** 	  trans->put_bytes(trans->impl, dev, DL_TYPE_FLOAT, DL_FORMAT_SCALAR, 4, (void *) _vn_set_point);
 888:/home/lsk/paparazzi/var/include/messages.h **** 	  trans->put_bytes(trans->impl, dev, DL_TYPE_FLOAT, DL_FORMAT_SCALAR, 4, (void *) _vn);
 889:/home/lsk/paparazzi/var/include/messages.h **** 	  trans->put_bytes(trans->impl, dev, DL_TYPE_FLOAT, DL_FORMAT_SCALAR, 4, (void *) _north_sp);
 890:/home/lsk/paparazzi/var/include/messages.h **** 	  trans->put_bytes(trans->impl, dev, DL_TYPE_FLOAT, DL_FORMAT_SCALAR, 4, (void *) _east_sp);
 891:/home/lsk/paparazzi/var/include/messages.h **** 	  trans->end_message(trans->impl, dev);
 892:/home/lsk/paparazzi/var/include/messages.h **** 	} else
 893:/home/lsk/paparazzi/var/include/messages.h **** 	  trans->overrun(trans->impl, dev);
 894:/home/lsk/paparazzi/var/include/messages.h **** }
 895:/home/lsk/paparazzi/var/include/messages.h **** 
 896:/home/lsk/paparazzi/var/include/messages.h **** #define DOWNLINK_SEND_ALT_KALMAN(_trans, _dev, p00, p01, p10, p11) pprz_msg_send_ALT_KALMAN(&((_tra
 897:/home/lsk/paparazzi/var/include/messages.h **** static inline void pprz_msg_send_ALT_KALMAN(struct transport_tx *trans, struct link_device *dev, ui
 898:/home/lsk/paparazzi/var/include/messages.h **** 	if (trans->check_available_space(trans->impl, dev, trans->size_of(trans->impl, 0+4+4+4+4 +2 /* msg
 899:/home/lsk/paparazzi/var/include/messages.h **** 	  trans->count_bytes(trans->impl, dev, trans->size_of(trans->impl, 0+4+4+4+4 +2 /* msg header over
 900:/home/lsk/paparazzi/var/include/messages.h **** 	  trans->start_message(trans->impl, dev, 0+4+4+4+4 +2 /* msg header overhead */);
 901:/home/lsk/paparazzi/var/include/messages.h **** 	  trans->put_bytes(trans->impl, dev, DL_TYPE_UINT8, DL_FORMAT_SCALAR, 1, &ac_id);
 902:/home/lsk/paparazzi/var/include/messages.h **** 	  trans->put_named_byte(trans->impl, dev, DL_TYPE_UINT8, DL_FORMAT_SCALAR, DL_ALT_KALMAN, "ALT_KAL
 903:/home/lsk/paparazzi/var/include/messages.h **** 	  trans->put_bytes(trans->impl, dev, DL_TYPE_FLOAT, DL_FORMAT_SCALAR, 4, (void *) _p00);
 904:/home/lsk/paparazzi/var/include/messages.h **** 	  trans->put_bytes(trans->impl, dev, DL_TYPE_FLOAT, DL_FORMAT_SCALAR, 4, (void *) _p01);
 905:/home/lsk/paparazzi/var/include/messages.h **** 	  trans->put_bytes(trans->impl, dev, DL_TYPE_FLOAT, DL_FORMAT_SCALAR, 4, (void *) _p10);
 906:/home/lsk/paparazzi/var/include/messages.h **** 	  trans->put_bytes(trans->impl, dev, DL_TYPE_FLOAT, DL_FORMAT_SCALAR, 4, (void *) _p11);
 907:/home/lsk/paparazzi/var/include/messages.h **** 	  trans->end_message(trans->impl, dev);
 908:/home/lsk/paparazzi/var/include/messages.h **** 	} else
 909:/home/lsk/paparazzi/var/include/messages.h **** 	  trans->overrun(trans->impl, dev);
 910:/home/lsk/paparazzi/var/include/messages.h **** }
 911:/home/lsk/paparazzi/var/include/messages.h **** 
 912:/home/lsk/paparazzi/var/include/messages.h **** #define DOWNLINK_SEND_ESTIMATOR(_trans, _dev, z, z_dot) pprz_msg_send_ESTIMATOR(&((_trans).trans_tx
 913:/home/lsk/paparazzi/var/include/messages.h **** static inline void pprz_msg_send_ESTIMATOR(struct transport_tx *trans, struct link_device *dev, uin
 914:/home/lsk/paparazzi/var/include/messages.h **** 	if (trans->check_available_space(trans->impl, dev, trans->size_of(trans->impl, 0+4+4 +2 /* msg hea
 915:/home/lsk/paparazzi/var/include/messages.h **** 	  trans->count_bytes(trans->impl, dev, trans->size_of(trans->impl, 0+4+4 +2 /* msg header overhead
 916:/home/lsk/paparazzi/var/include/messages.h **** 	  trans->start_message(trans->impl, dev, 0+4+4 +2 /* msg header overhead */);
 917:/home/lsk/paparazzi/var/include/messages.h **** 	  trans->put_bytes(trans->impl, dev, DL_TYPE_UINT8, DL_FORMAT_SCALAR, 1, &ac_id);
 918:/home/lsk/paparazzi/var/include/messages.h **** 	  trans->put_named_byte(trans->impl, dev, DL_TYPE_UINT8, DL_FORMAT_SCALAR, DL_ESTIMATOR, "ESTIMATO
 919:/home/lsk/paparazzi/var/include/messages.h **** 	  trans->put_bytes(trans->impl, dev, DL_TYPE_FLOAT, DL_FORMAT_SCALAR, 4, (void *) _z);
 920:/home/lsk/paparazzi/var/include/messages.h **** 	  trans->put_bytes(trans->impl, dev, DL_TYPE_FLOAT, DL_FORMAT_SCALAR, 4, (void *) _z_dot);
 921:/home/lsk/paparazzi/var/include/messages.h **** 	  trans->end_message(trans->impl, dev);
 922:/home/lsk/paparazzi/var/include/messages.h **** 	} else
 923:/home/lsk/paparazzi/var/include/messages.h **** 	  trans->overrun(trans->impl, dev);
 924:/home/lsk/paparazzi/var/include/messages.h **** }
 925:/home/lsk/paparazzi/var/include/messages.h **** 
 926:/home/lsk/paparazzi/var/include/messages.h **** #define DOWNLINK_SEND_TUNE_ROLL(_trans, _dev, p, phi, phi_sp) pprz_msg_send_TUNE_ROLL(&((_trans).tr
 927:/home/lsk/paparazzi/var/include/messages.h **** static inline void pprz_msg_send_TUNE_ROLL(struct transport_tx *trans, struct link_device *dev, uin
 928:/home/lsk/paparazzi/var/include/messages.h **** 	if (trans->check_available_space(trans->impl, dev, trans->size_of(trans->impl, 0+4+4+4 +2 /* msg h
 929:/home/lsk/paparazzi/var/include/messages.h **** 	  trans->count_bytes(trans->impl, dev, trans->size_of(trans->impl, 0+4+4+4 +2 /* msg header overhe
 930:/home/lsk/paparazzi/var/include/messages.h **** 	  trans->start_message(trans->impl, dev, 0+4+4+4 +2 /* msg header overhead */);
 931:/home/lsk/paparazzi/var/include/messages.h **** 	  trans->put_bytes(trans->impl, dev, DL_TYPE_UINT8, DL_FORMAT_SCALAR, 1, &ac_id);
 932:/home/lsk/paparazzi/var/include/messages.h **** 	  trans->put_named_byte(trans->impl, dev, DL_TYPE_UINT8, DL_FORMAT_SCALAR, DL_TUNE_ROLL, "TUNE_ROL
 933:/home/lsk/paparazzi/var/include/messages.h **** 	  trans->put_bytes(trans->impl, dev, DL_TYPE_FLOAT, DL_FORMAT_SCALAR, 4, (void *) _p);
 934:/home/lsk/paparazzi/var/include/messages.h **** 	  trans->put_bytes(trans->impl, dev, DL_TYPE_FLOAT, DL_FORMAT_SCALAR, 4, (void *) _phi);
 935:/home/lsk/paparazzi/var/include/messages.h **** 	  trans->put_bytes(trans->impl, dev, DL_TYPE_FLOAT, DL_FORMAT_SCALAR, 4, (void *) _phi_sp);
 936:/home/lsk/paparazzi/var/include/messages.h **** 	  trans->end_message(trans->impl, dev);
 937:/home/lsk/paparazzi/var/include/messages.h **** 	} else
 938:/home/lsk/paparazzi/var/include/messages.h **** 	  trans->overrun(trans->impl, dev);
 939:/home/lsk/paparazzi/var/include/messages.h **** }
 940:/home/lsk/paparazzi/var/include/messages.h **** 
 941:/home/lsk/paparazzi/var/include/messages.h **** #define DOWNLINK_SEND_BARO_MS5534A(_trans, _dev, pressure, temp, alt) pprz_msg_send_BARO_MS5534A(&(
 942:/home/lsk/paparazzi/var/include/messages.h **** static inline void pprz_msg_send_BARO_MS5534A(struct transport_tx *trans, struct link_device *dev, 
 943:/home/lsk/paparazzi/var/include/messages.h **** 	if (trans->check_available_space(trans->impl, dev, trans->size_of(trans->impl, 0+4+2+4 +2 /* msg h
 944:/home/lsk/paparazzi/var/include/messages.h **** 	  trans->count_bytes(trans->impl, dev, trans->size_of(trans->impl, 0+4+2+4 +2 /* msg header overhe
 945:/home/lsk/paparazzi/var/include/messages.h **** 	  trans->start_message(trans->impl, dev, 0+4+2+4 +2 /* msg header overhead */);
 946:/home/lsk/paparazzi/var/include/messages.h **** 	  trans->put_bytes(trans->impl, dev, DL_TYPE_UINT8, DL_FORMAT_SCALAR, 1, &ac_id);
 947:/home/lsk/paparazzi/var/include/messages.h **** 	  trans->put_named_byte(trans->impl, dev, DL_TYPE_UINT8, DL_FORMAT_SCALAR, DL_BARO_MS5534A, "BARO_
 948:/home/lsk/paparazzi/var/include/messages.h **** 	  trans->put_bytes(trans->impl, dev, DL_TYPE_UINT32, DL_FORMAT_SCALAR, 4, (void *) _pressure);
 949:/home/lsk/paparazzi/var/include/messages.h **** 	  trans->put_bytes(trans->impl, dev, DL_TYPE_UINT16, DL_FORMAT_SCALAR, 2, (void *) _temp);
 950:/home/lsk/paparazzi/var/include/messages.h **** 	  trans->put_bytes(trans->impl, dev, DL_TYPE_FLOAT, DL_FORMAT_SCALAR, 4, (void *) _alt);
 951:/home/lsk/paparazzi/var/include/messages.h **** 	  trans->end_message(trans->impl, dev);
 952:/home/lsk/paparazzi/var/include/messages.h **** 	} else
 953:/home/lsk/paparazzi/var/include/messages.h **** 	  trans->overrun(trans->impl, dev);
 954:/home/lsk/paparazzi/var/include/messages.h **** }
 955:/home/lsk/paparazzi/var/include/messages.h **** 
 956:/home/lsk/paparazzi/var/include/messages.h **** #define DOWNLINK_SEND_PRESSURE(_trans, _dev, airspeed_adc, airspeed, altitude_adc, altitude) pprz_m
 957:/home/lsk/paparazzi/var/include/messages.h **** static inline void pprz_msg_send_PRESSURE(struct transport_tx *trans, struct link_device *dev, uint
 958:/home/lsk/paparazzi/var/include/messages.h **** 	if (trans->check_available_space(trans->impl, dev, trans->size_of(trans->impl, 0+4+4+4+4 +2 /* msg
 959:/home/lsk/paparazzi/var/include/messages.h **** 	  trans->count_bytes(trans->impl, dev, trans->size_of(trans->impl, 0+4+4+4+4 +2 /* msg header over
 960:/home/lsk/paparazzi/var/include/messages.h **** 	  trans->start_message(trans->impl, dev, 0+4+4+4+4 +2 /* msg header overhead */);
 961:/home/lsk/paparazzi/var/include/messages.h **** 	  trans->put_bytes(trans->impl, dev, DL_TYPE_UINT8, DL_FORMAT_SCALAR, 1, &ac_id);
 962:/home/lsk/paparazzi/var/include/messages.h **** 	  trans->put_named_byte(trans->impl, dev, DL_TYPE_UINT8, DL_FORMAT_SCALAR, DL_PRESSURE, "PRESSURE"
 963:/home/lsk/paparazzi/var/include/messages.h **** 	  trans->put_bytes(trans->impl, dev, DL_TYPE_FLOAT, DL_FORMAT_SCALAR, 4, (void *) _airspeed_adc);
 964:/home/lsk/paparazzi/var/include/messages.h **** 	  trans->put_bytes(trans->impl, dev, DL_TYPE_FLOAT, DL_FORMAT_SCALAR, 4, (void *) _airspeed);
 965:/home/lsk/paparazzi/var/include/messages.h **** 	  trans->put_bytes(trans->impl, dev, DL_TYPE_FLOAT, DL_FORMAT_SCALAR, 4, (void *) _altitude_adc);
 966:/home/lsk/paparazzi/var/include/messages.h **** 	  trans->put_bytes(trans->impl, dev, DL_TYPE_FLOAT, DL_FORMAT_SCALAR, 4, (void *) _altitude);
 967:/home/lsk/paparazzi/var/include/messages.h **** 	  trans->end_message(trans->impl, dev);
 968:/home/lsk/paparazzi/var/include/messages.h **** 	} else
 969:/home/lsk/paparazzi/var/include/messages.h **** 	  trans->overrun(trans->impl, dev);
 970:/home/lsk/paparazzi/var/include/messages.h **** }
 971:/home/lsk/paparazzi/var/include/messages.h **** 
 972:/home/lsk/paparazzi/var/include/messages.h **** #define DOWNLINK_SEND_BARO_WORDS(_trans, _dev, w1, w2, w3, w4) pprz_msg_send_BARO_WORDS(&((_trans).
 973:/home/lsk/paparazzi/var/include/messages.h **** static inline void pprz_msg_send_BARO_WORDS(struct transport_tx *trans, struct link_device *dev, ui
 974:/home/lsk/paparazzi/var/include/messages.h **** 	if (trans->check_available_space(trans->impl, dev, trans->size_of(trans->impl, 0+2+2+2+2 +2 /* msg
 975:/home/lsk/paparazzi/var/include/messages.h **** 	  trans->count_bytes(trans->impl, dev, trans->size_of(trans->impl, 0+2+2+2+2 +2 /* msg header over
 976:/home/lsk/paparazzi/var/include/messages.h **** 	  trans->start_message(trans->impl, dev, 0+2+2+2+2 +2 /* msg header overhead */);
 977:/home/lsk/paparazzi/var/include/messages.h **** 	  trans->put_bytes(trans->impl, dev, DL_TYPE_UINT8, DL_FORMAT_SCALAR, 1, &ac_id);
 978:/home/lsk/paparazzi/var/include/messages.h **** 	  trans->put_named_byte(trans->impl, dev, DL_TYPE_UINT8, DL_FORMAT_SCALAR, DL_BARO_WORDS, "BARO_WO
 979:/home/lsk/paparazzi/var/include/messages.h **** 	  trans->put_bytes(trans->impl, dev, DL_TYPE_UINT16, DL_FORMAT_SCALAR, 2, (void *) _w1);
 980:/home/lsk/paparazzi/var/include/messages.h **** 	  trans->put_bytes(trans->impl, dev, DL_TYPE_UINT16, DL_FORMAT_SCALAR, 2, (void *) _w2);
 981:/home/lsk/paparazzi/var/include/messages.h **** 	  trans->put_bytes(trans->impl, dev, DL_TYPE_UINT16, DL_FORMAT_SCALAR, 2, (void *) _w3);
 982:/home/lsk/paparazzi/var/include/messages.h **** 	  trans->put_bytes(trans->impl, dev, DL_TYPE_UINT16, DL_FORMAT_SCALAR, 2, (void *) _w4);
 983:/home/lsk/paparazzi/var/include/messages.h **** 	  trans->end_message(trans->impl, dev);
 984:/home/lsk/paparazzi/var/include/messages.h **** 	} else
 985:/home/lsk/paparazzi/var/include/messages.h **** 	  trans->overrun(trans->impl, dev);
 986:/home/lsk/paparazzi/var/include/messages.h **** }
 987:/home/lsk/paparazzi/var/include/messages.h **** 
 988:/home/lsk/paparazzi/var/include/messages.h **** #define DOWNLINK_SEND_WP_MOVED_LLA(_trans, _dev, wp_id, lat, lon, alt) pprz_msg_send_WP_MOVED_LLA(&
 989:/home/lsk/paparazzi/var/include/messages.h **** static inline void pprz_msg_send_WP_MOVED_LLA(struct transport_tx *trans, struct link_device *dev, 
 990:/home/lsk/paparazzi/var/include/messages.h **** 	if (trans->check_available_space(trans->impl, dev, trans->size_of(trans->impl, 0+1+4+4+4 +2 /* msg
 991:/home/lsk/paparazzi/var/include/messages.h **** 	  trans->count_bytes(trans->impl, dev, trans->size_of(trans->impl, 0+1+4+4+4 +2 /* msg header over
 992:/home/lsk/paparazzi/var/include/messages.h **** 	  trans->start_message(trans->impl, dev, 0+1+4+4+4 +2 /* msg header overhead */);
 993:/home/lsk/paparazzi/var/include/messages.h **** 	  trans->put_bytes(trans->impl, dev, DL_TYPE_UINT8, DL_FORMAT_SCALAR, 1, &ac_id);
 994:/home/lsk/paparazzi/var/include/messages.h **** 	  trans->put_named_byte(trans->impl, dev, DL_TYPE_UINT8, DL_FORMAT_SCALAR, DL_WP_MOVED_LLA, "WP_MO
 995:/home/lsk/paparazzi/var/include/messages.h **** 	  trans->put_bytes(trans->impl, dev, DL_TYPE_UINT8, DL_FORMAT_SCALAR, 1, (void *) _wp_id);
 996:/home/lsk/paparazzi/var/include/messages.h **** 	  trans->put_bytes(trans->impl, dev, DL_TYPE_INT32, DL_FORMAT_SCALAR, 4, (void *) _lat);
 997:/home/lsk/paparazzi/var/include/messages.h **** 	  trans->put_bytes(trans->impl, dev, DL_TYPE_INT32, DL_FORMAT_SCALAR, 4, (void *) _lon);
 998:/home/lsk/paparazzi/var/include/messages.h **** 	  trans->put_bytes(trans->impl, dev, DL_TYPE_INT32, DL_FORMAT_SCALAR, 4, (void *) _alt);
 999:/home/lsk/paparazzi/var/include/messages.h **** 	  trans->end_message(trans->impl, dev);
1000:/home/lsk/paparazzi/var/include/messages.h **** 	} else
1001:/home/lsk/paparazzi/var/include/messages.h **** 	  trans->overrun(trans->impl, dev);
1002:/home/lsk/paparazzi/var/include/messages.h **** }
1003:/home/lsk/paparazzi/var/include/messages.h **** 
1004:/home/lsk/paparazzi/var/include/messages.h **** #define DOWNLINK_SEND_CHRONO(_trans, _dev, tag, time) pprz_msg_send_CHRONO(&((_trans).trans_tx), &(
1005:/home/lsk/paparazzi/var/include/messages.h **** static inline void pprz_msg_send_CHRONO(struct transport_tx *trans, struct link_device *dev, uint8_
1006:/home/lsk/paparazzi/var/include/messages.h **** 	if (trans->check_available_space(trans->impl, dev, trans->size_of(trans->impl, 0+1+4 +2 /* msg hea
1007:/home/lsk/paparazzi/var/include/messages.h **** 	  trans->count_bytes(trans->impl, dev, trans->size_of(trans->impl, 0+1+4 +2 /* msg header overhead
1008:/home/lsk/paparazzi/var/include/messages.h **** 	  trans->start_message(trans->impl, dev, 0+1+4 +2 /* msg header overhead */);
1009:/home/lsk/paparazzi/var/include/messages.h **** 	  trans->put_bytes(trans->impl, dev, DL_TYPE_UINT8, DL_FORMAT_SCALAR, 1, &ac_id);
1010:/home/lsk/paparazzi/var/include/messages.h **** 	  trans->put_named_byte(trans->impl, dev, DL_TYPE_UINT8, DL_FORMAT_SCALAR, DL_CHRONO, "CHRONO");
1011:/home/lsk/paparazzi/var/include/messages.h **** 	  trans->put_bytes(trans->impl, dev, DL_TYPE_UINT8, DL_FORMAT_SCALAR, 1, (void *) _tag);
1012:/home/lsk/paparazzi/var/include/messages.h **** 	  trans->put_bytes(trans->impl, dev, DL_TYPE_UINT32, DL_FORMAT_SCALAR, 4, (void *) _time);
1013:/home/lsk/paparazzi/var/include/messages.h **** 	  trans->end_message(trans->impl, dev);
1014:/home/lsk/paparazzi/var/include/messages.h **** 	} else
1015:/home/lsk/paparazzi/var/include/messages.h **** 	  trans->overrun(trans->impl, dev);
1016:/home/lsk/paparazzi/var/include/messages.h **** }
1017:/home/lsk/paparazzi/var/include/messages.h **** 
1018:/home/lsk/paparazzi/var/include/messages.h **** #define DOWNLINK_SEND_WP_MOVED_ENU(_trans, _dev, wp_id, east, north, up) pprz_msg_send_WP_MOVED_ENU
1019:/home/lsk/paparazzi/var/include/messages.h **** static inline void pprz_msg_send_WP_MOVED_ENU(struct transport_tx *trans, struct link_device *dev, 
1020:/home/lsk/paparazzi/var/include/messages.h **** 	if (trans->check_available_space(trans->impl, dev, trans->size_of(trans->impl, 0+1+4+4+4 +2 /* msg
1021:/home/lsk/paparazzi/var/include/messages.h **** 	  trans->count_bytes(trans->impl, dev, trans->size_of(trans->impl, 0+1+4+4+4 +2 /* msg header over
1022:/home/lsk/paparazzi/var/include/messages.h **** 	  trans->start_message(trans->impl, dev, 0+1+4+4+4 +2 /* msg header overhead */);
1023:/home/lsk/paparazzi/var/include/messages.h **** 	  trans->put_bytes(trans->impl, dev, DL_TYPE_UINT8, DL_FORMAT_SCALAR, 1, &ac_id);
1024:/home/lsk/paparazzi/var/include/messages.h **** 	  trans->put_named_byte(trans->impl, dev, DL_TYPE_UINT8, DL_FORMAT_SCALAR, DL_WP_MOVED_ENU, "WP_MO
1025:/home/lsk/paparazzi/var/include/messages.h **** 	  trans->put_bytes(trans->impl, dev, DL_TYPE_UINT8, DL_FORMAT_SCALAR, 1, (void *) _wp_id);
1026:/home/lsk/paparazzi/var/include/messages.h **** 	  trans->put_bytes(trans->impl, dev, DL_TYPE_INT32, DL_FORMAT_SCALAR, 4, (void *) _east);
1027:/home/lsk/paparazzi/var/include/messages.h **** 	  trans->put_bytes(trans->impl, dev, DL_TYPE_INT32, DL_FORMAT_SCALAR, 4, (void *) _north);
1028:/home/lsk/paparazzi/var/include/messages.h **** 	  trans->put_bytes(trans->impl, dev, DL_TYPE_INT32, DL_FORMAT_SCALAR, 4, (void *) _up);
1029:/home/lsk/paparazzi/var/include/messages.h **** 	  trans->end_message(trans->impl, dev);
1030:/home/lsk/paparazzi/var/include/messages.h **** 	} else
1031:/home/lsk/paparazzi/var/include/messages.h **** 	  trans->overrun(trans->impl, dev);
1032:/home/lsk/paparazzi/var/include/messages.h **** }
1033:/home/lsk/paparazzi/var/include/messages.h **** 
1034:/home/lsk/paparazzi/var/include/messages.h **** #define DOWNLINK_SEND_WINDTURBINE_STATUS_(_trans, _dev, ac_id, tb_id, sync_itow, cycle_time) pprz_m
1035:/home/lsk/paparazzi/var/include/messages.h **** static inline void pprz_msg_send_WINDTURBINE_STATUS_(struct transport_tx *trans, struct link_device
1036:/home/lsk/paparazzi/var/include/messages.h **** 	if (trans->check_available_space(trans->impl, dev, trans->size_of(trans->impl, 0+1+1+4+4 +2 /* msg
1037:/home/lsk/paparazzi/var/include/messages.h **** 	  trans->count_bytes(trans->impl, dev, trans->size_of(trans->impl, 0+1+1+4+4 +2 /* msg header over
1038:/home/lsk/paparazzi/var/include/messages.h **** 	  trans->start_message(trans->impl, dev, 0+1+1+4+4 +2 /* msg header overhead */);
1039:/home/lsk/paparazzi/var/include/messages.h **** 	  trans->put_bytes(trans->impl, dev, DL_TYPE_UINT8, DL_FORMAT_SCALAR, 1, &ac_id);
1040:/home/lsk/paparazzi/var/include/messages.h **** 	  trans->put_named_byte(trans->impl, dev, DL_TYPE_UINT8, DL_FORMAT_SCALAR, DL_WINDTURBINE_STATUS_,
1041:/home/lsk/paparazzi/var/include/messages.h **** 	  trans->put_bytes(trans->impl, dev, DL_TYPE_UINT8, DL_FORMAT_SCALAR, 1, (void *) _ac_id);
1042:/home/lsk/paparazzi/var/include/messages.h **** 	  trans->put_bytes(trans->impl, dev, DL_TYPE_UINT8, DL_FORMAT_SCALAR, 1, (void *) _tb_id);
1043:/home/lsk/paparazzi/var/include/messages.h **** 	  trans->put_bytes(trans->impl, dev, DL_TYPE_UINT32, DL_FORMAT_SCALAR, 4, (void *) _sync_itow);
1044:/home/lsk/paparazzi/var/include/messages.h **** 	  trans->put_bytes(trans->impl, dev, DL_TYPE_UINT32, DL_FORMAT_SCALAR, 4, (void *) _cycle_time);
1045:/home/lsk/paparazzi/var/include/messages.h **** 	  trans->end_message(trans->impl, dev);
1046:/home/lsk/paparazzi/var/include/messages.h **** 	} else
1047:/home/lsk/paparazzi/var/include/messages.h **** 	  trans->overrun(trans->impl, dev);
1048:/home/lsk/paparazzi/var/include/messages.h **** }
1049:/home/lsk/paparazzi/var/include/messages.h **** 
1050:/home/lsk/paparazzi/var/include/messages.h **** #define DOWNLINK_SEND_RC_3CH_(_trans, _dev, throttle_mode, roll, pitch) pprz_msg_send_RC_3CH_(&((_t
1051:/home/lsk/paparazzi/var/include/messages.h **** static inline void pprz_msg_send_RC_3CH_(struct transport_tx *trans, struct link_device *dev, uint8
1052:/home/lsk/paparazzi/var/include/messages.h **** 	if (trans->check_available_space(trans->impl, dev, trans->size_of(trans->impl, 0+1+1+1 +2 /* msg h
1053:/home/lsk/paparazzi/var/include/messages.h **** 	  trans->count_bytes(trans->impl, dev, trans->size_of(trans->impl, 0+1+1+1 +2 /* msg header overhe
1054:/home/lsk/paparazzi/var/include/messages.h **** 	  trans->start_message(trans->impl, dev, 0+1+1+1 +2 /* msg header overhead */);
1055:/home/lsk/paparazzi/var/include/messages.h **** 	  trans->put_bytes(trans->impl, dev, DL_TYPE_UINT8, DL_FORMAT_SCALAR, 1, &ac_id);
1056:/home/lsk/paparazzi/var/include/messages.h **** 	  trans->put_named_byte(trans->impl, dev, DL_TYPE_UINT8, DL_FORMAT_SCALAR, DL_RC_3CH_, "RC_3CH_");
1057:/home/lsk/paparazzi/var/include/messages.h **** 	  trans->put_bytes(trans->impl, dev, DL_TYPE_UINT8, DL_FORMAT_SCALAR, 1, (void *) _throttle_mode);
1058:/home/lsk/paparazzi/var/include/messages.h **** 	  trans->put_bytes(trans->impl, dev, DL_TYPE_INT8, DL_FORMAT_SCALAR, 1, (void *) _roll);
1059:/home/lsk/paparazzi/var/include/messages.h **** 	  trans->put_bytes(trans->impl, dev, DL_TYPE_INT8, DL_FORMAT_SCALAR, 1, (void *) _pitch);
1060:/home/lsk/paparazzi/var/include/messages.h **** 	  trans->end_message(trans->impl, dev);
1061:/home/lsk/paparazzi/var/include/messages.h **** 	} else
1062:/home/lsk/paparazzi/var/include/messages.h **** 	  trans->overrun(trans->impl, dev);
1063:/home/lsk/paparazzi/var/include/messages.h **** }
1064:/home/lsk/paparazzi/var/include/messages.h **** 
1065:/home/lsk/paparazzi/var/include/messages.h **** #define DOWNLINK_SEND_MPPT(_trans, _dev, nb_values, values) pprz_msg_send_MPPT(&((_trans).trans_tx)
1066:/home/lsk/paparazzi/var/include/messages.h **** static inline void pprz_msg_send_MPPT(struct transport_tx *trans, struct link_device *dev, uint8_t 
1067:/home/lsk/paparazzi/var/include/messages.h **** 	if (trans->check_available_space(trans->impl, dev, trans->size_of(trans->impl, 0+1+nb_values*2 +2 
1068:/home/lsk/paparazzi/var/include/messages.h **** 	  trans->count_bytes(trans->impl, dev, trans->size_of(trans->impl, 0+1+nb_values*2 +2 /* msg heade
1069:/home/lsk/paparazzi/var/include/messages.h **** 	  trans->start_message(trans->impl, dev, 0+1+nb_values*2 +2 /* msg header overhead */);
1070:/home/lsk/paparazzi/var/include/messages.h **** 	  trans->put_bytes(trans->impl, dev, DL_TYPE_UINT8, DL_FORMAT_SCALAR, 1, &ac_id);
1071:/home/lsk/paparazzi/var/include/messages.h **** 	  trans->put_named_byte(trans->impl, dev, DL_TYPE_UINT8, DL_FORMAT_SCALAR, DL_MPPT, "MPPT");
1072:/home/lsk/paparazzi/var/include/messages.h **** 	  trans->put_bytes(trans->impl, dev, DL_TYPE_ARRAY_LENGTH, DL_FORMAT_SCALAR, 1, (void *) &nb_value
1073:/home/lsk/paparazzi/var/include/messages.h **** 	  trans->put_bytes(trans->impl, dev, DL_TYPE_INT16, DL_FORMAT_ARRAY, 2 * nb_values, (void *) _valu
1074:/home/lsk/paparazzi/var/include/messages.h **** 	  trans->end_message(trans->impl, dev);
1075:/home/lsk/paparazzi/var/include/messages.h **** 	} else
1076:/home/lsk/paparazzi/var/include/messages.h **** 	  trans->overrun(trans->impl, dev);
1077:/home/lsk/paparazzi/var/include/messages.h **** }
1078:/home/lsk/paparazzi/var/include/messages.h **** 
1079:/home/lsk/paparazzi/var/include/messages.h **** #define DOWNLINK_SEND_DEBUG_IR_I2C(_trans, _dev, ir1, ir2, top) pprz_msg_send_DEBUG_IR_I2C(&((_tran
1080:/home/lsk/paparazzi/var/include/messages.h **** static inline void pprz_msg_send_DEBUG_IR_I2C(struct transport_tx *trans, struct link_device *dev, 
1081:/home/lsk/paparazzi/var/include/messages.h **** 	if (trans->check_available_space(trans->impl, dev, trans->size_of(trans->impl, 0+2+2+2 +2 /* msg h
1082:/home/lsk/paparazzi/var/include/messages.h **** 	  trans->count_bytes(trans->impl, dev, trans->size_of(trans->impl, 0+2+2+2 +2 /* msg header overhe
1083:/home/lsk/paparazzi/var/include/messages.h **** 	  trans->start_message(trans->impl, dev, 0+2+2+2 +2 /* msg header overhead */);
1084:/home/lsk/paparazzi/var/include/messages.h **** 	  trans->put_bytes(trans->impl, dev, DL_TYPE_UINT8, DL_FORMAT_SCALAR, 1, &ac_id);
1085:/home/lsk/paparazzi/var/include/messages.h **** 	  trans->put_named_byte(trans->impl, dev, DL_TYPE_UINT8, DL_FORMAT_SCALAR, DL_DEBUG_IR_I2C, "DEBUG
1086:/home/lsk/paparazzi/var/include/messages.h **** 	  trans->put_bytes(trans->impl, dev, DL_TYPE_INT16, DL_FORMAT_SCALAR, 2, (void *) _ir1);
1087:/home/lsk/paparazzi/var/include/messages.h **** 	  trans->put_bytes(trans->impl, dev, DL_TYPE_INT16, DL_FORMAT_SCALAR, 2, (void *) _ir2);
1088:/home/lsk/paparazzi/var/include/messages.h **** 	  trans->put_bytes(trans->impl, dev, DL_TYPE_INT16, DL_FORMAT_SCALAR, 2, (void *) _top);
1089:/home/lsk/paparazzi/var/include/messages.h **** 	  trans->end_message(trans->impl, dev);
1090:/home/lsk/paparazzi/var/include/messages.h **** 	} else
1091:/home/lsk/paparazzi/var/include/messages.h **** 	  trans->overrun(trans->impl, dev);
1092:/home/lsk/paparazzi/var/include/messages.h **** }
1093:/home/lsk/paparazzi/var/include/messages.h **** 
1094:/home/lsk/paparazzi/var/include/messages.h **** #define DOWNLINK_SEND_AIRSPEED(_trans, _dev, airspeed, airspeed_sp, airspeed_cnt, groundspeed_sp) p
1095:/home/lsk/paparazzi/var/include/messages.h **** static inline void pprz_msg_send_AIRSPEED(struct transport_tx *trans, struct link_device *dev, uint
1096:/home/lsk/paparazzi/var/include/messages.h **** 	if (trans->check_available_space(trans->impl, dev, trans->size_of(trans->impl, 0+4+4+4+4 +2 /* msg
1097:/home/lsk/paparazzi/var/include/messages.h **** 	  trans->count_bytes(trans->impl, dev, trans->size_of(trans->impl, 0+4+4+4+4 +2 /* msg header over
1098:/home/lsk/paparazzi/var/include/messages.h **** 	  trans->start_message(trans->impl, dev, 0+4+4+4+4 +2 /* msg header overhead */);
1099:/home/lsk/paparazzi/var/include/messages.h **** 	  trans->put_bytes(trans->impl, dev, DL_TYPE_UINT8, DL_FORMAT_SCALAR, 1, &ac_id);
1100:/home/lsk/paparazzi/var/include/messages.h **** 	  trans->put_named_byte(trans->impl, dev, DL_TYPE_UINT8, DL_FORMAT_SCALAR, DL_AIRSPEED, "AIRSPEED"
1101:/home/lsk/paparazzi/var/include/messages.h **** 	  trans->put_bytes(trans->impl, dev, DL_TYPE_FLOAT, DL_FORMAT_SCALAR, 4, (void *) _airspeed);
1102:/home/lsk/paparazzi/var/include/messages.h **** 	  trans->put_bytes(trans->impl, dev, DL_TYPE_FLOAT, DL_FORMAT_SCALAR, 4, (void *) _airspeed_sp);
1103:/home/lsk/paparazzi/var/include/messages.h **** 	  trans->put_bytes(trans->impl, dev, DL_TYPE_FLOAT, DL_FORMAT_SCALAR, 4, (void *) _airspeed_cnt);
1104:/home/lsk/paparazzi/var/include/messages.h **** 	  trans->put_bytes(trans->impl, dev, DL_TYPE_FLOAT, DL_FORMAT_SCALAR, 4, (void *) _groundspeed_sp)
