   1              		.syntax unified
   2              		.cpu cortex-m4
   3              		.eabi_attribute 27, 3
   4              		.fpu fpv4-sp-d16
   5              		.eabi_attribute 20, 1
   6              		.eabi_attribute 21, 1
   7              		.eabi_attribute 23, 3
   8              		.eabi_attribute 24, 1
   9              		.eabi_attribute 25, 1
  10              		.eabi_attribute 26, 1
  11              		.eabi_attribute 30, 4
  12              		.eabi_attribute 34, 1
  13              		.eabi_attribute 18, 4
  14              		.thumb
  15              		.file	"hf_float.c"
  16              		.text
  17              	.Ltext0:
  18              		.cfi_sections	.debug_frame
  19              		.section	.text.update_second_order_low_pass_int,"ax",%progbits
  20              		.align	1
  21              		.thumb
  22              		.thumb_func
  24              	update_second_order_low_pass_int:
  25              	.LFB173:
  26              		.file 1 "./filters/low_pass_filter.h"
   1:./filters/low_pass_filter.h **** /*
   2:./filters/low_pass_filter.h ****  * Copyright (C) 2013 Gautier Hattenberger
   3:./filters/low_pass_filter.h ****  *
   4:./filters/low_pass_filter.h ****  * This file is part of paparazzi.
   5:./filters/low_pass_filter.h ****  *
   6:./filters/low_pass_filter.h ****  * paparazzi is free software; you can redistribute it and/or modify
   7:./filters/low_pass_filter.h ****  * it under the terms of the GNU General Public License as published by
   8:./filters/low_pass_filter.h ****  * the Free Software Foundation; either version 2, or (at your option)
   9:./filters/low_pass_filter.h ****  * any later version.
  10:./filters/low_pass_filter.h ****  *
  11:./filters/low_pass_filter.h ****  * paparazzi is distributed in the hope that it will be useful,
  12:./filters/low_pass_filter.h ****  * but WITHOUT ANY WARRANTY; without even the implied warranty of
  13:./filters/low_pass_filter.h ****  * MERCHANTABILITY or FITNESS FOR A PARTICULAR PURPOSE.  See the
  14:./filters/low_pass_filter.h ****  * GNU General Public License for more details.
  15:./filters/low_pass_filter.h ****  *
  16:./filters/low_pass_filter.h ****  * You should have received a copy of the GNU General Public License
  17:./filters/low_pass_filter.h ****  * along with paparazzi; see the file COPYING.  If not, write to
  18:./filters/low_pass_filter.h ****  * the Free Software Foundation, 59 Temple Place - Suite 330,
  19:./filters/low_pass_filter.h ****  * Boston, MA 02111-1307, USA.
  20:./filters/low_pass_filter.h ****  */
  21:./filters/low_pass_filter.h **** 
  22:./filters/low_pass_filter.h **** /** @file filters/low_pass_filter.h
  23:./filters/low_pass_filter.h ****  *  @brief Simple first order low pass filter with bilinear transform
  24:./filters/low_pass_filter.h ****  *
  25:./filters/low_pass_filter.h ****  */
  26:./filters/low_pass_filter.h **** 
  27:./filters/low_pass_filter.h **** #ifndef LOW_PASS_FILTER_H
  28:./filters/low_pass_filter.h **** #define LOW_PASS_FILTER_H
  29:./filters/low_pass_filter.h **** 
  30:./filters/low_pass_filter.h **** #include "std.h"
  31:./filters/low_pass_filter.h **** #include "math/pprz_algebra_int.h"
  32:./filters/low_pass_filter.h **** 
  33:./filters/low_pass_filter.h **** #define INT32_FILT_FRAC  8
  34:./filters/low_pass_filter.h **** 
  35:./filters/low_pass_filter.h **** /** First order low pass filter structure.
  36:./filters/low_pass_filter.h ****  *
  37:./filters/low_pass_filter.h ****  * using bilinear z transform
  38:./filters/low_pass_filter.h ****  */
  39:./filters/low_pass_filter.h **** struct FirstOrderLowPass {
  40:./filters/low_pass_filter.h ****   float time_const;
  41:./filters/low_pass_filter.h ****   float last_in;
  42:./filters/low_pass_filter.h ****   float last_out;
  43:./filters/low_pass_filter.h **** };
  44:./filters/low_pass_filter.h **** 
  45:./filters/low_pass_filter.h **** /** Init first order low pass filter.
  46:./filters/low_pass_filter.h ****  *
  47:./filters/low_pass_filter.h ****  * Laplace transform in continious time:
  48:./filters/low_pass_filter.h ****  *            1
  49:./filters/low_pass_filter.h ****  * H(s) = ---------
  50:./filters/low_pass_filter.h ****  *        1 + tau*s
  51:./filters/low_pass_filter.h ****  *
  52:./filters/low_pass_filter.h ****  * @param filter first order low pass filter structure
  53:./filters/low_pass_filter.h ****  * @param tau time constant of the first order low pass filter
  54:./filters/low_pass_filter.h ****  * @param sample_time sampling period of the signal
  55:./filters/low_pass_filter.h ****  * @param value initial value of the filter
  56:./filters/low_pass_filter.h ****  */
  57:./filters/low_pass_filter.h **** static inline void init_first_order_low_pass(struct FirstOrderLowPass *filter, float tau, float sam
  58:./filters/low_pass_filter.h ****     float value)
  59:./filters/low_pass_filter.h **** {
  60:./filters/low_pass_filter.h ****   filter->last_in = value;
  61:./filters/low_pass_filter.h ****   filter->last_out = value;
  62:./filters/low_pass_filter.h ****   filter->time_const = 2.0f * tau / sample_time;
  63:./filters/low_pass_filter.h **** }
  64:./filters/low_pass_filter.h **** 
  65:./filters/low_pass_filter.h **** /** Update first order low pass filter state with a new value.
  66:./filters/low_pass_filter.h ****  *
  67:./filters/low_pass_filter.h ****  * @param filter first order low pass filter structure
  68:./filters/low_pass_filter.h ****  * @param value new input value of the filter
  69:./filters/low_pass_filter.h ****  * @return new filtered value
  70:./filters/low_pass_filter.h ****  */
  71:./filters/low_pass_filter.h **** static inline float update_first_order_low_pass(struct FirstOrderLowPass *filter, float value)
  72:./filters/low_pass_filter.h **** {
  73:./filters/low_pass_filter.h ****   float out = (value + filter->last_in + (filter->time_const - 1.0f) * filter->last_out) / (1.0f + 
  74:./filters/low_pass_filter.h ****   filter->last_in = value;
  75:./filters/low_pass_filter.h ****   filter->last_out = out;
  76:./filters/low_pass_filter.h ****   return out;
  77:./filters/low_pass_filter.h **** }
  78:./filters/low_pass_filter.h **** 
  79:./filters/low_pass_filter.h **** /** Get current value of the first order low pass filter.
  80:./filters/low_pass_filter.h ****  *
  81:./filters/low_pass_filter.h ****  * @param filter first order low pass filter structure
  82:./filters/low_pass_filter.h ****  * @return current value of the filter
  83:./filters/low_pass_filter.h ****  */
  84:./filters/low_pass_filter.h **** static inline float get_first_order_low_pass(struct FirstOrderLowPass *filter)
  85:./filters/low_pass_filter.h **** {
  86:./filters/low_pass_filter.h ****   return filter->last_out;
  87:./filters/low_pass_filter.h **** }
  88:./filters/low_pass_filter.h **** 
  89:./filters/low_pass_filter.h **** /** Second order low pass filter structure.
  90:./filters/low_pass_filter.h ****  *
  91:./filters/low_pass_filter.h ****  * using biquad filter with bilinear z transform
  92:./filters/low_pass_filter.h ****  *
  93:./filters/low_pass_filter.h ****  * http://en.wikipedia.org/wiki/Digital_biquad_filter
  94:./filters/low_pass_filter.h ****  * http://www.earlevel.com/main/2003/03/02/the-bilinear-z-transform
  95:./filters/low_pass_filter.h ****  *
  96:./filters/low_pass_filter.h ****  * Laplace continious form:
  97:./filters/low_pass_filter.h ****  *
  98:./filters/low_pass_filter.h ****  *                 1
  99:./filters/low_pass_filter.h ****  * H(s) = -------------------
 100:./filters/low_pass_filter.h ****  *        s^2/w^2 + s/w*Q + 1
 101:./filters/low_pass_filter.h ****  *
 102:./filters/low_pass_filter.h ****  *
 103:./filters/low_pass_filter.h ****  * Polynomial discrete form:
 104:./filters/low_pass_filter.h ****  *
 105:./filters/low_pass_filter.h ****  *        b0 + b1 z^-1 + b2 z^-2
 106:./filters/low_pass_filter.h ****  * H(z) = ----------------------
 107:./filters/low_pass_filter.h ****  *        a0 + a1 z^-1 + a2 z^-2
 108:./filters/low_pass_filter.h ****  *
 109:./filters/low_pass_filter.h ****  * with:
 110:./filters/low_pass_filter.h ****  *  a0 = 1
 111:./filters/low_pass_filter.h ****  *  a1 = 2*(K^2 - 1) / (K^2 + K/Q + 1)
 112:./filters/low_pass_filter.h ****  *  a2 = (K^2 - K/Q + 1) / (K^2 + K/Q + 1)
 113:./filters/low_pass_filter.h ****  *  b0 = K^2 / (K^2 + K/Q + 1)
 114:./filters/low_pass_filter.h ****  *  b1 = 2*b0
 115:./filters/low_pass_filter.h ****  *  b2 = b0
 116:./filters/low_pass_filter.h ****  *  K = tan(pi*Fc/Fs) ~ pi*Fc/Fs = Ts/(2*tau)
 117:./filters/low_pass_filter.h ****  *  Fc: cutting frequency
 118:./filters/low_pass_filter.h ****  *  Fs: sampling frequency
 119:./filters/low_pass_filter.h ****  *  Ts: sampling period
 120:./filters/low_pass_filter.h ****  *  tau: time constant
 121:./filters/low_pass_filter.h ****  */
 122:./filters/low_pass_filter.h **** struct SecondOrderLowPass {
 123:./filters/low_pass_filter.h ****   float a[2]; ///< denominator gains
 124:./filters/low_pass_filter.h ****   float b[2]; ///< numerator gains
 125:./filters/low_pass_filter.h ****   float i[2]; ///< input history
 126:./filters/low_pass_filter.h ****   float o[2]; ///< output history
 127:./filters/low_pass_filter.h **** };
 128:./filters/low_pass_filter.h **** 
 129:./filters/low_pass_filter.h **** 
 130:./filters/low_pass_filter.h **** /** Init second order low pass filter.
 131:./filters/low_pass_filter.h ****  *
 132:./filters/low_pass_filter.h ****  * @param filter second order low pass filter structure
 133:./filters/low_pass_filter.h ****  * @param tau time constant of the second order low pass filter
 134:./filters/low_pass_filter.h ****  * @param Q Q value of the second order low pass filter
 135:./filters/low_pass_filter.h ****  * @param sample_time sampling period of the signal
 136:./filters/low_pass_filter.h ****  * @param value initial value of the filter
 137:./filters/low_pass_filter.h ****  */
 138:./filters/low_pass_filter.h **** static inline void init_second_order_low_pass(struct SecondOrderLowPass *filter, float tau, float Q
 139:./filters/low_pass_filter.h ****     float value)
 140:./filters/low_pass_filter.h **** {
 141:./filters/low_pass_filter.h ****   float K = sample_time / (2.0f * tau);
 142:./filters/low_pass_filter.h ****   float poly = K * K + K / Q + 1.0f;
 143:./filters/low_pass_filter.h ****   filter->a[0] = 2.0f * (K * K - 1.0f) / poly;
 144:./filters/low_pass_filter.h ****   filter->a[1] = (K * K - K / Q + 1.0f) / poly;
 145:./filters/low_pass_filter.h ****   filter->b[0] = K * K / poly;
 146:./filters/low_pass_filter.h ****   filter->b[1] = 2.0f * filter->b[0];
 147:./filters/low_pass_filter.h ****   filter->i[0] = filter->i[1] = filter->o[0] = filter->o[1] = value;
 148:./filters/low_pass_filter.h **** }
 149:./filters/low_pass_filter.h **** 
 150:./filters/low_pass_filter.h **** /** Update second order low pass filter state with a new value.
 151:./filters/low_pass_filter.h ****  *
 152:./filters/low_pass_filter.h ****  * @param filter second order low pass filter structure
 153:./filters/low_pass_filter.h ****  * @param value new input value of the filter
 154:./filters/low_pass_filter.h ****  * @return new filtered value
 155:./filters/low_pass_filter.h ****  */
 156:./filters/low_pass_filter.h **** static inline float update_second_order_low_pass(struct SecondOrderLowPass *filter, float value)
 157:./filters/low_pass_filter.h **** {
 158:./filters/low_pass_filter.h ****   float out = filter->b[0] * value
 159:./filters/low_pass_filter.h ****               + filter->b[1] * filter->i[0]
 160:./filters/low_pass_filter.h ****               + filter->b[0] * filter->i[1]
 161:./filters/low_pass_filter.h ****               - filter->a[0] * filter->o[0]
 162:./filters/low_pass_filter.h ****               - filter->a[1] * filter->o[1];
 163:./filters/low_pass_filter.h ****   filter->i[1] = filter->i[0];
 164:./filters/low_pass_filter.h ****   filter->i[0] = value;
 165:./filters/low_pass_filter.h ****   filter->o[1] = filter->o[0];
 166:./filters/low_pass_filter.h ****   filter->o[0] = out;
 167:./filters/low_pass_filter.h ****   return out;
 168:./filters/low_pass_filter.h **** }
 169:./filters/low_pass_filter.h **** 
 170:./filters/low_pass_filter.h **** /** Get current value of the second order low pass filter.
 171:./filters/low_pass_filter.h ****  *
 172:./filters/low_pass_filter.h ****  * @param filter second order low pass filter structure
 173:./filters/low_pass_filter.h ****  * @return current value of the filter
 174:./filters/low_pass_filter.h ****  */
 175:./filters/low_pass_filter.h **** static inline float get_second_order_low_pass(struct SecondOrderLowPass *filter)
 176:./filters/low_pass_filter.h **** {
 177:./filters/low_pass_filter.h ****   return filter->o[0];
 178:./filters/low_pass_filter.h **** }
 179:./filters/low_pass_filter.h **** 
 180:./filters/low_pass_filter.h **** struct SecondOrderLowPass_int {
 181:./filters/low_pass_filter.h ****   int32_t a[2]; ///< denominator gains
 182:./filters/low_pass_filter.h ****   int32_t b[2]; ///< numerator gains
 183:./filters/low_pass_filter.h ****   int32_t i[2]; ///< input history
 184:./filters/low_pass_filter.h ****   int32_t o[2]; ///< output history
 185:./filters/low_pass_filter.h ****   int32_t loop_gain; ///< loop gain
 186:./filters/low_pass_filter.h **** };
 187:./filters/low_pass_filter.h **** 
 188:./filters/low_pass_filter.h **** /** Init second order low pass filter(fixed point version).
 189:./filters/low_pass_filter.h ****  *
 190:./filters/low_pass_filter.h ****  * @param filter second order low pass filter structure
 191:./filters/low_pass_filter.h ****  * @param cut_off Cutoff frequency of the filter with -3dB
 192:./filters/low_pass_filter.h ****  * @param Q Q value of the second order low pass filter
 193:./filters/low_pass_filter.h ****  * @param sample_time sampling period of the signal
 194:./filters/low_pass_filter.h ****  * @param value initial value of the filter
 195:./filters/low_pass_filter.h ****  */
 196:./filters/low_pass_filter.h **** static inline void init_second_order_low_pass_int(struct SecondOrderLowPass_int *filter, float cut_
 197:./filters/low_pass_filter.h ****     float sample_time, int32_t value)
 198:./filters/low_pass_filter.h **** {
 199:./filters/low_pass_filter.h ****   struct SecondOrderLowPass filter_temp;
 200:./filters/low_pass_filter.h ****   float tau = 7.0f / (44.0f * cut_off);
 201:./filters/low_pass_filter.h ****   float K = sample_time / (2.0f * tau);
 202:./filters/low_pass_filter.h ****   float poly = K * K + K / Q + 1.0f;
 203:./filters/low_pass_filter.h ****   float loop_gain_f;
 204:./filters/low_pass_filter.h **** 
 205:./filters/low_pass_filter.h ****   filter_temp.a[0] = 2.0f * (K * K - 1.0f) / poly;
 206:./filters/low_pass_filter.h ****   filter_temp.a[1] = (K * K - K / Q + 1.0f) / poly;
 207:./filters/low_pass_filter.h ****   filter_temp.b[0] = K * K / poly;
 208:./filters/low_pass_filter.h ****   filter_temp.b[1] = 2.0f * filter_temp.b[0];
 209:./filters/low_pass_filter.h ****   loop_gain_f = 1.0f / filter_temp.b[0];
 210:./filters/low_pass_filter.h **** 
 211:./filters/low_pass_filter.h ****   filter->a[0] = BFP_OF_REAL((filter_temp.a[0] * loop_gain_f), INT32_FILT_FRAC);
 212:./filters/low_pass_filter.h ****   filter->a[1] = BFP_OF_REAL((filter_temp.a[1] * loop_gain_f), INT32_FILT_FRAC);
 213:./filters/low_pass_filter.h ****   filter->b[0] = BFP_OF_REAL(1, INT32_FILT_FRAC);
 214:./filters/low_pass_filter.h ****   filter->b[1] = 2 * filter->b[0];
 215:./filters/low_pass_filter.h ****   filter->i[0] = filter->i[1] = filter->o[0] = filter->o[1] = value;
 216:./filters/low_pass_filter.h ****   filter->loop_gain = BFP_OF_REAL(loop_gain_f, INT32_FILT_FRAC);
 217:./filters/low_pass_filter.h **** }
 218:./filters/low_pass_filter.h **** 
 219:./filters/low_pass_filter.h **** /** Update second order low pass filter state with a new value(fixed point version).
 220:./filters/low_pass_filter.h ****  *
 221:./filters/low_pass_filter.h ****  * @param filter second order low pass filter structure
 222:./filters/low_pass_filter.h ****  * @param value new input value of the filter
 223:./filters/low_pass_filter.h ****  * @return new filtered value
 224:./filters/low_pass_filter.h ****  */
 225:./filters/low_pass_filter.h **** static inline int32_t update_second_order_low_pass_int(struct SecondOrderLowPass_int *filter, int32
 226:./filters/low_pass_filter.h **** {
  27              		.loc 1 226 0
  28              		.cfi_startproc
  29              		@ args = 0, pretend = 0, frame = 0
  30              		@ frame_needed = 0, uses_anonymous_args = 0
  31              	.LVL0:
  32 0000 0346     		mov	r3, r0
 227:./filters/low_pass_filter.h ****   int32_t out = filter->b[0] * value
 228:./filters/low_pass_filter.h ****                 + filter->b[1] * filter->i[0]
 229:./filters/low_pass_filter.h ****                 + filter->b[0] * filter->i[1]
 230:./filters/low_pass_filter.h ****                 - filter->a[0] * filter->o[0]
  33              		.loc 1 230 0
  34 0002 8269     		ldr	r2, [r0, #24]
 226:./filters/low_pass_filter.h **** {
  35              		.loc 1 226 0
  36 0004 F0B5     		push	{r4, r5, r6, r7, lr}
  37              		.cfi_def_cfa_offset 20
  38              		.cfi_offset 4, -20
  39              		.cfi_offset 5, -16
  40              		.cfi_offset 6, -12
  41              		.cfi_offset 7, -8
  42              		.cfi_offset 14, -4
 227:./filters/low_pass_filter.h ****   int32_t out = filter->b[0] * value
  43              		.loc 1 227 0
  44 0006 8568     		ldr	r5, [r0, #8]
 228:./filters/low_pass_filter.h ****                 + filter->b[1] * filter->i[0]
  45              		.loc 1 228 0
  46 0008 0469     		ldr	r4, [r0, #16]
  47 000a C068     		ldr	r0, [r0, #12]
  48              	.LVL1:
 231:./filters/low_pass_filter.h ****                 - filter->a[1] * filter->o[1];
  49              		.loc 1 231 0
  50 000c DF69     		ldr	r7, [r3, #28]
 232:./filters/low_pass_filter.h **** 
 233:./filters/low_pass_filter.h ****   filter->i[1] = filter->i[0];
 234:./filters/low_pass_filter.h ****   filter->i[0] = value;
 235:./filters/low_pass_filter.h ****   filter->o[1] = filter->o[0];
  51              		.loc 1 235 0
  52 000e DA61     		str	r2, [r3, #28]
 228:./filters/low_pass_filter.h ****                 + filter->b[1] * filter->i[0]
  53              		.loc 1 228 0
  54 0010 6043     		muls	r0, r4, r0
  55 0012 01FB0506 		mla	r6, r1, r5, r0
 229:./filters/low_pass_filter.h ****                 + filter->b[0] * filter->i[1]
  56              		.loc 1 229 0
  57 0016 5869     		ldr	r0, [r3, #20]
 234:./filters/low_pass_filter.h ****   filter->i[0] = value;
  58              		.loc 1 234 0
  59 0018 1961     		str	r1, [r3, #16]
 229:./filters/low_pass_filter.h ****                 + filter->b[0] * filter->i[1]
  60              		.loc 1 229 0
  61 001a 00FB0565 		mla	r5, r0, r5, r6
 230:./filters/low_pass_filter.h ****                 - filter->a[0] * filter->o[0]
  62              		.loc 1 230 0
  63 001e 1868     		ldr	r0, [r3]
 231:./filters/low_pass_filter.h ****                 - filter->a[1] * filter->o[1];
  64              		.loc 1 231 0
  65 0020 5E68     		ldr	r6, [r3, #4]
 233:./filters/low_pass_filter.h ****   filter->i[1] = filter->i[0];
  66              		.loc 1 233 0
  67 0022 5C61     		str	r4, [r3, #20]
 230:./filters/low_pass_filter.h ****                 - filter->a[0] * filter->o[0]
  68              		.loc 1 230 0
  69 0024 00FB1250 		mls	r0, r0, r2, r5
 236:./filters/low_pass_filter.h ****   filter->o[0] = out / (filter->loop_gain);
  70              		.loc 1 236 0
  71 0028 1A6A     		ldr	r2, [r3, #32]
 227:./filters/low_pass_filter.h ****   int32_t out = filter->b[0] * value
  72              		.loc 1 227 0
  73 002a 07FB1600 		mls	r0, r7, r6, r0
  74              	.LVL2:
  75              		.loc 1 236 0
  76 002e 90FBF2F0 		sdiv	r0, r0, r2
  77              	.LVL3:
  78 0032 9861     		str	r0, [r3, #24]
  79              	.LVL4:
 237:./filters/low_pass_filter.h ****   return filter->o[0];
 238:./filters/low_pass_filter.h **** }
  80              		.loc 1 238 0
  81 0034 F0BD     		pop	{r4, r5, r6, r7, pc}
  82              		.cfi_endproc
  83              	.LFE173:
  85              		.global	__aeabi_f2d
  86              		.global	__aeabi_dsub
  87              		.global	__aeabi_dmul
  88              		.global	__aeabi_d2f
  89              		.section	.text.b2_hff_update_x.constprop.0,"ax",%progbits
  90              		.align	1
  91              		.thumb
  92              		.thumb_func
  94              	b2_hff_update_x.constprop.0:
  95              	.LFB507:
  96              		.file 2 "subsystems/ins/hf_float.c"
   1:subsystems/ins/hf_float.c **** /*
   2:subsystems/ins/hf_float.c ****  * Copyright (C) 2008-2009 Antoine Drouin <poinix@gmail.com>
   3:subsystems/ins/hf_float.c ****  * Copyright (C) 2009 Felix Ruess <felix.ruess@gmail.com>
   4:subsystems/ins/hf_float.c ****  *
   5:subsystems/ins/hf_float.c ****  * This file is part of paparazzi.
   6:subsystems/ins/hf_float.c ****  *
   7:subsystems/ins/hf_float.c ****  * paparazzi is free software; you can redistribute it and/or modify
   8:subsystems/ins/hf_float.c ****  * it under the terms of the GNU General Public License as published by
   9:subsystems/ins/hf_float.c ****  * the Free Software Foundation; either version 2, or (at your option)
  10:subsystems/ins/hf_float.c ****  * any later version.
  11:subsystems/ins/hf_float.c ****  *
  12:subsystems/ins/hf_float.c ****  * paparazzi is distributed in the hope that it will be useful,
  13:subsystems/ins/hf_float.c ****  * but WITHOUT ANY WARRANTY; without even the implied warranty of
  14:subsystems/ins/hf_float.c ****  * MERCHANTABILITY or FITNESS FOR A PARTICULAR PURPOSE.  See the
  15:subsystems/ins/hf_float.c ****  * GNU General Public License for more details.
  16:subsystems/ins/hf_float.c ****  *
  17:subsystems/ins/hf_float.c ****  * You should have received a copy of the GNU General Public License
  18:subsystems/ins/hf_float.c ****  * along with paparazzi; see the file COPYING.  If not, write to
  19:subsystems/ins/hf_float.c ****  * the Free Software Foundation, 59 Temple Place - Suite 330,
  20:subsystems/ins/hf_float.c ****  * Boston, MA 02111-1307, USA.
  21:subsystems/ins/hf_float.c ****  */
  22:subsystems/ins/hf_float.c **** 
  23:subsystems/ins/hf_float.c **** /**
  24:subsystems/ins/hf_float.c ****  * @file subsystems/ins/hf_float.c
  25:subsystems/ins/hf_float.c ****  *
  26:subsystems/ins/hf_float.c ****  * Horizontal filter (x,y) to estimate position and velocity.
  27:subsystems/ins/hf_float.c ****  *
  28:subsystems/ins/hf_float.c ****  */
  29:subsystems/ins/hf_float.c **** 
  30:subsystems/ins/hf_float.c **** #include "subsystems/ins/hf_float.h"
  31:subsystems/ins/hf_float.c **** #include "subsystems/imu.h"
  32:subsystems/ins/hf_float.c **** #include "state.h"
  33:subsystems/ins/hf_float.c **** #include "subsystems/gps.h"
  34:subsystems/ins/hf_float.c **** #include <stdlib.h>
  35:subsystems/ins/hf_float.c **** #include "filters/low_pass_filter.h"
  36:subsystems/ins/hf_float.c **** #include "generated/airframe.h"
  37:subsystems/ins/hf_float.c **** 
  38:subsystems/ins/hf_float.c **** #ifdef SITL
  39:subsystems/ins/hf_float.c **** #include <stdio.h>
  40:subsystems/ins/hf_float.c **** #define DBG_LEVEL 1
  41:subsystems/ins/hf_float.c **** #define PRINT_DBG(_l, _p) {           \
  42:subsystems/ins/hf_float.c ****     if (DBG_LEVEL >= _l)            \
  43:subsystems/ins/hf_float.c ****       printf _p;                \
  44:subsystems/ins/hf_float.c ****   }
  45:subsystems/ins/hf_float.c **** #else
  46:subsystems/ins/hf_float.c **** #define PRINT_DBG(_l, _p) {}
  47:subsystems/ins/hf_float.c **** #endif
  48:subsystems/ins/hf_float.c **** 
  49:subsystems/ins/hf_float.c **** 
  50:subsystems/ins/hf_float.c **** #ifndef AHRS_PROPAGATE_FREQUENCY
  51:subsystems/ins/hf_float.c **** #define AHRS_PROPAGATE_FREQUENCY PERIODIC_FREQUENCY
  52:subsystems/ins/hf_float.c **** #endif
  53:subsystems/ins/hf_float.c **** 
  54:subsystems/ins/hf_float.c **** #ifndef HFF_PRESCALER
  55:subsystems/ins/hf_float.c **** #if AHRS_PROPAGATE_FREQUENCY == 512
  56:subsystems/ins/hf_float.c **** #define HFF_PRESCALER 16
  57:subsystems/ins/hf_float.c **** #elif AHRS_PROPAGATE_FREQUENCY == 500
  58:subsystems/ins/hf_float.c **** #define HFF_PRESCALER 10
  59:subsystems/ins/hf_float.c **** #else
  60:subsystems/ins/hf_float.c **** #error "HFF_PRESCALER not set, needs to be a divisor of AHRS_PROPAGATE_FREQUENCY"
  61:subsystems/ins/hf_float.c **** #endif
  62:subsystems/ins/hf_float.c **** #endif
  63:subsystems/ins/hf_float.c **** 
  64:subsystems/ins/hf_float.c **** /** horizontal filter propagation frequency */
  65:subsystems/ins/hf_float.c **** #define HFF_FREQ ((AHRS_PROPAGATE_FREQUENCY)/HFF_PRESCALER)
  66:subsystems/ins/hf_float.c **** #define DT_HFILTER (1./HFF_FREQ)
  67:subsystems/ins/hf_float.c **** 
  68:subsystems/ins/hf_float.c **** /** initial covariance diagonal */
  69:subsystems/ins/hf_float.c **** #define INIT_PXX 1.
  70:subsystems/ins/hf_float.c **** /** process noise (is the same for x and y)*/
  71:subsystems/ins/hf_float.c **** #ifndef HFF_ACCEL_NOISE
  72:subsystems/ins/hf_float.c **** #define HFF_ACCEL_NOISE 0.5
  73:subsystems/ins/hf_float.c **** #endif
  74:subsystems/ins/hf_float.c **** #define Q       HFF_ACCEL_NOISE*DT_HFILTER*DT_HFILTER/2.
  75:subsystems/ins/hf_float.c **** #define Qdotdot HFF_ACCEL_NOISE*DT_HFILTER
  76:subsystems/ins/hf_float.c **** 
  77:subsystems/ins/hf_float.c **** //TODO: proper measurement noise
  78:subsystems/ins/hf_float.c **** #ifndef HFF_R_POS
  79:subsystems/ins/hf_float.c **** #define HFF_R_POS   8.
  80:subsystems/ins/hf_float.c **** #endif
  81:subsystems/ins/hf_float.c **** #ifndef HFF_R_POS_MIN
  82:subsystems/ins/hf_float.c **** #define HFF_R_POS_MIN 3.
  83:subsystems/ins/hf_float.c **** #endif
  84:subsystems/ins/hf_float.c **** 
  85:subsystems/ins/hf_float.c **** #ifndef HFF_R_SPEED
  86:subsystems/ins/hf_float.c **** #define HFF_R_SPEED 2.
  87:subsystems/ins/hf_float.c **** #endif
  88:subsystems/ins/hf_float.c **** #ifndef HFF_R_SPEED_MIN
  89:subsystems/ins/hf_float.c **** #define HFF_R_SPEED_MIN 1.
  90:subsystems/ins/hf_float.c **** #endif
  91:subsystems/ins/hf_float.c **** 
  92:subsystems/ins/hf_float.c **** #ifndef HFF_UPDATE_SPEED
  93:subsystems/ins/hf_float.c **** #define HFF_UPDATE_SPEED TRUE
  94:subsystems/ins/hf_float.c **** #endif
  95:subsystems/ins/hf_float.c **** 
  96:subsystems/ins/hf_float.c **** #ifndef HFF_LOWPASS_CUTOFF_FREQUENCY
  97:subsystems/ins/hf_float.c **** #define HFF_LOWPASS_CUTOFF_FREQUENCY 14
  98:subsystems/ins/hf_float.c **** #endif
  99:subsystems/ins/hf_float.c **** 
 100:subsystems/ins/hf_float.c **** #if HFF_LOWPASS_CUTOFF_FREQUENCY < 8
 101:subsystems/ins/hf_float.c **** #error "It is not allowed to use a cutoff frequency lower than 8Hz due to overflow issues."
 102:subsystems/ins/hf_float.c **** #endif
 103:subsystems/ins/hf_float.c **** 
 104:subsystems/ins/hf_float.c **** /* low pass filter variables */
 105:subsystems/ins/hf_float.c **** Butterworth2LowPass_int filter_x;
 106:subsystems/ins/hf_float.c **** Butterworth2LowPass_int filter_y;
 107:subsystems/ins/hf_float.c **** Butterworth2LowPass_int filter_z;
 108:subsystems/ins/hf_float.c **** 
 109:subsystems/ins/hf_float.c **** /* gps measurement noise */
 110:subsystems/ins/hf_float.c **** float Rgps_pos, Rgps_vel;
 111:subsystems/ins/hf_float.c **** 
 112:subsystems/ins/hf_float.c **** /*
 113:subsystems/ins/hf_float.c **** 
 114:subsystems/ins/hf_float.c ****   X_x = [ x xdot]
 115:subsystems/ins/hf_float.c ****   X_y = [ y ydot]
 116:subsystems/ins/hf_float.c **** 
 117:subsystems/ins/hf_float.c **** 
 118:subsystems/ins/hf_float.c **** */
 119:subsystems/ins/hf_float.c **** /* output filter states */
 120:subsystems/ins/hf_float.c **** struct HfilterFloat b2_hff_state;
 121:subsystems/ins/hf_float.c **** 
 122:subsystems/ins/hf_float.c **** 
 123:subsystems/ins/hf_float.c **** /* last acceleration measurement */
 124:subsystems/ins/hf_float.c **** static float b2_hff_xdd_meas;
 125:subsystems/ins/hf_float.c **** static float b2_hff_ydd_meas;
 126:subsystems/ins/hf_float.c **** 
 127:subsystems/ins/hf_float.c **** /* last velocity measurement */
 128:subsystems/ins/hf_float.c **** static float b2_hff_xd_meas;
 129:subsystems/ins/hf_float.c **** static float b2_hff_yd_meas;
 130:subsystems/ins/hf_float.c **** 
 131:subsystems/ins/hf_float.c **** /* last position measurement */
 132:subsystems/ins/hf_float.c **** static float b2_hff_x_meas;
 133:subsystems/ins/hf_float.c **** static float b2_hff_y_meas;
 134:subsystems/ins/hf_float.c **** 
 135:subsystems/ins/hf_float.c **** /** counter for hff propagation*/
 136:subsystems/ins/hf_float.c **** static int b2_hff_ps_counter;
 137:subsystems/ins/hf_float.c **** 
 138:subsystems/ins/hf_float.c **** /*
 139:subsystems/ins/hf_float.c ****  * For GPS lag compensation
 140:subsystems/ins/hf_float.c ****  *
 141:subsystems/ins/hf_float.c ****  *
 142:subsystems/ins/hf_float.c ****  *
 143:subsystems/ins/hf_float.c ****  */
 144:subsystems/ins/hf_float.c **** #ifdef GPS_LAG
 145:subsystems/ins/hf_float.c **** /*
 146:subsystems/ins/hf_float.c ****  * GPS_LAG is defined in seconds in airframe file
 147:subsystems/ins/hf_float.c ****  */
 148:subsystems/ins/hf_float.c **** 
 149:subsystems/ins/hf_float.c **** /** number of propagaton steps to redo according to GPS_LAG */
 150:subsystems/ins/hf_float.c **** #define GPS_LAG_N ((int) (GPS_LAG * HFF_FREQ + 0.5))
 151:subsystems/ins/hf_float.c **** /** number of propagation steps between two GPS updates */
 152:subsystems/ins/hf_float.c **** #define GPS_DT_N ((int) (HFF_FREQ / 4))
 153:subsystems/ins/hf_float.c **** /** tolerance of the GPS lag accuracy is +- GPS_LAG_TOLERANCE seconds */
 154:subsystems/ins/hf_float.c **** #define GPS_LAG_TOLERANCE 0.08
 155:subsystems/ins/hf_float.c **** #define GPS_LAG_TOL_N ((int) (GPS_LAG_TOLERANCE * HFF_FREQ + 0.5))
 156:subsystems/ins/hf_float.c **** 
 157:subsystems/ins/hf_float.c **** /* maximum number of past propagation steps to rerun per ap cycle
 158:subsystems/ins/hf_float.c ****  * make sure GPS_LAG_N/MAX_PP_STEPS < 128
 159:subsystems/ins/hf_float.c ****  * GPS_LAG_N/MAX_PP_STEPS/512 = seconds until re-propagation catches up with the present
 160:subsystems/ins/hf_float.c ****  */
 161:subsystems/ins/hf_float.c **** #define MAX_PP_STEPS 6
 162:subsystems/ins/hf_float.c **** 
 163:subsystems/ins/hf_float.c **** /* variables for mean accel buffer */
 164:subsystems/ins/hf_float.c **** #define ACC_BUF_MAXN (GPS_LAG_N+10)
 165:subsystems/ins/hf_float.c **** #define INC_ACC_IDX(idx) {  idx = (idx + 1) < ACC_BUF_MAXN ? (idx + 1) : 0; }
 166:subsystems/ins/hf_float.c **** 
 167:subsystems/ins/hf_float.c **** /** buffer with past mean accel values for redoing the propagation */
 168:subsystems/ins/hf_float.c **** struct FloatVect2 past_accel[ACC_BUF_MAXN];
 169:subsystems/ins/hf_float.c **** 
 170:subsystems/ins/hf_float.c **** static unsigned int acc_buf_r; ///< pos to read from, oldest measurement
 171:subsystems/ins/hf_float.c **** static unsigned int acc_buf_w; ///< pos to write to
 172:subsystems/ins/hf_float.c **** static unsigned int acc_buf_n; ///< number of elements in buffer
 173:subsystems/ins/hf_float.c **** 
 174:subsystems/ins/hf_float.c **** 
 175:subsystems/ins/hf_float.c **** /*
 176:subsystems/ins/hf_float.c ****  * stuff for ringbuffer to store past filter states
 177:subsystems/ins/hf_float.c ****  */
 178:subsystems/ins/hf_float.c **** #define HFF_RB_MAXN ((int) (GPS_LAG * 4))
 179:subsystems/ins/hf_float.c **** #define INC_RB_POINTER(ptr) {         \
 180:subsystems/ins/hf_float.c ****     if (ptr == &b2_hff_rb[HFF_RB_MAXN-1])   \
 181:subsystems/ins/hf_float.c ****       ptr = b2_hff_rb;              \
 182:subsystems/ins/hf_float.c ****     else                    \
 183:subsystems/ins/hf_float.c ****       ptr++;                  \
 184:subsystems/ins/hf_float.c ****   }
 185:subsystems/ins/hf_float.c **** 
 186:subsystems/ins/hf_float.c **** /** ringbuffer with state and covariance when GPS was valid */
 187:subsystems/ins/hf_float.c **** struct HfilterFloat b2_hff_rb[HFF_RB_MAXN];
 188:subsystems/ins/hf_float.c **** struct HfilterFloat *b2_hff_rb_put; ///< ringbuffer write pointer
 189:subsystems/ins/hf_float.c **** #endif /* GPS_LAG */
 190:subsystems/ins/hf_float.c **** 
 191:subsystems/ins/hf_float.c **** struct HfilterFloat *b2_hff_rb_last; ///< ringbuffer read pointer
 192:subsystems/ins/hf_float.c **** static int b2_hff_rb_n; ///< ringbuffer fill count
 193:subsystems/ins/hf_float.c **** 
 194:subsystems/ins/hf_float.c **** 
 195:subsystems/ins/hf_float.c **** /** by how many steps the estimated GPS validity point in time differed from GPS_LAG_N */
 196:subsystems/ins/hf_float.c **** static int lag_counter_err;
 197:subsystems/ins/hf_float.c **** 
 198:subsystems/ins/hf_float.c **** /** counts down the propagation steps until the filter state is saved again */
 199:subsystems/ins/hf_float.c **** static int save_counter;
 200:subsystems/ins/hf_float.c **** static int past_save_counter;
 201:subsystems/ins/hf_float.c **** #define SAVE_NOW 0
 202:subsystems/ins/hf_float.c **** #define SAVING -1
 203:subsystems/ins/hf_float.c **** #define SAVE_DONE -2
 204:subsystems/ins/hf_float.c **** 
 205:subsystems/ins/hf_float.c **** #define HFF_LOST_LIMIT 1000
 206:subsystems/ins/hf_float.c **** static uint16_t b2_hff_lost_limit;
 207:subsystems/ins/hf_float.c **** static uint16_t b2_hff_lost_counter;
 208:subsystems/ins/hf_float.c **** 
 209:subsystems/ins/hf_float.c **** #ifdef GPS_LAG
 210:subsystems/ins/hf_float.c **** static void b2_hff_get_past_accel(unsigned int back_n);
 211:subsystems/ins/hf_float.c **** static void b2_hff_rb_put_state(struct HfilterFloat *source);
 212:subsystems/ins/hf_float.c **** static void b2_hff_rb_drop_last(void);
 213:subsystems/ins/hf_float.c **** static void b2_hff_set_state(struct HfilterFloat *dest, struct HfilterFloat *source);
 214:subsystems/ins/hf_float.c **** #endif
 215:subsystems/ins/hf_float.c **** 
 216:subsystems/ins/hf_float.c **** 
 217:subsystems/ins/hf_float.c **** static void b2_hff_init_x(float init_x, float init_xdot);
 218:subsystems/ins/hf_float.c **** static void b2_hff_init_y(float init_y, float init_ydot);
 219:subsystems/ins/hf_float.c **** 
 220:subsystems/ins/hf_float.c **** static void b2_hff_propagate_x(struct HfilterFloat *hff_work, float dt);
 221:subsystems/ins/hf_float.c **** static void b2_hff_propagate_y(struct HfilterFloat *hff_work, float dt);
 222:subsystems/ins/hf_float.c **** 
 223:subsystems/ins/hf_float.c **** static void b2_hff_update_x(struct HfilterFloat *hff_work, float x_meas, float Rpos);
 224:subsystems/ins/hf_float.c **** static void b2_hff_update_y(struct HfilterFloat *hff_work, float y_meas, float Rpos);
 225:subsystems/ins/hf_float.c **** 
 226:subsystems/ins/hf_float.c **** static void b2_hff_update_xdot(struct HfilterFloat *hff_work, float vel, float Rvel);
 227:subsystems/ins/hf_float.c **** static void b2_hff_update_ydot(struct HfilterFloat *hff_work, float vel, float Rvel);
 228:subsystems/ins/hf_float.c **** 
 229:subsystems/ins/hf_float.c **** #if PERIODIC_TELEMETRY
 230:subsystems/ins/hf_float.c **** #include "subsystems/datalink/telemetry.h"
 231:subsystems/ins/hf_float.c **** 
 232:subsystems/ins/hf_float.c **** static void send_hff(struct transport_tx *trans, struct link_device *dev)
 233:subsystems/ins/hf_float.c **** {
 234:subsystems/ins/hf_float.c ****   pprz_msg_send_HFF(trans, dev, AC_ID,
 235:subsystems/ins/hf_float.c ****                     &b2_hff_state.x,
 236:subsystems/ins/hf_float.c ****                     &b2_hff_state.y,
 237:subsystems/ins/hf_float.c ****                     &b2_hff_state.xdot,
 238:subsystems/ins/hf_float.c ****                     &b2_hff_state.ydot,
 239:subsystems/ins/hf_float.c ****                     &b2_hff_state.xdotdot,
 240:subsystems/ins/hf_float.c ****                     &b2_hff_state.ydotdot);
 241:subsystems/ins/hf_float.c **** }
 242:subsystems/ins/hf_float.c **** 
 243:subsystems/ins/hf_float.c **** static void send_hff_debug(struct transport_tx *trans, struct link_device *dev)
 244:subsystems/ins/hf_float.c **** {
 245:subsystems/ins/hf_float.c ****   pprz_msg_send_HFF_DBG(trans, dev, AC_ID,
 246:subsystems/ins/hf_float.c ****                         &b2_hff_x_meas,
 247:subsystems/ins/hf_float.c ****                         &b2_hff_y_meas,
 248:subsystems/ins/hf_float.c ****                         &b2_hff_xd_meas,
 249:subsystems/ins/hf_float.c ****                         &b2_hff_yd_meas,
 250:subsystems/ins/hf_float.c ****                         &b2_hff_state.xP[0][0],
 251:subsystems/ins/hf_float.c ****                         &b2_hff_state.yP[0][0],
 252:subsystems/ins/hf_float.c ****                         &b2_hff_state.xP[1][1],
 253:subsystems/ins/hf_float.c ****                         &b2_hff_state.yP[1][1]);
 254:subsystems/ins/hf_float.c **** }
 255:subsystems/ins/hf_float.c **** 
 256:subsystems/ins/hf_float.c **** #ifdef GPS_LAG
 257:subsystems/ins/hf_float.c **** static void send_hff_gps(struct transport_tx *trans, struct link_device *dev)
 258:subsystems/ins/hf_float.c **** {
 259:subsystems/ins/hf_float.c ****   pprz_msg_send_HFF_GPS(trans, dev, AC_ID,
 260:subsystems/ins/hf_float.c ****                         &(b2_hff_rb_last->lag_counter),
 261:subsystems/ins/hf_float.c ****                         &lag_counter_err,
 262:subsystems/ins/hf_float.c ****                         &save_counter);
 263:subsystems/ins/hf_float.c **** }
 264:subsystems/ins/hf_float.c **** #endif
 265:subsystems/ins/hf_float.c **** 
 266:subsystems/ins/hf_float.c **** #endif
 267:subsystems/ins/hf_float.c **** 
 268:subsystems/ins/hf_float.c **** void b2_hff_init(float init_x, float init_xdot, float init_y, float init_ydot)
 269:subsystems/ins/hf_float.c **** {
 270:subsystems/ins/hf_float.c ****   Rgps_pos = HFF_R_POS;
 271:subsystems/ins/hf_float.c ****   Rgps_vel = HFF_R_SPEED;
 272:subsystems/ins/hf_float.c ****   b2_hff_init_x(init_x, init_xdot);
 273:subsystems/ins/hf_float.c ****   b2_hff_init_y(init_y, init_ydot);
 274:subsystems/ins/hf_float.c **** #ifdef GPS_LAG
 275:subsystems/ins/hf_float.c ****   /* init buffer for past mean accel values */
 276:subsystems/ins/hf_float.c ****   acc_buf_r = 0;
 277:subsystems/ins/hf_float.c ****   acc_buf_w = 0;
 278:subsystems/ins/hf_float.c ****   acc_buf_n = 0;
 279:subsystems/ins/hf_float.c ****   b2_hff_rb_put = b2_hff_rb;
 280:subsystems/ins/hf_float.c ****   b2_hff_rb_last = b2_hff_rb;
 281:subsystems/ins/hf_float.c ****   b2_hff_rb_last->rollback = FALSE;
 282:subsystems/ins/hf_float.c ****   b2_hff_rb_last->lag_counter = 0;
 283:subsystems/ins/hf_float.c ****   b2_hff_state.lag_counter = GPS_LAG_N;
 284:subsystems/ins/hf_float.c **** #ifdef SITL
 285:subsystems/ins/hf_float.c ****   printf("GPS_LAG: %f\n", GPS_LAG);
 286:subsystems/ins/hf_float.c ****   printf("GPS_LAG_N: %d\n", GPS_LAG_N);
 287:subsystems/ins/hf_float.c ****   printf("GPS_DT_N: %d\n", GPS_DT_N);
 288:subsystems/ins/hf_float.c ****   printf("DT_HFILTER: %f\n", DT_HFILTER);
 289:subsystems/ins/hf_float.c ****   printf("GPS_LAG_TOL_N: %i\n", GPS_LAG_TOL_N);
 290:subsystems/ins/hf_float.c **** #endif
 291:subsystems/ins/hf_float.c **** #else
 292:subsystems/ins/hf_float.c ****   b2_hff_rb_last = &b2_hff_state;
 293:subsystems/ins/hf_float.c ****   b2_hff_state.lag_counter = 0;
 294:subsystems/ins/hf_float.c **** #endif
 295:subsystems/ins/hf_float.c ****   b2_hff_rb_n = 0;
 296:subsystems/ins/hf_float.c ****   b2_hff_state.rollback = FALSE;
 297:subsystems/ins/hf_float.c ****   lag_counter_err = 0;
 298:subsystems/ins/hf_float.c ****   save_counter = -1;
 299:subsystems/ins/hf_float.c ****   past_save_counter = SAVE_DONE;
 300:subsystems/ins/hf_float.c ****   b2_hff_ps_counter = 1;
 301:subsystems/ins/hf_float.c ****   b2_hff_lost_counter = 0;
 302:subsystems/ins/hf_float.c ****   b2_hff_lost_limit = HFF_LOST_LIMIT;
 303:subsystems/ins/hf_float.c **** 
 304:subsystems/ins/hf_float.c **** #if PERIODIC_TELEMETRY
 305:subsystems/ins/hf_float.c ****   register_periodic_telemetry(DefaultPeriodic, "HFF", send_hff);
 306:subsystems/ins/hf_float.c ****   register_periodic_telemetry(DefaultPeriodic, "HFF_DBG", send_hff_debug);
 307:subsystems/ins/hf_float.c **** #ifdef GPS_LAG
 308:subsystems/ins/hf_float.c ****   register_periodic_telemetry(DefaultPeriodic, "HFF_GPS", send_hff_gps);
 309:subsystems/ins/hf_float.c **** #endif
 310:subsystems/ins/hf_float.c **** #endif
 311:subsystems/ins/hf_float.c **** 
 312:subsystems/ins/hf_float.c ****   init_butterworth_2_low_pass_int(&filter_x, HFF_LOWPASS_CUTOFF_FREQUENCY, (1. / AHRS_PROPAGATE_FRE
 313:subsystems/ins/hf_float.c ****   init_butterworth_2_low_pass_int(&filter_y, HFF_LOWPASS_CUTOFF_FREQUENCY, (1. / AHRS_PROPAGATE_FRE
 314:subsystems/ins/hf_float.c ****   init_butterworth_2_low_pass_int(&filter_z, HFF_LOWPASS_CUTOFF_FREQUENCY, (1. / AHRS_PROPAGATE_FRE
 315:subsystems/ins/hf_float.c **** }
 316:subsystems/ins/hf_float.c **** 
 317:subsystems/ins/hf_float.c **** static void b2_hff_init_x(float init_x, float init_xdot)
 318:subsystems/ins/hf_float.c **** {
 319:subsystems/ins/hf_float.c ****   b2_hff_state.x     = init_x;
 320:subsystems/ins/hf_float.c ****   b2_hff_state.xdot  = init_xdot;
 321:subsystems/ins/hf_float.c ****   int i, j;
 322:subsystems/ins/hf_float.c ****   for (i = 0; i < HFF_STATE_SIZE; i++) {
 323:subsystems/ins/hf_float.c ****     for (j = 0; j < HFF_STATE_SIZE; j++) {
 324:subsystems/ins/hf_float.c ****       b2_hff_state.xP[i][j] = 0.;
 325:subsystems/ins/hf_float.c ****     }
 326:subsystems/ins/hf_float.c ****     b2_hff_state.xP[i][i] = INIT_PXX;
 327:subsystems/ins/hf_float.c ****   }
 328:subsystems/ins/hf_float.c **** }
 329:subsystems/ins/hf_float.c **** 
 330:subsystems/ins/hf_float.c **** static void b2_hff_init_y(float init_y, float init_ydot)
 331:subsystems/ins/hf_float.c **** {
 332:subsystems/ins/hf_float.c ****   b2_hff_state.y     = init_y;
 333:subsystems/ins/hf_float.c ****   b2_hff_state.ydot  = init_ydot;
 334:subsystems/ins/hf_float.c ****   int i, j;
 335:subsystems/ins/hf_float.c ****   for (i = 0; i < HFF_STATE_SIZE; i++) {
 336:subsystems/ins/hf_float.c ****     for (j = 0; j < HFF_STATE_SIZE; j++) {
 337:subsystems/ins/hf_float.c ****       b2_hff_state.yP[i][j] = 0.;
 338:subsystems/ins/hf_float.c ****     }
 339:subsystems/ins/hf_float.c ****     b2_hff_state.yP[i][i] = INIT_PXX;
 340:subsystems/ins/hf_float.c ****   }
 341:subsystems/ins/hf_float.c **** }
 342:subsystems/ins/hf_float.c **** 
 343:subsystems/ins/hf_float.c **** #ifdef GPS_LAG
 344:subsystems/ins/hf_float.c **** static void b2_hff_store_accel_ltp(float x, float y)
 345:subsystems/ins/hf_float.c **** {
 346:subsystems/ins/hf_float.c ****   past_accel[acc_buf_w].x = x;
 347:subsystems/ins/hf_float.c ****   past_accel[acc_buf_w].y = y;
 348:subsystems/ins/hf_float.c ****   INC_ACC_IDX(acc_buf_w);
 349:subsystems/ins/hf_float.c **** 
 350:subsystems/ins/hf_float.c ****   if (acc_buf_n < ACC_BUF_MAXN) {
 351:subsystems/ins/hf_float.c ****     acc_buf_n++;
 352:subsystems/ins/hf_float.c ****   } else {
 353:subsystems/ins/hf_float.c ****     INC_ACC_IDX(acc_buf_r);
 354:subsystems/ins/hf_float.c ****   }
 355:subsystems/ins/hf_float.c **** }
 356:subsystems/ins/hf_float.c **** 
 357:subsystems/ins/hf_float.c **** /* get the accel values from back_n steps ago */
 358:subsystems/ins/hf_float.c **** static void b2_hff_get_past_accel(unsigned int back_n)
 359:subsystems/ins/hf_float.c **** {
 360:subsystems/ins/hf_float.c ****   int i;
 361:subsystems/ins/hf_float.c ****   if (back_n > acc_buf_n) {
 362:subsystems/ins/hf_float.c ****     PRINT_DBG(1, ("Cannot go back %d steps, going back only %d instead!\n", back_n, acc_buf_n));
 363:subsystems/ins/hf_float.c ****     back_n = acc_buf_n;
 364:subsystems/ins/hf_float.c ****   } else if (back_n == 0) {
 365:subsystems/ins/hf_float.c ****     PRINT_DBG(1, ("Cannot go back zero steps!\n"));
 366:subsystems/ins/hf_float.c ****     return;
 367:subsystems/ins/hf_float.c ****   }
 368:subsystems/ins/hf_float.c ****   if ((int)(acc_buf_w - back_n) < 0) {
 369:subsystems/ins/hf_float.c ****     i = acc_buf_w - back_n  + ACC_BUF_MAXN;
 370:subsystems/ins/hf_float.c ****   } else {
 371:subsystems/ins/hf_float.c ****     i = acc_buf_w - back_n;
 372:subsystems/ins/hf_float.c ****   }
 373:subsystems/ins/hf_float.c ****   b2_hff_xdd_meas = past_accel[i].x;
 374:subsystems/ins/hf_float.c ****   b2_hff_ydd_meas = past_accel[i].y;
 375:subsystems/ins/hf_float.c ****   PRINT_DBG(3, ("get past accel. buf_n: %2d \tbuf_w: %2d \tback_n: %2d \ti: %2d \txdd: %f \tydd: %f
 376:subsystems/ins/hf_float.c ****                 acc_buf_w, back_n, i, b2_hff_xdd_meas, b2_hff_ydd_meas));
 377:subsystems/ins/hf_float.c **** }
 378:subsystems/ins/hf_float.c **** 
 379:subsystems/ins/hf_float.c **** static void b2_hff_rb_put_state(struct HfilterFloat *source)
 380:subsystems/ins/hf_float.c **** {
 381:subsystems/ins/hf_float.c ****   /* copy state from source into buffer */
 382:subsystems/ins/hf_float.c ****   b2_hff_set_state(b2_hff_rb_put, source);
 383:subsystems/ins/hf_float.c ****   b2_hff_rb_put->lag_counter = 0;
 384:subsystems/ins/hf_float.c ****   b2_hff_rb_put->rollback = FALSE;
 385:subsystems/ins/hf_float.c **** 
 386:subsystems/ins/hf_float.c ****   /* forward write pointer */
 387:subsystems/ins/hf_float.c ****   INC_RB_POINTER(b2_hff_rb_put);
 388:subsystems/ins/hf_float.c **** 
 389:subsystems/ins/hf_float.c ****   /* increase fill count and forward last pointer if neccessary */
 390:subsystems/ins/hf_float.c ****   if (b2_hff_rb_n < HFF_RB_MAXN) {
 391:subsystems/ins/hf_float.c ****     b2_hff_rb_n++;
 392:subsystems/ins/hf_float.c ****   } else {
 393:subsystems/ins/hf_float.c ****     INC_RB_POINTER(b2_hff_rb_last);
 394:subsystems/ins/hf_float.c ****   }
 395:subsystems/ins/hf_float.c ****   PRINT_DBG(2, ("put state. fill count now: %d\n", b2_hff_rb_n));
 396:subsystems/ins/hf_float.c **** }
 397:subsystems/ins/hf_float.c **** 
 398:subsystems/ins/hf_float.c **** static void b2_hff_rb_drop_last(void)
 399:subsystems/ins/hf_float.c **** {
 400:subsystems/ins/hf_float.c ****   if (b2_hff_rb_n > 0) {
 401:subsystems/ins/hf_float.c ****     INC_RB_POINTER(b2_hff_rb_last);
 402:subsystems/ins/hf_float.c ****     b2_hff_rb_n--;
 403:subsystems/ins/hf_float.c ****   } else {
 404:subsystems/ins/hf_float.c ****     PRINT_DBG(2, ("hff ringbuffer empty!\n"));
 405:subsystems/ins/hf_float.c ****     b2_hff_rb_last->lag_counter = 0;
 406:subsystems/ins/hf_float.c ****     b2_hff_rb_last->rollback = FALSE;
 407:subsystems/ins/hf_float.c ****   }
 408:subsystems/ins/hf_float.c ****   PRINT_DBG(2, ("drop last state. fill count now: %d\n", b2_hff_rb_n));
 409:subsystems/ins/hf_float.c **** }
 410:subsystems/ins/hf_float.c **** 
 411:subsystems/ins/hf_float.c **** /* copy source state to dest state */
 412:subsystems/ins/hf_float.c **** static void b2_hff_set_state(struct HfilterFloat *dest, struct HfilterFloat *source)
 413:subsystems/ins/hf_float.c **** {
 414:subsystems/ins/hf_float.c ****   dest->x       = source->x;
 415:subsystems/ins/hf_float.c ****   dest->xdot    = source->xdot;
 416:subsystems/ins/hf_float.c ****   dest->xdotdot = source->xdotdot;
 417:subsystems/ins/hf_float.c ****   dest->y       = source->y;
 418:subsystems/ins/hf_float.c ****   dest->ydot    = source->ydot;
 419:subsystems/ins/hf_float.c ****   dest->ydotdot = source->ydotdot;
 420:subsystems/ins/hf_float.c ****   for (int i = 0; i < HFF_STATE_SIZE; i++) {
 421:subsystems/ins/hf_float.c ****     for (int j = 0; j < HFF_STATE_SIZE; j++) {
 422:subsystems/ins/hf_float.c ****       dest->xP[i][j] = source->xP[i][j];
 423:subsystems/ins/hf_float.c ****       dest->yP[i][j] = source->yP[i][j];
 424:subsystems/ins/hf_float.c ****     }
 425:subsystems/ins/hf_float.c ****   }
 426:subsystems/ins/hf_float.c **** }
 427:subsystems/ins/hf_float.c **** 
 428:subsystems/ins/hf_float.c **** static void b2_hff_propagate_past(struct HfilterFloat *hff_past)
 429:subsystems/ins/hf_float.c **** {
 430:subsystems/ins/hf_float.c ****   PRINT_DBG(1, ("enter propagate past: %d\n", hff_past->lag_counter));
 431:subsystems/ins/hf_float.c ****   /* run max MAX_PP_STEPS propagation steps */
 432:subsystems/ins/hf_float.c ****   for (int i = 0; i < MAX_PP_STEPS; i++) {
 433:subsystems/ins/hf_float.c ****     if (hff_past->lag_counter > 0) {
 434:subsystems/ins/hf_float.c ****       b2_hff_get_past_accel(hff_past->lag_counter);
 435:subsystems/ins/hf_float.c ****       PRINT_DBG(2, ("propagate past: %d\n", hff_past->lag_counter));
 436:subsystems/ins/hf_float.c ****       b2_hff_propagate_x(hff_past, DT_HFILTER);
 437:subsystems/ins/hf_float.c ****       b2_hff_propagate_y(hff_past, DT_HFILTER);
 438:subsystems/ins/hf_float.c ****       hff_past->lag_counter--;
 439:subsystems/ins/hf_float.c **** 
 440:subsystems/ins/hf_float.c ****       if (past_save_counter > 0) {
 441:subsystems/ins/hf_float.c ****         past_save_counter--;
 442:subsystems/ins/hf_float.c ****         PRINT_DBG(2, ("dec past_save_counter: %d\n", past_save_counter));
 443:subsystems/ins/hf_float.c ****       } else if (past_save_counter == SAVE_NOW) {
 444:subsystems/ins/hf_float.c ****         /* next GPS measurement valid at this state -> save */
 445:subsystems/ins/hf_float.c ****         PRINT_DBG(2, ("save past state\n"));
 446:subsystems/ins/hf_float.c ****         b2_hff_rb_put_state(hff_past);
 447:subsystems/ins/hf_float.c ****         past_save_counter = SAVING;
 448:subsystems/ins/hf_float.c ****       } else if (past_save_counter == SAVING) {
 449:subsystems/ins/hf_float.c ****         /* increase lag counter on if next state is already saved */
 450:subsystems/ins/hf_float.c ****         if (hff_past == &b2_hff_rb[HFF_RB_MAXN - 1]) {
 451:subsystems/ins/hf_float.c ****           b2_hff_rb[0].lag_counter++;
 452:subsystems/ins/hf_float.c ****         } else {
 453:subsystems/ins/hf_float.c ****           (hff_past + 1)->lag_counter++;
 454:subsystems/ins/hf_float.c ****         }
 455:subsystems/ins/hf_float.c ****       }
 456:subsystems/ins/hf_float.c ****     }
 457:subsystems/ins/hf_float.c **** 
 458:subsystems/ins/hf_float.c ****     /* finished re-propagating the past values */
 459:subsystems/ins/hf_float.c ****     if (hff_past->lag_counter == 0) {
 460:subsystems/ins/hf_float.c ****       b2_hff_set_state(&b2_hff_state, hff_past);
 461:subsystems/ins/hf_float.c ****       b2_hff_rb_drop_last();
 462:subsystems/ins/hf_float.c ****       past_save_counter = SAVE_DONE;
 463:subsystems/ins/hf_float.c ****       break;
 464:subsystems/ins/hf_float.c ****     }
 465:subsystems/ins/hf_float.c ****   }
 466:subsystems/ins/hf_float.c **** }
 467:subsystems/ins/hf_float.c **** #endif /* GPS_LAG */
 468:subsystems/ins/hf_float.c **** 
 469:subsystems/ins/hf_float.c **** 
 470:subsystems/ins/hf_float.c **** void b2_hff_propagate(void)
 471:subsystems/ins/hf_float.c **** {
 472:subsystems/ins/hf_float.c ****   if (b2_hff_lost_counter < b2_hff_lost_limit) {
 473:subsystems/ins/hf_float.c ****     b2_hff_lost_counter++;
 474:subsystems/ins/hf_float.c ****   }
 475:subsystems/ins/hf_float.c **** 
 476:subsystems/ins/hf_float.c **** #ifdef GPS_LAG
 477:subsystems/ins/hf_float.c ****   /* continue re-propagating to catch up with the present */
 478:subsystems/ins/hf_float.c ****   if (b2_hff_rb_last->rollback) {
 479:subsystems/ins/hf_float.c ****     b2_hff_propagate_past(b2_hff_rb_last);
 480:subsystems/ins/hf_float.c ****   }
 481:subsystems/ins/hf_float.c **** #endif
 482:subsystems/ins/hf_float.c **** 
 483:subsystems/ins/hf_float.c ****   /* rotate imu accel measurement to body frame and filter */
 484:subsystems/ins/hf_float.c ****   struct Int32Vect3 acc_meas_body;
 485:subsystems/ins/hf_float.c ****   struct Int32RMat *body_to_imu_rmat = orientationGetRMat_i(&imu.body_to_imu);
 486:subsystems/ins/hf_float.c ****   int32_rmat_transp_vmult(&acc_meas_body, body_to_imu_rmat, &imu.accel);
 487:subsystems/ins/hf_float.c **** 
 488:subsystems/ins/hf_float.c ****   struct Int32Vect3 acc_body_filtered;
 489:subsystems/ins/hf_float.c ****   acc_body_filtered.x = update_butterworth_2_low_pass_int(&filter_x, acc_meas_body.x);
 490:subsystems/ins/hf_float.c ****   acc_body_filtered.y = update_butterworth_2_low_pass_int(&filter_y, acc_meas_body.y);
 491:subsystems/ins/hf_float.c ****   acc_body_filtered.z = update_butterworth_2_low_pass_int(&filter_z, acc_meas_body.z);
 492:subsystems/ins/hf_float.c **** 
 493:subsystems/ins/hf_float.c ****   /* propagate current state if it is time */
 494:subsystems/ins/hf_float.c ****   if (b2_hff_ps_counter == HFF_PRESCALER) {
 495:subsystems/ins/hf_float.c ****     b2_hff_ps_counter = 1;
 496:subsystems/ins/hf_float.c ****     if (b2_hff_lost_counter < b2_hff_lost_limit) {
 497:subsystems/ins/hf_float.c ****       struct Int32Vect3 filtered_accel_ltp;
 498:subsystems/ins/hf_float.c ****       struct Int32RMat *ltp_to_body_rmat = stateGetNedToBodyRMat_i();
 499:subsystems/ins/hf_float.c ****       int32_rmat_transp_vmult(&filtered_accel_ltp, ltp_to_body_rmat, &acc_body_filtered);
 500:subsystems/ins/hf_float.c ****       b2_hff_xdd_meas = ACCEL_FLOAT_OF_BFP(filtered_accel_ltp.x);
 501:subsystems/ins/hf_float.c ****       b2_hff_ydd_meas = ACCEL_FLOAT_OF_BFP(filtered_accel_ltp.y);
 502:subsystems/ins/hf_float.c **** #ifdef GPS_LAG
 503:subsystems/ins/hf_float.c ****       b2_hff_store_accel_ltp(b2_hff_xdd_meas, b2_hff_ydd_meas);
 504:subsystems/ins/hf_float.c **** #endif
 505:subsystems/ins/hf_float.c ****       /*
 506:subsystems/ins/hf_float.c ****        * propagate current state
 507:subsystems/ins/hf_float.c ****        */
 508:subsystems/ins/hf_float.c ****       b2_hff_propagate_x(&b2_hff_state, DT_HFILTER);
 509:subsystems/ins/hf_float.c ****       b2_hff_propagate_y(&b2_hff_state, DT_HFILTER);
 510:subsystems/ins/hf_float.c **** 
 511:subsystems/ins/hf_float.c **** #ifdef GPS_LAG
 512:subsystems/ins/hf_float.c ****       /* increase lag counter on last saved state */
 513:subsystems/ins/hf_float.c ****       if (b2_hff_rb_n > 0) {
 514:subsystems/ins/hf_float.c ****         b2_hff_rb_last->lag_counter++;
 515:subsystems/ins/hf_float.c ****       }
 516:subsystems/ins/hf_float.c **** 
 517:subsystems/ins/hf_float.c ****       /* save filter state if needed */
 518:subsystems/ins/hf_float.c ****       if (save_counter == 0) {
 519:subsystems/ins/hf_float.c ****         PRINT_DBG(1, ("save current state\n"));
 520:subsystems/ins/hf_float.c ****         b2_hff_rb_put_state(&b2_hff_state);
 521:subsystems/ins/hf_float.c ****         save_counter = -1;
 522:subsystems/ins/hf_float.c ****       } else if (save_counter > 0) {
 523:subsystems/ins/hf_float.c ****         save_counter--;
 524:subsystems/ins/hf_float.c ****       }
 525:subsystems/ins/hf_float.c **** #endif
 526:subsystems/ins/hf_float.c ****     }
 527:subsystems/ins/hf_float.c ****   } else {
 528:subsystems/ins/hf_float.c ****     b2_hff_ps_counter++;
 529:subsystems/ins/hf_float.c ****   }
 530:subsystems/ins/hf_float.c **** }
 531:subsystems/ins/hf_float.c **** 
 532:subsystems/ins/hf_float.c **** void b2_hff_update_gps(struct FloatVect2 *pos_ned, struct FloatVect2 *speed_ned)
 533:subsystems/ins/hf_float.c **** {
 534:subsystems/ins/hf_float.c ****   b2_hff_lost_counter = 0;
 535:subsystems/ins/hf_float.c **** 
 536:subsystems/ins/hf_float.c **** #if USE_GPS_ACC4R
 537:subsystems/ins/hf_float.c ****   Rgps_pos = (float) gps.pacc / 100.;
 538:subsystems/ins/hf_float.c ****   if (Rgps_pos < HFF_R_POS_MIN) {
 539:subsystems/ins/hf_float.c ****     Rgps_pos = HFF_R_POS_MIN;
 540:subsystems/ins/hf_float.c ****   }
 541:subsystems/ins/hf_float.c **** 
 542:subsystems/ins/hf_float.c ****   Rgps_vel = (float) gps.sacc / 100.;
 543:subsystems/ins/hf_float.c ****   if (Rgps_vel < HFF_R_SPEED_MIN) {
 544:subsystems/ins/hf_float.c ****     Rgps_vel = HFF_R_SPEED_MIN;
 545:subsystems/ins/hf_float.c ****   }
 546:subsystems/ins/hf_float.c **** #endif
 547:subsystems/ins/hf_float.c **** 
 548:subsystems/ins/hf_float.c **** #ifdef GPS_LAG
 549:subsystems/ins/hf_float.c ****   if (GPS_LAG_N == 0) {
 550:subsystems/ins/hf_float.c **** #endif
 551:subsystems/ins/hf_float.c **** 
 552:subsystems/ins/hf_float.c ****     /* update filter state with measurement */
 553:subsystems/ins/hf_float.c ****     b2_hff_update_x(&b2_hff_state, pos_ned->x, Rgps_pos);
 554:subsystems/ins/hf_float.c ****     b2_hff_update_y(&b2_hff_state, pos_ned->y, Rgps_pos);
 555:subsystems/ins/hf_float.c **** #if HFF_UPDATE_SPEED
 556:subsystems/ins/hf_float.c ****     b2_hff_update_xdot(&b2_hff_state, speed_ned->x, Rgps_vel);
 557:subsystems/ins/hf_float.c ****     b2_hff_update_ydot(&b2_hff_state, speed_ned->y, Rgps_vel);
 558:subsystems/ins/hf_float.c **** #endif
 559:subsystems/ins/hf_float.c **** 
 560:subsystems/ins/hf_float.c **** 
 561:subsystems/ins/hf_float.c **** #ifdef GPS_LAG
 562:subsystems/ins/hf_float.c ****   } else if (b2_hff_rb_n > 0) {
 563:subsystems/ins/hf_float.c ****     /* roll back if state was saved approx when GPS was valid */
 564:subsystems/ins/hf_float.c ****     lag_counter_err = b2_hff_rb_last->lag_counter - GPS_LAG_N;
 565:subsystems/ins/hf_float.c ****     PRINT_DBG(2, ("update. rb_n: %d  lag_counter: %d  lag_cnt_err: %d\n", b2_hff_rb_n, b2_hff_rb_la
 566:subsystems/ins/hf_float.c ****                   lag_counter_err));
 567:subsystems/ins/hf_float.c ****     if (abs(lag_counter_err) <= GPS_LAG_TOL_N) {
 568:subsystems/ins/hf_float.c ****       b2_hff_rb_last->rollback = TRUE;
 569:subsystems/ins/hf_float.c ****       b2_hff_update_x(b2_hff_rb_last, pos_ned->x, Rgps_pos);
 570:subsystems/ins/hf_float.c ****       b2_hff_update_y(b2_hff_rb_last, pos_ned->y, Rgps_pos);
 571:subsystems/ins/hf_float.c **** #if HFF_UPDATE_SPEED
 572:subsystems/ins/hf_float.c ****       b2_hff_update_xdot(b2_hff_rb_last, speed_ned->x, Rgps_vel);
 573:subsystems/ins/hf_float.c ****       b2_hff_update_ydot(b2_hff_rb_last, speed_ned->y, Rgps_vel);
 574:subsystems/ins/hf_float.c **** #endif
 575:subsystems/ins/hf_float.c ****       past_save_counter = GPS_DT_N - 1; // + lag_counter_err;
 576:subsystems/ins/hf_float.c ****       PRINT_DBG(2, ("gps updated. past_save_counter: %d\n", past_save_counter));
 577:subsystems/ins/hf_float.c ****       b2_hff_propagate_past(b2_hff_rb_last);
 578:subsystems/ins/hf_float.c ****     } else if (lag_counter_err >= GPS_DT_N - (GPS_LAG_TOL_N + 1)) {
 579:subsystems/ins/hf_float.c ****       /* apparently missed a GPS update, try next saved state */
 580:subsystems/ins/hf_float.c ****       PRINT_DBG(2, ("try next saved state\n"));
 581:subsystems/ins/hf_float.c ****       b2_hff_rb_drop_last();
 582:subsystems/ins/hf_float.c ****       b2_hff_update_gps(pos_ned, speed_ned);
 583:subsystems/ins/hf_float.c ****     }
 584:subsystems/ins/hf_float.c ****   } else if (save_counter < 0) {
 585:subsystems/ins/hf_float.c ****     /* ringbuffer empty -> save output filter state at next GPS validity point in time */
 586:subsystems/ins/hf_float.c ****     save_counter = GPS_DT_N - 1 - (GPS_LAG_N % GPS_DT_N);
 587:subsystems/ins/hf_float.c ****     PRINT_DBG(2, ("rb empty, save counter set: %d\n", save_counter));
 588:subsystems/ins/hf_float.c ****   }
 589:subsystems/ins/hf_float.c **** 
 590:subsystems/ins/hf_float.c **** #endif /* GPS_LAG */
 591:subsystems/ins/hf_float.c **** }
 592:subsystems/ins/hf_float.c **** 
 593:subsystems/ins/hf_float.c **** 
 594:subsystems/ins/hf_float.c **** void b2_hff_realign(struct FloatVect2 pos, struct FloatVect2 vel)
 595:subsystems/ins/hf_float.c **** {
 596:subsystems/ins/hf_float.c ****   b2_hff_state.x = pos.x;
 597:subsystems/ins/hf_float.c ****   b2_hff_state.y = pos.y;
 598:subsystems/ins/hf_float.c ****   b2_hff_state.xdot = vel.x;
 599:subsystems/ins/hf_float.c ****   b2_hff_state.ydot = vel.y;
 600:subsystems/ins/hf_float.c **** #ifdef GPS_LAG
 601:subsystems/ins/hf_float.c ****   while (b2_hff_rb_n > 0) {
 602:subsystems/ins/hf_float.c ****     b2_hff_rb_drop_last();
 603:subsystems/ins/hf_float.c ****   }
 604:subsystems/ins/hf_float.c ****   save_counter = -1;
 605:subsystems/ins/hf_float.c ****   past_save_counter = SAVE_DONE;
 606:subsystems/ins/hf_float.c **** #endif
 607:subsystems/ins/hf_float.c **** }
 608:subsystems/ins/hf_float.c **** 
 609:subsystems/ins/hf_float.c **** 
 610:subsystems/ins/hf_float.c **** /*
 611:subsystems/ins/hf_float.c ****  *
 612:subsystems/ins/hf_float.c ****  * Propagation
 613:subsystems/ins/hf_float.c ****  *
 614:subsystems/ins/hf_float.c ****  *
 615:subsystems/ins/hf_float.c **** 
 616:subsystems/ins/hf_float.c ****  F = [ 1 dt
 617:subsystems/ins/hf_float.c ****  0  1 ];
 618:subsystems/ins/hf_float.c **** 
 619:subsystems/ins/hf_float.c ****  B = [ dt^2/2 dt]';
 620:subsystems/ins/hf_float.c **** 
 621:subsystems/ins/hf_float.c ****  Q = [ 0.01  0
 622:subsystems/ins/hf_float.c ****  0     0.01];
 623:subsystems/ins/hf_float.c **** 
 624:subsystems/ins/hf_float.c ****  Xk1 = F * Xk0 + B * accel;
 625:subsystems/ins/hf_float.c **** 
 626:subsystems/ins/hf_float.c ****  Pk1 = F * Pk0 * F' + Q;
 627:subsystems/ins/hf_float.c **** 
 628:subsystems/ins/hf_float.c **** */
 629:subsystems/ins/hf_float.c **** static void b2_hff_propagate_x(struct HfilterFloat *hff_work, float dt)
 630:subsystems/ins/hf_float.c **** {
 631:subsystems/ins/hf_float.c ****   /* update state */
 632:subsystems/ins/hf_float.c ****   hff_work->xdotdot = b2_hff_xdd_meas;
 633:subsystems/ins/hf_float.c ****   hff_work->x = hff_work->x + dt * hff_work->xdot + dt * dt / 2 * hff_work->xdotdot;
 634:subsystems/ins/hf_float.c ****   hff_work->xdot = hff_work->xdot + dt * hff_work->xdotdot;
 635:subsystems/ins/hf_float.c ****   /* update covariance */
 636:subsystems/ins/hf_float.c ****   const float FPF00 = hff_work->xP[0][0] + dt * (hff_work->xP[1][0] + hff_work->xP[0][1] + dt * hff
 637:subsystems/ins/hf_float.c ****   const float FPF01 = hff_work->xP[0][1] + dt * hff_work->xP[1][1];
 638:subsystems/ins/hf_float.c ****   const float FPF10 = hff_work->xP[1][0] + dt * hff_work->xP[1][1];
 639:subsystems/ins/hf_float.c ****   const float FPF11 = hff_work->xP[1][1];
 640:subsystems/ins/hf_float.c **** 
 641:subsystems/ins/hf_float.c ****   hff_work->xP[0][0] = FPF00 + Q;
 642:subsystems/ins/hf_float.c ****   hff_work->xP[0][1] = FPF01;
 643:subsystems/ins/hf_float.c ****   hff_work->xP[1][0] = FPF10;
 644:subsystems/ins/hf_float.c ****   hff_work->xP[1][1] = FPF11 + Qdotdot;
 645:subsystems/ins/hf_float.c **** }
 646:subsystems/ins/hf_float.c **** 
 647:subsystems/ins/hf_float.c **** static void b2_hff_propagate_y(struct HfilterFloat *hff_work, float dt)
 648:subsystems/ins/hf_float.c **** {
 649:subsystems/ins/hf_float.c ****   /* update state */
 650:subsystems/ins/hf_float.c ****   hff_work->ydotdot = b2_hff_ydd_meas;
 651:subsystems/ins/hf_float.c ****   hff_work->y = hff_work->y + dt * hff_work->ydot + dt * dt / 2 * hff_work->ydotdot;
 652:subsystems/ins/hf_float.c ****   hff_work->ydot = hff_work->ydot + dt * hff_work->ydotdot;
 653:subsystems/ins/hf_float.c ****   /* update covariance */
 654:subsystems/ins/hf_float.c ****   const float FPF00 = hff_work->yP[0][0] + dt * (hff_work->yP[1][0] + hff_work->yP[0][1] + dt * hff
 655:subsystems/ins/hf_float.c ****   const float FPF01 = hff_work->yP[0][1] + dt * hff_work->yP[1][1];
 656:subsystems/ins/hf_float.c ****   const float FPF10 = hff_work->yP[1][0] + dt * hff_work->yP[1][1];
 657:subsystems/ins/hf_float.c ****   const float FPF11 = hff_work->yP[1][1];
 658:subsystems/ins/hf_float.c **** 
 659:subsystems/ins/hf_float.c ****   hff_work->yP[0][0] = FPF00 + Q;
 660:subsystems/ins/hf_float.c ****   hff_work->yP[0][1] = FPF01;
 661:subsystems/ins/hf_float.c ****   hff_work->yP[1][0] = FPF10;
 662:subsystems/ins/hf_float.c ****   hff_work->yP[1][1] = FPF11 + Qdotdot;
 663:subsystems/ins/hf_float.c **** }
 664:subsystems/ins/hf_float.c **** 
 665:subsystems/ins/hf_float.c **** 
 666:subsystems/ins/hf_float.c **** /*
 667:subsystems/ins/hf_float.c ****  *
 668:subsystems/ins/hf_float.c ****  * Update position
 669:subsystems/ins/hf_float.c ****  *
 670:subsystems/ins/hf_float.c ****  *
 671:subsystems/ins/hf_float.c **** 
 672:subsystems/ins/hf_float.c ****  H = [1 0];
 673:subsystems/ins/hf_float.c ****  R = 0.1;
 674:subsystems/ins/hf_float.c ****  // state residual
 675:subsystems/ins/hf_float.c ****  y = pos_measurement - H * Xm;
 676:subsystems/ins/hf_float.c ****  // covariance residual
 677:subsystems/ins/hf_float.c ****  S = H*Pm*H' + R;
 678:subsystems/ins/hf_float.c ****  // kalman gain
 679:subsystems/ins/hf_float.c ****  K = Pm*H'*inv(S);
 680:subsystems/ins/hf_float.c ****  // update state
 681:subsystems/ins/hf_float.c ****  Xp = Xm + K*y;
 682:subsystems/ins/hf_float.c ****  // update covariance
 683:subsystems/ins/hf_float.c ****  Pp = Pm - K*H*Pm;
 684:subsystems/ins/hf_float.c **** */
 685:subsystems/ins/hf_float.c **** void b2_hff_update_pos(struct FloatVect2 pos, struct FloatVect2 Rpos)
 686:subsystems/ins/hf_float.c **** {
 687:subsystems/ins/hf_float.c ****   b2_hff_update_x(&b2_hff_state, pos.x, Rpos.x);
 688:subsystems/ins/hf_float.c ****   b2_hff_update_y(&b2_hff_state, pos.y, Rpos.y);
 689:subsystems/ins/hf_float.c **** }
 690:subsystems/ins/hf_float.c **** 
 691:subsystems/ins/hf_float.c **** static void b2_hff_update_x(struct HfilterFloat *hff_work, float x_meas, float Rpos)
  97              		.loc 2 691 0
  98              		.cfi_startproc
  99              		@ args = 0, pretend = 0, frame = 0
 100              		@ frame_needed = 0, uses_anonymous_args = 0
 101              	.LVL5:
 102 0000 70B5     		push	{r4, r5, r6, lr}
 103              		.cfi_def_cfa_offset 16
 104              		.cfi_offset 4, -16
 105              		.cfi_offset 5, -12
 106              		.cfi_offset 6, -8
 107              		.cfi_offset 14, -4
 692:subsystems/ins/hf_float.c **** {
 693:subsystems/ins/hf_float.c ****   b2_hff_x_meas = x_meas;
 694:subsystems/ins/hf_float.c **** 
 695:subsystems/ins/hf_float.c ****   const float y  = x_meas - hff_work->x;
 108              		.loc 2 695 0
 109 0002 2A4E     		ldr	r6, .L3
 693:subsystems/ins/hf_float.c ****   b2_hff_x_meas = x_meas;
 110              		.loc 2 693 0
 111 0004 2A4B     		ldr	r3, .L3+4
 112              		.loc 2 695 0
 113 0006 D6ED007A 		flds	s15, [r6]
 691:subsystems/ins/hf_float.c **** static void b2_hff_update_x(struct HfilterFloat *hff_work, float x_meas, float Rpos)
 114              		.loc 2 691 0
 115 000a 2DED068B 		fstmfdd	sp!, {d8, d9, d10}
 116              		.cfi_def_cfa_offset 40
 117              		.cfi_offset 80, -40
 118              		.cfi_offset 82, -32
 119              		.cfi_offset 84, -24
 696:subsystems/ins/hf_float.c ****   const float S  = hff_work->xP[0][0] + Rpos;
 120              		.loc 2 696 0
 121 000e 96ED068A 		flds	s16, [r6, #24]
 697:subsystems/ins/hf_float.c ****   const float K1 = hff_work->xP[0][0] * 1 / S;
 698:subsystems/ins/hf_float.c ****   const float K2 = hff_work->xP[1][0] * 1 / S;
 122              		.loc 2 698 0
 123 0012 96ED089A 		flds	s18, [r6, #32]
 693:subsystems/ins/hf_float.c ****   b2_hff_x_meas = x_meas;
 124              		.loc 2 693 0
 125 0016 83ED000A 		fsts	s0, [r3]
 696:subsystems/ins/hf_float.c ****   const float S  = hff_work->xP[0][0] + Rpos;
 126              		.loc 2 696 0
 127 001a 78EE200A 		fadds	s1, s16, s1
 128              	.LVL6:
 695:subsystems/ins/hf_float.c ****   const float y  = x_meas - hff_work->x;
 129              		.loc 2 695 0
 130 001e 30EE670A 		fsubs	s0, s0, s15
 131              	.LVL7:
 697:subsystems/ins/hf_float.c ****   const float K1 = hff_work->xP[0][0] * 1 / S;
 132              		.loc 2 697 0
 133 0022 88EE207A 		fdivs	s14, s16, s1
 134              	.LVL8:
 135              		.loc 2 698 0
 136 0026 C9EE209A 		fdivs	s19, s18, s1
 137              	.LVL9:
 699:subsystems/ins/hf_float.c **** 
 700:subsystems/ins/hf_float.c ****   hff_work->x     = hff_work->x     + K1 * y;
 138              		.loc 2 700 0
 139 002a E7EE007A 		vfma.f32	s15, s14, s0
 701:subsystems/ins/hf_float.c ****   hff_work->xdot  = hff_work->xdot  + K2 * y;
 702:subsystems/ins/hf_float.c **** 
 703:subsystems/ins/hf_float.c ****   const float P11 = (1. - K1) * hff_work->xP[0][0];
 140              		.loc 2 703 0
 141 002e 17EE100A 		fmrs	r0, s14
 700:subsystems/ins/hf_float.c ****   hff_work->x     = hff_work->x     + K1 * y;
 142              		.loc 2 700 0
 143 0032 C6ED007A 		fsts	s15, [r6]
 701:subsystems/ins/hf_float.c ****   hff_work->xdot  = hff_work->xdot  + K2 * y;
 144              		.loc 2 701 0
 145 0036 D6ED017A 		flds	s15, [r6, #4]
 146 003a E9EE807A 		vfma.f32	s15, s19, s0
 704:subsystems/ins/hf_float.c ****   const float P12 = (1. - K1) * hff_work->xP[0][1];
 705:subsystems/ins/hf_float.c ****   const float P21 = -K2 * hff_work->xP[0][0] + hff_work->xP[1][0];
 147              		.loc 2 705 0
 148 003e F1EE699A 		fnegs	s19, s19
 149              	.LVL10:
 701:subsystems/ins/hf_float.c ****   hff_work->xdot  = hff_work->xdot  + K2 * y;
 150              		.loc 2 701 0
 151 0042 C6ED017A 		fsts	s15, [r6, #4]
 703:subsystems/ins/hf_float.c ****   const float P11 = (1. - K1) * hff_work->xP[0][0];
 152              		.loc 2 703 0
 153 0046 FFF7FEFF 		bl	__aeabi_f2d
 154              	.LVL11:
 155 004a 0246     		mov	r2, r0
 156 004c 0B46     		mov	r3, r1
 157 004e 0020     		movs	r0, #0
 158 0050 1849     		ldr	r1, .L3+8
 159 0052 FFF7FEFF 		bl	__aeabi_dsub
 160              	.LVL12:
 161 0056 0446     		mov	r4, r0
 162 0058 18EE100A 		fmrs	r0, s16
 163 005c 0D46     		mov	r5, r1
 164              	.LVL13:
 165 005e FFF7FEFF 		bl	__aeabi_f2d
 166              	.LVL14:
 167 0062 0246     		mov	r2, r0
 168 0064 0B46     		mov	r3, r1
 169 0066 2046     		mov	r0, r4
 170 0068 2946     		mov	r1, r5
 171 006a FFF7FEFF 		bl	__aeabi_dmul
 172              	.LVL15:
 173 006e FFF7FEFF 		bl	__aeabi_d2f
 174              	.LVL16:
 704:subsystems/ins/hf_float.c ****   const float P12 = (1. - K1) * hff_work->xP[0][1];
 175              		.loc 2 704 0
 176 0072 96ED07AA 		flds	s20, [r6, #28]
 177              	.LVL17:
 706:subsystems/ins/hf_float.c ****   const float P22 = -K2 * hff_work->xP[0][1] + hff_work->xP[1][1];
 178              		.loc 2 706 0
 179 0076 D6ED098A 		flds	s17, [r6, #36]
 703:subsystems/ins/hf_float.c ****   const float P11 = (1. - K1) * hff_work->xP[0][0];
 180              		.loc 2 703 0
 181 007a B061     		str	r0, [r6, #24]	@ float
 704:subsystems/ins/hf_float.c ****   const float P12 = (1. - K1) * hff_work->xP[0][1];
 182              		.loc 2 704 0
 183 007c 1AEE100A 		fmrs	r0, s20
 184 0080 FFF7FEFF 		bl	__aeabi_f2d
 185              	.LVL18:
 186              		.loc 2 706 0
 187 0084 E9EE8A8A 		vfma.f32	s17, s19, s20
 188              	.LVL19:
 704:subsystems/ins/hf_float.c ****   const float P12 = (1. - K1) * hff_work->xP[0][1];
 189              		.loc 2 704 0
 190 0088 0246     		mov	r2, r0
 191 008a 0B46     		mov	r3, r1
 705:subsystems/ins/hf_float.c ****   const float P21 = -K2 * hff_work->xP[0][0] + hff_work->xP[1][0];
 192              		.loc 2 705 0
 193 008c A9EE889A 		vfma.f32	s18, s19, s16
 194              	.LVL20:
 704:subsystems/ins/hf_float.c ****   const float P12 = (1. - K1) * hff_work->xP[0][1];
 195              		.loc 2 704 0
 196 0090 2046     		mov	r0, r4
 197 0092 2946     		mov	r1, r5
 198 0094 FFF7FEFF 		bl	__aeabi_dmul
 199              	.LVL21:
 200 0098 FFF7FEFF 		bl	__aeabi_d2f
 201              	.LVL22:
 707:subsystems/ins/hf_float.c **** 
 708:subsystems/ins/hf_float.c ****   hff_work->xP[0][0] = P11;
 709:subsystems/ins/hf_float.c ****   hff_work->xP[0][1] = P12;
 710:subsystems/ins/hf_float.c ****   hff_work->xP[1][0] = P21;
 202              		.loc 2 710 0
 203 009c 86ED089A 		fsts	s18, [r6, #32]
 711:subsystems/ins/hf_float.c ****   hff_work->xP[1][1] = P22;
 204              		.loc 2 711 0
 205 00a0 C6ED098A 		fsts	s17, [r6, #36]
 712:subsystems/ins/hf_float.c **** }
 206              		.loc 2 712 0
 207 00a4 BDEC068B 		fldmfdd	sp!, {d8-d10}
 208              	.LVL23:
 704:subsystems/ins/hf_float.c ****   const float P12 = (1. - K1) * hff_work->xP[0][1];
 209              		.loc 2 704 0
 210 00a8 F061     		str	r0, [r6, #28]	@ float
 211              		.loc 2 712 0
 212 00aa 70BD     		pop	{r4, r5, r6, pc}
 213              	.LVL24:
 214              	.L4:
 215              		.align	2
 216              	.L3:
 217 00ac 00000000 		.word	.LANCHOR1
 218 00b0 00000000 		.word	.LANCHOR0
 219 00b4 0000F03F 		.word	1072693248
 220              		.cfi_endproc
 221              	.LFE507:
 223              		.section	.text.b2_hff_update_y.constprop.1,"ax",%progbits
 224              		.align	1
 225              		.thumb
 226              		.thumb_func
 228              	b2_hff_update_y.constprop.1:
 229              	.LFB506:
 713:subsystems/ins/hf_float.c **** 
 714:subsystems/ins/hf_float.c **** static void b2_hff_update_y(struct HfilterFloat *hff_work, float y_meas, float Rpos)
 230              		.loc 2 714 0
 231              		.cfi_startproc
 232              		@ args = 0, pretend = 0, frame = 0
 233              		@ frame_needed = 0, uses_anonymous_args = 0
 234              	.LVL25:
 235 0000 70B5     		push	{r4, r5, r6, lr}
 236              		.cfi_def_cfa_offset 16
 237              		.cfi_offset 4, -16
 238              		.cfi_offset 5, -12
 239              		.cfi_offset 6, -8
 240              		.cfi_offset 14, -4
 715:subsystems/ins/hf_float.c **** {
 716:subsystems/ins/hf_float.c ****   b2_hff_y_meas = y_meas;
 717:subsystems/ins/hf_float.c **** 
 718:subsystems/ins/hf_float.c ****   const float y  = y_meas - hff_work->y;
 241              		.loc 2 718 0
 242 0002 2A4E     		ldr	r6, .L6
 716:subsystems/ins/hf_float.c ****   b2_hff_y_meas = y_meas;
 243              		.loc 2 716 0
 244 0004 2A4B     		ldr	r3, .L6+4
 245              		.loc 2 718 0
 246 0006 D6ED037A 		flds	s15, [r6, #12]
 714:subsystems/ins/hf_float.c **** static void b2_hff_update_y(struct HfilterFloat *hff_work, float y_meas, float Rpos)
 247              		.loc 2 714 0
 248 000a 2DED068B 		fstmfdd	sp!, {d8, d9, d10}
 249              		.cfi_def_cfa_offset 40
 250              		.cfi_offset 80, -40
 251              		.cfi_offset 82, -32
 252              		.cfi_offset 84, -24
 719:subsystems/ins/hf_float.c ****   const float S  = hff_work->yP[0][0] + Rpos;
 253              		.loc 2 719 0
 254 000e 96ED0A8A 		flds	s16, [r6, #40]
 720:subsystems/ins/hf_float.c ****   const float K1 = hff_work->yP[0][0] * 1 / S;
 721:subsystems/ins/hf_float.c ****   const float K2 = hff_work->yP[1][0] * 1 / S;
 255              		.loc 2 721 0
 256 0012 96ED0C9A 		flds	s18, [r6, #48]
 716:subsystems/ins/hf_float.c ****   b2_hff_y_meas = y_meas;
 257              		.loc 2 716 0
 258 0016 83ED000A 		fsts	s0, [r3]
 719:subsystems/ins/hf_float.c ****   const float S  = hff_work->yP[0][0] + Rpos;
 259              		.loc 2 719 0
 260 001a 78EE200A 		fadds	s1, s16, s1
 261              	.LVL26:
 718:subsystems/ins/hf_float.c ****   const float y  = y_meas - hff_work->y;
 262              		.loc 2 718 0
 263 001e 30EE670A 		fsubs	s0, s0, s15
 264              	.LVL27:
 720:subsystems/ins/hf_float.c ****   const float K1 = hff_work->yP[0][0] * 1 / S;
 265              		.loc 2 720 0
 266 0022 88EE207A 		fdivs	s14, s16, s1
 267              	.LVL28:
 268              		.loc 2 721 0
 269 0026 C9EE209A 		fdivs	s19, s18, s1
 270              	.LVL29:
 722:subsystems/ins/hf_float.c **** 
 723:subsystems/ins/hf_float.c ****   hff_work->y     = hff_work->y     + K1 * y;
 271              		.loc 2 723 0
 272 002a E7EE007A 		vfma.f32	s15, s14, s0
 724:subsystems/ins/hf_float.c ****   hff_work->ydot  = hff_work->ydot  + K2 * y;
 725:subsystems/ins/hf_float.c **** 
 726:subsystems/ins/hf_float.c ****   const float P11 = (1. - K1) * hff_work->yP[0][0];
 273              		.loc 2 726 0
 274 002e 17EE100A 		fmrs	r0, s14
 723:subsystems/ins/hf_float.c ****   hff_work->y     = hff_work->y     + K1 * y;
 275              		.loc 2 723 0
 276 0032 C6ED037A 		fsts	s15, [r6, #12]
 724:subsystems/ins/hf_float.c ****   hff_work->ydot  = hff_work->ydot  + K2 * y;
 277              		.loc 2 724 0
 278 0036 D6ED047A 		flds	s15, [r6, #16]
 279 003a E9EE807A 		vfma.f32	s15, s19, s0
 727:subsystems/ins/hf_float.c ****   const float P12 = (1. - K1) * hff_work->yP[0][1];
 728:subsystems/ins/hf_float.c ****   const float P21 = -K2 * hff_work->yP[0][0] + hff_work->yP[1][0];
 280              		.loc 2 728 0
 281 003e F1EE699A 		fnegs	s19, s19
 282              	.LVL30:
 724:subsystems/ins/hf_float.c ****   hff_work->ydot  = hff_work->ydot  + K2 * y;
 283              		.loc 2 724 0
 284 0042 C6ED047A 		fsts	s15, [r6, #16]
 726:subsystems/ins/hf_float.c ****   const float P11 = (1. - K1) * hff_work->yP[0][0];
 285              		.loc 2 726 0
 286 0046 FFF7FEFF 		bl	__aeabi_f2d
 287              	.LVL31:
 288 004a 0246     		mov	r2, r0
 289 004c 0B46     		mov	r3, r1
 290 004e 0020     		movs	r0, #0
 291 0050 1849     		ldr	r1, .L6+8
 292 0052 FFF7FEFF 		bl	__aeabi_dsub
 293              	.LVL32:
 294 0056 0446     		mov	r4, r0
 295 0058 18EE100A 		fmrs	r0, s16
 296 005c 0D46     		mov	r5, r1
 297              	.LVL33:
 298 005e FFF7FEFF 		bl	__aeabi_f2d
 299              	.LVL34:
 300 0062 0246     		mov	r2, r0
 301 0064 0B46     		mov	r3, r1
 302 0066 2046     		mov	r0, r4
 303 0068 2946     		mov	r1, r5
 304 006a FFF7FEFF 		bl	__aeabi_dmul
 305              	.LVL35:
 306 006e FFF7FEFF 		bl	__aeabi_d2f
 307              	.LVL36:
 727:subsystems/ins/hf_float.c ****   const float P12 = (1. - K1) * hff_work->yP[0][1];
 308              		.loc 2 727 0
 309 0072 96ED0BAA 		flds	s20, [r6, #44]
 310              	.LVL37:
 729:subsystems/ins/hf_float.c ****   const float P22 = -K2 * hff_work->yP[0][1] + hff_work->yP[1][1];
 311              		.loc 2 729 0
 312 0076 D6ED0D8A 		flds	s17, [r6, #52]
 726:subsystems/ins/hf_float.c ****   const float P11 = (1. - K1) * hff_work->yP[0][0];
 313              		.loc 2 726 0
 314 007a B062     		str	r0, [r6, #40]	@ float
 727:subsystems/ins/hf_float.c ****   const float P12 = (1. - K1) * hff_work->yP[0][1];
 315              		.loc 2 727 0
 316 007c 1AEE100A 		fmrs	r0, s20
 317 0080 FFF7FEFF 		bl	__aeabi_f2d
 318              	.LVL38:
 319              		.loc 2 729 0
 320 0084 E9EE8A8A 		vfma.f32	s17, s19, s20
 321              	.LVL39:
 727:subsystems/ins/hf_float.c ****   const float P12 = (1. - K1) * hff_work->yP[0][1];
 322              		.loc 2 727 0
 323 0088 0246     		mov	r2, r0
 324 008a 0B46     		mov	r3, r1
 728:subsystems/ins/hf_float.c ****   const float P21 = -K2 * hff_work->yP[0][0] + hff_work->yP[1][0];
 325              		.loc 2 728 0
 326 008c A9EE889A 		vfma.f32	s18, s19, s16
 327              	.LVL40:
 727:subsystems/ins/hf_float.c ****   const float P12 = (1. - K1) * hff_work->yP[0][1];
 328              		.loc 2 727 0
 329 0090 2046     		mov	r0, r4
 330 0092 2946     		mov	r1, r5
 331 0094 FFF7FEFF 		bl	__aeabi_dmul
 332              	.LVL41:
 333 0098 FFF7FEFF 		bl	__aeabi_d2f
 334              	.LVL42:
 730:subsystems/ins/hf_float.c **** 
 731:subsystems/ins/hf_float.c ****   hff_work->yP[0][0] = P11;
 732:subsystems/ins/hf_float.c ****   hff_work->yP[0][1] = P12;
 733:subsystems/ins/hf_float.c ****   hff_work->yP[1][0] = P21;
 335              		.loc 2 733 0
 336 009c 86ED0C9A 		fsts	s18, [r6, #48]
 734:subsystems/ins/hf_float.c ****   hff_work->yP[1][1] = P22;
 337              		.loc 2 734 0
 338 00a0 C6ED0D8A 		fsts	s17, [r6, #52]
 735:subsystems/ins/hf_float.c **** }
 339              		.loc 2 735 0
 340 00a4 BDEC068B 		fldmfdd	sp!, {d8-d10}
 341              	.LVL43:
 727:subsystems/ins/hf_float.c ****   const float P12 = (1. - K1) * hff_work->yP[0][1];
 342              		.loc 2 727 0
 343 00a8 F062     		str	r0, [r6, #44]	@ float
 344              		.loc 2 735 0
 345 00aa 70BD     		pop	{r4, r5, r6, pc}
 346              	.LVL44:
 347              	.L7:
 348              		.align	2
 349              	.L6:
 350 00ac 00000000 		.word	.LANCHOR1
 351 00b0 00000000 		.word	.LANCHOR2
 352 00b4 0000F03F 		.word	1072693248
 353              		.cfi_endproc
 354              	.LFE506:
 356              		.section	.text.b2_hff_update_xdot.constprop.2,"ax",%progbits
 357              		.align	1
 358              		.thumb
 359              		.thumb_func
 361              	b2_hff_update_xdot.constprop.2:
 362              	.LFB505:
 736:subsystems/ins/hf_float.c **** 
 737:subsystems/ins/hf_float.c **** 
 738:subsystems/ins/hf_float.c **** /*
 739:subsystems/ins/hf_float.c ****  *
 740:subsystems/ins/hf_float.c ****  * Update velocity
 741:subsystems/ins/hf_float.c ****  *
 742:subsystems/ins/hf_float.c ****  *
 743:subsystems/ins/hf_float.c **** 
 744:subsystems/ins/hf_float.c ****  H = [0 1];
 745:subsystems/ins/hf_float.c ****  R = 0.1;
 746:subsystems/ins/hf_float.c ****  // state residual
 747:subsystems/ins/hf_float.c ****  yd = vx - H * Xm;
 748:subsystems/ins/hf_float.c ****  // covariance residual
 749:subsystems/ins/hf_float.c ****  S = H*Pm*H' + R;
 750:subsystems/ins/hf_float.c ****  // kalman gain
 751:subsystems/ins/hf_float.c ****  K = Pm*H'*inv(S);
 752:subsystems/ins/hf_float.c ****  // update state
 753:subsystems/ins/hf_float.c ****  Xp = Xm + K*yd;
 754:subsystems/ins/hf_float.c ****  // update covariance
 755:subsystems/ins/hf_float.c ****  Pp = Pm - K*H*Pm;
 756:subsystems/ins/hf_float.c **** */
 757:subsystems/ins/hf_float.c **** void b2_hff_update_vel(struct FloatVect2 vel, struct FloatVect2 Rvel)
 758:subsystems/ins/hf_float.c **** {
 759:subsystems/ins/hf_float.c ****   b2_hff_update_xdot(&b2_hff_state, vel.x, Rvel.x);
 760:subsystems/ins/hf_float.c ****   b2_hff_update_ydot(&b2_hff_state, vel.y, Rvel.y);
 761:subsystems/ins/hf_float.c **** }
 762:subsystems/ins/hf_float.c **** 
 763:subsystems/ins/hf_float.c **** static void b2_hff_update_xdot(struct HfilterFloat *hff_work, float vel, float Rvel)
 363              		.loc 2 763 0
 364              		.cfi_startproc
 365              		@ args = 0, pretend = 0, frame = 0
 366              		@ frame_needed = 0, uses_anonymous_args = 0
 367              	.LVL45:
 368 0000 70B5     		push	{r4, r5, r6, lr}
 369              		.cfi_def_cfa_offset 16
 370              		.cfi_offset 4, -16
 371              		.cfi_offset 5, -12
 372              		.cfi_offset 6, -8
 373              		.cfi_offset 14, -4
 764:subsystems/ins/hf_float.c **** {
 765:subsystems/ins/hf_float.c ****   b2_hff_xd_meas = vel;
 766:subsystems/ins/hf_float.c **** 
 767:subsystems/ins/hf_float.c ****   const float yd = vel - hff_work->xdot;
 374              		.loc 2 767 0
 375 0002 2A4E     		ldr	r6, .L9
 765:subsystems/ins/hf_float.c ****   b2_hff_xd_meas = vel;
 376              		.loc 2 765 0
 377 0004 2A4B     		ldr	r3, .L9+4
 378              		.loc 2 767 0
 379 0006 96ED017A 		flds	s14, [r6, #4]
 768:subsystems/ins/hf_float.c ****   const float S  = hff_work->xP[1][1] + Rvel;
 769:subsystems/ins/hf_float.c ****   const float K1 = hff_work->xP[0][1] * 1 / S;
 770:subsystems/ins/hf_float.c ****   const float K2 = hff_work->xP[1][1] * 1 / S;
 771:subsystems/ins/hf_float.c **** 
 772:subsystems/ins/hf_float.c ****   hff_work->x     = hff_work->x     + K1 * yd;
 380              		.loc 2 772 0
 381 000a D6ED007A 		flds	s15, [r6]
 763:subsystems/ins/hf_float.c **** static void b2_hff_update_xdot(struct HfilterFloat *hff_work, float vel, float Rvel)
 382              		.loc 2 763 0
 383 000e 2DED048B 		fstmfdd	sp!, {d8, d9}
 384              		.cfi_def_cfa_offset 32
 385              		.cfi_offset 80, -32
 386              		.cfi_offset 82, -24
 768:subsystems/ins/hf_float.c ****   const float S  = hff_work->xP[1][1] + Rvel;
 387              		.loc 2 768 0
 388 0012 96ED098A 		flds	s16, [r6, #36]
 769:subsystems/ins/hf_float.c ****   const float K1 = hff_work->xP[0][1] * 1 / S;
 389              		.loc 2 769 0
 390 0016 96ED079A 		flds	s18, [r6, #28]
 765:subsystems/ins/hf_float.c ****   b2_hff_xd_meas = vel;
 391              		.loc 2 765 0
 392 001a 83ED000A 		fsts	s0, [r3]
 768:subsystems/ins/hf_float.c ****   const float S  = hff_work->xP[1][1] + Rvel;
 393              		.loc 2 768 0
 394 001e 78EE200A 		fadds	s1, s16, s1
 395              	.LVL46:
 767:subsystems/ins/hf_float.c ****   const float yd = vel - hff_work->xdot;
 396              		.loc 2 767 0
 397 0022 30EE470A 		fsubs	s0, s0, s14
 398              	.LVL47:
 769:subsystems/ins/hf_float.c ****   const float K1 = hff_work->xP[0][1] * 1 / S;
 399              		.loc 2 769 0
 400 0026 C9EE209A 		fdivs	s19, s18, s1
 401              	.LVL48:
 770:subsystems/ins/hf_float.c ****   const float K2 = hff_work->xP[1][1] * 1 / S;
 402              		.loc 2 770 0
 403 002a C8EE200A 		fdivs	s1, s16, s1
 404              	.LVL49:
 405              		.loc 2 772 0
 406 002e E9EE807A 		vfma.f32	s15, s19, s0
 773:subsystems/ins/hf_float.c ****   hff_work->xdot  = hff_work->xdot  + K2 * yd;
 407              		.loc 2 773 0
 408 0032 A0EE807A 		vfma.f32	s14, s1, s0
 774:subsystems/ins/hf_float.c **** 
 775:subsystems/ins/hf_float.c ****   const float P11 = -K1 * hff_work->xP[1][0] + hff_work->xP[0][0];
 776:subsystems/ins/hf_float.c ****   const float P12 = -K1 * hff_work->xP[1][1] + hff_work->xP[0][1];
 777:subsystems/ins/hf_float.c ****   const float P21 = (1. - K2) * hff_work->xP[1][0];
 409              		.loc 2 777 0
 410 0036 10EE900A 		fmrs	r0, s1
 773:subsystems/ins/hf_float.c ****   hff_work->xdot  = hff_work->xdot  + K2 * yd;
 411              		.loc 2 773 0
 412 003a 86ED017A 		fsts	s14, [r6, #4]
 772:subsystems/ins/hf_float.c ****   hff_work->x     = hff_work->x     + K1 * yd;
 413              		.loc 2 772 0
 414 003e C6ED007A 		fsts	s15, [r6]
 415              		.loc 2 777 0
 416 0042 FFF7FEFF 		bl	__aeabi_f2d
 417              	.LVL50:
 418 0046 0246     		mov	r2, r0
 419 0048 0B46     		mov	r3, r1
 420 004a 0020     		movs	r0, #0
 421 004c 1949     		ldr	r1, .L9+8
 775:subsystems/ins/hf_float.c ****   const float P11 = -K1 * hff_work->xP[1][0] + hff_work->xP[0][0];
 422              		.loc 2 775 0
 423 004e D6ED088A 		flds	s17, [r6, #32]
 424              		.loc 2 777 0
 425 0052 FFF7FEFF 		bl	__aeabi_dsub
 426              	.LVL51:
 775:subsystems/ins/hf_float.c ****   const float P11 = -K1 * hff_work->xP[1][0] + hff_work->xP[0][0];
 427              		.loc 2 775 0
 428 0056 D6ED067A 		flds	s15, [r6, #24]
 429 005a F1EE699A 		fnegs	s19, s19
 430              	.LVL52:
 431 005e E9EEA87A 		vfma.f32	s15, s19, s17
 432              		.loc 2 777 0
 433 0062 0446     		mov	r4, r0
 434 0064 0D46     		mov	r5, r1
 435              	.LVL53:
 776:subsystems/ins/hf_float.c ****   const float P12 = -K1 * hff_work->xP[1][1] + hff_work->xP[0][1];
 436              		.loc 2 776 0
 437 0066 A9EE889A 		vfma.f32	s18, s19, s16
 438              	.LVL54:
 439              		.loc 2 777 0
 440 006a 18EE900A 		fmrs	r0, s17
 778:subsystems/ins/hf_float.c ****   const float P22 = (1. - K2) * hff_work->xP[1][1];
 779:subsystems/ins/hf_float.c **** 
 780:subsystems/ins/hf_float.c ****   hff_work->xP[0][0] = P11;
 441              		.loc 2 780 0
 442 006e C6ED067A 		fsts	s15, [r6, #24]
 781:subsystems/ins/hf_float.c ****   hff_work->xP[0][1] = P12;
 443              		.loc 2 781 0
 444 0072 86ED079A 		fsts	s18, [r6, #28]
 777:subsystems/ins/hf_float.c ****   const float P21 = (1. - K2) * hff_work->xP[1][0];
 445              		.loc 2 777 0
 446 0076 FFF7FEFF 		bl	__aeabi_f2d
 447              	.LVL55:
 448 007a 0246     		mov	r2, r0
 449 007c 0B46     		mov	r3, r1
 450 007e 2046     		mov	r0, r4
 451 0080 2946     		mov	r1, r5
 452 0082 FFF7FEFF 		bl	__aeabi_dmul
 453              	.LVL56:
 454 0086 FFF7FEFF 		bl	__aeabi_d2f
 455              	.LVL57:
 456 008a 3062     		str	r0, [r6, #32]	@ float
 778:subsystems/ins/hf_float.c ****   const float P22 = (1. - K2) * hff_work->xP[1][1];
 457              		.loc 2 778 0
 458 008c 18EE100A 		fmrs	r0, s16
 459 0090 FFF7FEFF 		bl	__aeabi_f2d
 460              	.LVL58:
 461 0094 0246     		mov	r2, r0
 462 0096 0B46     		mov	r3, r1
 463 0098 2046     		mov	r0, r4
 464 009a 2946     		mov	r1, r5
 465 009c FFF7FEFF 		bl	__aeabi_dmul
 466              	.LVL59:
 467 00a0 FFF7FEFF 		bl	__aeabi_d2f
 468              	.LVL60:
 782:subsystems/ins/hf_float.c ****   hff_work->xP[1][0] = P21;
 783:subsystems/ins/hf_float.c ****   hff_work->xP[1][1] = P22;
 784:subsystems/ins/hf_float.c **** }
 469              		.loc 2 784 0
 470 00a4 BDEC048B 		fldmfdd	sp!, {d8-d9}
 471              	.LVL61:
 778:subsystems/ins/hf_float.c ****   const float P22 = (1. - K2) * hff_work->xP[1][1];
 472              		.loc 2 778 0
 473 00a8 7062     		str	r0, [r6, #36]	@ float
 474              		.loc 2 784 0
 475 00aa 70BD     		pop	{r4, r5, r6, pc}
 476              	.LVL62:
 477              	.L10:
 478              		.align	2
 479              	.L9:
 480 00ac 00000000 		.word	.LANCHOR1
 481 00b0 00000000 		.word	.LANCHOR3
 482 00b4 0000F03F 		.word	1072693248
 483              		.cfi_endproc
 484              	.LFE505:
 486              		.section	.text.b2_hff_update_ydot.constprop.3,"ax",%progbits
 487              		.align	1
 488              		.thumb
 489              		.thumb_func
 491              	b2_hff_update_ydot.constprop.3:
 492              	.LFB504:
 785:subsystems/ins/hf_float.c **** 
 786:subsystems/ins/hf_float.c **** static void b2_hff_update_ydot(struct HfilterFloat *hff_work, float vel, float Rvel)
 493              		.loc 2 786 0
 494              		.cfi_startproc
 495              		@ args = 0, pretend = 0, frame = 0
 496              		@ frame_needed = 0, uses_anonymous_args = 0
 497              	.LVL63:
 498 0000 70B5     		push	{r4, r5, r6, lr}
 499              		.cfi_def_cfa_offset 16
 500              		.cfi_offset 4, -16
 501              		.cfi_offset 5, -12
 502              		.cfi_offset 6, -8
 503              		.cfi_offset 14, -4
 787:subsystems/ins/hf_float.c **** {
 788:subsystems/ins/hf_float.c ****   b2_hff_yd_meas = vel;
 789:subsystems/ins/hf_float.c **** 
 790:subsystems/ins/hf_float.c ****   const float yd = vel - hff_work->ydot;
 504              		.loc 2 790 0
 505 0002 2A4E     		ldr	r6, .L12
 788:subsystems/ins/hf_float.c ****   b2_hff_yd_meas = vel;
 506              		.loc 2 788 0
 507 0004 2A4B     		ldr	r3, .L12+4
 508              		.loc 2 790 0
 509 0006 96ED047A 		flds	s14, [r6, #16]
 791:subsystems/ins/hf_float.c ****   const float S  = hff_work->yP[1][1] + Rvel;
 792:subsystems/ins/hf_float.c ****   const float K1 = hff_work->yP[0][1] * 1 / S;
 793:subsystems/ins/hf_float.c ****   const float K2 = hff_work->yP[1][1] * 1 / S;
 794:subsystems/ins/hf_float.c **** 
 795:subsystems/ins/hf_float.c ****   hff_work->y     = hff_work->y     + K1 * yd;
 510              		.loc 2 795 0
 511 000a D6ED037A 		flds	s15, [r6, #12]
 786:subsystems/ins/hf_float.c **** static void b2_hff_update_ydot(struct HfilterFloat *hff_work, float vel, float Rvel)
 512              		.loc 2 786 0
 513 000e 2DED048B 		fstmfdd	sp!, {d8, d9}
 514              		.cfi_def_cfa_offset 32
 515              		.cfi_offset 80, -32
 516              		.cfi_offset 82, -24
 791:subsystems/ins/hf_float.c ****   const float S  = hff_work->yP[1][1] + Rvel;
 517              		.loc 2 791 0
 518 0012 96ED0D8A 		flds	s16, [r6, #52]
 792:subsystems/ins/hf_float.c ****   const float K1 = hff_work->yP[0][1] * 1 / S;
 519              		.loc 2 792 0
 520 0016 96ED0B9A 		flds	s18, [r6, #44]
 788:subsystems/ins/hf_float.c ****   b2_hff_yd_meas = vel;
 521              		.loc 2 788 0
 522 001a 83ED000A 		fsts	s0, [r3]
 791:subsystems/ins/hf_float.c ****   const float S  = hff_work->yP[1][1] + Rvel;
 523              		.loc 2 791 0
 524 001e 78EE200A 		fadds	s1, s16, s1
 525              	.LVL64:
 790:subsystems/ins/hf_float.c ****   const float yd = vel - hff_work->ydot;
 526              		.loc 2 790 0
 527 0022 30EE470A 		fsubs	s0, s0, s14
 528              	.LVL65:
 792:subsystems/ins/hf_float.c ****   const float K1 = hff_work->yP[0][1] * 1 / S;
 529              		.loc 2 792 0
 530 0026 C9EE209A 		fdivs	s19, s18, s1
 531              	.LVL66:
 793:subsystems/ins/hf_float.c ****   const float K2 = hff_work->yP[1][1] * 1 / S;
 532              		.loc 2 793 0
 533 002a C8EE200A 		fdivs	s1, s16, s1
 534              	.LVL67:
 535              		.loc 2 795 0
 536 002e E9EE807A 		vfma.f32	s15, s19, s0
 796:subsystems/ins/hf_float.c ****   hff_work->ydot  = hff_work->ydot  + K2 * yd;
 537              		.loc 2 796 0
 538 0032 A0EE807A 		vfma.f32	s14, s1, s0
 797:subsystems/ins/hf_float.c **** 
 798:subsystems/ins/hf_float.c ****   const float P11 = -K1 * hff_work->yP[1][0] + hff_work->yP[0][0];
 799:subsystems/ins/hf_float.c ****   const float P12 = -K1 * hff_work->yP[1][1] + hff_work->yP[0][1];
 800:subsystems/ins/hf_float.c ****   const float P21 = (1. - K2) * hff_work->yP[1][0];
 539              		.loc 2 800 0
 540 0036 10EE900A 		fmrs	r0, s1
 796:subsystems/ins/hf_float.c ****   hff_work->ydot  = hff_work->ydot  + K2 * yd;
 541              		.loc 2 796 0
 542 003a 86ED047A 		fsts	s14, [r6, #16]
 795:subsystems/ins/hf_float.c ****   hff_work->y     = hff_work->y     + K1 * yd;
 543              		.loc 2 795 0
 544 003e C6ED037A 		fsts	s15, [r6, #12]
 545              		.loc 2 800 0
 546 0042 FFF7FEFF 		bl	__aeabi_f2d
 547              	.LVL68:
 548 0046 0246     		mov	r2, r0
 549 0048 0B46     		mov	r3, r1
 550 004a 0020     		movs	r0, #0
 551 004c 1949     		ldr	r1, .L12+8
 798:subsystems/ins/hf_float.c ****   const float P11 = -K1 * hff_work->yP[1][0] + hff_work->yP[0][0];
 552              		.loc 2 798 0
 553 004e D6ED0C8A 		flds	s17, [r6, #48]
 554              		.loc 2 800 0
 555 0052 FFF7FEFF 		bl	__aeabi_dsub
 556              	.LVL69:
 798:subsystems/ins/hf_float.c ****   const float P11 = -K1 * hff_work->yP[1][0] + hff_work->yP[0][0];
 557              		.loc 2 798 0
 558 0056 D6ED0A7A 		flds	s15, [r6, #40]
 559 005a F1EE699A 		fnegs	s19, s19
 560              	.LVL70:
 561 005e E9EEA87A 		vfma.f32	s15, s19, s17
 562              		.loc 2 800 0
 563 0062 0446     		mov	r4, r0
 564 0064 0D46     		mov	r5, r1
 565              	.LVL71:
 799:subsystems/ins/hf_float.c ****   const float P12 = -K1 * hff_work->yP[1][1] + hff_work->yP[0][1];
 566              		.loc 2 799 0
 567 0066 A9EE889A 		vfma.f32	s18, s19, s16
 568              	.LVL72:
 569              		.loc 2 800 0
 570 006a 18EE900A 		fmrs	r0, s17
 801:subsystems/ins/hf_float.c ****   const float P22 = (1. - K2) * hff_work->yP[1][1];
 802:subsystems/ins/hf_float.c **** 
 803:subsystems/ins/hf_float.c ****   hff_work->yP[0][0] = P11;
 571              		.loc 2 803 0
 572 006e C6ED0A7A 		fsts	s15, [r6, #40]
 804:subsystems/ins/hf_float.c ****   hff_work->yP[0][1] = P12;
 573              		.loc 2 804 0
 574 0072 86ED0B9A 		fsts	s18, [r6, #44]
 800:subsystems/ins/hf_float.c ****   const float P21 = (1. - K2) * hff_work->yP[1][0];
 575              		.loc 2 800 0
 576 0076 FFF7FEFF 		bl	__aeabi_f2d
 577              	.LVL73:
 578 007a 0246     		mov	r2, r0
 579 007c 0B46     		mov	r3, r1
 580 007e 2046     		mov	r0, r4
 581 0080 2946     		mov	r1, r5
 582 0082 FFF7FEFF 		bl	__aeabi_dmul
 583              	.LVL74:
 584 0086 FFF7FEFF 		bl	__aeabi_d2f
 585              	.LVL75:
 586 008a 3063     		str	r0, [r6, #48]	@ float
 801:subsystems/ins/hf_float.c ****   const float P22 = (1. - K2) * hff_work->yP[1][1];
 587              		.loc 2 801 0
 588 008c 18EE100A 		fmrs	r0, s16
 589 0090 FFF7FEFF 		bl	__aeabi_f2d
 590              	.LVL76:
 591 0094 0246     		mov	r2, r0
 592 0096 0B46     		mov	r3, r1
 593 0098 2046     		mov	r0, r4
 594 009a 2946     		mov	r1, r5
 595 009c FFF7FEFF 		bl	__aeabi_dmul
 596              	.LVL77:
 597 00a0 FFF7FEFF 		bl	__aeabi_d2f
 598              	.LVL78:
 805:subsystems/ins/hf_float.c ****   hff_work->yP[1][0] = P21;
 806:subsystems/ins/hf_float.c ****   hff_work->yP[1][1] = P22;
 807:subsystems/ins/hf_float.c **** }
 599              		.loc 2 807 0
 600 00a4 BDEC048B 		fldmfdd	sp!, {d8-d9}
 601              	.LVL79:
 801:subsystems/ins/hf_float.c ****   const float P22 = (1. - K2) * hff_work->yP[1][1];
 602              		.loc 2 801 0
 603 00a8 7063     		str	r0, [r6, #52]	@ float
 604              		.loc 2 807 0
 605 00aa 70BD     		pop	{r4, r5, r6, pc}
 606              	.LVL80:
 607              	.L13:
 608              		.align	2
 609              	.L12:
 610 00ac 00000000 		.word	.LANCHOR1
 611 00b0 00000000 		.word	.LANCHOR4
 612 00b4 0000F03F 		.word	1072693248
 613              		.cfi_endproc
 614              	.LFE504:
 616              		.section	.text.send_hff_debug,"ax",%progbits
 617              		.align	1
 618              		.thumb
 619              		.thumb_func
 621              	send_hff_debug:
 622              	.LFB483:
 244:subsystems/ins/hf_float.c **** {
 623              		.loc 2 244 0
 624              		.cfi_startproc
 625              		@ args = 0, pretend = 0, frame = 8
 626              		@ frame_needed = 0, uses_anonymous_args = 0
 627              	.LVL81:
 628 0000 2DE9FF41 		push	{r0, r1, r2, r3, r4, r5, r6, r7, r8, lr}
 629              		.cfi_def_cfa_offset 40
 630              		.cfi_offset 0, -40
 631              		.cfi_offset 1, -36
 632              		.cfi_offset 2, -32
 633              		.cfi_offset 3, -28
 634              		.cfi_offset 4, -24
 635              		.cfi_offset 5, -20
 636              		.cfi_offset 6, -16
 637              		.cfi_offset 7, -12
 638              		.cfi_offset 8, -8
 639              		.cfi_offset 14, -4
 640              	.LBB11:
 641              	.LBB12:
 642              		.file 3 "/home/lsk/paparazzi/var/include/messages.h"
   1:/home/lsk/paparazzi/var/include/messages.h **** /* Automatically generated by gen_messages from /home/lsk/paparazzi/conf/messages.xml */
   2:/home/lsk/paparazzi/var/include/messages.h **** /* Please DO NOT EDIT */
   3:/home/lsk/paparazzi/var/include/messages.h **** /* Macros to send and receive messages of class telemetry */
   4:/home/lsk/paparazzi/var/include/messages.h **** #ifndef _VAR_MESSAGES_telemetry_H_
   5:/home/lsk/paparazzi/var/include/messages.h **** #define _VAR_MESSAGES_telemetry_H_
   6:/home/lsk/paparazzi/var/include/messages.h **** #include "subsystems/datalink/transport.h"
   7:/home/lsk/paparazzi/var/include/messages.h **** #include "mcu_periph/link_device.h"
   8:/home/lsk/paparazzi/var/include/messages.h **** #if DOWNLINK
   9:/home/lsk/paparazzi/var/include/messages.h **** #define DL_AUTOPILOT_VERSION 1
  10:/home/lsk/paparazzi/var/include/messages.h **** #define DL_ALIVE 2
  11:/home/lsk/paparazzi/var/include/messages.h **** #define DL_PONG 3
  12:/home/lsk/paparazzi/var/include/messages.h **** #define DL_TAKEOFF 4
  13:/home/lsk/paparazzi/var/include/messages.h **** #define DL_ARDRONE_NAVDATA 5
  14:/home/lsk/paparazzi/var/include/messages.h **** #define DL_ATTITUDE 6
  15:/home/lsk/paparazzi/var/include/messages.h **** #define DL_IR_SENSORS 7
  16:/home/lsk/paparazzi/var/include/messages.h **** #define DL_GPS 8
  17:/home/lsk/paparazzi/var/include/messages.h **** #define DL_NAVIGATION_REF 9
  18:/home/lsk/paparazzi/var/include/messages.h **** #define DL_NAVIGATION 10
  19:/home/lsk/paparazzi/var/include/messages.h **** #define DL_PPRZ_MODE 11
  20:/home/lsk/paparazzi/var/include/messages.h **** #define DL_BAT 12
  21:/home/lsk/paparazzi/var/include/messages.h **** #define DL_DEBUG_MCU_LINK 13
  22:/home/lsk/paparazzi/var/include/messages.h **** #define DL_CALIBRATION 14
  23:/home/lsk/paparazzi/var/include/messages.h **** #define DL_SETTINGS 15
  24:/home/lsk/paparazzi/var/include/messages.h **** #define DL_DESIRED 16
  25:/home/lsk/paparazzi/var/include/messages.h **** #define DL_GPS_SOL 17
  26:/home/lsk/paparazzi/var/include/messages.h **** #define DL_ADC_GENERIC 18
  27:/home/lsk/paparazzi/var/include/messages.h **** #define DL_TEST_FORMAT 19
  28:/home/lsk/paparazzi/var/include/messages.h **** #define DL_CAM 20
  29:/home/lsk/paparazzi/var/include/messages.h **** #define DL_CIRCLE 21
  30:/home/lsk/paparazzi/var/include/messages.h **** #define DL_SEGMENT 22
  31:/home/lsk/paparazzi/var/include/messages.h **** #define DL_SVINFO 25
  32:/home/lsk/paparazzi/var/include/messages.h **** #define DL_DEBUG 26
  33:/home/lsk/paparazzi/var/include/messages.h **** #define DL_SURVEY 27
  34:/home/lsk/paparazzi/var/include/messages.h **** #define DL_WC_RSSI 28
  35:/home/lsk/paparazzi/var/include/messages.h **** #define DL_RANGEFINDER 29
  36:/home/lsk/paparazzi/var/include/messages.h **** #define DL_DATALINK_REPORT 30
  37:/home/lsk/paparazzi/var/include/messages.h **** #define DL_DL_VALUE 31
  38:/home/lsk/paparazzi/var/include/messages.h **** #define DL_MARK 32
  39:/home/lsk/paparazzi/var/include/messages.h **** #define DL_SYS_MON 33
  40:/home/lsk/paparazzi/var/include/messages.h **** #define DL_MOTOR 34
  41:/home/lsk/paparazzi/var/include/messages.h **** #define DL_WP_MOVED 35
  42:/home/lsk/paparazzi/var/include/messages.h **** #define DL_MKK 36
  43:/home/lsk/paparazzi/var/include/messages.h **** #define DL_ENERGY 37
  44:/home/lsk/paparazzi/var/include/messages.h **** #define DL_BARO_BMP85_CALIB 38
  45:/home/lsk/paparazzi/var/include/messages.h **** #define DL_BARO_BMP85 39
  46:/home/lsk/paparazzi/var/include/messages.h **** #define DL_SPEED_LOOP 40
  47:/home/lsk/paparazzi/var/include/messages.h **** #define DL_ALT_KALMAN 41
  48:/home/lsk/paparazzi/var/include/messages.h **** #define DL_ESTIMATOR 42
  49:/home/lsk/paparazzi/var/include/messages.h **** #define DL_TUNE_ROLL 43
  50:/home/lsk/paparazzi/var/include/messages.h **** #define DL_BARO_MS5534A 44
  51:/home/lsk/paparazzi/var/include/messages.h **** #define DL_PRESSURE 45
  52:/home/lsk/paparazzi/var/include/messages.h **** #define DL_BARO_WORDS 46
  53:/home/lsk/paparazzi/var/include/messages.h **** #define DL_WP_MOVED_LLA 47
  54:/home/lsk/paparazzi/var/include/messages.h **** #define DL_CHRONO 48
  55:/home/lsk/paparazzi/var/include/messages.h **** #define DL_WP_MOVED_ENU 49
  56:/home/lsk/paparazzi/var/include/messages.h **** #define DL_WINDTURBINE_STATUS_ 50
  57:/home/lsk/paparazzi/var/include/messages.h **** #define DL_RC_3CH_ 51
  58:/home/lsk/paparazzi/var/include/messages.h **** #define DL_MPPT 52
  59:/home/lsk/paparazzi/var/include/messages.h **** #define DL_DEBUG_IR_I2C 53
  60:/home/lsk/paparazzi/var/include/messages.h **** #define DL_AIRSPEED 54
  61:/home/lsk/paparazzi/var/include/messages.h **** #define DL_XSENS 55
  62:/home/lsk/paparazzi/var/include/messages.h **** #define DL_BARO_ETS 56
  63:/home/lsk/paparazzi/var/include/messages.h **** #define DL_AIRSPEED_ETS 57
  64:/home/lsk/paparazzi/var/include/messages.h **** #define DL_PBN 58
  65:/home/lsk/paparazzi/var/include/messages.h **** #define DL_GPS_LLA 59
  66:/home/lsk/paparazzi/var/include/messages.h **** #define DL_H_CTL_A 60
  67:/home/lsk/paparazzi/var/include/messages.h **** #define DL_TURB_PRESSURE_RAW 61
  68:/home/lsk/paparazzi/var/include/messages.h **** #define DL_TURB_PRESSURE_VOLTAGE 62
  69:/home/lsk/paparazzi/var/include/messages.h **** #define DL_CAM_POINT 63
  70:/home/lsk/paparazzi/var/include/messages.h **** #define DL_DC_INFO 64
  71:/home/lsk/paparazzi/var/include/messages.h **** #define DL_AMSYS_BARO 65
  72:/home/lsk/paparazzi/var/include/messages.h **** #define DL_AMSYS_AIRSPEED 66
  73:/home/lsk/paparazzi/var/include/messages.h **** #define DL_FLIGHT_BENCHMARK 67
  74:/home/lsk/paparazzi/var/include/messages.h **** #define DL_MPL3115_BARO 68
  75:/home/lsk/paparazzi/var/include/messages.h **** #define DL_AOA_ADC 69
  76:/home/lsk/paparazzi/var/include/messages.h **** #define DL_XTEND_RSSI 70
  77:/home/lsk/paparazzi/var/include/messages.h **** #define DL_SUPERBITRF 72
  78:/home/lsk/paparazzi/var/include/messages.h **** #define DL_GX3_INFO 73
  79:/home/lsk/paparazzi/var/include/messages.h **** #define DL_EXPLAIN 74
  80:/home/lsk/paparazzi/var/include/messages.h **** #define DL_VIDEO_TELEMETRY 75
  81:/home/lsk/paparazzi/var/include/messages.h **** #define DL_VF_UPDATE 76
  82:/home/lsk/paparazzi/var/include/messages.h **** #define DL_VF_PREDICT 77
  83:/home/lsk/paparazzi/var/include/messages.h **** #define DL_INV_FILTER 78
  84:/home/lsk/paparazzi/var/include/messages.h **** #define DL_MISSION_STATUS 79
  85:/home/lsk/paparazzi/var/include/messages.h **** #define DL_CROSS_TRACK_ERROR 80
  86:/home/lsk/paparazzi/var/include/messages.h **** #define DL_GENERIC_COM 81
  87:/home/lsk/paparazzi/var/include/messages.h **** #define DL_FORMATION_SLOT_TM 82
  88:/home/lsk/paparazzi/var/include/messages.h **** #define DL_FORMATION_STATUS_TM 83
  89:/home/lsk/paparazzi/var/include/messages.h **** #define DL_BMP_STATUS 84
  90:/home/lsk/paparazzi/var/include/messages.h **** #define DL_MLX_STATUS 85
  91:/home/lsk/paparazzi/var/include/messages.h **** #define DL_TMP_STATUS 86
  92:/home/lsk/paparazzi/var/include/messages.h **** #define DL_WIND_INFO_RET 87
  93:/home/lsk/paparazzi/var/include/messages.h **** #define DL_SCP_STATUS 88
  94:/home/lsk/paparazzi/var/include/messages.h **** #define DL_SHT_STATUS 89
  95:/home/lsk/paparazzi/var/include/messages.h **** #define DL_ENOSE_STATUS 90
  96:/home/lsk/paparazzi/var/include/messages.h **** #define DL_DPICCO_STATUS 91
  97:/home/lsk/paparazzi/var/include/messages.h **** #define DL_ANTENNA_DEBUG 92
  98:/home/lsk/paparazzi/var/include/messages.h **** #define DL_ANTENNA_STATUS 93
  99:/home/lsk/paparazzi/var/include/messages.h **** #define DL_MOTOR_BENCH_STATUS 94
 100:/home/lsk/paparazzi/var/include/messages.h **** #define DL_MOTOR_BENCH_STATIC 95
 101:/home/lsk/paparazzi/var/include/messages.h **** #define DL_HIH_STATUS 96
 102:/home/lsk/paparazzi/var/include/messages.h **** #define DL_TEMT_STATUS 97
 103:/home/lsk/paparazzi/var/include/messages.h **** #define DL_GP2Y_STATUS 98
 104:/home/lsk/paparazzi/var/include/messages.h **** #define DL_SHT_I2C_SERIAL 99
 105:/home/lsk/paparazzi/var/include/messages.h **** #define DL_PPM 100
 106:/home/lsk/paparazzi/var/include/messages.h **** #define DL_RC 101
 107:/home/lsk/paparazzi/var/include/messages.h **** #define DL_COMMANDS 102
 108:/home/lsk/paparazzi/var/include/messages.h **** #define DL_FBW_STATUS 103
 109:/home/lsk/paparazzi/var/include/messages.h **** #define DL_ADC 104
 110:/home/lsk/paparazzi/var/include/messages.h **** #define DL_ACTUATORS 105
 111:/home/lsk/paparazzi/var/include/messages.h **** #define DL_DC_SHOT 110
 112:/home/lsk/paparazzi/var/include/messages.h **** #define DL_TEST_BOARD_RESULTS 111
 113:/home/lsk/paparazzi/var/include/messages.h **** #define DL_MLX_SERIAL 113
 114:/home/lsk/paparazzi/var/include/messages.h **** #define DL_PAYLOAD 114
 115:/home/lsk/paparazzi/var/include/messages.h **** #define DL_HTM_STATUS 115
 116:/home/lsk/paparazzi/var/include/messages.h **** #define DL_BARO_MS5611 116
 117:/home/lsk/paparazzi/var/include/messages.h **** #define DL_MS5611_COEFF 117
 118:/home/lsk/paparazzi/var/include/messages.h **** #define DL_ATMOSPHERE_CHARGE 118
 119:/home/lsk/paparazzi/var/include/messages.h **** #define DL_SOLAR_RADIATION 119
 120:/home/lsk/paparazzi/var/include/messages.h **** #define DL_TCAS_TA 120
 121:/home/lsk/paparazzi/var/include/messages.h **** #define DL_TCAS_RA 121
 122:/home/lsk/paparazzi/var/include/messages.h **** #define DL_TCAS_RESOLVED 122
 123:/home/lsk/paparazzi/var/include/messages.h **** #define DL_TCAS_DEBUG 123
 124:/home/lsk/paparazzi/var/include/messages.h **** #define DL_POTENTIAL 124
 125:/home/lsk/paparazzi/var/include/messages.h **** #define DL_VERTICAL_ENERGY 125
 126:/home/lsk/paparazzi/var/include/messages.h **** #define DL_TEMP_TCOUPLE 126
 127:/home/lsk/paparazzi/var/include/messages.h **** #define DL_SHT_I2C_STATUS 127
 128:/home/lsk/paparazzi/var/include/messages.h **** #define DL_CAMERA_SNAPSHOT 128
 129:/home/lsk/paparazzi/var/include/messages.h **** #define DL_TIMESTAMP 129
 130:/home/lsk/paparazzi/var/include/messages.h **** #define DL_STAB_ATTITUDE_FLOAT 130
 131:/home/lsk/paparazzi/var/include/messages.h **** #define DL_IMU_GYRO_SCALED 131
 132:/home/lsk/paparazzi/var/include/messages.h **** #define DL_IMU_ACCEL_SCALED 132
 133:/home/lsk/paparazzi/var/include/messages.h **** #define DL_IMU_MAG_SCALED 133
 134:/home/lsk/paparazzi/var/include/messages.h **** #define DL_FILTER 134
 135:/home/lsk/paparazzi/var/include/messages.h **** #define DL_FILTER2 135
 136:/home/lsk/paparazzi/var/include/messages.h **** #define DL_RATE_LOOP 136
 137:/home/lsk/paparazzi/var/include/messages.h **** #define DL_FILTER_ALIGNER 137
 138:/home/lsk/paparazzi/var/include/messages.h **** #define DL_AIRSPEED_MS45XX 138
 139:/home/lsk/paparazzi/var/include/messages.h **** #define DL_FILTER_COR 139
 140:/home/lsk/paparazzi/var/include/messages.h **** #define DL_STAB_ATTITUDE_INT 140
 141:/home/lsk/paparazzi/var/include/messages.h **** #define DL_STAB_ATTITUDE_REF_INT 141
 142:/home/lsk/paparazzi/var/include/messages.h **** #define DL_STAB_ATTITUDE_REF_FLOAT 142
 143:/home/lsk/paparazzi/var/include/messages.h **** #define DL_ROTORCRAFT_CMD 143
 144:/home/lsk/paparazzi/var/include/messages.h **** #define DL_GUIDANCE_H_INT 144
 145:/home/lsk/paparazzi/var/include/messages.h **** #define DL_VERT_LOOP 145
 146:/home/lsk/paparazzi/var/include/messages.h **** #define DL_HOVER_LOOP 146
 147:/home/lsk/paparazzi/var/include/messages.h **** #define DL_ROTORCRAFT_FP 147
 148:/home/lsk/paparazzi/var/include/messages.h **** #define DL_TEMP_ADC 148
 149:/home/lsk/paparazzi/var/include/messages.h **** #define DL_GUIDANCE_H_REF_INT 149
 150:/home/lsk/paparazzi/var/include/messages.h **** #define DL_ROTORCRAFT_TUNE_HOVER 150
 151:/home/lsk/paparazzi/var/include/messages.h **** #define DL_INS_Z 151
 152:/home/lsk/paparazzi/var/include/messages.h **** #define DL_PCAP01_STATUS 152
 153:/home/lsk/paparazzi/var/include/messages.h **** #define DL_GEIGER_COUNTER 153
 154:/home/lsk/paparazzi/var/include/messages.h **** #define DL_INS_REF 154
 155:/home/lsk/paparazzi/var/include/messages.h **** #define DL_GPS_INT 155
 156:/home/lsk/paparazzi/var/include/messages.h **** #define DL_AHRS_EULER_INT 156
 157:/home/lsk/paparazzi/var/include/messages.h **** #define DL_AHRS_QUAT_INT 157
 158:/home/lsk/paparazzi/var/include/messages.h **** #define DL_AHRS_RMAT_INT 158
 159:/home/lsk/paparazzi/var/include/messages.h **** #define DL_ROTORCRAFT_NAV_STATUS 159
 160:/home/lsk/paparazzi/var/include/messages.h **** #define DL_ROTORCRAFT_RADIO_CONTROL 160
 161:/home/lsk/paparazzi/var/include/messages.h **** #define DL_VFF_EXTENDED 161
 162:/home/lsk/paparazzi/var/include/messages.h **** #define DL_VFF 162
 163:/home/lsk/paparazzi/var/include/messages.h **** #define DL_GEO_MAG 163
 164:/home/lsk/paparazzi/var/include/messages.h **** #define DL_HFF 164
 165:/home/lsk/paparazzi/var/include/messages.h **** #define DL_HFF_DBG 165
 166:/home/lsk/paparazzi/var/include/messages.h **** #define DL_HFF_GPS 166
 167:/home/lsk/paparazzi/var/include/messages.h **** #define DL_INS_SONAR 167
 168:/home/lsk/paparazzi/var/include/messages.h **** #define DL_ROTORCRAFT_CAM 168
 169:/home/lsk/paparazzi/var/include/messages.h **** #define DL_AHRS_REF_QUAT 169
 170:/home/lsk/paparazzi/var/include/messages.h **** #define DL_EKF7_XHAT 170
 171:/home/lsk/paparazzi/var/include/messages.h **** #define DL_EKF7_Y 171
 172:/home/lsk/paparazzi/var/include/messages.h **** #define DL_EKF7_P_DIAG 172
 173:/home/lsk/paparazzi/var/include/messages.h **** #define DL_AHRS_EULER 173
 174:/home/lsk/paparazzi/var/include/messages.h **** #define DL_AHRS_MEASUREMENT_EULER 174
 175:/home/lsk/paparazzi/var/include/messages.h **** #define DL_WT 175
 176:/home/lsk/paparazzi/var/include/messages.h **** #define DL_CSC_CAN_DEBUG 176
 177:/home/lsk/paparazzi/var/include/messages.h **** #define DL_CSC_CAN_MSG 177
 178:/home/lsk/paparazzi/var/include/messages.h **** #define DL_AHRS_GYRO_BIAS_INT 178
 179:/home/lsk/paparazzi/var/include/messages.h **** #define DL_FLOW_AP_OTF 179
 180:/home/lsk/paparazzi/var/include/messages.h **** #define DL_FMS_TIME 180
 181:/home/lsk/paparazzi/var/include/messages.h **** #define DL_LOADCELL 181
 182:/home/lsk/paparazzi/var/include/messages.h **** #define DL_FLA_DEBUG 182
 183:/home/lsk/paparazzi/var/include/messages.h **** #define DL_BLMC_FAULT_STATUS 183
 184:/home/lsk/paparazzi/var/include/messages.h **** #define DL_BLMC_SPEEDS 184
 185:/home/lsk/paparazzi/var/include/messages.h **** #define DL_AHRS_DEBUG_QUAT 185
 186:/home/lsk/paparazzi/var/include/messages.h **** #define DL_BLMC_BUSVOLTS 186
 187:/home/lsk/paparazzi/var/include/messages.h **** #define DL_SYSTEM_STATUS 187
 188:/home/lsk/paparazzi/var/include/messages.h **** #define DL_DYNAMIXEL 188
 189:/home/lsk/paparazzi/var/include/messages.h **** #define DL_RMAT_DEBUG 189
 190:/home/lsk/paparazzi/var/include/messages.h **** #define DL_SIMPLE_COMMANDS 190
 191:/home/lsk/paparazzi/var/include/messages.h **** #define DL_VANE_SENSOR 191
 192:/home/lsk/paparazzi/var/include/messages.h **** #define DL_CONTROLLER_GAINS 192
 193:/home/lsk/paparazzi/var/include/messages.h **** #define DL_AHRS_LKF 193
 194:/home/lsk/paparazzi/var/include/messages.h **** #define DL_AHRS_LKF_DEBUG 194
 195:/home/lsk/paparazzi/var/include/messages.h **** #define DL_AHRS_LKF_ACC_DBG 195
 196:/home/lsk/paparazzi/var/include/messages.h **** #define DL_AHRS_LKF_MAG_DBG 196
 197:/home/lsk/paparazzi/var/include/messages.h **** #define DL_NPS_SENSORS_SCALED 197
 198:/home/lsk/paparazzi/var/include/messages.h **** #define DL_INS 198
 199:/home/lsk/paparazzi/var/include/messages.h **** #define DL_GPS_ERROR 199
 200:/home/lsk/paparazzi/var/include/messages.h **** #define DL_IMU_GYRO 200
 201:/home/lsk/paparazzi/var/include/messages.h **** #define DL_IMU_MAG 201
 202:/home/lsk/paparazzi/var/include/messages.h **** #define DL_IMU_ACCEL 202
 203:/home/lsk/paparazzi/var/include/messages.h **** #define DL_IMU_GYRO_RAW 203
 204:/home/lsk/paparazzi/var/include/messages.h **** #define DL_IMU_ACCEL_RAW 204
 205:/home/lsk/paparazzi/var/include/messages.h **** #define DL_IMU_MAG_RAW 205
 206:/home/lsk/paparazzi/var/include/messages.h **** #define DL_IMU_MAG_SETTINGS 206
 207:/home/lsk/paparazzi/var/include/messages.h **** #define DL_IMU_MAG_CURRENT_CALIBRATION 207
 208:/home/lsk/paparazzi/var/include/messages.h **** #define DL_UART_ERRORS 208
 209:/home/lsk/paparazzi/var/include/messages.h **** #define DL_IMU_GYRO_LP 209
 210:/home/lsk/paparazzi/var/include/messages.h **** #define DL_IMU_PRESSURE 210
 211:/home/lsk/paparazzi/var/include/messages.h **** #define DL_IMU_HS_GYRO 211
 212:/home/lsk/paparazzi/var/include/messages.h **** #define DL_TEST_PASSTHROUGH_STATUS 212
 213:/home/lsk/paparazzi/var/include/messages.h **** #define DL_TUNE_VERT 213
 214:/home/lsk/paparazzi/var/include/messages.h **** #define DL_MF_DAQ_STATE 214
 215:/home/lsk/paparazzi/var/include/messages.h **** #define DL_INFO_MSG 215
 216:/home/lsk/paparazzi/var/include/messages.h **** #define DL_BEBOP_ACTUATORS 218
 217:/home/lsk/paparazzi/var/include/messages.h **** #define DL_WEATHER 219
 218:/home/lsk/paparazzi/var/include/messages.h **** #define DL_IMU_TURNTABLE 220
 219:/home/lsk/paparazzi/var/include/messages.h **** #define DL_BARO_RAW 221
 220:/home/lsk/paparazzi/var/include/messages.h **** #define DL_AIR_DATA 222
 221:/home/lsk/paparazzi/var/include/messages.h **** #define DL_AMSL 223
 222:/home/lsk/paparazzi/var/include/messages.h **** #define DL_VIDEO_SYNC 225
 223:/home/lsk/paparazzi/var/include/messages.h **** #define DL_PERIODIC_TELEMETRY_ERR 226
 224:/home/lsk/paparazzi/var/include/messages.h **** #define DL_TIME 227
 225:/home/lsk/paparazzi/var/include/messages.h **** #define DL_OPTIC_FLOW_EST 228
 226:/home/lsk/paparazzi/var/include/messages.h **** #define DL_AHRS_ARDRONE2 230
 227:/home/lsk/paparazzi/var/include/messages.h **** #define DL_ROTORCRAFT_STATUS 231
 228:/home/lsk/paparazzi/var/include/messages.h **** #define DL_STATE_FILTER_STATUS 232
 229:/home/lsk/paparazzi/var/include/messages.h **** #define DL_PX4FLOW 233
 230:/home/lsk/paparazzi/var/include/messages.h **** #define DL_OPTICFLOW 234
 231:/home/lsk/paparazzi/var/include/messages.h **** #define DL_VISUALTARGET 235
 232:/home/lsk/paparazzi/var/include/messages.h **** #define DL_SONAR 236
 233:/home/lsk/paparazzi/var/include/messages.h **** #define DL_PAYLOAD_FLOAT 237
 234:/home/lsk/paparazzi/var/include/messages.h **** #define DL_NPS_POS_LLH 238
 235:/home/lsk/paparazzi/var/include/messages.h **** #define DL_NPS_RPMS 239
 236:/home/lsk/paparazzi/var/include/messages.h **** #define DL_NPS_SPEED_POS 240
 237:/home/lsk/paparazzi/var/include/messages.h **** #define DL_NPS_RATE_ATTITUDE 241
 238:/home/lsk/paparazzi/var/include/messages.h **** #define DL_NPS_GYRO_BIAS 242
 239:/home/lsk/paparazzi/var/include/messages.h **** #define DL_NPS_RANGE_METER 243
 240:/home/lsk/paparazzi/var/include/messages.h **** #define DL_NPS_WIND 244
 241:/home/lsk/paparazzi/var/include/messages.h **** #define DL_PPRZ_DEBUG 247
 242:/home/lsk/paparazzi/var/include/messages.h **** #define DL_NPS_ACCEL_LTP 248
 243:/home/lsk/paparazzi/var/include/messages.h **** #define DL_LOOSE_INS_GPS 249
 244:/home/lsk/paparazzi/var/include/messages.h **** #define DL_AFL_COEFFS 250
 245:/home/lsk/paparazzi/var/include/messages.h **** #define DL_I2C_ERRORS 253
 246:/home/lsk/paparazzi/var/include/messages.h **** #define DL_RDYB_TRAJECTORY 254
 247:/home/lsk/paparazzi/var/include/messages.h **** #define DL_HENRY_GNSS 255
 248:/home/lsk/paparazzi/var/include/messages.h **** #define DL_MSG_telemetry_NB 239
 249:/home/lsk/paparazzi/var/include/messages.h **** 
 250:/home/lsk/paparazzi/var/include/messages.h **** #define DOWNLINK_SEND_AUTOPILOT_VERSION(_trans, _dev, version, nb_desc, desc) pprz_msg_send_AUTOPIL
 251:/home/lsk/paparazzi/var/include/messages.h **** static inline void pprz_msg_send_AUTOPILOT_VERSION(struct transport_tx *trans, struct link_device *
 252:/home/lsk/paparazzi/var/include/messages.h **** 	if (trans->check_available_space(trans->impl, dev, trans->size_of(trans->impl, 0+4+1+nb_desc*1 +2 
 253:/home/lsk/paparazzi/var/include/messages.h **** 	  trans->count_bytes(trans->impl, dev, trans->size_of(trans->impl, 0+4+1+nb_desc*1 +2 /* msg heade
 254:/home/lsk/paparazzi/var/include/messages.h **** 	  trans->start_message(trans->impl, dev, 0+4+1+nb_desc*1 +2 /* msg header overhead */);
 255:/home/lsk/paparazzi/var/include/messages.h **** 	  trans->put_bytes(trans->impl, dev, DL_TYPE_UINT8, DL_FORMAT_SCALAR, 1, &ac_id);
 256:/home/lsk/paparazzi/var/include/messages.h **** 	  trans->put_named_byte(trans->impl, dev, DL_TYPE_UINT8, DL_FORMAT_SCALAR, DL_AUTOPILOT_VERSION, "
 257:/home/lsk/paparazzi/var/include/messages.h **** 	  trans->put_bytes(trans->impl, dev, DL_TYPE_UINT32, DL_FORMAT_SCALAR, 4, (void *) _version);
 258:/home/lsk/paparazzi/var/include/messages.h **** 	  trans->put_bytes(trans->impl, dev, DL_TYPE_ARRAY_LENGTH, DL_FORMAT_SCALAR, 1, (void *) &nb_desc)
 259:/home/lsk/paparazzi/var/include/messages.h **** 	  trans->put_bytes(trans->impl, dev, DL_TYPE_CHAR, DL_FORMAT_ARRAY, 1 * nb_desc, (void *) _desc);
 260:/home/lsk/paparazzi/var/include/messages.h **** 	  trans->end_message(trans->impl, dev);
 261:/home/lsk/paparazzi/var/include/messages.h **** 	} else
 262:/home/lsk/paparazzi/var/include/messages.h **** 	  trans->overrun(trans->impl, dev);
 263:/home/lsk/paparazzi/var/include/messages.h **** }
 264:/home/lsk/paparazzi/var/include/messages.h **** 
 265:/home/lsk/paparazzi/var/include/messages.h **** #define DOWNLINK_SEND_ALIVE(_trans, _dev, nb_md5sum, md5sum) pprz_msg_send_ALIVE(&((_trans).trans_t
 266:/home/lsk/paparazzi/var/include/messages.h **** static inline void pprz_msg_send_ALIVE(struct transport_tx *trans, struct link_device *dev, uint8_t
 267:/home/lsk/paparazzi/var/include/messages.h **** 	if (trans->check_available_space(trans->impl, dev, trans->size_of(trans->impl, 0+1+nb_md5sum*1 +2 
 268:/home/lsk/paparazzi/var/include/messages.h **** 	  trans->count_bytes(trans->impl, dev, trans->size_of(trans->impl, 0+1+nb_md5sum*1 +2 /* msg heade
 269:/home/lsk/paparazzi/var/include/messages.h **** 	  trans->start_message(trans->impl, dev, 0+1+nb_md5sum*1 +2 /* msg header overhead */);
 270:/home/lsk/paparazzi/var/include/messages.h **** 	  trans->put_bytes(trans->impl, dev, DL_TYPE_UINT8, DL_FORMAT_SCALAR, 1, &ac_id);
 271:/home/lsk/paparazzi/var/include/messages.h **** 	  trans->put_named_byte(trans->impl, dev, DL_TYPE_UINT8, DL_FORMAT_SCALAR, DL_ALIVE, "ALIVE");
 272:/home/lsk/paparazzi/var/include/messages.h **** 	  trans->put_bytes(trans->impl, dev, DL_TYPE_ARRAY_LENGTH, DL_FORMAT_SCALAR, 1, (void *) &nb_md5su
 273:/home/lsk/paparazzi/var/include/messages.h **** 	  trans->put_bytes(trans->impl, dev, DL_TYPE_UINT8, DL_FORMAT_ARRAY, 1 * nb_md5sum, (void *) _md5s
 274:/home/lsk/paparazzi/var/include/messages.h **** 	  trans->end_message(trans->impl, dev);
 275:/home/lsk/paparazzi/var/include/messages.h **** 	} else
 276:/home/lsk/paparazzi/var/include/messages.h **** 	  trans->overrun(trans->impl, dev);
 277:/home/lsk/paparazzi/var/include/messages.h **** }
 278:/home/lsk/paparazzi/var/include/messages.h **** 
 279:/home/lsk/paparazzi/var/include/messages.h **** #define DOWNLINK_SEND_PONG(_trans, _dev) pprz_msg_send_PONG(&((_trans).trans_tx), &((_dev).device),
 280:/home/lsk/paparazzi/var/include/messages.h **** static inline void pprz_msg_send_PONG(struct transport_tx *trans, struct link_device *dev, uint8_t 
 281:/home/lsk/paparazzi/var/include/messages.h **** 	if (trans->check_available_space(trans->impl, dev, trans->size_of(trans->impl, 0 +2 /* msg header 
 282:/home/lsk/paparazzi/var/include/messages.h **** 	  trans->count_bytes(trans->impl, dev, trans->size_of(trans->impl, 0 +2 /* msg header overhead */)
 283:/home/lsk/paparazzi/var/include/messages.h **** 	  trans->start_message(trans->impl, dev, 0 +2 /* msg header overhead */);
 284:/home/lsk/paparazzi/var/include/messages.h **** 	  trans->put_bytes(trans->impl, dev, DL_TYPE_UINT8, DL_FORMAT_SCALAR, 1, &ac_id);
 285:/home/lsk/paparazzi/var/include/messages.h **** 	  trans->put_named_byte(trans->impl, dev, DL_TYPE_UINT8, DL_FORMAT_SCALAR, DL_PONG, "PONG");
 286:/home/lsk/paparazzi/var/include/messages.h **** 	  trans->end_message(trans->impl, dev);
 287:/home/lsk/paparazzi/var/include/messages.h **** 	} else
 288:/home/lsk/paparazzi/var/include/messages.h **** 	  trans->overrun(trans->impl, dev);
 289:/home/lsk/paparazzi/var/include/messages.h **** }
 290:/home/lsk/paparazzi/var/include/messages.h **** 
 291:/home/lsk/paparazzi/var/include/messages.h **** #define DOWNLINK_SEND_TAKEOFF(_trans, _dev, cpu_time) pprz_msg_send_TAKEOFF(&((_trans).trans_tx), &
 292:/home/lsk/paparazzi/var/include/messages.h **** static inline void pprz_msg_send_TAKEOFF(struct transport_tx *trans, struct link_device *dev, uint8
 293:/home/lsk/paparazzi/var/include/messages.h **** 	if (trans->check_available_space(trans->impl, dev, trans->size_of(trans->impl, 0+2 +2 /* msg heade
 294:/home/lsk/paparazzi/var/include/messages.h **** 	  trans->count_bytes(trans->impl, dev, trans->size_of(trans->impl, 0+2 +2 /* msg header overhead *
 295:/home/lsk/paparazzi/var/include/messages.h **** 	  trans->start_message(trans->impl, dev, 0+2 +2 /* msg header overhead */);
 296:/home/lsk/paparazzi/var/include/messages.h **** 	  trans->put_bytes(trans->impl, dev, DL_TYPE_UINT8, DL_FORMAT_SCALAR, 1, &ac_id);
 297:/home/lsk/paparazzi/var/include/messages.h **** 	  trans->put_named_byte(trans->impl, dev, DL_TYPE_UINT8, DL_FORMAT_SCALAR, DL_TAKEOFF, "TAKEOFF");
 298:/home/lsk/paparazzi/var/include/messages.h **** 	  trans->put_bytes(trans->impl, dev, DL_TYPE_UINT16, DL_FORMAT_SCALAR, 2, (void *) _cpu_time);
 299:/home/lsk/paparazzi/var/include/messages.h **** 	  trans->end_message(trans->impl, dev);
 300:/home/lsk/paparazzi/var/include/messages.h **** 	} else
 301:/home/lsk/paparazzi/var/include/messages.h **** 	  trans->overrun(trans->impl, dev);
 302:/home/lsk/paparazzi/var/include/messages.h **** }
 303:/home/lsk/paparazzi/var/include/messages.h **** 
 304:/home/lsk/paparazzi/var/include/messages.h **** #define DOWNLINK_SEND_ARDRONE_NAVDATA(_trans, _dev, taille, nu_trame, ax, ay, az, vx, vy, vz, tempe
 305:/home/lsk/paparazzi/var/include/messages.h **** static inline void pprz_msg_send_ARDRONE_NAVDATA(struct transport_tx *trans, struct link_device *de
 306:/home/lsk/paparazzi/var/include/messages.h **** 	if (trans->check_available_space(trans->impl, dev, trans->size_of(trans->impl, 0+2+2+2+2+2+2+2+2+2
 307:/home/lsk/paparazzi/var/include/messages.h **** 	  trans->count_bytes(trans->impl, dev, trans->size_of(trans->impl, 0+2+2+2+2+2+2+2+2+2+2+2+2+2+2+2
 308:/home/lsk/paparazzi/var/include/messages.h **** 	  trans->start_message(trans->impl, dev, 0+2+2+2+2+2+2+2+2+2+2+2+2+2+2+2+2+2+2+2+4+2+2+4+2+2+2+2+2
 309:/home/lsk/paparazzi/var/include/messages.h **** 	  trans->put_bytes(trans->impl, dev, DL_TYPE_UINT8, DL_FORMAT_SCALAR, 1, &ac_id);
 310:/home/lsk/paparazzi/var/include/messages.h **** 	  trans->put_named_byte(trans->impl, dev, DL_TYPE_UINT8, DL_FORMAT_SCALAR, DL_ARDRONE_NAVDATA, "AR
 311:/home/lsk/paparazzi/var/include/messages.h **** 	  trans->put_bytes(trans->impl, dev, DL_TYPE_UINT16, DL_FORMAT_SCALAR, 2, (void *) _taille);
 312:/home/lsk/paparazzi/var/include/messages.h **** 	  trans->put_bytes(trans->impl, dev, DL_TYPE_UINT16, DL_FORMAT_SCALAR, 2, (void *) _nu_trame);
 313:/home/lsk/paparazzi/var/include/messages.h **** 	  trans->put_bytes(trans->impl, dev, DL_TYPE_UINT16, DL_FORMAT_SCALAR, 2, (void *) _ax);
 314:/home/lsk/paparazzi/var/include/messages.h **** 	  trans->put_bytes(trans->impl, dev, DL_TYPE_UINT16, DL_FORMAT_SCALAR, 2, (void *) _ay);
 315:/home/lsk/paparazzi/var/include/messages.h **** 	  trans->put_bytes(trans->impl, dev, DL_TYPE_UINT16, DL_FORMAT_SCALAR, 2, (void *) _az);
 316:/home/lsk/paparazzi/var/include/messages.h **** 	  trans->put_bytes(trans->impl, dev, DL_TYPE_INT16, DL_FORMAT_SCALAR, 2, (void *) _vx);
 317:/home/lsk/paparazzi/var/include/messages.h **** 	  trans->put_bytes(trans->impl, dev, DL_TYPE_INT16, DL_FORMAT_SCALAR, 2, (void *) _vy);
 318:/home/lsk/paparazzi/var/include/messages.h **** 	  trans->put_bytes(trans->impl, dev, DL_TYPE_INT16, DL_FORMAT_SCALAR, 2, (void *) _vz);
 319:/home/lsk/paparazzi/var/include/messages.h **** 	  trans->put_bytes(trans->impl, dev, DL_TYPE_UINT16, DL_FORMAT_SCALAR, 2, (void *) _temperature_ac
 320:/home/lsk/paparazzi/var/include/messages.h **** 	  trans->put_bytes(trans->impl, dev, DL_TYPE_UINT16, DL_FORMAT_SCALAR, 2, (void *) _temperature_gy
 321:/home/lsk/paparazzi/var/include/messages.h **** 	  trans->put_bytes(trans->impl, dev, DL_TYPE_UINT16, DL_FORMAT_SCALAR, 2, (void *) _ultrasound);
 322:/home/lsk/paparazzi/var/include/messages.h **** 	  trans->put_bytes(trans->impl, dev, DL_TYPE_UINT16, DL_FORMAT_SCALAR, 2, (void *) _us_debut_echo)
 323:/home/lsk/paparazzi/var/include/messages.h **** 	  trans->put_bytes(trans->impl, dev, DL_TYPE_UINT16, DL_FORMAT_SCALAR, 2, (void *) _us_fin_echo);
 324:/home/lsk/paparazzi/var/include/messages.h **** 	  trans->put_bytes(trans->impl, dev, DL_TYPE_UINT16, DL_FORMAT_SCALAR, 2, (void *) _us_association
 325:/home/lsk/paparazzi/var/include/messages.h **** 	  trans->put_bytes(trans->impl, dev, DL_TYPE_UINT16, DL_FORMAT_SCALAR, 2, (void *) _us_distance_ec
 326:/home/lsk/paparazzi/var/include/messages.h **** 	  trans->put_bytes(trans->impl, dev, DL_TYPE_UINT16, DL_FORMAT_SCALAR, 2, (void *) _us_curve_time)
 327:/home/lsk/paparazzi/var/include/messages.h **** 	  trans->put_bytes(trans->impl, dev, DL_TYPE_UINT16, DL_FORMAT_SCALAR, 2, (void *) _us_curve_value
 328:/home/lsk/paparazzi/var/include/messages.h **** 	  trans->put_bytes(trans->impl, dev, DL_TYPE_UINT16, DL_FORMAT_SCALAR, 2, (void *) _us_curve_ref);
 329:/home/lsk/paparazzi/var/include/messages.h **** 	  trans->put_bytes(trans->impl, dev, DL_TYPE_UINT16, DL_FORMAT_SCALAR, 2, (void *) _nb_echo);
 330:/home/lsk/paparazzi/var/include/messages.h **** 	  trans->put_bytes(trans->impl, dev, DL_TYPE_UINT32, DL_FORMAT_SCALAR, 4, (void *) _sum_echo);
 331:/home/lsk/paparazzi/var/include/messages.h **** 	  trans->put_bytes(trans->impl, dev, DL_TYPE_INT16, DL_FORMAT_SCALAR, 2, (void *) _gradient);
 332:/home/lsk/paparazzi/var/include/messages.h **** 	  trans->put_bytes(trans->impl, dev, DL_TYPE_UINT16, DL_FORMAT_SCALAR, 2, (void *) _flag_echo_ini)
 333:/home/lsk/paparazzi/var/include/messages.h **** 	  trans->put_bytes(trans->impl, dev, DL_TYPE_INT32, DL_FORMAT_SCALAR, 4, (void *) _pressure);
 334:/home/lsk/paparazzi/var/include/messages.h **** 	  trans->put_bytes(trans->impl, dev, DL_TYPE_UINT16, DL_FORMAT_SCALAR, 2, (void *) _temperature_pr
 335:/home/lsk/paparazzi/var/include/messages.h **** 	  trans->put_bytes(trans->impl, dev, DL_TYPE_INT16, DL_FORMAT_SCALAR, 2, (void *) _mx);
 336:/home/lsk/paparazzi/var/include/messages.h **** 	  trans->put_bytes(trans->impl, dev, DL_TYPE_INT16, DL_FORMAT_SCALAR, 2, (void *) _my);
 337:/home/lsk/paparazzi/var/include/messages.h **** 	  trans->put_bytes(trans->impl, dev, DL_TYPE_INT16, DL_FORMAT_SCALAR, 2, (void *) _mz);
 338:/home/lsk/paparazzi/var/include/messages.h **** 	  trans->put_bytes(trans->impl, dev, DL_TYPE_UINT16, DL_FORMAT_SCALAR, 2, (void *) _chksum);
 339:/home/lsk/paparazzi/var/include/messages.h **** 	  trans->put_bytes(trans->impl, dev, DL_TYPE_UINT32, DL_FORMAT_SCALAR, 4, (void *) _checksum_error
 340:/home/lsk/paparazzi/var/include/messages.h **** 	  trans->end_message(trans->impl, dev);
 341:/home/lsk/paparazzi/var/include/messages.h **** 	} else
 342:/home/lsk/paparazzi/var/include/messages.h **** 	  trans->overrun(trans->impl, dev);
 343:/home/lsk/paparazzi/var/include/messages.h **** }
 344:/home/lsk/paparazzi/var/include/messages.h **** 
 345:/home/lsk/paparazzi/var/include/messages.h **** #define DOWNLINK_SEND_ATTITUDE(_trans, _dev, phi, psi, theta) pprz_msg_send_ATTITUDE(&((_trans).tra
 346:/home/lsk/paparazzi/var/include/messages.h **** static inline void pprz_msg_send_ATTITUDE(struct transport_tx *trans, struct link_device *dev, uint
 347:/home/lsk/paparazzi/var/include/messages.h **** 	if (trans->check_available_space(trans->impl, dev, trans->size_of(trans->impl, 0+4+4+4 +2 /* msg h
 348:/home/lsk/paparazzi/var/include/messages.h **** 	  trans->count_bytes(trans->impl, dev, trans->size_of(trans->impl, 0+4+4+4 +2 /* msg header overhe
 349:/home/lsk/paparazzi/var/include/messages.h **** 	  trans->start_message(trans->impl, dev, 0+4+4+4 +2 /* msg header overhead */);
 350:/home/lsk/paparazzi/var/include/messages.h **** 	  trans->put_bytes(trans->impl, dev, DL_TYPE_UINT8, DL_FORMAT_SCALAR, 1, &ac_id);
 351:/home/lsk/paparazzi/var/include/messages.h **** 	  trans->put_named_byte(trans->impl, dev, DL_TYPE_UINT8, DL_FORMAT_SCALAR, DL_ATTITUDE, "ATTITUDE"
 352:/home/lsk/paparazzi/var/include/messages.h **** 	  trans->put_bytes(trans->impl, dev, DL_TYPE_FLOAT, DL_FORMAT_SCALAR, 4, (void *) _phi);
 353:/home/lsk/paparazzi/var/include/messages.h **** 	  trans->put_bytes(trans->impl, dev, DL_TYPE_FLOAT, DL_FORMAT_SCALAR, 4, (void *) _psi);
 354:/home/lsk/paparazzi/var/include/messages.h **** 	  trans->put_bytes(trans->impl, dev, DL_TYPE_FLOAT, DL_FORMAT_SCALAR, 4, (void *) _theta);
 355:/home/lsk/paparazzi/var/include/messages.h **** 	  trans->end_message(trans->impl, dev);
 356:/home/lsk/paparazzi/var/include/messages.h **** 	} else
 357:/home/lsk/paparazzi/var/include/messages.h **** 	  trans->overrun(trans->impl, dev);
 358:/home/lsk/paparazzi/var/include/messages.h **** }
 359:/home/lsk/paparazzi/var/include/messages.h **** 
 360:/home/lsk/paparazzi/var/include/messages.h **** #define DOWNLINK_SEND_IR_SENSORS(_trans, _dev, ir1, ir2, longitudinal, lateral, vertical) pprz_msg_
 361:/home/lsk/paparazzi/var/include/messages.h **** static inline void pprz_msg_send_IR_SENSORS(struct transport_tx *trans, struct link_device *dev, ui
 362:/home/lsk/paparazzi/var/include/messages.h **** 	if (trans->check_available_space(trans->impl, dev, trans->size_of(trans->impl, 0+2+2+2+2+2 +2 /* m
 363:/home/lsk/paparazzi/var/include/messages.h **** 	  trans->count_bytes(trans->impl, dev, trans->size_of(trans->impl, 0+2+2+2+2+2 +2 /* msg header ov
 364:/home/lsk/paparazzi/var/include/messages.h **** 	  trans->start_message(trans->impl, dev, 0+2+2+2+2+2 +2 /* msg header overhead */);
 365:/home/lsk/paparazzi/var/include/messages.h **** 	  trans->put_bytes(trans->impl, dev, DL_TYPE_UINT8, DL_FORMAT_SCALAR, 1, &ac_id);
 366:/home/lsk/paparazzi/var/include/messages.h **** 	  trans->put_named_byte(trans->impl, dev, DL_TYPE_UINT8, DL_FORMAT_SCALAR, DL_IR_SENSORS, "IR_SENS
 367:/home/lsk/paparazzi/var/include/messages.h **** 	  trans->put_bytes(trans->impl, dev, DL_TYPE_INT16, DL_FORMAT_SCALAR, 2, (void *) _ir1);
 368:/home/lsk/paparazzi/var/include/messages.h **** 	  trans->put_bytes(trans->impl, dev, DL_TYPE_INT16, DL_FORMAT_SCALAR, 2, (void *) _ir2);
 369:/home/lsk/paparazzi/var/include/messages.h **** 	  trans->put_bytes(trans->impl, dev, DL_TYPE_INT16, DL_FORMAT_SCALAR, 2, (void *) _longitudinal);
 370:/home/lsk/paparazzi/var/include/messages.h **** 	  trans->put_bytes(trans->impl, dev, DL_TYPE_INT16, DL_FORMAT_SCALAR, 2, (void *) _lateral);
 371:/home/lsk/paparazzi/var/include/messages.h **** 	  trans->put_bytes(trans->impl, dev, DL_TYPE_INT16, DL_FORMAT_SCALAR, 2, (void *) _vertical);
 372:/home/lsk/paparazzi/var/include/messages.h **** 	  trans->end_message(trans->impl, dev);
 373:/home/lsk/paparazzi/var/include/messages.h **** 	} else
 374:/home/lsk/paparazzi/var/include/messages.h **** 	  trans->overrun(trans->impl, dev);
 375:/home/lsk/paparazzi/var/include/messages.h **** }
 376:/home/lsk/paparazzi/var/include/messages.h **** 
 377:/home/lsk/paparazzi/var/include/messages.h **** #define DOWNLINK_SEND_GPS(_trans, _dev, mode, utm_east, utm_north, course, alt, speed, climb, week,
 378:/home/lsk/paparazzi/var/include/messages.h **** static inline void pprz_msg_send_GPS(struct transport_tx *trans, struct link_device *dev, uint8_t a
 379:/home/lsk/paparazzi/var/include/messages.h **** 	if (trans->check_available_space(trans->impl, dev, trans->size_of(trans->impl, 0+1+4+4+2+4+2+2+2+4
 380:/home/lsk/paparazzi/var/include/messages.h **** 	  trans->count_bytes(trans->impl, dev, trans->size_of(trans->impl, 0+1+4+4+2+4+2+2+2+4+1+1 +2 /* m
 381:/home/lsk/paparazzi/var/include/messages.h **** 	  trans->start_message(trans->impl, dev, 0+1+4+4+2+4+2+2+2+4+1+1 +2 /* msg header overhead */);
 382:/home/lsk/paparazzi/var/include/messages.h **** 	  trans->put_bytes(trans->impl, dev, DL_TYPE_UINT8, DL_FORMAT_SCALAR, 1, &ac_id);
 383:/home/lsk/paparazzi/var/include/messages.h **** 	  trans->put_named_byte(trans->impl, dev, DL_TYPE_UINT8, DL_FORMAT_SCALAR, DL_GPS, "GPS");
 384:/home/lsk/paparazzi/var/include/messages.h **** 	  trans->put_bytes(trans->impl, dev, DL_TYPE_UINT8, DL_FORMAT_SCALAR, 1, (void *) _mode);
 385:/home/lsk/paparazzi/var/include/messages.h **** 	  trans->put_bytes(trans->impl, dev, DL_TYPE_INT32, DL_FORMAT_SCALAR, 4, (void *) _utm_east);
 386:/home/lsk/paparazzi/var/include/messages.h **** 	  trans->put_bytes(trans->impl, dev, DL_TYPE_INT32, DL_FORMAT_SCALAR, 4, (void *) _utm_north);
 387:/home/lsk/paparazzi/var/include/messages.h **** 	  trans->put_bytes(trans->impl, dev, DL_TYPE_INT16, DL_FORMAT_SCALAR, 2, (void *) _course);
 388:/home/lsk/paparazzi/var/include/messages.h **** 	  trans->put_bytes(trans->impl, dev, DL_TYPE_INT32, DL_FORMAT_SCALAR, 4, (void *) _alt);
 389:/home/lsk/paparazzi/var/include/messages.h **** 	  trans->put_bytes(trans->impl, dev, DL_TYPE_UINT16, DL_FORMAT_SCALAR, 2, (void *) _speed);
 390:/home/lsk/paparazzi/var/include/messages.h **** 	  trans->put_bytes(trans->impl, dev, DL_TYPE_INT16, DL_FORMAT_SCALAR, 2, (void *) _climb);
 391:/home/lsk/paparazzi/var/include/messages.h **** 	  trans->put_bytes(trans->impl, dev, DL_TYPE_UINT16, DL_FORMAT_SCALAR, 2, (void *) _week);
 392:/home/lsk/paparazzi/var/include/messages.h **** 	  trans->put_bytes(trans->impl, dev, DL_TYPE_UINT32, DL_FORMAT_SCALAR, 4, (void *) _itow);
 393:/home/lsk/paparazzi/var/include/messages.h **** 	  trans->put_bytes(trans->impl, dev, DL_TYPE_UINT8, DL_FORMAT_SCALAR, 1, (void *) _utm_zone);
 394:/home/lsk/paparazzi/var/include/messages.h **** 	  trans->put_bytes(trans->impl, dev, DL_TYPE_UINT8, DL_FORMAT_SCALAR, 1, (void *) _gps_nb_err);
 395:/home/lsk/paparazzi/var/include/messages.h **** 	  trans->end_message(trans->impl, dev);
 396:/home/lsk/paparazzi/var/include/messages.h **** 	} else
 397:/home/lsk/paparazzi/var/include/messages.h **** 	  trans->overrun(trans->impl, dev);
 398:/home/lsk/paparazzi/var/include/messages.h **** }
 399:/home/lsk/paparazzi/var/include/messages.h **** 
 400:/home/lsk/paparazzi/var/include/messages.h **** #define DOWNLINK_SEND_NAVIGATION_REF(_trans, _dev, utm_east, utm_north, utm_zone, ground_alt) pprz_
 401:/home/lsk/paparazzi/var/include/messages.h **** static inline void pprz_msg_send_NAVIGATION_REF(struct transport_tx *trans, struct link_device *dev
 402:/home/lsk/paparazzi/var/include/messages.h **** 	if (trans->check_available_space(trans->impl, dev, trans->size_of(trans->impl, 0+4+4+1+4 +2 /* msg
 403:/home/lsk/paparazzi/var/include/messages.h **** 	  trans->count_bytes(trans->impl, dev, trans->size_of(trans->impl, 0+4+4+1+4 +2 /* msg header over
 404:/home/lsk/paparazzi/var/include/messages.h **** 	  trans->start_message(trans->impl, dev, 0+4+4+1+4 +2 /* msg header overhead */);
 405:/home/lsk/paparazzi/var/include/messages.h **** 	  trans->put_bytes(trans->impl, dev, DL_TYPE_UINT8, DL_FORMAT_SCALAR, 1, &ac_id);
 406:/home/lsk/paparazzi/var/include/messages.h **** 	  trans->put_named_byte(trans->impl, dev, DL_TYPE_UINT8, DL_FORMAT_SCALAR, DL_NAVIGATION_REF, "NAV
 407:/home/lsk/paparazzi/var/include/messages.h **** 	  trans->put_bytes(trans->impl, dev, DL_TYPE_INT32, DL_FORMAT_SCALAR, 4, (void *) _utm_east);
 408:/home/lsk/paparazzi/var/include/messages.h **** 	  trans->put_bytes(trans->impl, dev, DL_TYPE_INT32, DL_FORMAT_SCALAR, 4, (void *) _utm_north);
 409:/home/lsk/paparazzi/var/include/messages.h **** 	  trans->put_bytes(trans->impl, dev, DL_TYPE_UINT8, DL_FORMAT_SCALAR, 1, (void *) _utm_zone);
 410:/home/lsk/paparazzi/var/include/messages.h **** 	  trans->put_bytes(trans->impl, dev, DL_TYPE_FLOAT, DL_FORMAT_SCALAR, 4, (void *) _ground_alt);
 411:/home/lsk/paparazzi/var/include/messages.h **** 	  trans->end_message(trans->impl, dev);
 412:/home/lsk/paparazzi/var/include/messages.h **** 	} else
 413:/home/lsk/paparazzi/var/include/messages.h **** 	  trans->overrun(trans->impl, dev);
 414:/home/lsk/paparazzi/var/include/messages.h **** }
 415:/home/lsk/paparazzi/var/include/messages.h **** 
 416:/home/lsk/paparazzi/var/include/messages.h **** #define DOWNLINK_SEND_NAVIGATION(_trans, _dev, cur_block, cur_stage, pos_x, pos_y, dist_wp, dist_ho
 417:/home/lsk/paparazzi/var/include/messages.h **** static inline void pprz_msg_send_NAVIGATION(struct transport_tx *trans, struct link_device *dev, ui
 418:/home/lsk/paparazzi/var/include/messages.h **** 	if (trans->check_available_space(trans->impl, dev, trans->size_of(trans->impl, 0+1+1+4+4+4+4+1+1 +
 419:/home/lsk/paparazzi/var/include/messages.h **** 	  trans->count_bytes(trans->impl, dev, trans->size_of(trans->impl, 0+1+1+4+4+4+4+1+1 +2 /* msg hea
 420:/home/lsk/paparazzi/var/include/messages.h **** 	  trans->start_message(trans->impl, dev, 0+1+1+4+4+4+4+1+1 +2 /* msg header overhead */);
 421:/home/lsk/paparazzi/var/include/messages.h **** 	  trans->put_bytes(trans->impl, dev, DL_TYPE_UINT8, DL_FORMAT_SCALAR, 1, &ac_id);
 422:/home/lsk/paparazzi/var/include/messages.h **** 	  trans->put_named_byte(trans->impl, dev, DL_TYPE_UINT8, DL_FORMAT_SCALAR, DL_NAVIGATION, "NAVIGAT
 423:/home/lsk/paparazzi/var/include/messages.h **** 	  trans->put_bytes(trans->impl, dev, DL_TYPE_UINT8, DL_FORMAT_SCALAR, 1, (void *) _cur_block);
 424:/home/lsk/paparazzi/var/include/messages.h **** 	  trans->put_bytes(trans->impl, dev, DL_TYPE_UINT8, DL_FORMAT_SCALAR, 1, (void *) _cur_stage);
 425:/home/lsk/paparazzi/var/include/messages.h **** 	  trans->put_bytes(trans->impl, dev, DL_TYPE_FLOAT, DL_FORMAT_SCALAR, 4, (void *) _pos_x);
 426:/home/lsk/paparazzi/var/include/messages.h **** 	  trans->put_bytes(trans->impl, dev, DL_TYPE_FLOAT, DL_FORMAT_SCALAR, 4, (void *) _pos_y);
 427:/home/lsk/paparazzi/var/include/messages.h **** 	  trans->put_bytes(trans->impl, dev, DL_TYPE_FLOAT, DL_FORMAT_SCALAR, 4, (void *) _dist_wp);
 428:/home/lsk/paparazzi/var/include/messages.h **** 	  trans->put_bytes(trans->impl, dev, DL_TYPE_FLOAT, DL_FORMAT_SCALAR, 4, (void *) _dist_home);
 429:/home/lsk/paparazzi/var/include/messages.h **** 	  trans->put_bytes(trans->impl, dev, DL_TYPE_UINT8, DL_FORMAT_SCALAR, 1, (void *) _circle_count);
 430:/home/lsk/paparazzi/var/include/messages.h **** 	  trans->put_bytes(trans->impl, dev, DL_TYPE_UINT8, DL_FORMAT_SCALAR, 1, (void *) _oval_count);
 431:/home/lsk/paparazzi/var/include/messages.h **** 	  trans->end_message(trans->impl, dev);
 432:/home/lsk/paparazzi/var/include/messages.h **** 	} else
 433:/home/lsk/paparazzi/var/include/messages.h **** 	  trans->overrun(trans->impl, dev);
 434:/home/lsk/paparazzi/var/include/messages.h **** }
 435:/home/lsk/paparazzi/var/include/messages.h **** 
 436:/home/lsk/paparazzi/var/include/messages.h **** #define DOWNLINK_SEND_PPRZ_MODE(_trans, _dev, ap_mode, ap_gaz, ap_lateral, ap_horizontal, if_calib_
 437:/home/lsk/paparazzi/var/include/messages.h **** static inline void pprz_msg_send_PPRZ_MODE(struct transport_tx *trans, struct link_device *dev, uin
 438:/home/lsk/paparazzi/var/include/messages.h **** 	if (trans->check_available_space(trans->impl, dev, trans->size_of(trans->impl, 0+1+1+1+1+1+1 +2 /*
 439:/home/lsk/paparazzi/var/include/messages.h **** 	  trans->count_bytes(trans->impl, dev, trans->size_of(trans->impl, 0+1+1+1+1+1+1 +2 /* msg header 
 440:/home/lsk/paparazzi/var/include/messages.h **** 	  trans->start_message(trans->impl, dev, 0+1+1+1+1+1+1 +2 /* msg header overhead */);
 441:/home/lsk/paparazzi/var/include/messages.h **** 	  trans->put_bytes(trans->impl, dev, DL_TYPE_UINT8, DL_FORMAT_SCALAR, 1, &ac_id);
 442:/home/lsk/paparazzi/var/include/messages.h **** 	  trans->put_named_byte(trans->impl, dev, DL_TYPE_UINT8, DL_FORMAT_SCALAR, DL_PPRZ_MODE, "PPRZ_MOD
 443:/home/lsk/paparazzi/var/include/messages.h **** 	  trans->put_bytes(trans->impl, dev, DL_TYPE_UINT8, DL_FORMAT_SCALAR, 1, (void *) _ap_mode);
 444:/home/lsk/paparazzi/var/include/messages.h **** 	  trans->put_bytes(trans->impl, dev, DL_TYPE_UINT8, DL_FORMAT_SCALAR, 1, (void *) _ap_gaz);
 445:/home/lsk/paparazzi/var/include/messages.h **** 	  trans->put_bytes(trans->impl, dev, DL_TYPE_UINT8, DL_FORMAT_SCALAR, 1, (void *) _ap_lateral);
 446:/home/lsk/paparazzi/var/include/messages.h **** 	  trans->put_bytes(trans->impl, dev, DL_TYPE_UINT8, DL_FORMAT_SCALAR, 1, (void *) _ap_horizontal);
 447:/home/lsk/paparazzi/var/include/messages.h **** 	  trans->put_bytes(trans->impl, dev, DL_TYPE_UINT8, DL_FORMAT_SCALAR, 1, (void *) _if_calib_mode);
 448:/home/lsk/paparazzi/var/include/messages.h **** 	  trans->put_bytes(trans->impl, dev, DL_TYPE_UINT8, DL_FORMAT_SCALAR, 1, (void *) _mcu1_status);
 449:/home/lsk/paparazzi/var/include/messages.h **** 	  trans->end_message(trans->impl, dev);
 450:/home/lsk/paparazzi/var/include/messages.h **** 	} else
 451:/home/lsk/paparazzi/var/include/messages.h **** 	  trans->overrun(trans->impl, dev);
 452:/home/lsk/paparazzi/var/include/messages.h **** }
 453:/home/lsk/paparazzi/var/include/messages.h **** 
 454:/home/lsk/paparazzi/var/include/messages.h **** #define DOWNLINK_SEND_BAT(_trans, _dev, throttle, voltage, amps, flight_time, kill_auto_throttle, b
 455:/home/lsk/paparazzi/var/include/messages.h **** static inline void pprz_msg_send_BAT(struct transport_tx *trans, struct link_device *dev, uint8_t a
 456:/home/lsk/paparazzi/var/include/messages.h **** 	if (trans->check_available_space(trans->impl, dev, trans->size_of(trans->impl, 0+2+2+2+2+1+2+2+2 +
 457:/home/lsk/paparazzi/var/include/messages.h **** 	  trans->count_bytes(trans->impl, dev, trans->size_of(trans->impl, 0+2+2+2+2+1+2+2+2 +2 /* msg hea
 458:/home/lsk/paparazzi/var/include/messages.h **** 	  trans->start_message(trans->impl, dev, 0+2+2+2+2+1+2+2+2 +2 /* msg header overhead */);
 459:/home/lsk/paparazzi/var/include/messages.h **** 	  trans->put_bytes(trans->impl, dev, DL_TYPE_UINT8, DL_FORMAT_SCALAR, 1, &ac_id);
 460:/home/lsk/paparazzi/var/include/messages.h **** 	  trans->put_named_byte(trans->impl, dev, DL_TYPE_UINT8, DL_FORMAT_SCALAR, DL_BAT, "BAT");
 461:/home/lsk/paparazzi/var/include/messages.h **** 	  trans->put_bytes(trans->impl, dev, DL_TYPE_INT16, DL_FORMAT_SCALAR, 2, (void *) _throttle);
 462:/home/lsk/paparazzi/var/include/messages.h **** 	  trans->put_bytes(trans->impl, dev, DL_TYPE_UINT16, DL_FORMAT_SCALAR, 2, (void *) _voltage);
 463:/home/lsk/paparazzi/var/include/messages.h **** 	  trans->put_bytes(trans->impl, dev, DL_TYPE_INT16, DL_FORMAT_SCALAR, 2, (void *) _amps);
 464:/home/lsk/paparazzi/var/include/messages.h **** 	  trans->put_bytes(trans->impl, dev, DL_TYPE_UINT16, DL_FORMAT_SCALAR, 2, (void *) _flight_time);
 465:/home/lsk/paparazzi/var/include/messages.h **** 	  trans->put_bytes(trans->impl, dev, DL_TYPE_UINT8, DL_FORMAT_SCALAR, 1, (void *) _kill_auto_throt
 466:/home/lsk/paparazzi/var/include/messages.h **** 	  trans->put_bytes(trans->impl, dev, DL_TYPE_UINT16, DL_FORMAT_SCALAR, 2, (void *) _block_time);
 467:/home/lsk/paparazzi/var/include/messages.h **** 	  trans->put_bytes(trans->impl, dev, DL_TYPE_UINT16, DL_FORMAT_SCALAR, 2, (void *) _stage_time);
 468:/home/lsk/paparazzi/var/include/messages.h **** 	  trans->put_bytes(trans->impl, dev, DL_TYPE_INT16, DL_FORMAT_SCALAR, 2, (void *) _energy);
 469:/home/lsk/paparazzi/var/include/messages.h **** 	  trans->end_message(trans->impl, dev);
 470:/home/lsk/paparazzi/var/include/messages.h **** 	} else
 471:/home/lsk/paparazzi/var/include/messages.h **** 	  trans->overrun(trans->impl, dev);
 472:/home/lsk/paparazzi/var/include/messages.h **** }
 473:/home/lsk/paparazzi/var/include/messages.h **** 
 474:/home/lsk/paparazzi/var/include/messages.h **** #define DOWNLINK_SEND_DEBUG_MCU_LINK(_trans, _dev, i2c_nb_err, i2c_mcu1_nb_err, ppm_rate) pprz_msg_
 475:/home/lsk/paparazzi/var/include/messages.h **** static inline void pprz_msg_send_DEBUG_MCU_LINK(struct transport_tx *trans, struct link_device *dev
 476:/home/lsk/paparazzi/var/include/messages.h **** 	if (trans->check_available_space(trans->impl, dev, trans->size_of(trans->impl, 0+1+1+1 +2 /* msg h
 477:/home/lsk/paparazzi/var/include/messages.h **** 	  trans->count_bytes(trans->impl, dev, trans->size_of(trans->impl, 0+1+1+1 +2 /* msg header overhe
 478:/home/lsk/paparazzi/var/include/messages.h **** 	  trans->start_message(trans->impl, dev, 0+1+1+1 +2 /* msg header overhead */);
 479:/home/lsk/paparazzi/var/include/messages.h **** 	  trans->put_bytes(trans->impl, dev, DL_TYPE_UINT8, DL_FORMAT_SCALAR, 1, &ac_id);
 480:/home/lsk/paparazzi/var/include/messages.h **** 	  trans->put_named_byte(trans->impl, dev, DL_TYPE_UINT8, DL_FORMAT_SCALAR, DL_DEBUG_MCU_LINK, "DEB
 481:/home/lsk/paparazzi/var/include/messages.h **** 	  trans->put_bytes(trans->impl, dev, DL_TYPE_UINT8, DL_FORMAT_SCALAR, 1, (void *) _i2c_nb_err);
 482:/home/lsk/paparazzi/var/include/messages.h **** 	  trans->put_bytes(trans->impl, dev, DL_TYPE_UINT8, DL_FORMAT_SCALAR, 1, (void *) _i2c_mcu1_nb_err
 483:/home/lsk/paparazzi/var/include/messages.h **** 	  trans->put_bytes(trans->impl, dev, DL_TYPE_UINT8, DL_FORMAT_SCALAR, 1, (void *) _ppm_rate);
 484:/home/lsk/paparazzi/var/include/messages.h **** 	  trans->end_message(trans->impl, dev);
 485:/home/lsk/paparazzi/var/include/messages.h **** 	} else
 486:/home/lsk/paparazzi/var/include/messages.h **** 	  trans->overrun(trans->impl, dev);
 487:/home/lsk/paparazzi/var/include/messages.h **** }
 488:/home/lsk/paparazzi/var/include/messages.h **** 
 489:/home/lsk/paparazzi/var/include/messages.h **** #define DOWNLINK_SEND_CALIBRATION(_trans, _dev, climb_sum_err, climb_gaz_submode) pprz_msg_send_CAL
 490:/home/lsk/paparazzi/var/include/messages.h **** static inline void pprz_msg_send_CALIBRATION(struct transport_tx *trans, struct link_device *dev, u
 491:/home/lsk/paparazzi/var/include/messages.h **** 	if (trans->check_available_space(trans->impl, dev, trans->size_of(trans->impl, 0+4+1 +2 /* msg hea
 492:/home/lsk/paparazzi/var/include/messages.h **** 	  trans->count_bytes(trans->impl, dev, trans->size_of(trans->impl, 0+4+1 +2 /* msg header overhead
 493:/home/lsk/paparazzi/var/include/messages.h **** 	  trans->start_message(trans->impl, dev, 0+4+1 +2 /* msg header overhead */);
 494:/home/lsk/paparazzi/var/include/messages.h **** 	  trans->put_bytes(trans->impl, dev, DL_TYPE_UINT8, DL_FORMAT_SCALAR, 1, &ac_id);
 495:/home/lsk/paparazzi/var/include/messages.h **** 	  trans->put_named_byte(trans->impl, dev, DL_TYPE_UINT8, DL_FORMAT_SCALAR, DL_CALIBRATION, "CALIBR
 496:/home/lsk/paparazzi/var/include/messages.h **** 	  trans->put_bytes(trans->impl, dev, DL_TYPE_FLOAT, DL_FORMAT_SCALAR, 4, (void *) _climb_sum_err);
 497:/home/lsk/paparazzi/var/include/messages.h **** 	  trans->put_bytes(trans->impl, dev, DL_TYPE_UINT8, DL_FORMAT_SCALAR, 1, (void *) _climb_gaz_submo
 498:/home/lsk/paparazzi/var/include/messages.h **** 	  trans->end_message(trans->impl, dev);
 499:/home/lsk/paparazzi/var/include/messages.h **** 	} else
 500:/home/lsk/paparazzi/var/include/messages.h **** 	  trans->overrun(trans->impl, dev);
 501:/home/lsk/paparazzi/var/include/messages.h **** }
 502:/home/lsk/paparazzi/var/include/messages.h **** 
 503:/home/lsk/paparazzi/var/include/messages.h **** #define DOWNLINK_SEND_SETTINGS(_trans, _dev, slider_1_val, slider_2_val) pprz_msg_send_SETTINGS(&((
 504:/home/lsk/paparazzi/var/include/messages.h **** static inline void pprz_msg_send_SETTINGS(struct transport_tx *trans, struct link_device *dev, uint
 505:/home/lsk/paparazzi/var/include/messages.h **** 	if (trans->check_available_space(trans->impl, dev, trans->size_of(trans->impl, 0+4+4 +2 /* msg hea
 506:/home/lsk/paparazzi/var/include/messages.h **** 	  trans->count_bytes(trans->impl, dev, trans->size_of(trans->impl, 0+4+4 +2 /* msg header overhead
 507:/home/lsk/paparazzi/var/include/messages.h **** 	  trans->start_message(trans->impl, dev, 0+4+4 +2 /* msg header overhead */);
 508:/home/lsk/paparazzi/var/include/messages.h **** 	  trans->put_bytes(trans->impl, dev, DL_TYPE_UINT8, DL_FORMAT_SCALAR, 1, &ac_id);
 509:/home/lsk/paparazzi/var/include/messages.h **** 	  trans->put_named_byte(trans->impl, dev, DL_TYPE_UINT8, DL_FORMAT_SCALAR, DL_SETTINGS, "SETTINGS"
 510:/home/lsk/paparazzi/var/include/messages.h **** 	  trans->put_bytes(trans->impl, dev, DL_TYPE_FLOAT, DL_FORMAT_SCALAR, 4, (void *) _slider_1_val);
 511:/home/lsk/paparazzi/var/include/messages.h **** 	  trans->put_bytes(trans->impl, dev, DL_TYPE_FLOAT, DL_FORMAT_SCALAR, 4, (void *) _slider_2_val);
 512:/home/lsk/paparazzi/var/include/messages.h **** 	  trans->end_message(trans->impl, dev);
 513:/home/lsk/paparazzi/var/include/messages.h **** 	} else
 514:/home/lsk/paparazzi/var/include/messages.h **** 	  trans->overrun(trans->impl, dev);
 515:/home/lsk/paparazzi/var/include/messages.h **** }
 516:/home/lsk/paparazzi/var/include/messages.h **** 
 517:/home/lsk/paparazzi/var/include/messages.h **** #define DOWNLINK_SEND_DESIRED(_trans, _dev, roll, pitch, course, x, y, altitude, climb, airspeed) p
 518:/home/lsk/paparazzi/var/include/messages.h **** static inline void pprz_msg_send_DESIRED(struct transport_tx *trans, struct link_device *dev, uint8
 519:/home/lsk/paparazzi/var/include/messages.h **** 	if (trans->check_available_space(trans->impl, dev, trans->size_of(trans->impl, 0+4+4+4+4+4+4+4+4 +
 520:/home/lsk/paparazzi/var/include/messages.h **** 	  trans->count_bytes(trans->impl, dev, trans->size_of(trans->impl, 0+4+4+4+4+4+4+4+4 +2 /* msg hea
 521:/home/lsk/paparazzi/var/include/messages.h **** 	  trans->start_message(trans->impl, dev, 0+4+4+4+4+4+4+4+4 +2 /* msg header overhead */);
 522:/home/lsk/paparazzi/var/include/messages.h **** 	  trans->put_bytes(trans->impl, dev, DL_TYPE_UINT8, DL_FORMAT_SCALAR, 1, &ac_id);
 523:/home/lsk/paparazzi/var/include/messages.h **** 	  trans->put_named_byte(trans->impl, dev, DL_TYPE_UINT8, DL_FORMAT_SCALAR, DL_DESIRED, "DESIRED");
 524:/home/lsk/paparazzi/var/include/messages.h **** 	  trans->put_bytes(trans->impl, dev, DL_TYPE_FLOAT, DL_FORMAT_SCALAR, 4, (void *) _roll);
 525:/home/lsk/paparazzi/var/include/messages.h **** 	  trans->put_bytes(trans->impl, dev, DL_TYPE_FLOAT, DL_FORMAT_SCALAR, 4, (void *) _pitch);
 526:/home/lsk/paparazzi/var/include/messages.h **** 	  trans->put_bytes(trans->impl, dev, DL_TYPE_FLOAT, DL_FORMAT_SCALAR, 4, (void *) _course);
 527:/home/lsk/paparazzi/var/include/messages.h **** 	  trans->put_bytes(trans->impl, dev, DL_TYPE_FLOAT, DL_FORMAT_SCALAR, 4, (void *) _x);
 528:/home/lsk/paparazzi/var/include/messages.h **** 	  trans->put_bytes(trans->impl, dev, DL_TYPE_FLOAT, DL_FORMAT_SCALAR, 4, (void *) _y);
 529:/home/lsk/paparazzi/var/include/messages.h **** 	  trans->put_bytes(trans->impl, dev, DL_TYPE_FLOAT, DL_FORMAT_SCALAR, 4, (void *) _altitude);
 530:/home/lsk/paparazzi/var/include/messages.h **** 	  trans->put_bytes(trans->impl, dev, DL_TYPE_FLOAT, DL_FORMAT_SCALAR, 4, (void *) _climb);
 531:/home/lsk/paparazzi/var/include/messages.h **** 	  trans->put_bytes(trans->impl, dev, DL_TYPE_FLOAT, DL_FORMAT_SCALAR, 4, (void *) _airspeed);
 532:/home/lsk/paparazzi/var/include/messages.h **** 	  trans->end_message(trans->impl, dev);
 533:/home/lsk/paparazzi/var/include/messages.h **** 	} else
 534:/home/lsk/paparazzi/var/include/messages.h **** 	  trans->overrun(trans->impl, dev);
 535:/home/lsk/paparazzi/var/include/messages.h **** }
 536:/home/lsk/paparazzi/var/include/messages.h **** 
 537:/home/lsk/paparazzi/var/include/messages.h **** #define DOWNLINK_SEND_GPS_SOL(_trans, _dev, Pacc, Sacc, PDOP, numSV) pprz_msg_send_GPS_SOL(&((_tran
 538:/home/lsk/paparazzi/var/include/messages.h **** static inline void pprz_msg_send_GPS_SOL(struct transport_tx *trans, struct link_device *dev, uint8
 539:/home/lsk/paparazzi/var/include/messages.h **** 	if (trans->check_available_space(trans->impl, dev, trans->size_of(trans->impl, 0+4+4+2+1 +2 /* msg
 540:/home/lsk/paparazzi/var/include/messages.h **** 	  trans->count_bytes(trans->impl, dev, trans->size_of(trans->impl, 0+4+4+2+1 +2 /* msg header over
 541:/home/lsk/paparazzi/var/include/messages.h **** 	  trans->start_message(trans->impl, dev, 0+4+4+2+1 +2 /* msg header overhead */);
 542:/home/lsk/paparazzi/var/include/messages.h **** 	  trans->put_bytes(trans->impl, dev, DL_TYPE_UINT8, DL_FORMAT_SCALAR, 1, &ac_id);
 543:/home/lsk/paparazzi/var/include/messages.h **** 	  trans->put_named_byte(trans->impl, dev, DL_TYPE_UINT8, DL_FORMAT_SCALAR, DL_GPS_SOL, "GPS_SOL");
 544:/home/lsk/paparazzi/var/include/messages.h **** 	  trans->put_bytes(trans->impl, dev, DL_TYPE_UINT32, DL_FORMAT_SCALAR, 4, (void *) _Pacc);
 545:/home/lsk/paparazzi/var/include/messages.h **** 	  trans->put_bytes(trans->impl, dev, DL_TYPE_UINT32, DL_FORMAT_SCALAR, 4, (void *) _Sacc);
 546:/home/lsk/paparazzi/var/include/messages.h **** 	  trans->put_bytes(trans->impl, dev, DL_TYPE_UINT16, DL_FORMAT_SCALAR, 2, (void *) _PDOP);
 547:/home/lsk/paparazzi/var/include/messages.h **** 	  trans->put_bytes(trans->impl, dev, DL_TYPE_UINT8, DL_FORMAT_SCALAR, 1, (void *) _numSV);
 548:/home/lsk/paparazzi/var/include/messages.h **** 	  trans->end_message(trans->impl, dev);
 549:/home/lsk/paparazzi/var/include/messages.h **** 	} else
 550:/home/lsk/paparazzi/var/include/messages.h **** 	  trans->overrun(trans->impl, dev);
 551:/home/lsk/paparazzi/var/include/messages.h **** }
 552:/home/lsk/paparazzi/var/include/messages.h **** 
 553:/home/lsk/paparazzi/var/include/messages.h **** #define DOWNLINK_SEND_ADC_GENERIC(_trans, _dev, val1, val2) pprz_msg_send_ADC_GENERIC(&((_trans).tr
 554:/home/lsk/paparazzi/var/include/messages.h **** static inline void pprz_msg_send_ADC_GENERIC(struct transport_tx *trans, struct link_device *dev, u
 555:/home/lsk/paparazzi/var/include/messages.h **** 	if (trans->check_available_space(trans->impl, dev, trans->size_of(trans->impl, 0+2+2 +2 /* msg hea
 556:/home/lsk/paparazzi/var/include/messages.h **** 	  trans->count_bytes(trans->impl, dev, trans->size_of(trans->impl, 0+2+2 +2 /* msg header overhead
 557:/home/lsk/paparazzi/var/include/messages.h **** 	  trans->start_message(trans->impl, dev, 0+2+2 +2 /* msg header overhead */);
 558:/home/lsk/paparazzi/var/include/messages.h **** 	  trans->put_bytes(trans->impl, dev, DL_TYPE_UINT8, DL_FORMAT_SCALAR, 1, &ac_id);
 559:/home/lsk/paparazzi/var/include/messages.h **** 	  trans->put_named_byte(trans->impl, dev, DL_TYPE_UINT8, DL_FORMAT_SCALAR, DL_ADC_GENERIC, "ADC_GE
 560:/home/lsk/paparazzi/var/include/messages.h **** 	  trans->put_bytes(trans->impl, dev, DL_TYPE_UINT16, DL_FORMAT_SCALAR, 2, (void *) _val1);
 561:/home/lsk/paparazzi/var/include/messages.h **** 	  trans->put_bytes(trans->impl, dev, DL_TYPE_UINT16, DL_FORMAT_SCALAR, 2, (void *) _val2);
 562:/home/lsk/paparazzi/var/include/messages.h **** 	  trans->end_message(trans->impl, dev);
 563:/home/lsk/paparazzi/var/include/messages.h **** 	} else
 564:/home/lsk/paparazzi/var/include/messages.h **** 	  trans->overrun(trans->impl, dev);
 565:/home/lsk/paparazzi/var/include/messages.h **** }
 566:/home/lsk/paparazzi/var/include/messages.h **** 
 567:/home/lsk/paparazzi/var/include/messages.h **** #define DOWNLINK_SEND_TEST_FORMAT(_trans, _dev, val1, val2) pprz_msg_send_TEST_FORMAT(&((_trans).tr
 568:/home/lsk/paparazzi/var/include/messages.h **** static inline void pprz_msg_send_TEST_FORMAT(struct transport_tx *trans, struct link_device *dev, u
 569:/home/lsk/paparazzi/var/include/messages.h **** 	if (trans->check_available_space(trans->impl, dev, trans->size_of(trans->impl, 0+8+4 +2 /* msg hea
 570:/home/lsk/paparazzi/var/include/messages.h **** 	  trans->count_bytes(trans->impl, dev, trans->size_of(trans->impl, 0+8+4 +2 /* msg header overhead
 571:/home/lsk/paparazzi/var/include/messages.h **** 	  trans->start_message(trans->impl, dev, 0+8+4 +2 /* msg header overhead */);
 572:/home/lsk/paparazzi/var/include/messages.h **** 	  trans->put_bytes(trans->impl, dev, DL_TYPE_UINT8, DL_FORMAT_SCALAR, 1, &ac_id);
 573:/home/lsk/paparazzi/var/include/messages.h **** 	  trans->put_named_byte(trans->impl, dev, DL_TYPE_UINT8, DL_FORMAT_SCALAR, DL_TEST_FORMAT, "TEST_F
 574:/home/lsk/paparazzi/var/include/messages.h **** 	  trans->put_bytes(trans->impl, dev, DL_TYPE_DOUBLE, DL_FORMAT_SCALAR, 8, (void *) _val1);
 575:/home/lsk/paparazzi/var/include/messages.h **** 	  trans->put_bytes(trans->impl, dev, DL_TYPE_FLOAT, DL_FORMAT_SCALAR, 4, (void *) _val2);
 576:/home/lsk/paparazzi/var/include/messages.h **** 	  trans->end_message(trans->impl, dev);
 577:/home/lsk/paparazzi/var/include/messages.h **** 	} else
 578:/home/lsk/paparazzi/var/include/messages.h **** 	  trans->overrun(trans->impl, dev);
 579:/home/lsk/paparazzi/var/include/messages.h **** }
 580:/home/lsk/paparazzi/var/include/messages.h **** 
 581:/home/lsk/paparazzi/var/include/messages.h **** #define DOWNLINK_SEND_CAM(_trans, _dev, phi, theta, target_x, target_y) pprz_msg_send_CAM(&((_trans
 582:/home/lsk/paparazzi/var/include/messages.h **** static inline void pprz_msg_send_CAM(struct transport_tx *trans, struct link_device *dev, uint8_t a
 583:/home/lsk/paparazzi/var/include/messages.h **** 	if (trans->check_available_space(trans->impl, dev, trans->size_of(trans->impl, 0+2+2+2+2 +2 /* msg
 584:/home/lsk/paparazzi/var/include/messages.h **** 	  trans->count_bytes(trans->impl, dev, trans->size_of(trans->impl, 0+2+2+2+2 +2 /* msg header over
 585:/home/lsk/paparazzi/var/include/messages.h **** 	  trans->start_message(trans->impl, dev, 0+2+2+2+2 +2 /* msg header overhead */);
 586:/home/lsk/paparazzi/var/include/messages.h **** 	  trans->put_bytes(trans->impl, dev, DL_TYPE_UINT8, DL_FORMAT_SCALAR, 1, &ac_id);
 587:/home/lsk/paparazzi/var/include/messages.h **** 	  trans->put_named_byte(trans->impl, dev, DL_TYPE_UINT8, DL_FORMAT_SCALAR, DL_CAM, "CAM");
 588:/home/lsk/paparazzi/var/include/messages.h **** 	  trans->put_bytes(trans->impl, dev, DL_TYPE_INT16, DL_FORMAT_SCALAR, 2, (void *) _phi);
 589:/home/lsk/paparazzi/var/include/messages.h **** 	  trans->put_bytes(trans->impl, dev, DL_TYPE_INT16, DL_FORMAT_SCALAR, 2, (void *) _theta);
 590:/home/lsk/paparazzi/var/include/messages.h **** 	  trans->put_bytes(trans->impl, dev, DL_TYPE_INT16, DL_FORMAT_SCALAR, 2, (void *) _target_x);
 591:/home/lsk/paparazzi/var/include/messages.h **** 	  trans->put_bytes(trans->impl, dev, DL_TYPE_INT16, DL_FORMAT_SCALAR, 2, (void *) _target_y);
 592:/home/lsk/paparazzi/var/include/messages.h **** 	  trans->end_message(trans->impl, dev);
 593:/home/lsk/paparazzi/var/include/messages.h **** 	} else
 594:/home/lsk/paparazzi/var/include/messages.h **** 	  trans->overrun(trans->impl, dev);
 595:/home/lsk/paparazzi/var/include/messages.h **** }
 596:/home/lsk/paparazzi/var/include/messages.h **** 
 597:/home/lsk/paparazzi/var/include/messages.h **** #define DOWNLINK_SEND_CIRCLE(_trans, _dev, center_east, center_north, radius) pprz_msg_send_CIRCLE(
 598:/home/lsk/paparazzi/var/include/messages.h **** static inline void pprz_msg_send_CIRCLE(struct transport_tx *trans, struct link_device *dev, uint8_
 599:/home/lsk/paparazzi/var/include/messages.h **** 	if (trans->check_available_space(trans->impl, dev, trans->size_of(trans->impl, 0+4+4+4 +2 /* msg h
 600:/home/lsk/paparazzi/var/include/messages.h **** 	  trans->count_bytes(trans->impl, dev, trans->size_of(trans->impl, 0+4+4+4 +2 /* msg header overhe
 601:/home/lsk/paparazzi/var/include/messages.h **** 	  trans->start_message(trans->impl, dev, 0+4+4+4 +2 /* msg header overhead */);
 602:/home/lsk/paparazzi/var/include/messages.h **** 	  trans->put_bytes(trans->impl, dev, DL_TYPE_UINT8, DL_FORMAT_SCALAR, 1, &ac_id);
 603:/home/lsk/paparazzi/var/include/messages.h **** 	  trans->put_named_byte(trans->impl, dev, DL_TYPE_UINT8, DL_FORMAT_SCALAR, DL_CIRCLE, "CIRCLE");
 604:/home/lsk/paparazzi/var/include/messages.h **** 	  trans->put_bytes(trans->impl, dev, DL_TYPE_FLOAT, DL_FORMAT_SCALAR, 4, (void *) _center_east);
 605:/home/lsk/paparazzi/var/include/messages.h **** 	  trans->put_bytes(trans->impl, dev, DL_TYPE_FLOAT, DL_FORMAT_SCALAR, 4, (void *) _center_north);
 606:/home/lsk/paparazzi/var/include/messages.h **** 	  trans->put_bytes(trans->impl, dev, DL_TYPE_FLOAT, DL_FORMAT_SCALAR, 4, (void *) _radius);
 607:/home/lsk/paparazzi/var/include/messages.h **** 	  trans->end_message(trans->impl, dev);
 608:/home/lsk/paparazzi/var/include/messages.h **** 	} else
 609:/home/lsk/paparazzi/var/include/messages.h **** 	  trans->overrun(trans->impl, dev);
 610:/home/lsk/paparazzi/var/include/messages.h **** }
 611:/home/lsk/paparazzi/var/include/messages.h **** 
 612:/home/lsk/paparazzi/var/include/messages.h **** #define DOWNLINK_SEND_SEGMENT(_trans, _dev, segment_east_1, segment_north_1, segment_east_2, segmen
 613:/home/lsk/paparazzi/var/include/messages.h **** static inline void pprz_msg_send_SEGMENT(struct transport_tx *trans, struct link_device *dev, uint8
 614:/home/lsk/paparazzi/var/include/messages.h **** 	if (trans->check_available_space(trans->impl, dev, trans->size_of(trans->impl, 0+4+4+4+4 +2 /* msg
 615:/home/lsk/paparazzi/var/include/messages.h **** 	  trans->count_bytes(trans->impl, dev, trans->size_of(trans->impl, 0+4+4+4+4 +2 /* msg header over
 616:/home/lsk/paparazzi/var/include/messages.h **** 	  trans->start_message(trans->impl, dev, 0+4+4+4+4 +2 /* msg header overhead */);
 617:/home/lsk/paparazzi/var/include/messages.h **** 	  trans->put_bytes(trans->impl, dev, DL_TYPE_UINT8, DL_FORMAT_SCALAR, 1, &ac_id);
 618:/home/lsk/paparazzi/var/include/messages.h **** 	  trans->put_named_byte(trans->impl, dev, DL_TYPE_UINT8, DL_FORMAT_SCALAR, DL_SEGMENT, "SEGMENT");
 619:/home/lsk/paparazzi/var/include/messages.h **** 	  trans->put_bytes(trans->impl, dev, DL_TYPE_FLOAT, DL_FORMAT_SCALAR, 4, (void *) _segment_east_1)
 620:/home/lsk/paparazzi/var/include/messages.h **** 	  trans->put_bytes(trans->impl, dev, DL_TYPE_FLOAT, DL_FORMAT_SCALAR, 4, (void *) _segment_north_1
 621:/home/lsk/paparazzi/var/include/messages.h **** 	  trans->put_bytes(trans->impl, dev, DL_TYPE_FLOAT, DL_FORMAT_SCALAR, 4, (void *) _segment_east_2)
 622:/home/lsk/paparazzi/var/include/messages.h **** 	  trans->put_bytes(trans->impl, dev, DL_TYPE_FLOAT, DL_FORMAT_SCALAR, 4, (void *) _segment_north_2
 623:/home/lsk/paparazzi/var/include/messages.h **** 	  trans->end_message(trans->impl, dev);
 624:/home/lsk/paparazzi/var/include/messages.h **** 	} else
 625:/home/lsk/paparazzi/var/include/messages.h **** 	  trans->overrun(trans->impl, dev);
 626:/home/lsk/paparazzi/var/include/messages.h **** }
 627:/home/lsk/paparazzi/var/include/messages.h **** 
 628:/home/lsk/paparazzi/var/include/messages.h **** #define DOWNLINK_SEND_SVINFO(_trans, _dev, chn, SVID, Flags, QI, CNO, Elev, Azim) pprz_msg_send_SVI
 629:/home/lsk/paparazzi/var/include/messages.h **** static inline void pprz_msg_send_SVINFO(struct transport_tx *trans, struct link_device *dev, uint8_
 630:/home/lsk/paparazzi/var/include/messages.h **** 	if (trans->check_available_space(trans->impl, dev, trans->size_of(trans->impl, 0+1+1+1+1+1+1+2 +2 
 631:/home/lsk/paparazzi/var/include/messages.h **** 	  trans->count_bytes(trans->impl, dev, trans->size_of(trans->impl, 0+1+1+1+1+1+1+2 +2 /* msg heade
 632:/home/lsk/paparazzi/var/include/messages.h **** 	  trans->start_message(trans->impl, dev, 0+1+1+1+1+1+1+2 +2 /* msg header overhead */);
 633:/home/lsk/paparazzi/var/include/messages.h **** 	  trans->put_bytes(trans->impl, dev, DL_TYPE_UINT8, DL_FORMAT_SCALAR, 1, &ac_id);
 634:/home/lsk/paparazzi/var/include/messages.h **** 	  trans->put_named_byte(trans->impl, dev, DL_TYPE_UINT8, DL_FORMAT_SCALAR, DL_SVINFO, "SVINFO");
 635:/home/lsk/paparazzi/var/include/messages.h **** 	  trans->put_bytes(trans->impl, dev, DL_TYPE_UINT8, DL_FORMAT_SCALAR, 1, (void *) _chn);
 636:/home/lsk/paparazzi/var/include/messages.h **** 	  trans->put_bytes(trans->impl, dev, DL_TYPE_UINT8, DL_FORMAT_SCALAR, 1, (void *) _SVID);
 637:/home/lsk/paparazzi/var/include/messages.h **** 	  trans->put_bytes(trans->impl, dev, DL_TYPE_UINT8, DL_FORMAT_SCALAR, 1, (void *) _Flags);
 638:/home/lsk/paparazzi/var/include/messages.h **** 	  trans->put_bytes(trans->impl, dev, DL_TYPE_UINT8, DL_FORMAT_SCALAR, 1, (void *) _QI);
 639:/home/lsk/paparazzi/var/include/messages.h **** 	  trans->put_bytes(trans->impl, dev, DL_TYPE_UINT8, DL_FORMAT_SCALAR, 1, (void *) _CNO);
 640:/home/lsk/paparazzi/var/include/messages.h **** 	  trans->put_bytes(trans->impl, dev, DL_TYPE_INT8, DL_FORMAT_SCALAR, 1, (void *) _Elev);
 641:/home/lsk/paparazzi/var/include/messages.h **** 	  trans->put_bytes(trans->impl, dev, DL_TYPE_INT16, DL_FORMAT_SCALAR, 2, (void *) _Azim);
 642:/home/lsk/paparazzi/var/include/messages.h **** 	  trans->end_message(trans->impl, dev);
 643:/home/lsk/paparazzi/var/include/messages.h **** 	} else
 644:/home/lsk/paparazzi/var/include/messages.h **** 	  trans->overrun(trans->impl, dev);
 645:/home/lsk/paparazzi/var/include/messages.h **** }
 646:/home/lsk/paparazzi/var/include/messages.h **** 
 647:/home/lsk/paparazzi/var/include/messages.h **** #define DOWNLINK_SEND_DEBUG(_trans, _dev, nb_msg, msg) pprz_msg_send_DEBUG(&((_trans).trans_tx), &(
 648:/home/lsk/paparazzi/var/include/messages.h **** static inline void pprz_msg_send_DEBUG(struct transport_tx *trans, struct link_device *dev, uint8_t
 649:/home/lsk/paparazzi/var/include/messages.h **** 	if (trans->check_available_space(trans->impl, dev, trans->size_of(trans->impl, 0+1+nb_msg*1 +2 /* 
 650:/home/lsk/paparazzi/var/include/messages.h **** 	  trans->count_bytes(trans->impl, dev, trans->size_of(trans->impl, 0+1+nb_msg*1 +2 /* msg header o
 651:/home/lsk/paparazzi/var/include/messages.h **** 	  trans->start_message(trans->impl, dev, 0+1+nb_msg*1 +2 /* msg header overhead */);
 652:/home/lsk/paparazzi/var/include/messages.h **** 	  trans->put_bytes(trans->impl, dev, DL_TYPE_UINT8, DL_FORMAT_SCALAR, 1, &ac_id);
 653:/home/lsk/paparazzi/var/include/messages.h **** 	  trans->put_named_byte(trans->impl, dev, DL_TYPE_UINT8, DL_FORMAT_SCALAR, DL_DEBUG, "DEBUG");
 654:/home/lsk/paparazzi/var/include/messages.h **** 	  trans->put_bytes(trans->impl, dev, DL_TYPE_ARRAY_LENGTH, DL_FORMAT_SCALAR, 1, (void *) &nb_msg);
 655:/home/lsk/paparazzi/var/include/messages.h **** 	  trans->put_bytes(trans->impl, dev, DL_TYPE_UINT8, DL_FORMAT_ARRAY, 1 * nb_msg, (void *) _msg);
 656:/home/lsk/paparazzi/var/include/messages.h **** 	  trans->end_message(trans->impl, dev);
 657:/home/lsk/paparazzi/var/include/messages.h **** 	} else
 658:/home/lsk/paparazzi/var/include/messages.h **** 	  trans->overrun(trans->impl, dev);
 659:/home/lsk/paparazzi/var/include/messages.h **** }
 660:/home/lsk/paparazzi/var/include/messages.h **** 
 661:/home/lsk/paparazzi/var/include/messages.h **** #define DOWNLINK_SEND_SURVEY(_trans, _dev, east, north, west, south) pprz_msg_send_SURVEY(&((_trans
 662:/home/lsk/paparazzi/var/include/messages.h **** static inline void pprz_msg_send_SURVEY(struct transport_tx *trans, struct link_device *dev, uint8_
 663:/home/lsk/paparazzi/var/include/messages.h **** 	if (trans->check_available_space(trans->impl, dev, trans->size_of(trans->impl, 0+4+4+4+4 +2 /* msg
 664:/home/lsk/paparazzi/var/include/messages.h **** 	  trans->count_bytes(trans->impl, dev, trans->size_of(trans->impl, 0+4+4+4+4 +2 /* msg header over
 665:/home/lsk/paparazzi/var/include/messages.h **** 	  trans->start_message(trans->impl, dev, 0+4+4+4+4 +2 /* msg header overhead */);
 666:/home/lsk/paparazzi/var/include/messages.h **** 	  trans->put_bytes(trans->impl, dev, DL_TYPE_UINT8, DL_FORMAT_SCALAR, 1, &ac_id);
 667:/home/lsk/paparazzi/var/include/messages.h **** 	  trans->put_named_byte(trans->impl, dev, DL_TYPE_UINT8, DL_FORMAT_SCALAR, DL_SURVEY, "SURVEY");
 668:/home/lsk/paparazzi/var/include/messages.h **** 	  trans->put_bytes(trans->impl, dev, DL_TYPE_FLOAT, DL_FORMAT_SCALAR, 4, (void *) _east);
 669:/home/lsk/paparazzi/var/include/messages.h **** 	  trans->put_bytes(trans->impl, dev, DL_TYPE_FLOAT, DL_FORMAT_SCALAR, 4, (void *) _north);
 670:/home/lsk/paparazzi/var/include/messages.h **** 	  trans->put_bytes(trans->impl, dev, DL_TYPE_FLOAT, DL_FORMAT_SCALAR, 4, (void *) _west);
 671:/home/lsk/paparazzi/var/include/messages.h **** 	  trans->put_bytes(trans->impl, dev, DL_TYPE_FLOAT, DL_FORMAT_SCALAR, 4, (void *) _south);
 672:/home/lsk/paparazzi/var/include/messages.h **** 	  trans->end_message(trans->impl, dev);
 673:/home/lsk/paparazzi/var/include/messages.h **** 	} else
 674:/home/lsk/paparazzi/var/include/messages.h **** 	  trans->overrun(trans->impl, dev);
 675:/home/lsk/paparazzi/var/include/messages.h **** }
 676:/home/lsk/paparazzi/var/include/messages.h **** 
 677:/home/lsk/paparazzi/var/include/messages.h **** #define DOWNLINK_SEND_WC_RSSI(_trans, _dev, raw_level) pprz_msg_send_WC_RSSI(&((_trans).trans_tx), 
 678:/home/lsk/paparazzi/var/include/messages.h **** static inline void pprz_msg_send_WC_RSSI(struct transport_tx *trans, struct link_device *dev, uint8
 679:/home/lsk/paparazzi/var/include/messages.h **** 	if (trans->check_available_space(trans->impl, dev, trans->size_of(trans->impl, 0+1 +2 /* msg heade
 680:/home/lsk/paparazzi/var/include/messages.h **** 	  trans->count_bytes(trans->impl, dev, trans->size_of(trans->impl, 0+1 +2 /* msg header overhead *
 681:/home/lsk/paparazzi/var/include/messages.h **** 	  trans->start_message(trans->impl, dev, 0+1 +2 /* msg header overhead */);
 682:/home/lsk/paparazzi/var/include/messages.h **** 	  trans->put_bytes(trans->impl, dev, DL_TYPE_UINT8, DL_FORMAT_SCALAR, 1, &ac_id);
 683:/home/lsk/paparazzi/var/include/messages.h **** 	  trans->put_named_byte(trans->impl, dev, DL_TYPE_UINT8, DL_FORMAT_SCALAR, DL_WC_RSSI, "WC_RSSI");
 684:/home/lsk/paparazzi/var/include/messages.h **** 	  trans->put_bytes(trans->impl, dev, DL_TYPE_UINT8, DL_FORMAT_SCALAR, 1, (void *) _raw_level);
 685:/home/lsk/paparazzi/var/include/messages.h **** 	  trans->end_message(trans->impl, dev);
 686:/home/lsk/paparazzi/var/include/messages.h **** 	} else
 687:/home/lsk/paparazzi/var/include/messages.h **** 	  trans->overrun(trans->impl, dev);
 688:/home/lsk/paparazzi/var/include/messages.h **** }
 689:/home/lsk/paparazzi/var/include/messages.h **** 
 690:/home/lsk/paparazzi/var/include/messages.h **** #define DOWNLINK_SEND_RANGEFINDER(_trans, _dev, range, z_dot, z_dot_sum_err, z_dot_setpoint, z_sum_
 691:/home/lsk/paparazzi/var/include/messages.h **** static inline void pprz_msg_send_RANGEFINDER(struct transport_tx *trans, struct link_device *dev, u
 692:/home/lsk/paparazzi/var/include/messages.h **** 	if (trans->check_available_space(trans->impl, dev, trans->size_of(trans->impl, 0+2+4+4+4+4+4+1 +2 
 693:/home/lsk/paparazzi/var/include/messages.h **** 	  trans->count_bytes(trans->impl, dev, trans->size_of(trans->impl, 0+2+4+4+4+4+4+1 +2 /* msg heade
 694:/home/lsk/paparazzi/var/include/messages.h **** 	  trans->start_message(trans->impl, dev, 0+2+4+4+4+4+4+1 +2 /* msg header overhead */);
 695:/home/lsk/paparazzi/var/include/messages.h **** 	  trans->put_bytes(trans->impl, dev, DL_TYPE_UINT8, DL_FORMAT_SCALAR, 1, &ac_id);
 696:/home/lsk/paparazzi/var/include/messages.h **** 	  trans->put_named_byte(trans->impl, dev, DL_TYPE_UINT8, DL_FORMAT_SCALAR, DL_RANGEFINDER, "RANGEF
 697:/home/lsk/paparazzi/var/include/messages.h **** 	  trans->put_bytes(trans->impl, dev, DL_TYPE_UINT16, DL_FORMAT_SCALAR, 2, (void *) _range);
 698:/home/lsk/paparazzi/var/include/messages.h **** 	  trans->put_bytes(trans->impl, dev, DL_TYPE_FLOAT, DL_FORMAT_SCALAR, 4, (void *) _z_dot);
 699:/home/lsk/paparazzi/var/include/messages.h **** 	  trans->put_bytes(trans->impl, dev, DL_TYPE_FLOAT, DL_FORMAT_SCALAR, 4, (void *) _z_dot_sum_err);
 700:/home/lsk/paparazzi/var/include/messages.h **** 	  trans->put_bytes(trans->impl, dev, DL_TYPE_FLOAT, DL_FORMAT_SCALAR, 4, (void *) _z_dot_setpoint)
 701:/home/lsk/paparazzi/var/include/messages.h **** 	  trans->put_bytes(trans->impl, dev, DL_TYPE_FLOAT, DL_FORMAT_SCALAR, 4, (void *) _z_sum_err);
 702:/home/lsk/paparazzi/var/include/messages.h **** 	  trans->put_bytes(trans->impl, dev, DL_TYPE_FLOAT, DL_FORMAT_SCALAR, 4, (void *) _z_setpoint);
 703:/home/lsk/paparazzi/var/include/messages.h **** 	  trans->put_bytes(trans->impl, dev, DL_TYPE_UINT8, DL_FORMAT_SCALAR, 1, (void *) _flying);
 704:/home/lsk/paparazzi/var/include/messages.h **** 	  trans->end_message(trans->impl, dev);
 705:/home/lsk/paparazzi/var/include/messages.h **** 	} else
 706:/home/lsk/paparazzi/var/include/messages.h **** 	  trans->overrun(trans->impl, dev);
 707:/home/lsk/paparazzi/var/include/messages.h **** }
 708:/home/lsk/paparazzi/var/include/messages.h **** 
 709:/home/lsk/paparazzi/var/include/messages.h **** #define DOWNLINK_SEND_DATALINK_REPORT(_trans, _dev, uplink_lost_time, uplink_nb_msgs, downlink_nb_m
 710:/home/lsk/paparazzi/var/include/messages.h **** static inline void pprz_msg_send_DATALINK_REPORT(struct transport_tx *trans, struct link_device *de
 711:/home/lsk/paparazzi/var/include/messages.h **** 	if (trans->check_available_space(trans->impl, dev, trans->size_of(trans->impl, 0+2+2+2+2+1 +2 /* m
 712:/home/lsk/paparazzi/var/include/messages.h **** 	  trans->count_bytes(trans->impl, dev, trans->size_of(trans->impl, 0+2+2+2+2+1 +2 /* msg header ov
 713:/home/lsk/paparazzi/var/include/messages.h **** 	  trans->start_message(trans->impl, dev, 0+2+2+2+2+1 +2 /* msg header overhead */);
 714:/home/lsk/paparazzi/var/include/messages.h **** 	  trans->put_bytes(trans->impl, dev, DL_TYPE_UINT8, DL_FORMAT_SCALAR, 1, &ac_id);
 715:/home/lsk/paparazzi/var/include/messages.h **** 	  trans->put_named_byte(trans->impl, dev, DL_TYPE_UINT8, DL_FORMAT_SCALAR, DL_DATALINK_REPORT, "DA
 716:/home/lsk/paparazzi/var/include/messages.h **** 	  trans->put_bytes(trans->impl, dev, DL_TYPE_UINT16, DL_FORMAT_SCALAR, 2, (void *) _uplink_lost_ti
 717:/home/lsk/paparazzi/var/include/messages.h **** 	  trans->put_bytes(trans->impl, dev, DL_TYPE_UINT16, DL_FORMAT_SCALAR, 2, (void *) _uplink_nb_msgs
 718:/home/lsk/paparazzi/var/include/messages.h **** 	  trans->put_bytes(trans->impl, dev, DL_TYPE_UINT16, DL_FORMAT_SCALAR, 2, (void *) _downlink_nb_ms
 719:/home/lsk/paparazzi/var/include/messages.h **** 	  trans->put_bytes(trans->impl, dev, DL_TYPE_UINT16, DL_FORMAT_SCALAR, 2, (void *) _downlink_rate)
 720:/home/lsk/paparazzi/var/include/messages.h **** 	  trans->put_bytes(trans->impl, dev, DL_TYPE_UINT8, DL_FORMAT_SCALAR, 1, (void *) _downlink_ovrn);
 721:/home/lsk/paparazzi/var/include/messages.h **** 	  trans->end_message(trans->impl, dev);
 722:/home/lsk/paparazzi/var/include/messages.h **** 	} else
 723:/home/lsk/paparazzi/var/include/messages.h **** 	  trans->overrun(trans->impl, dev);
 724:/home/lsk/paparazzi/var/include/messages.h **** }
 725:/home/lsk/paparazzi/var/include/messages.h **** 
 726:/home/lsk/paparazzi/var/include/messages.h **** #define DOWNLINK_SEND_DL_VALUE(_trans, _dev, index, value) pprz_msg_send_DL_VALUE(&((_trans).trans_
 727:/home/lsk/paparazzi/var/include/messages.h **** static inline void pprz_msg_send_DL_VALUE(struct transport_tx *trans, struct link_device *dev, uint
 728:/home/lsk/paparazzi/var/include/messages.h **** 	if (trans->check_available_space(trans->impl, dev, trans->size_of(trans->impl, 0+1+4 +2 /* msg hea
 729:/home/lsk/paparazzi/var/include/messages.h **** 	  trans->count_bytes(trans->impl, dev, trans->size_of(trans->impl, 0+1+4 +2 /* msg header overhead
 730:/home/lsk/paparazzi/var/include/messages.h **** 	  trans->start_message(trans->impl, dev, 0+1+4 +2 /* msg header overhead */);
 731:/home/lsk/paparazzi/var/include/messages.h **** 	  trans->put_bytes(trans->impl, dev, DL_TYPE_UINT8, DL_FORMAT_SCALAR, 1, &ac_id);
 732:/home/lsk/paparazzi/var/include/messages.h **** 	  trans->put_named_byte(trans->impl, dev, DL_TYPE_UINT8, DL_FORMAT_SCALAR, DL_DL_VALUE, "DL_VALUE"
 733:/home/lsk/paparazzi/var/include/messages.h **** 	  trans->put_bytes(trans->impl, dev, DL_TYPE_UINT8, DL_FORMAT_SCALAR, 1, (void *) _index);
 734:/home/lsk/paparazzi/var/include/messages.h **** 	  trans->put_bytes(trans->impl, dev, DL_TYPE_FLOAT, DL_FORMAT_SCALAR, 4, (void *) _value);
 735:/home/lsk/paparazzi/var/include/messages.h **** 	  trans->end_message(trans->impl, dev);
 736:/home/lsk/paparazzi/var/include/messages.h **** 	} else
 737:/home/lsk/paparazzi/var/include/messages.h **** 	  trans->overrun(trans->impl, dev);
 738:/home/lsk/paparazzi/var/include/messages.h **** }
 739:/home/lsk/paparazzi/var/include/messages.h **** 
 740:/home/lsk/paparazzi/var/include/messages.h **** #define DOWNLINK_SEND_MARK(_trans, _dev, ac_id, lat, long) pprz_msg_send_MARK(&((_trans).trans_tx),
 741:/home/lsk/paparazzi/var/include/messages.h **** static inline void pprz_msg_send_MARK(struct transport_tx *trans, struct link_device *dev, uint8_t 
 742:/home/lsk/paparazzi/var/include/messages.h **** 	if (trans->check_available_space(trans->impl, dev, trans->size_of(trans->impl, 0+1+4+4 +2 /* msg h
 743:/home/lsk/paparazzi/var/include/messages.h **** 	  trans->count_bytes(trans->impl, dev, trans->size_of(trans->impl, 0+1+4+4 +2 /* msg header overhe
 744:/home/lsk/paparazzi/var/include/messages.h **** 	  trans->start_message(trans->impl, dev, 0+1+4+4 +2 /* msg header overhead */);
 745:/home/lsk/paparazzi/var/include/messages.h **** 	  trans->put_bytes(trans->impl, dev, DL_TYPE_UINT8, DL_FORMAT_SCALAR, 1, &ac_id);
 746:/home/lsk/paparazzi/var/include/messages.h **** 	  trans->put_named_byte(trans->impl, dev, DL_TYPE_UINT8, DL_FORMAT_SCALAR, DL_MARK, "MARK");
 747:/home/lsk/paparazzi/var/include/messages.h **** 	  trans->put_bytes(trans->impl, dev, DL_TYPE_UINT8, DL_FORMAT_SCALAR, 1, (void *) _ac_id);
 748:/home/lsk/paparazzi/var/include/messages.h **** 	  trans->put_bytes(trans->impl, dev, DL_TYPE_FLOAT, DL_FORMAT_SCALAR, 4, (void *) _lat);
 749:/home/lsk/paparazzi/var/include/messages.h **** 	  trans->put_bytes(trans->impl, dev, DL_TYPE_FLOAT, DL_FORMAT_SCALAR, 4, (void *) _long);
 750:/home/lsk/paparazzi/var/include/messages.h **** 	  trans->end_message(trans->impl, dev);
 751:/home/lsk/paparazzi/var/include/messages.h **** 	} else
 752:/home/lsk/paparazzi/var/include/messages.h **** 	  trans->overrun(trans->impl, dev);
 753:/home/lsk/paparazzi/var/include/messages.h **** }
 754:/home/lsk/paparazzi/var/include/messages.h **** 
 755:/home/lsk/paparazzi/var/include/messages.h **** #define DOWNLINK_SEND_SYS_MON(_trans, _dev, periodic_time, periodic_time_min, periodic_time_max, pe
 756:/home/lsk/paparazzi/var/include/messages.h **** static inline void pprz_msg_send_SYS_MON(struct transport_tx *trans, struct link_device *dev, uint8
 757:/home/lsk/paparazzi/var/include/messages.h **** 	if (trans->check_available_space(trans->impl, dev, trans->size_of(trans->impl, 0+2+2+2+2+2+2+2+1 +
 758:/home/lsk/paparazzi/var/include/messages.h **** 	  trans->count_bytes(trans->impl, dev, trans->size_of(trans->impl, 0+2+2+2+2+2+2+2+1 +2 /* msg hea
 759:/home/lsk/paparazzi/var/include/messages.h **** 	  trans->start_message(trans->impl, dev, 0+2+2+2+2+2+2+2+1 +2 /* msg header overhead */);
 760:/home/lsk/paparazzi/var/include/messages.h **** 	  trans->put_bytes(trans->impl, dev, DL_TYPE_UINT8, DL_FORMAT_SCALAR, 1, &ac_id);
 761:/home/lsk/paparazzi/var/include/messages.h **** 	  trans->put_named_byte(trans->impl, dev, DL_TYPE_UINT8, DL_FORMAT_SCALAR, DL_SYS_MON, "SYS_MON");
 762:/home/lsk/paparazzi/var/include/messages.h **** 	  trans->put_bytes(trans->impl, dev, DL_TYPE_UINT16, DL_FORMAT_SCALAR, 2, (void *) _periodic_time)
 763:/home/lsk/paparazzi/var/include/messages.h **** 	  trans->put_bytes(trans->impl, dev, DL_TYPE_UINT16, DL_FORMAT_SCALAR, 2, (void *) _periodic_time_
 764:/home/lsk/paparazzi/var/include/messages.h **** 	  trans->put_bytes(trans->impl, dev, DL_TYPE_UINT16, DL_FORMAT_SCALAR, 2, (void *) _periodic_time_
 765:/home/lsk/paparazzi/var/include/messages.h **** 	  trans->put_bytes(trans->impl, dev, DL_TYPE_UINT16, DL_FORMAT_SCALAR, 2, (void *) _periodic_cycle
 766:/home/lsk/paparazzi/var/include/messages.h **** 	  trans->put_bytes(trans->impl, dev, DL_TYPE_UINT16, DL_FORMAT_SCALAR, 2, (void *) _periodic_cycle
 767:/home/lsk/paparazzi/var/include/messages.h **** 	  trans->put_bytes(trans->impl, dev, DL_TYPE_UINT16, DL_FORMAT_SCALAR, 2, (void *) _periodic_cycle
 768:/home/lsk/paparazzi/var/include/messages.h **** 	  trans->put_bytes(trans->impl, dev, DL_TYPE_UINT16, DL_FORMAT_SCALAR, 2, (void *) _event_number);
 769:/home/lsk/paparazzi/var/include/messages.h **** 	  trans->put_bytes(trans->impl, dev, DL_TYPE_UINT8, DL_FORMAT_SCALAR, 1, (void *) _cpu_load);
 770:/home/lsk/paparazzi/var/include/messages.h **** 	  trans->end_message(trans->impl, dev);
 771:/home/lsk/paparazzi/var/include/messages.h **** 	} else
 772:/home/lsk/paparazzi/var/include/messages.h **** 	  trans->overrun(trans->impl, dev);
 773:/home/lsk/paparazzi/var/include/messages.h **** }
 774:/home/lsk/paparazzi/var/include/messages.h **** 
 775:/home/lsk/paparazzi/var/include/messages.h **** #define DOWNLINK_SEND_MOTOR(_trans, _dev, rpm, current) pprz_msg_send_MOTOR(&((_trans).trans_tx), &
 776:/home/lsk/paparazzi/var/include/messages.h **** static inline void pprz_msg_send_MOTOR(struct transport_tx *trans, struct link_device *dev, uint8_t
 777:/home/lsk/paparazzi/var/include/messages.h **** 	if (trans->check_available_space(trans->impl, dev, trans->size_of(trans->impl, 0+2+4 +2 /* msg hea
 778:/home/lsk/paparazzi/var/include/messages.h **** 	  trans->count_bytes(trans->impl, dev, trans->size_of(trans->impl, 0+2+4 +2 /* msg header overhead
 779:/home/lsk/paparazzi/var/include/messages.h **** 	  trans->start_message(trans->impl, dev, 0+2+4 +2 /* msg header overhead */);
 780:/home/lsk/paparazzi/var/include/messages.h **** 	  trans->put_bytes(trans->impl, dev, DL_TYPE_UINT8, DL_FORMAT_SCALAR, 1, &ac_id);
 781:/home/lsk/paparazzi/var/include/messages.h **** 	  trans->put_named_byte(trans->impl, dev, DL_TYPE_UINT8, DL_FORMAT_SCALAR, DL_MOTOR, "MOTOR");
 782:/home/lsk/paparazzi/var/include/messages.h **** 	  trans->put_bytes(trans->impl, dev, DL_TYPE_UINT16, DL_FORMAT_SCALAR, 2, (void *) _rpm);
 783:/home/lsk/paparazzi/var/include/messages.h **** 	  trans->put_bytes(trans->impl, dev, DL_TYPE_INT32, DL_FORMAT_SCALAR, 4, (void *) _current);
 784:/home/lsk/paparazzi/var/include/messages.h **** 	  trans->end_message(trans->impl, dev);
 785:/home/lsk/paparazzi/var/include/messages.h **** 	} else
 786:/home/lsk/paparazzi/var/include/messages.h **** 	  trans->overrun(trans->impl, dev);
 787:/home/lsk/paparazzi/var/include/messages.h **** }
 788:/home/lsk/paparazzi/var/include/messages.h **** 
 789:/home/lsk/paparazzi/var/include/messages.h **** #define DOWNLINK_SEND_WP_MOVED(_trans, _dev, wp_id, utm_east, utm_north, alt, utm_zone) pprz_msg_se
 790:/home/lsk/paparazzi/var/include/messages.h **** static inline void pprz_msg_send_WP_MOVED(struct transport_tx *trans, struct link_device *dev, uint
 791:/home/lsk/paparazzi/var/include/messages.h **** 	if (trans->check_available_space(trans->impl, dev, trans->size_of(trans->impl, 0+1+4+4+4+1 +2 /* m
 792:/home/lsk/paparazzi/var/include/messages.h **** 	  trans->count_bytes(trans->impl, dev, trans->size_of(trans->impl, 0+1+4+4+4+1 +2 /* msg header ov
 793:/home/lsk/paparazzi/var/include/messages.h **** 	  trans->start_message(trans->impl, dev, 0+1+4+4+4+1 +2 /* msg header overhead */);
 794:/home/lsk/paparazzi/var/include/messages.h **** 	  trans->put_bytes(trans->impl, dev, DL_TYPE_UINT8, DL_FORMAT_SCALAR, 1, &ac_id);
 795:/home/lsk/paparazzi/var/include/messages.h **** 	  trans->put_named_byte(trans->impl, dev, DL_TYPE_UINT8, DL_FORMAT_SCALAR, DL_WP_MOVED, "WP_MOVED"
 796:/home/lsk/paparazzi/var/include/messages.h **** 	  trans->put_bytes(trans->impl, dev, DL_TYPE_UINT8, DL_FORMAT_SCALAR, 1, (void *) _wp_id);
 797:/home/lsk/paparazzi/var/include/messages.h **** 	  trans->put_bytes(trans->impl, dev, DL_TYPE_FLOAT, DL_FORMAT_SCALAR, 4, (void *) _utm_east);
 798:/home/lsk/paparazzi/var/include/messages.h **** 	  trans->put_bytes(trans->impl, dev, DL_TYPE_FLOAT, DL_FORMAT_SCALAR, 4, (void *) _utm_north);
 799:/home/lsk/paparazzi/var/include/messages.h **** 	  trans->put_bytes(trans->impl, dev, DL_TYPE_FLOAT, DL_FORMAT_SCALAR, 4, (void *) _alt);
 800:/home/lsk/paparazzi/var/include/messages.h **** 	  trans->put_bytes(trans->impl, dev, DL_TYPE_UINT8, DL_FORMAT_SCALAR, 1, (void *) _utm_zone);
 801:/home/lsk/paparazzi/var/include/messages.h **** 	  trans->end_message(trans->impl, dev);
 802:/home/lsk/paparazzi/var/include/messages.h **** 	} else
 803:/home/lsk/paparazzi/var/include/messages.h **** 	  trans->overrun(trans->impl, dev);
 804:/home/lsk/paparazzi/var/include/messages.h **** }
 805:/home/lsk/paparazzi/var/include/messages.h **** 
 806:/home/lsk/paparazzi/var/include/messages.h **** #define DOWNLINK_SEND_MKK(_trans, _dev, nr, rpm, current, temp) pprz_msg_send_MKK(&((_trans).trans_
 807:/home/lsk/paparazzi/var/include/messages.h **** static inline void pprz_msg_send_MKK(struct transport_tx *trans, struct link_device *dev, uint8_t a
 808:/home/lsk/paparazzi/var/include/messages.h **** 	if (trans->check_available_space(trans->impl, dev, trans->size_of(trans->impl, 0+1+1+1+1 +2 /* msg
 809:/home/lsk/paparazzi/var/include/messages.h **** 	  trans->count_bytes(trans->impl, dev, trans->size_of(trans->impl, 0+1+1+1+1 +2 /* msg header over
 810:/home/lsk/paparazzi/var/include/messages.h **** 	  trans->start_message(trans->impl, dev, 0+1+1+1+1 +2 /* msg header overhead */);
 811:/home/lsk/paparazzi/var/include/messages.h **** 	  trans->put_bytes(trans->impl, dev, DL_TYPE_UINT8, DL_FORMAT_SCALAR, 1, &ac_id);
 812:/home/lsk/paparazzi/var/include/messages.h **** 	  trans->put_named_byte(trans->impl, dev, DL_TYPE_UINT8, DL_FORMAT_SCALAR, DL_MKK, "MKK");
 813:/home/lsk/paparazzi/var/include/messages.h **** 	  trans->put_bytes(trans->impl, dev, DL_TYPE_UINT8, DL_FORMAT_SCALAR, 1, (void *) _nr);
 814:/home/lsk/paparazzi/var/include/messages.h **** 	  trans->put_bytes(trans->impl, dev, DL_TYPE_UINT8, DL_FORMAT_SCALAR, 1, (void *) _rpm);
 815:/home/lsk/paparazzi/var/include/messages.h **** 	  trans->put_bytes(trans->impl, dev, DL_TYPE_UINT8, DL_FORMAT_SCALAR, 1, (void *) _current);
 816:/home/lsk/paparazzi/var/include/messages.h **** 	  trans->put_bytes(trans->impl, dev, DL_TYPE_INT8, DL_FORMAT_SCALAR, 1, (void *) _temp);
 817:/home/lsk/paparazzi/var/include/messages.h **** 	  trans->end_message(trans->impl, dev);
 818:/home/lsk/paparazzi/var/include/messages.h **** 	} else
 819:/home/lsk/paparazzi/var/include/messages.h **** 	  trans->overrun(trans->impl, dev);
 820:/home/lsk/paparazzi/var/include/messages.h **** }
 821:/home/lsk/paparazzi/var/include/messages.h **** 
 822:/home/lsk/paparazzi/var/include/messages.h **** #define DOWNLINK_SEND_ENERGY(_trans, _dev, bat, amp, energy, power) pprz_msg_send_ENERGY(&((_trans)
 823:/home/lsk/paparazzi/var/include/messages.h **** static inline void pprz_msg_send_ENERGY(struct transport_tx *trans, struct link_device *dev, uint8_
 824:/home/lsk/paparazzi/var/include/messages.h **** 	if (trans->check_available_space(trans->impl, dev, trans->size_of(trans->impl, 0+4+4+2+4 +2 /* msg
 825:/home/lsk/paparazzi/var/include/messages.h **** 	  trans->count_bytes(trans->impl, dev, trans->size_of(trans->impl, 0+4+4+2+4 +2 /* msg header over
 826:/home/lsk/paparazzi/var/include/messages.h **** 	  trans->start_message(trans->impl, dev, 0+4+4+2+4 +2 /* msg header overhead */);
 827:/home/lsk/paparazzi/var/include/messages.h **** 	  trans->put_bytes(trans->impl, dev, DL_TYPE_UINT8, DL_FORMAT_SCALAR, 1, &ac_id);
 828:/home/lsk/paparazzi/var/include/messages.h **** 	  trans->put_named_byte(trans->impl, dev, DL_TYPE_UINT8, DL_FORMAT_SCALAR, DL_ENERGY, "ENERGY");
 829:/home/lsk/paparazzi/var/include/messages.h **** 	  trans->put_bytes(trans->impl, dev, DL_TYPE_FLOAT, DL_FORMAT_SCALAR, 4, (void *) _bat);
 830:/home/lsk/paparazzi/var/include/messages.h **** 	  trans->put_bytes(trans->impl, dev, DL_TYPE_FLOAT, DL_FORMAT_SCALAR, 4, (void *) _amp);
 831:/home/lsk/paparazzi/var/include/messages.h **** 	  trans->put_bytes(trans->impl, dev, DL_TYPE_UINT16, DL_FORMAT_SCALAR, 2, (void *) _energy);
 832:/home/lsk/paparazzi/var/include/messages.h **** 	  trans->put_bytes(trans->impl, dev, DL_TYPE_FLOAT, DL_FORMAT_SCALAR, 4, (void *) _power);
 833:/home/lsk/paparazzi/var/include/messages.h **** 	  trans->end_message(trans->impl, dev);
 834:/home/lsk/paparazzi/var/include/messages.h **** 	} else
 835:/home/lsk/paparazzi/var/include/messages.h **** 	  trans->overrun(trans->impl, dev);
 836:/home/lsk/paparazzi/var/include/messages.h **** }
 837:/home/lsk/paparazzi/var/include/messages.h **** 
 838:/home/lsk/paparazzi/var/include/messages.h **** #define DOWNLINK_SEND_BARO_BMP85_CALIB(_trans, _dev, a1, a2, a3, a4, a5, a6, b1, b2, mb, mc, md) pp
 839:/home/lsk/paparazzi/var/include/messages.h **** static inline void pprz_msg_send_BARO_BMP85_CALIB(struct transport_tx *trans, struct link_device *d
 840:/home/lsk/paparazzi/var/include/messages.h **** 	if (trans->check_available_space(trans->impl, dev, trans->size_of(trans->impl, 0+2+2+2+2+2+2+2+2+2
 841:/home/lsk/paparazzi/var/include/messages.h **** 	  trans->count_bytes(trans->impl, dev, trans->size_of(trans->impl, 0+2+2+2+2+2+2+2+2+2+2+2 +2 /* m
 842:/home/lsk/paparazzi/var/include/messages.h **** 	  trans->start_message(trans->impl, dev, 0+2+2+2+2+2+2+2+2+2+2+2 +2 /* msg header overhead */);
 843:/home/lsk/paparazzi/var/include/messages.h **** 	  trans->put_bytes(trans->impl, dev, DL_TYPE_UINT8, DL_FORMAT_SCALAR, 1, &ac_id);
 844:/home/lsk/paparazzi/var/include/messages.h **** 	  trans->put_named_byte(trans->impl, dev, DL_TYPE_UINT8, DL_FORMAT_SCALAR, DL_BARO_BMP85_CALIB, "B
 845:/home/lsk/paparazzi/var/include/messages.h **** 	  trans->put_bytes(trans->impl, dev, DL_TYPE_INT16, DL_FORMAT_SCALAR, 2, (void *) _a1);
 846:/home/lsk/paparazzi/var/include/messages.h **** 	  trans->put_bytes(trans->impl, dev, DL_TYPE_INT16, DL_FORMAT_SCALAR, 2, (void *) _a2);
 847:/home/lsk/paparazzi/var/include/messages.h **** 	  trans->put_bytes(trans->impl, dev, DL_TYPE_INT16, DL_FORMAT_SCALAR, 2, (void *) _a3);
 848:/home/lsk/paparazzi/var/include/messages.h **** 	  trans->put_bytes(trans->impl, dev, DL_TYPE_UINT16, DL_FORMAT_SCALAR, 2, (void *) _a4);
 849:/home/lsk/paparazzi/var/include/messages.h **** 	  trans->put_bytes(trans->impl, dev, DL_TYPE_UINT16, DL_FORMAT_SCALAR, 2, (void *) _a5);
 850:/home/lsk/paparazzi/var/include/messages.h **** 	  trans->put_bytes(trans->impl, dev, DL_TYPE_UINT16, DL_FORMAT_SCALAR, 2, (void *) _a6);
 851:/home/lsk/paparazzi/var/include/messages.h **** 	  trans->put_bytes(trans->impl, dev, DL_TYPE_INT16, DL_FORMAT_SCALAR, 2, (void *) _b1);
 852:/home/lsk/paparazzi/var/include/messages.h **** 	  trans->put_bytes(trans->impl, dev, DL_TYPE_INT16, DL_FORMAT_SCALAR, 2, (void *) _b2);
 853:/home/lsk/paparazzi/var/include/messages.h **** 	  trans->put_bytes(trans->impl, dev, DL_TYPE_INT16, DL_FORMAT_SCALAR, 2, (void *) _mb);
 854:/home/lsk/paparazzi/var/include/messages.h **** 	  trans->put_bytes(trans->impl, dev, DL_TYPE_INT16, DL_FORMAT_SCALAR, 2, (void *) _mc);
 855:/home/lsk/paparazzi/var/include/messages.h **** 	  trans->put_bytes(trans->impl, dev, DL_TYPE_INT16, DL_FORMAT_SCALAR, 2, (void *) _md);
 856:/home/lsk/paparazzi/var/include/messages.h **** 	  trans->end_message(trans->impl, dev);
 857:/home/lsk/paparazzi/var/include/messages.h **** 	} else
 858:/home/lsk/paparazzi/var/include/messages.h **** 	  trans->overrun(trans->impl, dev);
 859:/home/lsk/paparazzi/var/include/messages.h **** }
 860:/home/lsk/paparazzi/var/include/messages.h **** 
 861:/home/lsk/paparazzi/var/include/messages.h **** #define DOWNLINK_SEND_BARO_BMP85(_trans, _dev, UT, UP, P, T, MSL) pprz_msg_send_BARO_BMP85(&((_tran
 862:/home/lsk/paparazzi/var/include/messages.h **** static inline void pprz_msg_send_BARO_BMP85(struct transport_tx *trans, struct link_device *dev, ui
 863:/home/lsk/paparazzi/var/include/messages.h **** 	if (trans->check_available_space(trans->impl, dev, trans->size_of(trans->impl, 0+4+4+4+4+4 +2 /* m
 864:/home/lsk/paparazzi/var/include/messages.h **** 	  trans->count_bytes(trans->impl, dev, trans->size_of(trans->impl, 0+4+4+4+4+4 +2 /* msg header ov
 865:/home/lsk/paparazzi/var/include/messages.h **** 	  trans->start_message(trans->impl, dev, 0+4+4+4+4+4 +2 /* msg header overhead */);
 866:/home/lsk/paparazzi/var/include/messages.h **** 	  trans->put_bytes(trans->impl, dev, DL_TYPE_UINT8, DL_FORMAT_SCALAR, 1, &ac_id);
 867:/home/lsk/paparazzi/var/include/messages.h **** 	  trans->put_named_byte(trans->impl, dev, DL_TYPE_UINT8, DL_FORMAT_SCALAR, DL_BARO_BMP85, "BARO_BM
 868:/home/lsk/paparazzi/var/include/messages.h **** 	  trans->put_bytes(trans->impl, dev, DL_TYPE_INT32, DL_FORMAT_SCALAR, 4, (void *) _UT);
 869:/home/lsk/paparazzi/var/include/messages.h **** 	  trans->put_bytes(trans->impl, dev, DL_TYPE_INT32, DL_FORMAT_SCALAR, 4, (void *) _UP);
 870:/home/lsk/paparazzi/var/include/messages.h **** 	  trans->put_bytes(trans->impl, dev, DL_TYPE_UINT32, DL_FORMAT_SCALAR, 4, (void *) _P);
 871:/home/lsk/paparazzi/var/include/messages.h **** 	  trans->put_bytes(trans->impl, dev, DL_TYPE_FLOAT, DL_FORMAT_SCALAR, 4, (void *) _T);
 872:/home/lsk/paparazzi/var/include/messages.h **** 	  trans->put_bytes(trans->impl, dev, DL_TYPE_FLOAT, DL_FORMAT_SCALAR, 4, (void *) _MSL);
 873:/home/lsk/paparazzi/var/include/messages.h **** 	  trans->end_message(trans->impl, dev);
 874:/home/lsk/paparazzi/var/include/messages.h **** 	} else
 875:/home/lsk/paparazzi/var/include/messages.h **** 	  trans->overrun(trans->impl, dev);
 876:/home/lsk/paparazzi/var/include/messages.h **** }
 877:/home/lsk/paparazzi/var/include/messages.h **** 
 878:/home/lsk/paparazzi/var/include/messages.h **** #define DOWNLINK_SEND_SPEED_LOOP(_trans, _dev, ve_set_point, ve, vn_set_point, vn, north_sp, east_s
 879:/home/lsk/paparazzi/var/include/messages.h **** static inline void pprz_msg_send_SPEED_LOOP(struct transport_tx *trans, struct link_device *dev, ui
 880:/home/lsk/paparazzi/var/include/messages.h **** 	if (trans->check_available_space(trans->impl, dev, trans->size_of(trans->impl, 0+4+4+4+4+4+4 +2 /*
 881:/home/lsk/paparazzi/var/include/messages.h **** 	  trans->count_bytes(trans->impl, dev, trans->size_of(trans->impl, 0+4+4+4+4+4+4 +2 /* msg header 
 882:/home/lsk/paparazzi/var/include/messages.h **** 	  trans->start_message(trans->impl, dev, 0+4+4+4+4+4+4 +2 /* msg header overhead */);
 883:/home/lsk/paparazzi/var/include/messages.h **** 	  trans->put_bytes(trans->impl, dev, DL_TYPE_UINT8, DL_FORMAT_SCALAR, 1, &ac_id);
 884:/home/lsk/paparazzi/var/include/messages.h **** 	  trans->put_named_byte(trans->impl, dev, DL_TYPE_UINT8, DL_FORMAT_SCALAR, DL_SPEED_LOOP, "SPEED_L
 885:/home/lsk/paparazzi/var/include/messages.h **** 	  trans->put_bytes(trans->impl, dev, DL_TYPE_FLOAT, DL_FORMAT_SCALAR, 4, (void *) _ve_set_point);
 886:/home/lsk/paparazzi/var/include/messages.h **** 	  trans->put_bytes(trans->impl, dev, DL_TYPE_FLOAT, DL_FORMAT_SCALAR, 4, (void *) _ve);
 887:/home/lsk/paparazzi/var/include/messages.h **** 	  trans->put_bytes(trans->impl, dev, DL_TYPE_FLOAT, DL_FORMAT_SCALAR, 4, (void *) _vn_set_point);
 888:/home/lsk/paparazzi/var/include/messages.h **** 	  trans->put_bytes(trans->impl, dev, DL_TYPE_FLOAT, DL_FORMAT_SCALAR, 4, (void *) _vn);
 889:/home/lsk/paparazzi/var/include/messages.h **** 	  trans->put_bytes(trans->impl, dev, DL_TYPE_FLOAT, DL_FORMAT_SCALAR, 4, (void *) _north_sp);
 890:/home/lsk/paparazzi/var/include/messages.h **** 	  trans->put_bytes(trans->impl, dev, DL_TYPE_FLOAT, DL_FORMAT_SCALAR, 4, (void *) _east_sp);
 891:/home/lsk/paparazzi/var/include/messages.h **** 	  trans->end_message(trans->impl, dev);
 892:/home/lsk/paparazzi/var/include/messages.h **** 	} else
 893:/home/lsk/paparazzi/var/include/messages.h **** 	  trans->overrun(trans->impl, dev);
 894:/home/lsk/paparazzi/var/include/messages.h **** }
 895:/home/lsk/paparazzi/var/include/messages.h **** 
 896:/home/lsk/paparazzi/var/include/messages.h **** #define DOWNLINK_SEND_ALT_KALMAN(_trans, _dev, p00, p01, p10, p11) pprz_msg_send_ALT_KALMAN(&((_tra
 897:/home/lsk/paparazzi/var/include/messages.h **** static inline void pprz_msg_send_ALT_KALMAN(struct transport_tx *trans, struct link_device *dev, ui
 898:/home/lsk/paparazzi/var/include/messages.h **** 	if (trans->check_available_space(trans->impl, dev, trans->size_of(trans->impl, 0+4+4+4+4 +2 /* msg
 899:/home/lsk/paparazzi/var/include/messages.h **** 	  trans->count_bytes(trans->impl, dev, trans->size_of(trans->impl, 0+4+4+4+4 +2 /* msg header over
 900:/home/lsk/paparazzi/var/include/messages.h **** 	  trans->start_message(trans->impl, dev, 0+4+4+4+4 +2 /* msg header overhead */);
 901:/home/lsk/paparazzi/var/include/messages.h **** 	  trans->put_bytes(trans->impl, dev, DL_TYPE_UINT8, DL_FORMAT_SCALAR, 1, &ac_id);
 902:/home/lsk/paparazzi/var/include/messages.h **** 	  trans->put_named_byte(trans->impl, dev, DL_TYPE_UINT8, DL_FORMAT_SCALAR, DL_ALT_KALMAN, "ALT_KAL
 903:/home/lsk/paparazzi/var/include/messages.h **** 	  trans->put_bytes(trans->impl, dev, DL_TYPE_FLOAT, DL_FORMAT_SCALAR, 4, (void *) _p00);
 904:/home/lsk/paparazzi/var/include/messages.h **** 	  trans->put_bytes(trans->impl, dev, DL_TYPE_FLOAT, DL_FORMAT_SCALAR, 4, (void *) _p01);
 905:/home/lsk/paparazzi/var/include/messages.h **** 	  trans->put_bytes(trans->impl, dev, DL_TYPE_FLOAT, DL_FORMAT_SCALAR, 4, (void *) _p10);
 906:/home/lsk/paparazzi/var/include/messages.h **** 	  trans->put_bytes(trans->impl, dev, DL_TYPE_FLOAT, DL_FORMAT_SCALAR, 4, (void *) _p11);
 907:/home/lsk/paparazzi/var/include/messages.h **** 	  trans->end_message(trans->impl, dev);
 908:/home/lsk/paparazzi/var/include/messages.h **** 	} else
 909:/home/lsk/paparazzi/var/include/messages.h **** 	  trans->overrun(trans->impl, dev);
 910:/home/lsk/paparazzi/var/include/messages.h **** }
 911:/home/lsk/paparazzi/var/include/messages.h **** 
 912:/home/lsk/paparazzi/var/include/messages.h **** #define DOWNLINK_SEND_ESTIMATOR(_trans, _dev, z, z_dot) pprz_msg_send_ESTIMATOR(&((_trans).trans_tx
 913:/home/lsk/paparazzi/var/include/messages.h **** static inline void pprz_msg_send_ESTIMATOR(struct transport_tx *trans, struct link_device *dev, uin
 914:/home/lsk/paparazzi/var/include/messages.h **** 	if (trans->check_available_space(trans->impl, dev, trans->size_of(trans->impl, 0+4+4 +2 /* msg hea
 915:/home/lsk/paparazzi/var/include/messages.h **** 	  trans->count_bytes(trans->impl, dev, trans->size_of(trans->impl, 0+4+4 +2 /* msg header overhead
 916:/home/lsk/paparazzi/var/include/messages.h **** 	  trans->start_message(trans->impl, dev, 0+4+4 +2 /* msg header overhead */);
 917:/home/lsk/paparazzi/var/include/messages.h **** 	  trans->put_bytes(trans->impl, dev, DL_TYPE_UINT8, DL_FORMAT_SCALAR, 1, &ac_id);
 918:/home/lsk/paparazzi/var/include/messages.h **** 	  trans->put_named_byte(trans->impl, dev, DL_TYPE_UINT8, DL_FORMAT_SCALAR, DL_ESTIMATOR, "ESTIMATO
 919:/home/lsk/paparazzi/var/include/messages.h **** 	  trans->put_bytes(trans->impl, dev, DL_TYPE_FLOAT, DL_FORMAT_SCALAR, 4, (void *) _z);
 920:/home/lsk/paparazzi/var/include/messages.h **** 	  trans->put_bytes(trans->impl, dev, DL_TYPE_FLOAT, DL_FORMAT_SCALAR, 4, (void *) _z_dot);
 921:/home/lsk/paparazzi/var/include/messages.h **** 	  trans->end_message(trans->impl, dev);
 922:/home/lsk/paparazzi/var/include/messages.h **** 	} else
 923:/home/lsk/paparazzi/var/include/messages.h **** 	  trans->overrun(trans->impl, dev);
 924:/home/lsk/paparazzi/var/include/messages.h **** }
 925:/home/lsk/paparazzi/var/include/messages.h **** 
 926:/home/lsk/paparazzi/var/include/messages.h **** #define DOWNLINK_SEND_TUNE_ROLL(_trans, _dev, p, phi, phi_sp) pprz_msg_send_TUNE_ROLL(&((_trans).tr
 927:/home/lsk/paparazzi/var/include/messages.h **** static inline void pprz_msg_send_TUNE_ROLL(struct transport_tx *trans, struct link_device *dev, uin
 928:/home/lsk/paparazzi/var/include/messages.h **** 	if (trans->check_available_space(trans->impl, dev, trans->size_of(trans->impl, 0+4+4+4 +2 /* msg h
 929:/home/lsk/paparazzi/var/include/messages.h **** 	  trans->count_bytes(trans->impl, dev, trans->size_of(trans->impl, 0+4+4+4 +2 /* msg header overhe
 930:/home/lsk/paparazzi/var/include/messages.h **** 	  trans->start_message(trans->impl, dev, 0+4+4+4 +2 /* msg header overhead */);
 931:/home/lsk/paparazzi/var/include/messages.h **** 	  trans->put_bytes(trans->impl, dev, DL_TYPE_UINT8, DL_FORMAT_SCALAR, 1, &ac_id);
 932:/home/lsk/paparazzi/var/include/messages.h **** 	  trans->put_named_byte(trans->impl, dev, DL_TYPE_UINT8, DL_FORMAT_SCALAR, DL_TUNE_ROLL, "TUNE_ROL
 933:/home/lsk/paparazzi/var/include/messages.h **** 	  trans->put_bytes(trans->impl, dev, DL_TYPE_FLOAT, DL_FORMAT_SCALAR, 4, (void *) _p);
 934:/home/lsk/paparazzi/var/include/messages.h **** 	  trans->put_bytes(trans->impl, dev, DL_TYPE_FLOAT, DL_FORMAT_SCALAR, 4, (void *) _phi);
 935:/home/lsk/paparazzi/var/include/messages.h **** 	  trans->put_bytes(trans->impl, dev, DL_TYPE_FLOAT, DL_FORMAT_SCALAR, 4, (void *) _phi_sp);
 936:/home/lsk/paparazzi/var/include/messages.h **** 	  trans->end_message(trans->impl, dev);
 937:/home/lsk/paparazzi/var/include/messages.h **** 	} else
 938:/home/lsk/paparazzi/var/include/messages.h **** 	  trans->overrun(trans->impl, dev);
 939:/home/lsk/paparazzi/var/include/messages.h **** }
 940:/home/lsk/paparazzi/var/include/messages.h **** 
 941:/home/lsk/paparazzi/var/include/messages.h **** #define DOWNLINK_SEND_BARO_MS5534A(_trans, _dev, pressure, temp, alt) pprz_msg_send_BARO_MS5534A(&(
 942:/home/lsk/paparazzi/var/include/messages.h **** static inline void pprz_msg_send_BARO_MS5534A(struct transport_tx *trans, struct link_device *dev, 
 943:/home/lsk/paparazzi/var/include/messages.h **** 	if (trans->check_available_space(trans->impl, dev, trans->size_of(trans->impl, 0+4+2+4 +2 /* msg h
 944:/home/lsk/paparazzi/var/include/messages.h **** 	  trans->count_bytes(trans->impl, dev, trans->size_of(trans->impl, 0+4+2+4 +2 /* msg header overhe
 945:/home/lsk/paparazzi/var/include/messages.h **** 	  trans->start_message(trans->impl, dev, 0+4+2+4 +2 /* msg header overhead */);
 946:/home/lsk/paparazzi/var/include/messages.h **** 	  trans->put_bytes(trans->impl, dev, DL_TYPE_UINT8, DL_FORMAT_SCALAR, 1, &ac_id);
 947:/home/lsk/paparazzi/var/include/messages.h **** 	  trans->put_named_byte(trans->impl, dev, DL_TYPE_UINT8, DL_FORMAT_SCALAR, DL_BARO_MS5534A, "BARO_
 948:/home/lsk/paparazzi/var/include/messages.h **** 	  trans->put_bytes(trans->impl, dev, DL_TYPE_UINT32, DL_FORMAT_SCALAR, 4, (void *) _pressure);
 949:/home/lsk/paparazzi/var/include/messages.h **** 	  trans->put_bytes(trans->impl, dev, DL_TYPE_UINT16, DL_FORMAT_SCALAR, 2, (void *) _temp);
 950:/home/lsk/paparazzi/var/include/messages.h **** 	  trans->put_bytes(trans->impl, dev, DL_TYPE_FLOAT, DL_FORMAT_SCALAR, 4, (void *) _alt);
 951:/home/lsk/paparazzi/var/include/messages.h **** 	  trans->end_message(trans->impl, dev);
 952:/home/lsk/paparazzi/var/include/messages.h **** 	} else
 953:/home/lsk/paparazzi/var/include/messages.h **** 	  trans->overrun(trans->impl, dev);
 954:/home/lsk/paparazzi/var/include/messages.h **** }
 955:/home/lsk/paparazzi/var/include/messages.h **** 
 956:/home/lsk/paparazzi/var/include/messages.h **** #define DOWNLINK_SEND_PRESSURE(_trans, _dev, airspeed_adc, airspeed, altitude_adc, altitude) pprz_m
 957:/home/lsk/paparazzi/var/include/messages.h **** static inline void pprz_msg_send_PRESSURE(struct transport_tx *trans, struct link_device *dev, uint
 958:/home/lsk/paparazzi/var/include/messages.h **** 	if (trans->check_available_space(trans->impl, dev, trans->size_of(trans->impl, 0+4+4+4+4 +2 /* msg
 959:/home/lsk/paparazzi/var/include/messages.h **** 	  trans->count_bytes(trans->impl, dev, trans->size_of(trans->impl, 0+4+4+4+4 +2 /* msg header over
 960:/home/lsk/paparazzi/var/include/messages.h **** 	  trans->start_message(trans->impl, dev, 0+4+4+4+4 +2 /* msg header overhead */);
 961:/home/lsk/paparazzi/var/include/messages.h **** 	  trans->put_bytes(trans->impl, dev, DL_TYPE_UINT8, DL_FORMAT_SCALAR, 1, &ac_id);
 962:/home/lsk/paparazzi/var/include/messages.h **** 	  trans->put_named_byte(trans->impl, dev, DL_TYPE_UINT8, DL_FORMAT_SCALAR, DL_PRESSURE, "PRESSURE"
 963:/home/lsk/paparazzi/var/include/messages.h **** 	  trans->put_bytes(trans->impl, dev, DL_TYPE_FLOAT, DL_FORMAT_SCALAR, 4, (void *) _airspeed_adc);
 964:/home/lsk/paparazzi/var/include/messages.h **** 	  trans->put_bytes(trans->impl, dev, DL_TYPE_FLOAT, DL_FORMAT_SCALAR, 4, (void *) _airspeed);
 965:/home/lsk/paparazzi/var/include/messages.h **** 	  trans->put_bytes(trans->impl, dev, DL_TYPE_FLOAT, DL_FORMAT_SCALAR, 4, (void *) _altitude_adc);
 966:/home/lsk/paparazzi/var/include/messages.h **** 	  trans->put_bytes(trans->impl, dev, DL_TYPE_FLOAT, DL_FORMAT_SCALAR, 4, (void *) _altitude);
 967:/home/lsk/paparazzi/var/include/messages.h **** 	  trans->end_message(trans->impl, dev);
 968:/home/lsk/paparazzi/var/include/messages.h **** 	} else
 969:/home/lsk/paparazzi/var/include/messages.h **** 	  trans->overrun(trans->impl, dev);
 970:/home/lsk/paparazzi/var/include/messages.h **** }
 971:/home/lsk/paparazzi/var/include/messages.h **** 
 972:/home/lsk/paparazzi/var/include/messages.h **** #define DOWNLINK_SEND_BARO_WORDS(_trans, _dev, w1, w2, w3, w4) pprz_msg_send_BARO_WORDS(&((_trans).
 973:/home/lsk/paparazzi/var/include/messages.h **** static inline void pprz_msg_send_BARO_WORDS(struct transport_tx *trans, struct link_device *dev, ui
 974:/home/lsk/paparazzi/var/include/messages.h **** 	if (trans->check_available_space(trans->impl, dev, trans->size_of(trans->impl, 0+2+2+2+2 +2 /* msg
 975:/home/lsk/paparazzi/var/include/messages.h **** 	  trans->count_bytes(trans->impl, dev, trans->size_of(trans->impl, 0+2+2+2+2 +2 /* msg header over
 976:/home/lsk/paparazzi/var/include/messages.h **** 	  trans->start_message(trans->impl, dev, 0+2+2+2+2 +2 /* msg header overhead */);
 977:/home/lsk/paparazzi/var/include/messages.h **** 	  trans->put_bytes(trans->impl, dev, DL_TYPE_UINT8, DL_FORMAT_SCALAR, 1, &ac_id);
 978:/home/lsk/paparazzi/var/include/messages.h **** 	  trans->put_named_byte(trans->impl, dev, DL_TYPE_UINT8, DL_FORMAT_SCALAR, DL_BARO_WORDS, "BARO_WO
 979:/home/lsk/paparazzi/var/include/messages.h **** 	  trans->put_bytes(trans->impl, dev, DL_TYPE_UINT16, DL_FORMAT_SCALAR, 2, (void *) _w1);
 980:/home/lsk/paparazzi/var/include/messages.h **** 	  trans->put_bytes(trans->impl, dev, DL_TYPE_UINT16, DL_FORMAT_SCALAR, 2, (void *) _w2);
 981:/home/lsk/paparazzi/var/include/messages.h **** 	  trans->put_bytes(trans->impl, dev, DL_TYPE_UINT16, DL_FORMAT_SCALAR, 2, (void *) _w3);
 982:/home/lsk/paparazzi/var/include/messages.h **** 	  trans->put_bytes(trans->impl, dev, DL_TYPE_UINT16, DL_FORMAT_SCALAR, 2, (void *) _w4);
 983:/home/lsk/paparazzi/var/include/messages.h **** 	  trans->end_message(trans->impl, dev);
 984:/home/lsk/paparazzi/var/include/messages.h **** 	} else
 985:/home/lsk/paparazzi/var/include/messages.h **** 	  trans->overrun(trans->impl, dev);
 986:/home/lsk/paparazzi/var/include/messages.h **** }
 987:/home/lsk/paparazzi/var/include/messages.h **** 
 988:/home/lsk/paparazzi/var/include/messages.h **** #define DOWNLINK_SEND_WP_MOVED_LLA(_trans, _dev, wp_id, lat, lon, alt) pprz_msg_send_WP_MOVED_LLA(&
 989:/home/lsk/paparazzi/var/include/messages.h **** static inline void pprz_msg_send_WP_MOVED_LLA(struct transport_tx *trans, struct link_device *dev, 
 990:/home/lsk/paparazzi/var/include/messages.h **** 	if (trans->check_available_space(trans->impl, dev, trans->size_of(trans->impl, 0+1+4+4+4 +2 /* msg
 991:/home/lsk/paparazzi/var/include/messages.h **** 	  trans->count_bytes(trans->impl, dev, trans->size_of(trans->impl, 0+1+4+4+4 +2 /* msg header over
 992:/home/lsk/paparazzi/var/include/messages.h **** 	  trans->start_message(trans->impl, dev, 0+1+4+4+4 +2 /* msg header overhead */);
 993:/home/lsk/paparazzi/var/include/messages.h **** 	  trans->put_bytes(trans->impl, dev, DL_TYPE_UINT8, DL_FORMAT_SCALAR, 1, &ac_id);
 994:/home/lsk/paparazzi/var/include/messages.h **** 	  trans->put_named_byte(trans->impl, dev, DL_TYPE_UINT8, DL_FORMAT_SCALAR, DL_WP_MOVED_LLA, "WP_MO
 995:/home/lsk/paparazzi/var/include/messages.h **** 	  trans->put_bytes(trans->impl, dev, DL_TYPE_UINT8, DL_FORMAT_SCALAR, 1, (void *) _wp_id);
 996:/home/lsk/paparazzi/var/include/messages.h **** 	  trans->put_bytes(trans->impl, dev, DL_TYPE_INT32, DL_FORMAT_SCALAR, 4, (void *) _lat);
 997:/home/lsk/paparazzi/var/include/messages.h **** 	  trans->put_bytes(trans->impl, dev, DL_TYPE_INT32, DL_FORMAT_SCALAR, 4, (void *) _lon);
 998:/home/lsk/paparazzi/var/include/messages.h **** 	  trans->put_bytes(trans->impl, dev, DL_TYPE_INT32, DL_FORMAT_SCALAR, 4, (void *) _alt);
 999:/home/lsk/paparazzi/var/include/messages.h **** 	  trans->end_message(trans->impl, dev);
1000:/home/lsk/paparazzi/var/include/messages.h **** 	} else
1001:/home/lsk/paparazzi/var/include/messages.h **** 	  trans->overrun(trans->impl, dev);
1002:/home/lsk/paparazzi/var/include/messages.h **** }
1003:/home/lsk/paparazzi/var/include/messages.h **** 
1004:/home/lsk/paparazzi/var/include/messages.h **** #define DOWNLINK_SEND_CHRONO(_trans, _dev, tag, time) pprz_msg_send_CHRONO(&((_trans).trans_tx), &(
1005:/home/lsk/paparazzi/var/include/messages.h **** static inline void pprz_msg_send_CHRONO(struct transport_tx *trans, struct link_device *dev, uint8_
1006:/home/lsk/paparazzi/var/include/messages.h **** 	if (trans->check_available_space(trans->impl, dev, trans->size_of(trans->impl, 0+1+4 +2 /* msg hea
1007:/home/lsk/paparazzi/var/include/messages.h **** 	  trans->count_bytes(trans->impl, dev, trans->size_of(trans->impl, 0+1+4 +2 /* msg header overhead
1008:/home/lsk/paparazzi/var/include/messages.h **** 	  trans->start_message(trans->impl, dev, 0+1+4 +2 /* msg header overhead */);
1009:/home/lsk/paparazzi/var/include/messages.h **** 	  trans->put_bytes(trans->impl, dev, DL_TYPE_UINT8, DL_FORMAT_SCALAR, 1, &ac_id);
1010:/home/lsk/paparazzi/var/include/messages.h **** 	  trans->put_named_byte(trans->impl, dev, DL_TYPE_UINT8, DL_FORMAT_SCALAR, DL_CHRONO, "CHRONO");
1011:/home/lsk/paparazzi/var/include/messages.h **** 	  trans->put_bytes(trans->impl, dev, DL_TYPE_UINT8, DL_FORMAT_SCALAR, 1, (void *) _tag);
1012:/home/lsk/paparazzi/var/include/messages.h **** 	  trans->put_bytes(trans->impl, dev, DL_TYPE_UINT32, DL_FORMAT_SCALAR, 4, (void *) _time);
1013:/home/lsk/paparazzi/var/include/messages.h **** 	  trans->end_message(trans->impl, dev);
1014:/home/lsk/paparazzi/var/include/messages.h **** 	} else
1015:/home/lsk/paparazzi/var/include/messages.h **** 	  trans->overrun(trans->impl, dev);
1016:/home/lsk/paparazzi/var/include/messages.h **** }
1017:/home/lsk/paparazzi/var/include/messages.h **** 
1018:/home/lsk/paparazzi/var/include/messages.h **** #define DOWNLINK_SEND_WP_MOVED_ENU(_trans, _dev, wp_id, east, north, up) pprz_msg_send_WP_MOVED_ENU
1019:/home/lsk/paparazzi/var/include/messages.h **** static inline void pprz_msg_send_WP_MOVED_ENU(struct transport_tx *trans, struct link_device *dev, 
1020:/home/lsk/paparazzi/var/include/messages.h **** 	if (trans->check_available_space(trans->impl, dev, trans->size_of(trans->impl, 0+1+4+4+4 +2 /* msg
1021:/home/lsk/paparazzi/var/include/messages.h **** 	  trans->count_bytes(trans->impl, dev, trans->size_of(trans->impl, 0+1+4+4+4 +2 /* msg header over
1022:/home/lsk/paparazzi/var/include/messages.h **** 	  trans->start_message(trans->impl, dev, 0+1+4+4+4 +2 /* msg header overhead */);
1023:/home/lsk/paparazzi/var/include/messages.h **** 	  trans->put_bytes(trans->impl, dev, DL_TYPE_UINT8, DL_FORMAT_SCALAR, 1, &ac_id);
1024:/home/lsk/paparazzi/var/include/messages.h **** 	  trans->put_named_byte(trans->impl, dev, DL_TYPE_UINT8, DL_FORMAT_SCALAR, DL_WP_MOVED_ENU, "WP_MO
1025:/home/lsk/paparazzi/var/include/messages.h **** 	  trans->put_bytes(trans->impl, dev, DL_TYPE_UINT8, DL_FORMAT_SCALAR, 1, (void *) _wp_id);
1026:/home/lsk/paparazzi/var/include/messages.h **** 	  trans->put_bytes(trans->impl, dev, DL_TYPE_INT32, DL_FORMAT_SCALAR, 4, (void *) _east);
1027:/home/lsk/paparazzi/var/include/messages.h **** 	  trans->put_bytes(trans->impl, dev, DL_TYPE_INT32, DL_FORMAT_SCALAR, 4, (void *) _north);
1028:/home/lsk/paparazzi/var/include/messages.h **** 	  trans->put_bytes(trans->impl, dev, DL_TYPE_INT32, DL_FORMAT_SCALAR, 4, (void *) _up);
1029:/home/lsk/paparazzi/var/include/messages.h **** 	  trans->end_message(trans->impl, dev);
1030:/home/lsk/paparazzi/var/include/messages.h **** 	} else
1031:/home/lsk/paparazzi/var/include/messages.h **** 	  trans->overrun(trans->impl, dev);
1032:/home/lsk/paparazzi/var/include/messages.h **** }
1033:/home/lsk/paparazzi/var/include/messages.h **** 
1034:/home/lsk/paparazzi/var/include/messages.h **** #define DOWNLINK_SEND_WINDTURBINE_STATUS_(_trans, _dev, ac_id, tb_id, sync_itow, cycle_time) pprz_m
1035:/home/lsk/paparazzi/var/include/messages.h **** static inline void pprz_msg_send_WINDTURBINE_STATUS_(struct transport_tx *trans, struct link_device
1036:/home/lsk/paparazzi/var/include/messages.h **** 	if (trans->check_available_space(trans->impl, dev, trans->size_of(trans->impl, 0+1+1+4+4 +2 /* msg
1037:/home/lsk/paparazzi/var/include/messages.h **** 	  trans->count_bytes(trans->impl, dev, trans->size_of(trans->impl, 0+1+1+4+4 +2 /* msg header over
1038:/home/lsk/paparazzi/var/include/messages.h **** 	  trans->start_message(trans->impl, dev, 0+1+1+4+4 +2 /* msg header overhead */);
1039:/home/lsk/paparazzi/var/include/messages.h **** 	  trans->put_bytes(trans->impl, dev, DL_TYPE_UINT8, DL_FORMAT_SCALAR, 1, &ac_id);
1040:/home/lsk/paparazzi/var/include/messages.h **** 	  trans->put_named_byte(trans->impl, dev, DL_TYPE_UINT8, DL_FORMAT_SCALAR, DL_WINDTURBINE_STATUS_,
1041:/home/lsk/paparazzi/var/include/messages.h **** 	  trans->put_bytes(trans->impl, dev, DL_TYPE_UINT8, DL_FORMAT_SCALAR, 1, (void *) _ac_id);
1042:/home/lsk/paparazzi/var/include/messages.h **** 	  trans->put_bytes(trans->impl, dev, DL_TYPE_UINT8, DL_FORMAT_SCALAR, 1, (void *) _tb_id);
1043:/home/lsk/paparazzi/var/include/messages.h **** 	  trans->put_bytes(trans->impl, dev, DL_TYPE_UINT32, DL_FORMAT_SCALAR, 4, (void *) _sync_itow);
1044:/home/lsk/paparazzi/var/include/messages.h **** 	  trans->put_bytes(trans->impl, dev, DL_TYPE_UINT32, DL_FORMAT_SCALAR, 4, (void *) _cycle_time);
1045:/home/lsk/paparazzi/var/include/messages.h **** 	  trans->end_message(trans->impl, dev);
1046:/home/lsk/paparazzi/var/include/messages.h **** 	} else
1047:/home/lsk/paparazzi/var/include/messages.h **** 	  trans->overrun(trans->impl, dev);
1048:/home/lsk/paparazzi/var/include/messages.h **** }
1049:/home/lsk/paparazzi/var/include/messages.h **** 
1050:/home/lsk/paparazzi/var/include/messages.h **** #define DOWNLINK_SEND_RC_3CH_(_trans, _dev, throttle_mode, roll, pitch) pprz_msg_send_RC_3CH_(&((_t
1051:/home/lsk/paparazzi/var/include/messages.h **** static inline void pprz_msg_send_RC_3CH_(struct transport_tx *trans, struct link_device *dev, uint8
1052:/home/lsk/paparazzi/var/include/messages.h **** 	if (trans->check_available_space(trans->impl, dev, trans->size_of(trans->impl, 0+1+1+1 +2 /* msg h
1053:/home/lsk/paparazzi/var/include/messages.h **** 	  trans->count_bytes(trans->impl, dev, trans->size_of(trans->impl, 0+1+1+1 +2 /* msg header overhe
1054:/home/lsk/paparazzi/var/include/messages.h **** 	  trans->start_message(trans->impl, dev, 0+1+1+1 +2 /* msg header overhead */);
1055:/home/lsk/paparazzi/var/include/messages.h **** 	  trans->put_bytes(trans->impl, dev, DL_TYPE_UINT8, DL_FORMAT_SCALAR, 1, &ac_id);
1056:/home/lsk/paparazzi/var/include/messages.h **** 	  trans->put_named_byte(trans->impl, dev, DL_TYPE_UINT8, DL_FORMAT_SCALAR, DL_RC_3CH_, "RC_3CH_");
1057:/home/lsk/paparazzi/var/include/messages.h **** 	  trans->put_bytes(trans->impl, dev, DL_TYPE_UINT8, DL_FORMAT_SCALAR, 1, (void *) _throttle_mode);
1058:/home/lsk/paparazzi/var/include/messages.h **** 	  trans->put_bytes(trans->impl, dev, DL_TYPE_INT8, DL_FORMAT_SCALAR, 1, (void *) _roll);
1059:/home/lsk/paparazzi/var/include/messages.h **** 	  trans->put_bytes(trans->impl, dev, DL_TYPE_INT8, DL_FORMAT_SCALAR, 1, (void *) _pitch);
1060:/home/lsk/paparazzi/var/include/messages.h **** 	  trans->end_message(trans->impl, dev);
1061:/home/lsk/paparazzi/var/include/messages.h **** 	} else
1062:/home/lsk/paparazzi/var/include/messages.h **** 	  trans->overrun(trans->impl, dev);
1063:/home/lsk/paparazzi/var/include/messages.h **** }
1064:/home/lsk/paparazzi/var/include/messages.h **** 
1065:/home/lsk/paparazzi/var/include/messages.h **** #define DOWNLINK_SEND_MPPT(_trans, _dev, nb_values, values) pprz_msg_send_MPPT(&((_trans).trans_tx)
1066:/home/lsk/paparazzi/var/include/messages.h **** static inline void pprz_msg_send_MPPT(struct transport_tx *trans, struct link_device *dev, uint8_t 
1067:/home/lsk/paparazzi/var/include/messages.h **** 	if (trans->check_available_space(trans->impl, dev, trans->size_of(trans->impl, 0+1+nb_values*2 +2 
1068:/home/lsk/paparazzi/var/include/messages.h **** 	  trans->count_bytes(trans->impl, dev, trans->size_of(trans->impl, 0+1+nb_values*2 +2 /* msg heade
1069:/home/lsk/paparazzi/var/include/messages.h **** 	  trans->start_message(trans->impl, dev, 0+1+nb_values*2 +2 /* msg header overhead */);
1070:/home/lsk/paparazzi/var/include/messages.h **** 	  trans->put_bytes(trans->impl, dev, DL_TYPE_UINT8, DL_FORMAT_SCALAR, 1, &ac_id);
1071:/home/lsk/paparazzi/var/include/messages.h **** 	  trans->put_named_byte(trans->impl, dev, DL_TYPE_UINT8, DL_FORMAT_SCALAR, DL_MPPT, "MPPT");
1072:/home/lsk/paparazzi/var/include/messages.h **** 	  trans->put_bytes(trans->impl, dev, DL_TYPE_ARRAY_LENGTH, DL_FORMAT_SCALAR, 1, (void *) &nb_value
1073:/home/lsk/paparazzi/var/include/messages.h **** 	  trans->put_bytes(trans->impl, dev, DL_TYPE_INT16, DL_FORMAT_ARRAY, 2 * nb_values, (void *) _valu
1074:/home/lsk/paparazzi/var/include/messages.h **** 	  trans->end_message(trans->impl, dev);
1075:/home/lsk/paparazzi/var/include/messages.h **** 	} else
1076:/home/lsk/paparazzi/var/include/messages.h **** 	  trans->overrun(trans->impl, dev);
1077:/home/lsk/paparazzi/var/include/messages.h **** }
1078:/home/lsk/paparazzi/var/include/messages.h **** 
1079:/home/lsk/paparazzi/var/include/messages.h **** #define DOWNLINK_SEND_DEBUG_IR_I2C(_trans, _dev, ir1, ir2, top) pprz_msg_send_DEBUG_IR_I2C(&((_tran
1080:/home/lsk/paparazzi/var/include/messages.h **** static inline void pprz_msg_send_DEBUG_IR_I2C(struct transport_tx *trans, struct link_device *dev, 
1081:/home/lsk/paparazzi/var/include/messages.h **** 	if (trans->check_available_space(trans->impl, dev, trans->size_of(trans->impl, 0+2+2+2 +2 /* msg h
1082:/home/lsk/paparazzi/var/include/messages.h **** 	  trans->count_bytes(trans->impl, dev, trans->size_of(trans->impl, 0+2+2+2 +2 /* msg header overhe
1083:/home/lsk/paparazzi/var/include/messages.h **** 	  trans->start_message(trans->impl, dev, 0+2+2+2 +2 /* msg header overhead */);
1084:/home/lsk/paparazzi/var/include/messages.h **** 	  trans->put_bytes(trans->impl, dev, DL_TYPE_UINT8, DL_FORMAT_SCALAR, 1, &ac_id);
1085:/home/lsk/paparazzi/var/include/messages.h **** 	  trans->put_named_byte(trans->impl, dev, DL_TYPE_UINT8, DL_FORMAT_SCALAR, DL_DEBUG_IR_I2C, "DEBUG
1086:/home/lsk/paparazzi/var/include/messages.h **** 	  trans->put_bytes(trans->impl, dev, DL_TYPE_INT16, DL_FORMAT_SCALAR, 2, (void *) _ir1);
1087:/home/lsk/paparazzi/var/include/messages.h **** 	  trans->put_bytes(trans->impl, dev, DL_TYPE_INT16, DL_FORMAT_SCALAR, 2, (void *) _ir2);
1088:/home/lsk/paparazzi/var/include/messages.h **** 	  trans->put_bytes(trans->impl, dev, DL_TYPE_INT16, DL_FORMAT_SCALAR, 2, (void *) _top);
1089:/home/lsk/paparazzi/var/include/messages.h **** 	  trans->end_message(trans->impl, dev);
1090:/home/lsk/paparazzi/var/include/messages.h **** 	} else
1091:/home/lsk/paparazzi/var/include/messages.h **** 	  trans->overrun(trans->impl, dev);
1092:/home/lsk/paparazzi/var/include/messages.h **** }
1093:/home/lsk/paparazzi/var/include/messages.h **** 
1094:/home/lsk/paparazzi/var/include/messages.h **** #define DOWNLINK_SEND_AIRSPEED(_trans, _dev, airspeed, airspeed_sp, airspeed_cnt, groundspeed_sp) p
1095:/home/lsk/paparazzi/var/include/messages.h **** static inline void pprz_msg_send_AIRSPEED(struct transport_tx *trans, struct link_device *dev, uint
1096:/home/lsk/paparazzi/var/include/messages.h **** 	if (trans->check_available_space(trans->impl, dev, trans->size_of(trans->impl, 0+4+4+4+4 +2 /* msg
1097:/home/lsk/paparazzi/var/include/messages.h **** 	  trans->count_bytes(trans->impl, dev, trans->size_of(trans->impl, 0+4+4+4+4 +2 /* msg header over
1098:/home/lsk/paparazzi/var/include/messages.h **** 	  trans->start_message(trans->impl, dev, 0+4+4+4+4 +2 /* msg header overhead */);
1099:/home/lsk/paparazzi/var/include/messages.h **** 	  trans->put_bytes(trans->impl, dev, DL_TYPE_UINT8, DL_FORMAT_SCALAR, 1, &ac_id);
1100:/home/lsk/paparazzi/var/include/messages.h **** 	  trans->put_named_byte(trans->impl, dev, DL_TYPE_UINT8, DL_FORMAT_SCALAR, DL_AIRSPEED, "AIRSPEED"
1101:/home/lsk/paparazzi/var/include/messages.h **** 	  trans->put_bytes(trans->impl, dev, DL_TYPE_FLOAT, DL_FORMAT_SCALAR, 4, (void *) _airspeed);
1102:/home/lsk/paparazzi/var/include/messages.h **** 	  trans->put_bytes(trans->impl, dev, DL_TYPE_FLOAT, DL_FORMAT_SCALAR, 4, (void *) _airspeed_sp);
1103:/home/lsk/paparazzi/var/include/messages.h **** 	  trans->put_bytes(trans->impl, dev, DL_TYPE_FLOAT, DL_FORMAT_SCALAR, 4, (void *) _airspeed_cnt);
1104:/home/lsk/paparazzi/var/include/messages.h **** 	  trans->put_bytes(trans->impl, dev, DL_TYPE_FLOAT, DL_FORMAT_SCALAR, 4, (void *) _groundspeed_sp)
1105:/home/lsk/paparazzi/var/include/messages.h **** 	  trans->end_message(trans->impl, dev);
1106:/home/lsk/paparazzi/var/include/messages.h **** 	} else
1107:/home/lsk/paparazzi/var/include/messages.h **** 	  trans->overrun(trans->impl, dev);
1108:/home/lsk/paparazzi/var/include/messages.h **** }
1109:/home/lsk/paparazzi/var/include/messages.h **** 
1110:/home/lsk/paparazzi/var/include/messages.h **** #define DOWNLINK_SEND_XSENS(_trans, _dev, counter, p, q, r, phi, theta, psi, ax, ay, az, vx, vy, vz
1111:/home/lsk/paparazzi/var/include/messages.h **** static inline void pprz_msg_send_XSENS(struct transport_tx *trans, struct link_device *dev, uint8_t
1112:/home/lsk/paparazzi/var/include/messages.h **** 	if (trans->check_available_space(trans->impl, dev, trans->size_of(trans->impl, 0+2+4+4+4+4+4+4+4+4
1113:/home/lsk/paparazzi/var/include/messages.h **** 	  trans->count_bytes(trans->impl, dev, trans->size_of(trans->impl, 0+2+4+4+4+4+4+4+4+4+4+4+4+4+4+4
1114:/home/lsk/paparazzi/var/include/messages.h **** 	  trans->start_message(trans->impl, dev, 0+2+4+4+4+4+4+4+4+4+4+4+4+4+4+4+4+1+1+1+1+4+2+1+1 +2 /* m
1115:/home/lsk/paparazzi/var/include/messages.h **** 	  trans->put_bytes(trans->impl, dev, DL_TYPE_UINT8, DL_FORMAT_SCALAR, 1, &ac_id);
1116:/home/lsk/paparazzi/var/include/messages.h **** 	  trans->put_named_byte(trans->impl, dev, DL_TYPE_UINT8, DL_FORMAT_SCALAR, DL_XSENS, "XSENS");
1117:/home/lsk/paparazzi/var/include/messages.h **** 	  trans->put_bytes(trans->impl, dev, DL_TYPE_INT16, DL_FORMAT_SCALAR, 2, (void *) _counter);
1118:/home/lsk/paparazzi/var/include/messages.h **** 	  trans->put_bytes(trans->impl, dev, DL_TYPE_FLOAT, DL_FORMAT_SCALAR, 4, (void *) _p);
1119:/home/lsk/paparazzi/var/include/messages.h **** 	  trans->put_bytes(trans->impl, dev, DL_TYPE_FLOAT, DL_FORMAT_SCALAR, 4, (void *) _q);
1120:/home/lsk/paparazzi/var/include/messages.h **** 	  trans->put_bytes(trans->impl, dev, DL_TYPE_FLOAT, DL_FORMAT_SCALAR, 4, (void *) _r);
1121:/home/lsk/paparazzi/var/include/messages.h **** 	  trans->put_bytes(trans->impl, dev, DL_TYPE_FLOAT, DL_FORMAT_SCALAR, 4, (void *) _phi);
1122:/home/lsk/paparazzi/var/include/messages.h **** 	  trans->put_bytes(trans->impl, dev, DL_TYPE_FLOAT, DL_FORMAT_SCALAR, 4, (void *) _theta);
1123:/home/lsk/paparazzi/var/include/messages.h **** 	  trans->put_bytes(trans->impl, dev, DL_TYPE_FLOAT, DL_FORMAT_SCALAR, 4, (void *) _psi);
1124:/home/lsk/paparazzi/var/include/messages.h **** 	  trans->put_bytes(trans->impl, dev, DL_TYPE_FLOAT, DL_FORMAT_SCALAR, 4, (void *) _ax);
1125:/home/lsk/paparazzi/var/include/messages.h **** 	  trans->put_bytes(trans->impl, dev, DL_TYPE_FLOAT, DL_FORMAT_SCALAR, 4, (void *) _ay);
1126:/home/lsk/paparazzi/var/include/messages.h **** 	  trans->put_bytes(trans->impl, dev, DL_TYPE_FLOAT, DL_FORMAT_SCALAR, 4, (void *) _az);
1127:/home/lsk/paparazzi/var/include/messages.h **** 	  trans->put_bytes(trans->impl, dev, DL_TYPE_FLOAT, DL_FORMAT_SCALAR, 4, (void *) _vx);
1128:/home/lsk/paparazzi/var/include/messages.h **** 	  trans->put_bytes(trans->impl, dev, DL_TYPE_FLOAT, DL_FORMAT_SCALAR, 4, (void *) _vy);
1129:/home/lsk/paparazzi/var/include/messages.h **** 	  trans->put_bytes(trans->impl, dev, DL_TYPE_FLOAT, DL_FORMAT_SCALAR, 4, (void *) _vz);
1130:/home/lsk/paparazzi/var/include/messages.h **** 	  trans->put_bytes(trans->impl, dev, DL_TYPE_FLOAT, DL_FORMAT_SCALAR, 4, (void *) _lat);
1131:/home/lsk/paparazzi/var/include/messages.h **** 	  trans->put_bytes(trans->impl, dev, DL_TYPE_FLOAT, DL_FORMAT_SCALAR, 4, (void *) _lon);
1132:/home/lsk/paparazzi/var/include/messages.h **** 	  trans->put_bytes(trans->impl, dev, DL_TYPE_FLOAT, DL_FORMAT_SCALAR, 4, (void *) _alt);
1133:/home/lsk/paparazzi/var/include/messages.h **** 	  trans->put_bytes(trans->impl, dev, DL_TYPE_UINT8, DL_FORMAT_SCALAR, 1, (void *) _status);
1134:/home/lsk/paparazzi/var/include/messages.h **** 	  trans->put_bytes(trans->impl, dev, DL_TYPE_UINT8, DL_FORMAT_SCALAR, 1, (void *) _hour);
1135:/home/lsk/paparazzi/var/include/messages.h **** 	  trans->put_bytes(trans->impl, dev, DL_TYPE_UINT8, DL_FORMAT_SCALAR, 1, (void *) _min);
1136:/home/lsk/paparazzi/var/include/messages.h **** 	  trans->put_bytes(trans->impl, dev, DL_TYPE_UINT8, DL_FORMAT_SCALAR, 1, (void *) _sec);
1137:/home/lsk/paparazzi/var/include/messages.h **** 	  trans->put_bytes(trans->impl, dev, DL_TYPE_UINT32, DL_FORMAT_SCALAR, 4, (void *) _nanosec);
1138:/home/lsk/paparazzi/var/include/messages.h **** 	  trans->put_bytes(trans->impl, dev, DL_TYPE_UINT16, DL_FORMAT_SCALAR, 2, (void *) _year);
1139:/home/lsk/paparazzi/var/include/messages.h **** 	  trans->put_bytes(trans->impl, dev, DL_TYPE_UINT8, DL_FORMAT_SCALAR, 1, (void *) _month);
1140:/home/lsk/paparazzi/var/include/messages.h **** 	  trans->put_bytes(trans->impl, dev, DL_TYPE_UINT8, DL_FORMAT_SCALAR, 1, (void *) _day);
1141:/home/lsk/paparazzi/var/include/messages.h **** 	  trans->end_message(trans->impl, dev);
1142:/home/lsk/paparazzi/var/include/messages.h **** 	} else
1143:/home/lsk/paparazzi/var/include/messages.h **** 	  trans->overrun(trans->impl, dev);
1144:/home/lsk/paparazzi/var/include/messages.h **** }
1145:/home/lsk/paparazzi/var/include/messages.h **** 
1146:/home/lsk/paparazzi/var/include/messages.h **** #define DOWNLINK_SEND_BARO_ETS(_trans, _dev, adc, offset, scaled) pprz_msg_send_BARO_ETS(&((_trans)
1147:/home/lsk/paparazzi/var/include/messages.h **** static inline void pprz_msg_send_BARO_ETS(struct transport_tx *trans, struct link_device *dev, uint
1148:/home/lsk/paparazzi/var/include/messages.h **** 	if (trans->check_available_space(trans->impl, dev, trans->size_of(trans->impl, 0+2+2+4 +2 /* msg h
1149:/home/lsk/paparazzi/var/include/messages.h **** 	  trans->count_bytes(trans->impl, dev, trans->size_of(trans->impl, 0+2+2+4 +2 /* msg header overhe
1150:/home/lsk/paparazzi/var/include/messages.h **** 	  trans->start_message(trans->impl, dev, 0+2+2+4 +2 /* msg header overhead */);
1151:/home/lsk/paparazzi/var/include/messages.h **** 	  trans->put_bytes(trans->impl, dev, DL_TYPE_UINT8, DL_FORMAT_SCALAR, 1, &ac_id);
1152:/home/lsk/paparazzi/var/include/messages.h **** 	  trans->put_named_byte(trans->impl, dev, DL_TYPE_UINT8, DL_FORMAT_SCALAR, DL_BARO_ETS, "BARO_ETS"
1153:/home/lsk/paparazzi/var/include/messages.h **** 	  trans->put_bytes(trans->impl, dev, DL_TYPE_UINT16, DL_FORMAT_SCALAR, 2, (void *) _adc);
1154:/home/lsk/paparazzi/var/include/messages.h **** 	  trans->put_bytes(trans->impl, dev, DL_TYPE_UINT16, DL_FORMAT_SCALAR, 2, (void *) _offset);
1155:/home/lsk/paparazzi/var/include/messages.h **** 	  trans->put_bytes(trans->impl, dev, DL_TYPE_FLOAT, DL_FORMAT_SCALAR, 4, (void *) _scaled);
1156:/home/lsk/paparazzi/var/include/messages.h **** 	  trans->end_message(trans->impl, dev);
1157:/home/lsk/paparazzi/var/include/messages.h **** 	} else
1158:/home/lsk/paparazzi/var/include/messages.h **** 	  trans->overrun(trans->impl, dev);
1159:/home/lsk/paparazzi/var/include/messages.h **** }
1160:/home/lsk/paparazzi/var/include/messages.h **** 
1161:/home/lsk/paparazzi/var/include/messages.h **** #define DOWNLINK_SEND_AIRSPEED_ETS(_trans, _dev, adc, offset, scaled) pprz_msg_send_AIRSPEED_ETS(&(
1162:/home/lsk/paparazzi/var/include/messages.h **** static inline void pprz_msg_send_AIRSPEED_ETS(struct transport_tx *trans, struct link_device *dev, 
1163:/home/lsk/paparazzi/var/include/messages.h **** 	if (trans->check_available_space(trans->impl, dev, trans->size_of(trans->impl, 0+2+2+4 +2 /* msg h
1164:/home/lsk/paparazzi/var/include/messages.h **** 	  trans->count_bytes(trans->impl, dev, trans->size_of(trans->impl, 0+2+2+4 +2 /* msg header overhe
1165:/home/lsk/paparazzi/var/include/messages.h **** 	  trans->start_message(trans->impl, dev, 0+2+2+4 +2 /* msg header overhead */);
1166:/home/lsk/paparazzi/var/include/messages.h **** 	  trans->put_bytes(trans->impl, dev, DL_TYPE_UINT8, DL_FORMAT_SCALAR, 1, &ac_id);
1167:/home/lsk/paparazzi/var/include/messages.h **** 	  trans->put_named_byte(trans->impl, dev, DL_TYPE_UINT8, DL_FORMAT_SCALAR, DL_AIRSPEED_ETS, "AIRSP
1168:/home/lsk/paparazzi/var/include/messages.h **** 	  trans->put_bytes(trans->impl, dev, DL_TYPE_UINT16, DL_FORMAT_SCALAR, 2, (void *) _adc);
1169:/home/lsk/paparazzi/var/include/messages.h **** 	  trans->put_bytes(trans->impl, dev, DL_TYPE_UINT16, DL_FORMAT_SCALAR, 2, (void *) _offset);
1170:/home/lsk/paparazzi/var/include/messages.h **** 	  trans->put_bytes(trans->impl, dev, DL_TYPE_FLOAT, DL_FORMAT_SCALAR, 4, (void *) _scaled);
1171:/home/lsk/paparazzi/var/include/messages.h **** 	  trans->end_message(trans->impl, dev);
1172:/home/lsk/paparazzi/var/include/messages.h **** 	} else
1173:/home/lsk/paparazzi/var/include/messages.h **** 	  trans->overrun(trans->impl, dev);
1174:/home/lsk/paparazzi/var/include/messages.h **** }
1175:/home/lsk/paparazzi/var/include/messages.h **** 
1176:/home/lsk/paparazzi/var/include/messages.h **** #define DOWNLINK_SEND_PBN(_trans, _dev, airspeed_adc, altitude_adc, airspeed, altitude, airspeed_of
1177:/home/lsk/paparazzi/var/include/messages.h **** static inline void pprz_msg_send_PBN(struct transport_tx *trans, struct link_device *dev, uint8_t a
1178:/home/lsk/paparazzi/var/include/messages.h **** 	if (trans->check_available_space(trans->impl, dev, trans->size_of(trans->impl, 0+2+2+4+4+2+2 +2 /*
1179:/home/lsk/paparazzi/var/include/messages.h **** 	  trans->count_bytes(trans->impl, dev, trans->size_of(trans->impl, 0+2+2+4+4+2+2 +2 /* msg header 
1180:/home/lsk/paparazzi/var/include/messages.h **** 	  trans->start_message(trans->impl, dev, 0+2+2+4+4+2+2 +2 /* msg header overhead */);
1181:/home/lsk/paparazzi/var/include/messages.h **** 	  trans->put_bytes(trans->impl, dev, DL_TYPE_UINT8, DL_FORMAT_SCALAR, 1, &ac_id);
1182:/home/lsk/paparazzi/var/include/messages.h **** 	  trans->put_named_byte(trans->impl, dev, DL_TYPE_UINT8, DL_FORMAT_SCALAR, DL_PBN, "PBN");
1183:/home/lsk/paparazzi/var/include/messages.h **** 	  trans->put_bytes(trans->impl, dev, DL_TYPE_UINT16, DL_FORMAT_SCALAR, 2, (void *) _airspeed_adc);
1184:/home/lsk/paparazzi/var/include/messages.h **** 	  trans->put_bytes(trans->impl, dev, DL_TYPE_UINT16, DL_FORMAT_SCALAR, 2, (void *) _altitude_adc);
1185:/home/lsk/paparazzi/var/include/messages.h **** 	  trans->put_bytes(trans->impl, dev, DL_TYPE_FLOAT, DL_FORMAT_SCALAR, 4, (void *) _airspeed);
1186:/home/lsk/paparazzi/var/include/messages.h **** 	  trans->put_bytes(trans->impl, dev, DL_TYPE_FLOAT, DL_FORMAT_SCALAR, 4, (void *) _altitude);
1187:/home/lsk/paparazzi/var/include/messages.h **** 	  trans->put_bytes(trans->impl, dev, DL_TYPE_UINT16, DL_FORMAT_SCALAR, 2, (void *) _airspeed_offse
1188:/home/lsk/paparazzi/var/include/messages.h **** 	  trans->put_bytes(trans->impl, dev, DL_TYPE_UINT16, DL_FORMAT_SCALAR, 2, (void *) _altitude_offse
1189:/home/lsk/paparazzi/var/include/messages.h **** 	  trans->end_message(trans->impl, dev);
1190:/home/lsk/paparazzi/var/include/messages.h **** 	} else
1191:/home/lsk/paparazzi/var/include/messages.h **** 	  trans->overrun(trans->impl, dev);
1192:/home/lsk/paparazzi/var/include/messages.h **** }
1193:/home/lsk/paparazzi/var/include/messages.h **** 
1194:/home/lsk/paparazzi/var/include/messages.h **** #define DOWNLINK_SEND_GPS_LLA(_trans, _dev, lat, lon, alt, course, speed, climb, week, itow, mode, 
1195:/home/lsk/paparazzi/var/include/messages.h **** static inline void pprz_msg_send_GPS_LLA(struct transport_tx *trans, struct link_device *dev, uint8
1196:/home/lsk/paparazzi/var/include/messages.h **** 	if (trans->check_available_space(trans->impl, dev, trans->size_of(trans->impl, 0+4+4+4+2+2+2+2+4+1
1197:/home/lsk/paparazzi/var/include/messages.h **** 	  trans->count_bytes(trans->impl, dev, trans->size_of(trans->impl, 0+4+4+4+2+2+2+2+4+1+1 +2 /* msg
1198:/home/lsk/paparazzi/var/include/messages.h **** 	  trans->start_message(trans->impl, dev, 0+4+4+4+2+2+2+2+4+1+1 +2 /* msg header overhead */);
1199:/home/lsk/paparazzi/var/include/messages.h **** 	  trans->put_bytes(trans->impl, dev, DL_TYPE_UINT8, DL_FORMAT_SCALAR, 1, &ac_id);
1200:/home/lsk/paparazzi/var/include/messages.h **** 	  trans->put_named_byte(trans->impl, dev, DL_TYPE_UINT8, DL_FORMAT_SCALAR, DL_GPS_LLA, "GPS_LLA");
1201:/home/lsk/paparazzi/var/include/messages.h **** 	  trans->put_bytes(trans->impl, dev, DL_TYPE_INT32, DL_FORMAT_SCALAR, 4, (void *) _lat);
1202:/home/lsk/paparazzi/var/include/messages.h **** 	  trans->put_bytes(trans->impl, dev, DL_TYPE_INT32, DL_FORMAT_SCALAR, 4, (void *) _lon);
1203:/home/lsk/paparazzi/var/include/messages.h **** 	  trans->put_bytes(trans->impl, dev, DL_TYPE_INT32, DL_FORMAT_SCALAR, 4, (void *) _alt);
1204:/home/lsk/paparazzi/var/include/messages.h **** 	  trans->put_bytes(trans->impl, dev, DL_TYPE_INT16, DL_FORMAT_SCALAR, 2, (void *) _course);
1205:/home/lsk/paparazzi/var/include/messages.h **** 	  trans->put_bytes(trans->impl, dev, DL_TYPE_UINT16, DL_FORMAT_SCALAR, 2, (void *) _speed);
1206:/home/lsk/paparazzi/var/include/messages.h **** 	  trans->put_bytes(trans->impl, dev, DL_TYPE_INT16, DL_FORMAT_SCALAR, 2, (void *) _climb);
1207:/home/lsk/paparazzi/var/include/messages.h **** 	  trans->put_bytes(trans->impl, dev, DL_TYPE_UINT16, DL_FORMAT_SCALAR, 2, (void *) _week);
1208:/home/lsk/paparazzi/var/include/messages.h **** 	  trans->put_bytes(trans->impl, dev, DL_TYPE_UINT32, DL_FORMAT_SCALAR, 4, (void *) _itow);
1209:/home/lsk/paparazzi/var/include/messages.h **** 	  trans->put_bytes(trans->impl, dev, DL_TYPE_UINT8, DL_FORMAT_SCALAR, 1, (void *) _mode);
1210:/home/lsk/paparazzi/var/include/messages.h **** 	  trans->put_bytes(trans->impl, dev, DL_TYPE_UINT8, DL_FORMAT_SCALAR, 1, (void *) _gps_nb_err);
1211:/home/lsk/paparazzi/var/include/messages.h **** 	  trans->end_message(trans->impl, dev);
1212:/home/lsk/paparazzi/var/include/messages.h **** 	} else
1213:/home/lsk/paparazzi/var/include/messages.h **** 	  trans->overrun(trans->impl, dev);
1214:/home/lsk/paparazzi/var/include/messages.h **** }
1215:/home/lsk/paparazzi/var/include/messages.h **** 
1216:/home/lsk/paparazzi/var/include/messages.h **** #define DOWNLINK_SEND_H_CTL_A(_trans, _dev, roll_sum_err, roll_sp, roll_ref, phi, aileron_sp, pitch
1217:/home/lsk/paparazzi/var/include/messages.h **** static inline void pprz_msg_send_H_CTL_A(struct transport_tx *trans, struct link_device *dev, uint8
1218:/home/lsk/paparazzi/var/include/messages.h **** 	if (trans->check_available_space(trans->impl, dev, trans->size_of(trans->impl, 0+4+4+4+4+2+4+4+4+4
1219:/home/lsk/paparazzi/var/include/messages.h **** 	  trans->count_bytes(trans->impl, dev, trans->size_of(trans->impl, 0+4+4+4+4+2+4+4+4+4+2 +2 /* msg
1220:/home/lsk/paparazzi/var/include/messages.h **** 	  trans->start_message(trans->impl, dev, 0+4+4+4+4+2+4+4+4+4+2 +2 /* msg header overhead */);
1221:/home/lsk/paparazzi/var/include/messages.h **** 	  trans->put_bytes(trans->impl, dev, DL_TYPE_UINT8, DL_FORMAT_SCALAR, 1, &ac_id);
1222:/home/lsk/paparazzi/var/include/messages.h **** 	  trans->put_named_byte(trans->impl, dev, DL_TYPE_UINT8, DL_FORMAT_SCALAR, DL_H_CTL_A, "H_CTL_A");
1223:/home/lsk/paparazzi/var/include/messages.h **** 	  trans->put_bytes(trans->impl, dev, DL_TYPE_FLOAT, DL_FORMAT_SCALAR, 4, (void *) _roll_sum_err);
1224:/home/lsk/paparazzi/var/include/messages.h **** 	  trans->put_bytes(trans->impl, dev, DL_TYPE_FLOAT, DL_FORMAT_SCALAR, 4, (void *) _roll_sp);
1225:/home/lsk/paparazzi/var/include/messages.h **** 	  trans->put_bytes(trans->impl, dev, DL_TYPE_FLOAT, DL_FORMAT_SCALAR, 4, (void *) _roll_ref);
1226:/home/lsk/paparazzi/var/include/messages.h **** 	  trans->put_bytes(trans->impl, dev, DL_TYPE_FLOAT, DL_FORMAT_SCALAR, 4, (void *) _phi);
1227:/home/lsk/paparazzi/var/include/messages.h **** 	  trans->put_bytes(trans->impl, dev, DL_TYPE_INT16, DL_FORMAT_SCALAR, 2, (void *) _aileron_sp);
1228:/home/lsk/paparazzi/var/include/messages.h **** 	  trans->put_bytes(trans->impl, dev, DL_TYPE_FLOAT, DL_FORMAT_SCALAR, 4, (void *) _pitch_sum_err);
1229:/home/lsk/paparazzi/var/include/messages.h **** 	  trans->put_bytes(trans->impl, dev, DL_TYPE_FLOAT, DL_FORMAT_SCALAR, 4, (void *) _pitch_sp);
1230:/home/lsk/paparazzi/var/include/messages.h **** 	  trans->put_bytes(trans->impl, dev, DL_TYPE_FLOAT, DL_FORMAT_SCALAR, 4, (void *) _pitch_ref);
1231:/home/lsk/paparazzi/var/include/messages.h **** 	  trans->put_bytes(trans->impl, dev, DL_TYPE_FLOAT, DL_FORMAT_SCALAR, 4, (void *) _theta);
1232:/home/lsk/paparazzi/var/include/messages.h **** 	  trans->put_bytes(trans->impl, dev, DL_TYPE_INT16, DL_FORMAT_SCALAR, 2, (void *) _elevator_sp);
1233:/home/lsk/paparazzi/var/include/messages.h **** 	  trans->end_message(trans->impl, dev);
1234:/home/lsk/paparazzi/var/include/messages.h **** 	} else
1235:/home/lsk/paparazzi/var/include/messages.h **** 	  trans->overrun(trans->impl, dev);
1236:/home/lsk/paparazzi/var/include/messages.h **** }
1237:/home/lsk/paparazzi/var/include/messages.h **** 
1238:/home/lsk/paparazzi/var/include/messages.h **** #define DOWNLINK_SEND_TURB_PRESSURE_RAW(_trans, _dev, ch_0, ch_1, ch_2, ch_3, ch_4, ch_5, ch_6, ch_
1239:/home/lsk/paparazzi/var/include/messages.h **** static inline void pprz_msg_send_TURB_PRESSURE_RAW(struct transport_tx *trans, struct link_device *
1240:/home/lsk/paparazzi/var/include/messages.h **** 	if (trans->check_available_space(trans->impl, dev, trans->size_of(trans->impl, 0+4+4+4+4+4+4+4+4+4
1241:/home/lsk/paparazzi/var/include/messages.h **** 	  trans->count_bytes(trans->impl, dev, trans->size_of(trans->impl, 0+4+4+4+4+4+4+4+4+4+4+4+4+4+4+4
1242:/home/lsk/paparazzi/var/include/messages.h **** 	  trans->start_message(trans->impl, dev, 0+4+4+4+4+4+4+4+4+4+4+4+4+4+4+4+4 +2 /* msg header overhe
1243:/home/lsk/paparazzi/var/include/messages.h **** 	  trans->put_bytes(trans->impl, dev, DL_TYPE_UINT8, DL_FORMAT_SCALAR, 1, &ac_id);
1244:/home/lsk/paparazzi/var/include/messages.h **** 	  trans->put_named_byte(trans->impl, dev, DL_TYPE_UINT8, DL_FORMAT_SCALAR, DL_TURB_PRESSURE_RAW, "
1245:/home/lsk/paparazzi/var/include/messages.h **** 	  trans->put_bytes(trans->impl, dev, DL_TYPE_INT32, DL_FORMAT_SCALAR, 4, (void *) _ch_0);
1246:/home/lsk/paparazzi/var/include/messages.h **** 	  trans->put_bytes(trans->impl, dev, DL_TYPE_INT32, DL_FORMAT_SCALAR, 4, (void *) _ch_1);
1247:/home/lsk/paparazzi/var/include/messages.h **** 	  trans->put_bytes(trans->impl, dev, DL_TYPE_INT32, DL_FORMAT_SCALAR, 4, (void *) _ch_2);
1248:/home/lsk/paparazzi/var/include/messages.h **** 	  trans->put_bytes(trans->impl, dev, DL_TYPE_INT32, DL_FORMAT_SCALAR, 4, (void *) _ch_3);
1249:/home/lsk/paparazzi/var/include/messages.h **** 	  trans->put_bytes(trans->impl, dev, DL_TYPE_INT32, DL_FORMAT_SCALAR, 4, (void *) _ch_4);
1250:/home/lsk/paparazzi/var/include/messages.h **** 	  trans->put_bytes(trans->impl, dev, DL_TYPE_INT32, DL_FORMAT_SCALAR, 4, (void *) _ch_5);
1251:/home/lsk/paparazzi/var/include/messages.h **** 	  trans->put_bytes(trans->impl, dev, DL_TYPE_INT32, DL_FORMAT_SCALAR, 4, (void *) _ch_6);
1252:/home/lsk/paparazzi/var/include/messages.h **** 	  trans->put_bytes(trans->impl, dev, DL_TYPE_INT32, DL_FORMAT_SCALAR, 4, (void *) _ch_7);
1253:/home/lsk/paparazzi/var/include/messages.h **** 	  trans->put_bytes(trans->impl, dev, DL_TYPE_INT32, DL_FORMAT_SCALAR, 4, (void *) _ch_8);
1254:/home/lsk/paparazzi/var/include/messages.h **** 	  trans->put_bytes(trans->impl, dev, DL_TYPE_INT32, DL_FORMAT_SCALAR, 4, (void *) _ch_9);
1255:/home/lsk/paparazzi/var/include/messages.h **** 	  trans->put_bytes(trans->impl, dev, DL_TYPE_INT32, DL_FORMAT_SCALAR, 4, (void *) _ch_10);
1256:/home/lsk/paparazzi/var/include/messages.h **** 	  trans->put_bytes(trans->impl, dev, DL_TYPE_INT32, DL_FORMAT_SCALAR, 4, (void *) _ch_11);
1257:/home/lsk/paparazzi/var/include/messages.h **** 	  trans->put_bytes(trans->impl, dev, DL_TYPE_INT32, DL_FORMAT_SCALAR, 4, (void *) _ch_12);
1258:/home/lsk/paparazzi/var/include/messages.h **** 	  trans->put_bytes(trans->impl, dev, DL_TYPE_INT32, DL_FORMAT_SCALAR, 4, (void *) _ch_13);
1259:/home/lsk/paparazzi/var/include/messages.h **** 	  trans->put_bytes(trans->impl, dev, DL_TYPE_INT32, DL_FORMAT_SCALAR, 4, (void *) _ch_14);
1260:/home/lsk/paparazzi/var/include/messages.h **** 	  trans->put_bytes(trans->impl, dev, DL_TYPE_INT32, DL_FORMAT_SCALAR, 4, (void *) _ch_15);
1261:/home/lsk/paparazzi/var/include/messages.h **** 	  trans->end_message(trans->impl, dev);
1262:/home/lsk/paparazzi/var/include/messages.h **** 	} else
1263:/home/lsk/paparazzi/var/include/messages.h **** 	  trans->overrun(trans->impl, dev);
1264:/home/lsk/paparazzi/var/include/messages.h **** }
1265:/home/lsk/paparazzi/var/include/messages.h **** 
1266:/home/lsk/paparazzi/var/include/messages.h **** #define DOWNLINK_SEND_TURB_PRESSURE_VOLTAGE(_trans, _dev, ch_1_p, ch_1_t, ch_2_p, ch_2_t, ch_3_p, c
1267:/home/lsk/paparazzi/var/include/messages.h **** static inline void pprz_msg_send_TURB_PRESSURE_VOLTAGE(struct transport_tx *trans, struct link_devi
1268:/home/lsk/paparazzi/var/include/messages.h **** 	if (trans->check_available_space(trans->impl, dev, trans->size_of(trans->impl, 0+4+4+4+4+4+4+4+4+4
1269:/home/lsk/paparazzi/var/include/messages.h **** 	  trans->count_bytes(trans->impl, dev, trans->size_of(trans->impl, 0+4+4+4+4+4+4+4+4+4+4+4+4+4+4+4
1270:/home/lsk/paparazzi/var/include/messages.h **** 	  trans->start_message(trans->impl, dev, 0+4+4+4+4+4+4+4+4+4+4+4+4+4+4+4+4 +2 /* msg header overhe
1271:/home/lsk/paparazzi/var/include/messages.h **** 	  trans->put_bytes(trans->impl, dev, DL_TYPE_UINT8, DL_FORMAT_SCALAR, 1, &ac_id);
1272:/home/lsk/paparazzi/var/include/messages.h **** 	  trans->put_named_byte(trans->impl, dev, DL_TYPE_UINT8, DL_FORMAT_SCALAR, DL_TURB_PRESSURE_VOLTAG
1273:/home/lsk/paparazzi/var/include/messages.h **** 	  trans->put_bytes(trans->impl, dev, DL_TYPE_FLOAT, DL_FORMAT_SCALAR, 4, (void *) _ch_1_p);
1274:/home/lsk/paparazzi/var/include/messages.h **** 	  trans->put_bytes(trans->impl, dev, DL_TYPE_FLOAT, DL_FORMAT_SCALAR, 4, (void *) _ch_1_t);
1275:/home/lsk/paparazzi/var/include/messages.h **** 	  trans->put_bytes(trans->impl, dev, DL_TYPE_FLOAT, DL_FORMAT_SCALAR, 4, (void *) _ch_2_p);
1276:/home/lsk/paparazzi/var/include/messages.h **** 	  trans->put_bytes(trans->impl, dev, DL_TYPE_FLOAT, DL_FORMAT_SCALAR, 4, (void *) _ch_2_t);
1277:/home/lsk/paparazzi/var/include/messages.h **** 	  trans->put_bytes(trans->impl, dev, DL_TYPE_FLOAT, DL_FORMAT_SCALAR, 4, (void *) _ch_3_p);
1278:/home/lsk/paparazzi/var/include/messages.h **** 	  trans->put_bytes(trans->impl, dev, DL_TYPE_FLOAT, DL_FORMAT_SCALAR, 4, (void *) _ch_3_t);
1279:/home/lsk/paparazzi/var/include/messages.h **** 	  trans->put_bytes(trans->impl, dev, DL_TYPE_FLOAT, DL_FORMAT_SCALAR, 4, (void *) _ch_4_p);
1280:/home/lsk/paparazzi/var/include/messages.h **** 	  trans->put_bytes(trans->impl, dev, DL_TYPE_FLOAT, DL_FORMAT_SCALAR, 4, (void *) _ch_4_t);
1281:/home/lsk/paparazzi/var/include/messages.h **** 	  trans->put_bytes(trans->impl, dev, DL_TYPE_FLOAT, DL_FORMAT_SCALAR, 4, (void *) _ch_5_p);
1282:/home/lsk/paparazzi/var/include/messages.h **** 	  trans->put_bytes(trans->impl, dev, DL_TYPE_FLOAT, DL_FORMAT_SCALAR, 4, (void *) _ch_5_t);
1283:/home/lsk/paparazzi/var/include/messages.h **** 	  trans->put_bytes(trans->impl, dev, DL_TYPE_FLOAT, DL_FORMAT_SCALAR, 4, (void *) _ch_6_p);
1284:/home/lsk/paparazzi/var/include/messages.h **** 	  trans->put_bytes(trans->impl, dev, DL_TYPE_FLOAT, DL_FORMAT_SCALAR, 4, (void *) _ch_6_t);
1285:/home/lsk/paparazzi/var/include/messages.h **** 	  trans->put_bytes(trans->impl, dev, DL_TYPE_FLOAT, DL_FORMAT_SCALAR, 4, (void *) _ch_7_p);
1286:/home/lsk/paparazzi/var/include/messages.h **** 	  trans->put_bytes(trans->impl, dev, DL_TYPE_FLOAT, DL_FORMAT_SCALAR, 4, (void *) _ch_7_t);
1287:/home/lsk/paparazzi/var/include/messages.h **** 	  trans->put_bytes(trans->impl, dev, DL_TYPE_FLOAT, DL_FORMAT_SCALAR, 4, (void *) _gnd1);
1288:/home/lsk/paparazzi/var/include/messages.h **** 	  trans->put_bytes(trans->impl, dev, DL_TYPE_FLOAT, DL_FORMAT_SCALAR, 4, (void *) _gnd2);
1289:/home/lsk/paparazzi/var/include/messages.h **** 	  trans->end_message(trans->impl, dev);
1290:/home/lsk/paparazzi/var/include/messages.h **** 	} else
1291:/home/lsk/paparazzi/var/include/messages.h **** 	  trans->overrun(trans->impl, dev);
1292:/home/lsk/paparazzi/var/include/messages.h **** }
1293:/home/lsk/paparazzi/var/include/messages.h **** 
1294:/home/lsk/paparazzi/var/include/messages.h **** #define DOWNLINK_SEND_CAM_POINT(_trans, _dev, cam_point_distance_from_home, cam_point_lat, cam_poin
1295:/home/lsk/paparazzi/var/include/messages.h **** static inline void pprz_msg_send_CAM_POINT(struct transport_tx *trans, struct link_device *dev, uin
1296:/home/lsk/paparazzi/var/include/messages.h **** 	if (trans->check_available_space(trans->impl, dev, trans->size_of(trans->impl, 0+2+4+4 +2 /* msg h
1297:/home/lsk/paparazzi/var/include/messages.h **** 	  trans->count_bytes(trans->impl, dev, trans->size_of(trans->impl, 0+2+4+4 +2 /* msg header overhe
1298:/home/lsk/paparazzi/var/include/messages.h **** 	  trans->start_message(trans->impl, dev, 0+2+4+4 +2 /* msg header overhead */);
