   1              		.syntax unified
   2              		.cpu cortex-m4
   3              		.eabi_attribute 27, 3
   4              		.fpu fpv4-sp-d16
   5              		.eabi_attribute 20, 1
   6              		.eabi_attribute 21, 1
   7              		.eabi_attribute 23, 3
   8              		.eabi_attribute 24, 1
   9              		.eabi_attribute 25, 1
  10              		.eabi_attribute 26, 1
  11              		.eabi_attribute 30, 4
  12              		.eabi_attribute 34, 1
  13              		.eabi_attribute 18, 4
  14              		.thumb
  15              		.file	"ins_int.c"
  16              		.text
  17              	.Ltext0:
  18              		.cfi_sections	.debug_frame
  19              		.section	.text.ins_update_from_vff,"ax",%progbits
  20              		.align	1
  21              		.thumb
  22              		.thumb_func
  24              	ins_update_from_vff:
  25              	.LFB502:
  26              		.file 1 "subsystems/ins/ins_int.c"
   1:subsystems/ins/ins_int.c **** /*
   2:subsystems/ins/ins_int.c ****  * Copyright (C) 2008-2010 The Paparazzi Team
   3:subsystems/ins/ins_int.c ****  *
   4:subsystems/ins/ins_int.c ****  * This file is part of paparazzi.
   5:subsystems/ins/ins_int.c ****  *
   6:subsystems/ins/ins_int.c ****  * paparazzi is free software; you can redistribute it and/or modify
   7:subsystems/ins/ins_int.c ****  * it under the terms of the GNU General Public License as published by
   8:subsystems/ins/ins_int.c ****  * the Free Software Foundation; either version 2, or (at your option)
   9:subsystems/ins/ins_int.c ****  * any later version.
  10:subsystems/ins/ins_int.c ****  *
  11:subsystems/ins/ins_int.c ****  * paparazzi is distributed in the hope that it will be useful,
  12:subsystems/ins/ins_int.c ****  * but WITHOUT ANY WARRANTY; without even the implied warranty of
  13:subsystems/ins/ins_int.c ****  * MERCHANTABILITY or FITNESS FOR A PARTICULAR PURPOSE.  See the
  14:subsystems/ins/ins_int.c ****  * GNU General Public License for more details.
  15:subsystems/ins/ins_int.c ****  *
  16:subsystems/ins/ins_int.c ****  * You should have received a copy of the GNU General Public License
  17:subsystems/ins/ins_int.c ****  * along with paparazzi; see the file COPYING.  If not, write to
  18:subsystems/ins/ins_int.c ****  * the Free Software Foundation, 59 Temple Place - Suite 330,
  19:subsystems/ins/ins_int.c ****  * Boston, MA 02111-1307, USA.
  20:subsystems/ins/ins_int.c ****  */
  21:subsystems/ins/ins_int.c **** 
  22:subsystems/ins/ins_int.c **** /**
  23:subsystems/ins/ins_int.c ****  * @file subsystems/ins/ins_int.c
  24:subsystems/ins/ins_int.c ****  *
  25:subsystems/ins/ins_int.c ****  * INS for rotorcrafts combining vertical and horizontal filters.
  26:subsystems/ins/ins_int.c ****  *
  27:subsystems/ins/ins_int.c ****  */
  28:subsystems/ins/ins_int.c **** 
  29:subsystems/ins/ins_int.c **** #include "subsystems/ins/ins_int.h"
  30:subsystems/ins/ins_int.c **** 
  31:subsystems/ins/ins_int.c **** #include "subsystems/abi.h"
  32:subsystems/ins/ins_int.c **** 
  33:subsystems/ins/ins_int.c **** #include "subsystems/imu.h"
  34:subsystems/ins/ins_int.c **** #include "subsystems/gps.h"
  35:subsystems/ins/ins_int.c **** 
  36:subsystems/ins/ins_int.c **** #include "generated/airframe.h"
  37:subsystems/ins/ins_int.c **** 
  38:subsystems/ins/ins_int.c **** #if USE_VFF_EXTENDED
  39:subsystems/ins/ins_int.c **** #include "subsystems/ins/vf_extended_float.h"
  40:subsystems/ins/ins_int.c **** #else
  41:subsystems/ins/ins_int.c **** #include "subsystems/ins/vf_float.h"
  42:subsystems/ins/ins_int.c **** #endif
  43:subsystems/ins/ins_int.c **** 
  44:subsystems/ins/ins_int.c **** #if USE_HFF
  45:subsystems/ins/ins_int.c **** #include "subsystems/ins/hf_float.h"
  46:subsystems/ins/ins_int.c **** #endif
  47:subsystems/ins/ins_int.c **** 
  48:subsystems/ins/ins_int.c **** #if defined SITL && USE_NPS
  49:subsystems/ins/ins_int.c **** //#include "nps_fdm.h"
  50:subsystems/ins/ins_int.c **** #include "nps_autopilot.h"
  51:subsystems/ins/ins_int.c **** #include <stdio.h>
  52:subsystems/ins/ins_int.c **** #endif
  53:subsystems/ins/ins_int.c **** 
  54:subsystems/ins/ins_int.c **** #include "math/pprz_geodetic_int.h"
  55:subsystems/ins/ins_int.c **** #include "math/pprz_isa.h"
  56:subsystems/ins/ins_int.c **** 
  57:subsystems/ins/ins_int.c **** #include "generated/flight_plan.h"
  58:subsystems/ins/ins_int.c **** 
  59:subsystems/ins/ins_int.c **** 
  60:subsystems/ins/ins_int.c **** #if USE_SONAR
  61:subsystems/ins/ins_int.c **** #if !USE_VFF_EXTENDED
  62:subsystems/ins/ins_int.c **** #error USE_SONAR needs USE_VFF_EXTENDED
  63:subsystems/ins/ins_int.c **** #endif
  64:subsystems/ins/ins_int.c **** 
  65:subsystems/ins/ins_int.c **** /** default sonar to use in INS */
  66:subsystems/ins/ins_int.c **** #ifndef INS_SONAR_ID
  67:subsystems/ins/ins_int.c **** #define INS_SONAR_ID ABI_BROADCAST
  68:subsystems/ins/ins_int.c **** #endif
  69:subsystems/ins/ins_int.c **** abi_event sonar_ev;
  70:subsystems/ins/ins_int.c **** static void sonar_cb(uint8_t sender_id, float distance);
  71:subsystems/ins/ins_int.c **** 
  72:subsystems/ins/ins_int.c **** #ifdef INS_SONAR_THROTTLE_THRESHOLD
  73:subsystems/ins/ins_int.c **** #include "firmwares/rotorcraft/stabilization.h"
  74:subsystems/ins/ins_int.c **** #endif
  75:subsystems/ins/ins_int.c **** 
  76:subsystems/ins/ins_int.c **** #ifndef INS_SONAR_OFFSET
  77:subsystems/ins/ins_int.c **** #define INS_SONAR_OFFSET 0.
  78:subsystems/ins/ins_int.c **** #endif
  79:subsystems/ins/ins_int.c **** #ifndef INS_SONAR_MIN_RANGE
  80:subsystems/ins/ins_int.c **** #define INS_SONAR_MIN_RANGE 0.001
  81:subsystems/ins/ins_int.c **** #endif
  82:subsystems/ins/ins_int.c **** #define VFF_R_SONAR_0 0.1
  83:subsystems/ins/ins_int.c **** #ifndef VFF_R_SONAR_OF_M
  84:subsystems/ins/ins_int.c **** #define VFF_R_SONAR_OF_M 0.2
  85:subsystems/ins/ins_int.c **** #endif
  86:subsystems/ins/ins_int.c **** 
  87:subsystems/ins/ins_int.c **** #ifndef INS_SONAR_UPDATE_ON_AGL
  88:subsystems/ins/ins_int.c **** #define INS_SONAR_UPDATE_ON_AGL FALSE
  89:subsystems/ins/ins_int.c **** PRINT_CONFIG_MSG("INS_SONAR_UPDATE_ON_AGL defaulting to FALSE")
  90:subsystems/ins/ins_int.c **** #endif
  91:subsystems/ins/ins_int.c **** 
  92:subsystems/ins/ins_int.c **** #endif // USE_SONAR
  93:subsystems/ins/ins_int.c **** 
  94:subsystems/ins/ins_int.c **** #ifndef INS_VFF_R_GPS
  95:subsystems/ins/ins_int.c **** #define INS_VFF_R_GPS 2.0
  96:subsystems/ins/ins_int.c **** #endif
  97:subsystems/ins/ins_int.c **** 
  98:subsystems/ins/ins_int.c **** #ifndef USE_INS_NAV_INIT
  99:subsystems/ins/ins_int.c **** #define USE_INS_NAV_INIT TRUE
 100:subsystems/ins/ins_int.c **** PRINT_CONFIG_MSG("USE_INS_NAV_INIT defaulting to TRUE")
 101:subsystems/ins/ins_int.c **** #endif
 102:subsystems/ins/ins_int.c **** 
 103:subsystems/ins/ins_int.c **** #ifdef INS_BARO_SENS
 104:subsystems/ins/ins_int.c **** #warning INS_BARO_SENS is obsolete, please remove it from your airframe file.
 105:subsystems/ins/ins_int.c **** #endif
 106:subsystems/ins/ins_int.c **** 
 107:subsystems/ins/ins_int.c **** /** default barometer to use in INS */
 108:subsystems/ins/ins_int.c **** #ifndef INS_BARO_ID
 109:subsystems/ins/ins_int.c **** #if USE_BARO_BOARD
 110:subsystems/ins/ins_int.c **** #define INS_BARO_ID BARO_BOARD_SENDER_ID
 111:subsystems/ins/ins_int.c **** #else
 112:subsystems/ins/ins_int.c **** #define INS_BARO_ID ABI_BROADCAST
 113:subsystems/ins/ins_int.c **** #endif
 114:subsystems/ins/ins_int.c **** #endif
 115:subsystems/ins/ins_int.c **** PRINT_CONFIG_VAR(INS_BARO_ID)
 116:subsystems/ins/ins_int.c **** abi_event baro_ev;
 117:subsystems/ins/ins_int.c **** static void baro_cb(uint8_t sender_id, float pressure);
 118:subsystems/ins/ins_int.c **** 
 119:subsystems/ins/ins_int.c **** /** ABI binding for IMU data.
 120:subsystems/ins/ins_int.c ****  * Used accel ABI messages.
 121:subsystems/ins/ins_int.c ****  */
 122:subsystems/ins/ins_int.c **** #ifndef INS_INT_IMU_ID
 123:subsystems/ins/ins_int.c **** #define INS_INT_IMU_ID ABI_BROADCAST
 124:subsystems/ins/ins_int.c **** #endif
 125:subsystems/ins/ins_int.c **** static abi_event accel_ev;
 126:subsystems/ins/ins_int.c **** static abi_event gps_ev;
 127:subsystems/ins/ins_int.c **** 
 128:subsystems/ins/ins_int.c **** struct InsInt ins_int;
 129:subsystems/ins/ins_int.c **** 
 130:subsystems/ins/ins_int.c **** #if PERIODIC_TELEMETRY
 131:subsystems/ins/ins_int.c **** #include "subsystems/datalink/telemetry.h"
 132:subsystems/ins/ins_int.c **** 
 133:subsystems/ins/ins_int.c **** static void send_ins(struct transport_tx *trans, struct link_device *dev)
 134:subsystems/ins/ins_int.c **** {
 135:subsystems/ins/ins_int.c ****   pprz_msg_send_INS(trans, dev, AC_ID,
 136:subsystems/ins/ins_int.c ****                     &ins_int.ltp_pos.x, &ins_int.ltp_pos.y, &ins_int.ltp_pos.z,
 137:subsystems/ins/ins_int.c ****                     &ins_int.ltp_speed.x, &ins_int.ltp_speed.y, &ins_int.ltp_speed.z,
 138:subsystems/ins/ins_int.c ****                     &ins_int.ltp_accel.x, &ins_int.ltp_accel.y, &ins_int.ltp_accel.z);
 139:subsystems/ins/ins_int.c **** }
 140:subsystems/ins/ins_int.c **** 
 141:subsystems/ins/ins_int.c **** static void send_ins_z(struct transport_tx *trans, struct link_device *dev)
 142:subsystems/ins/ins_int.c **** {
 143:subsystems/ins/ins_int.c ****   pprz_msg_send_INS_Z(trans, dev, AC_ID,
 144:subsystems/ins/ins_int.c ****                       &ins_int.baro_z, &ins_int.ltp_pos.z, &ins_int.ltp_speed.z, &ins_int.ltp_accel
 145:subsystems/ins/ins_int.c **** }
 146:subsystems/ins/ins_int.c **** 
 147:subsystems/ins/ins_int.c **** static void send_ins_ref(struct transport_tx *trans, struct link_device *dev)
 148:subsystems/ins/ins_int.c **** {
 149:subsystems/ins/ins_int.c ****   if (ins_int.ltp_initialized) {
 150:subsystems/ins/ins_int.c ****     pprz_msg_send_INS_REF(trans, dev, AC_ID,
 151:subsystems/ins/ins_int.c ****                           &ins_int.ltp_def.ecef.x, &ins_int.ltp_def.ecef.y, &ins_int.ltp_def.ecef.z
 152:subsystems/ins/ins_int.c ****                           &ins_int.ltp_def.lla.lat, &ins_int.ltp_def.lla.lon, &ins_int.ltp_def.lla.
 153:subsystems/ins/ins_int.c ****                           &ins_int.ltp_def.hmsl, &ins_int.qfe);
 154:subsystems/ins/ins_int.c ****   }
 155:subsystems/ins/ins_int.c **** }
 156:subsystems/ins/ins_int.c **** #endif
 157:subsystems/ins/ins_int.c **** 
 158:subsystems/ins/ins_int.c **** static void ins_init_origin_from_flightplan(void);
 159:subsystems/ins/ins_int.c **** static void ins_ned_to_state(void);
 160:subsystems/ins/ins_int.c **** static void ins_update_from_vff(void);
 161:subsystems/ins/ins_int.c **** #if USE_HFF
 162:subsystems/ins/ins_int.c **** static void ins_update_from_hff(void);
 163:subsystems/ins/ins_int.c **** #endif
 164:subsystems/ins/ins_int.c **** 
 165:subsystems/ins/ins_int.c **** 
 166:subsystems/ins/ins_int.c **** void ins_int_init(void)
 167:subsystems/ins/ins_int.c **** {
 168:subsystems/ins/ins_int.c **** 
 169:subsystems/ins/ins_int.c **** #if USE_INS_NAV_INIT
 170:subsystems/ins/ins_int.c ****   ins_init_origin_from_flightplan();
 171:subsystems/ins/ins_int.c ****   ins_int.ltp_initialized = TRUE;
 172:subsystems/ins/ins_int.c **** #else
 173:subsystems/ins/ins_int.c ****   ins_int.ltp_initialized  = FALSE;
 174:subsystems/ins/ins_int.c **** #endif
 175:subsystems/ins/ins_int.c **** 
 176:subsystems/ins/ins_int.c ****   // Bind to BARO_ABS message
 177:subsystems/ins/ins_int.c ****   AbiBindMsgBARO_ABS(INS_BARO_ID, &baro_ev, baro_cb);
 178:subsystems/ins/ins_int.c ****   ins_int.baro_initialized = FALSE;
 179:subsystems/ins/ins_int.c **** 
 180:subsystems/ins/ins_int.c **** #if USE_SONAR
 181:subsystems/ins/ins_int.c ****   ins_int.update_on_agl = INS_SONAR_UPDATE_ON_AGL;
 182:subsystems/ins/ins_int.c ****   // Bind to AGL message
 183:subsystems/ins/ins_int.c ****   AbiBindMsgAGL(INS_SONAR_ID, &sonar_ev, sonar_cb);
 184:subsystems/ins/ins_int.c **** #endif
 185:subsystems/ins/ins_int.c **** 
 186:subsystems/ins/ins_int.c ****   ins_int.vf_reset = FALSE;
 187:subsystems/ins/ins_int.c ****   ins_int.hf_realign = FALSE;
 188:subsystems/ins/ins_int.c **** 
 189:subsystems/ins/ins_int.c ****   /* init vertical and horizontal filters */
 190:subsystems/ins/ins_int.c ****   vff_init_zero();
 191:subsystems/ins/ins_int.c **** #if USE_HFF
 192:subsystems/ins/ins_int.c ****   b2_hff_init(0., 0., 0., 0.);
 193:subsystems/ins/ins_int.c **** #endif
 194:subsystems/ins/ins_int.c **** 
 195:subsystems/ins/ins_int.c ****   INT32_VECT3_ZERO(ins_int.ltp_pos);
 196:subsystems/ins/ins_int.c ****   INT32_VECT3_ZERO(ins_int.ltp_speed);
 197:subsystems/ins/ins_int.c ****   INT32_VECT3_ZERO(ins_int.ltp_accel);
 198:subsystems/ins/ins_int.c **** 
 199:subsystems/ins/ins_int.c **** #if PERIODIC_TELEMETRY
 200:subsystems/ins/ins_int.c ****   register_periodic_telemetry(DefaultPeriodic, "INS", send_ins);
 201:subsystems/ins/ins_int.c ****   register_periodic_telemetry(DefaultPeriodic, "INS_Z", send_ins_z);
 202:subsystems/ins/ins_int.c ****   register_periodic_telemetry(DefaultPeriodic, "INS_REF", send_ins_ref);
 203:subsystems/ins/ins_int.c **** #endif
 204:subsystems/ins/ins_int.c **** }
 205:subsystems/ins/ins_int.c **** 
 206:subsystems/ins/ins_int.c **** void ins_reset_local_origin(void)
 207:subsystems/ins/ins_int.c **** {
 208:subsystems/ins/ins_int.c **** #if USE_GPS
 209:subsystems/ins/ins_int.c ****   if (gps.fix == GPS_FIX_3D) {
 210:subsystems/ins/ins_int.c ****     ltp_def_from_ecef_i(&ins_int.ltp_def, &gps.ecef_pos);
 211:subsystems/ins/ins_int.c ****     ins_int.ltp_def.lla.alt = gps.lla_pos.alt;
 212:subsystems/ins/ins_int.c ****     ins_int.ltp_def.hmsl = gps.hmsl;
 213:subsystems/ins/ins_int.c ****     ins_int.ltp_initialized = TRUE;
 214:subsystems/ins/ins_int.c ****     stateSetLocalOrigin_i(&ins_int.ltp_def);
 215:subsystems/ins/ins_int.c ****   }
 216:subsystems/ins/ins_int.c ****   else {
 217:subsystems/ins/ins_int.c ****     ins_int.ltp_initialized = FALSE;
 218:subsystems/ins/ins_int.c ****   }
 219:subsystems/ins/ins_int.c **** #else
 220:subsystems/ins/ins_int.c ****   ins_int.ltp_initialized = FALSE;
 221:subsystems/ins/ins_int.c **** #endif
 222:subsystems/ins/ins_int.c **** 
 223:subsystems/ins/ins_int.c **** #if USE_HFF
 224:subsystems/ins/ins_int.c ****   ins_int.hf_realign = TRUE;
 225:subsystems/ins/ins_int.c **** #endif
 226:subsystems/ins/ins_int.c ****   ins_int.vf_reset = TRUE;
 227:subsystems/ins/ins_int.c **** }
 228:subsystems/ins/ins_int.c **** 
 229:subsystems/ins/ins_int.c **** void ins_reset_altitude_ref(void)
 230:subsystems/ins/ins_int.c **** {
 231:subsystems/ins/ins_int.c **** #if USE_GPS
 232:subsystems/ins/ins_int.c ****   struct LlaCoor_i lla = {
 233:subsystems/ins/ins_int.c ****     .lat = state.ned_origin_i.lla.lat,
 234:subsystems/ins/ins_int.c ****     .lon = state.ned_origin_i.lla.lon,
 235:subsystems/ins/ins_int.c ****     .alt = gps.lla_pos.alt
 236:subsystems/ins/ins_int.c ****   };
 237:subsystems/ins/ins_int.c ****   ltp_def_from_lla_i(&ins_int.ltp_def, &lla);
 238:subsystems/ins/ins_int.c ****   ins_int.ltp_def.hmsl = gps.hmsl;
 239:subsystems/ins/ins_int.c ****   stateSetLocalOrigin_i(&ins_int.ltp_def);
 240:subsystems/ins/ins_int.c **** #endif
 241:subsystems/ins/ins_int.c ****   ins_int.vf_reset = TRUE;
 242:subsystems/ins/ins_int.c **** }
 243:subsystems/ins/ins_int.c **** 
 244:subsystems/ins/ins_int.c **** void ins_int_propagate(struct Int32Vect3 *accel, float dt)
 245:subsystems/ins/ins_int.c **** {
 246:subsystems/ins/ins_int.c ****   /* untilt accels */
 247:subsystems/ins/ins_int.c ****   struct Int32Vect3 accel_meas_body;
 248:subsystems/ins/ins_int.c ****   struct Int32RMat *body_to_imu_rmat = orientationGetRMat_i(&imu.body_to_imu);
 249:subsystems/ins/ins_int.c ****   int32_rmat_transp_vmult(&accel_meas_body, body_to_imu_rmat, accel);
 250:subsystems/ins/ins_int.c ****   struct Int32Vect3 accel_meas_ltp;
 251:subsystems/ins/ins_int.c ****   int32_rmat_transp_vmult(&accel_meas_ltp, stateGetNedToBodyRMat_i(), &accel_meas_body);
 252:subsystems/ins/ins_int.c **** 
 253:subsystems/ins/ins_int.c ****   float z_accel_meas_float = ACCEL_FLOAT_OF_BFP(accel_meas_ltp.z);
 254:subsystems/ins/ins_int.c ****   if (ins_int.baro_initialized) {
 255:subsystems/ins/ins_int.c ****     vff_propagate(z_accel_meas_float, dt);
 256:subsystems/ins/ins_int.c ****     ins_update_from_vff();
 257:subsystems/ins/ins_int.c ****   } else { // feed accel from the sensors
 258:subsystems/ins/ins_int.c ****     // subtract -9.81m/s2 (acceleration measured due to gravity,
 259:subsystems/ins/ins_int.c ****     // but vehicle not accelerating in ltp)
 260:subsystems/ins/ins_int.c ****     ins_int.ltp_accel.z = accel_meas_ltp.z + ACCEL_BFP_OF_REAL(9.81);
 261:subsystems/ins/ins_int.c ****   }
 262:subsystems/ins/ins_int.c **** 
 263:subsystems/ins/ins_int.c **** #if USE_HFF
 264:subsystems/ins/ins_int.c ****   /* propagate horizontal filter */
 265:subsystems/ins/ins_int.c ****   b2_hff_propagate();
 266:subsystems/ins/ins_int.c ****   /* convert and copy result to ins_int */
 267:subsystems/ins/ins_int.c ****   ins_update_from_hff();
 268:subsystems/ins/ins_int.c **** #else
 269:subsystems/ins/ins_int.c ****   ins_int.ltp_accel.x = accel_meas_ltp.x;
 270:subsystems/ins/ins_int.c ****   ins_int.ltp_accel.y = accel_meas_ltp.y;
 271:subsystems/ins/ins_int.c **** #endif /* USE_HFF */
 272:subsystems/ins/ins_int.c **** 
 273:subsystems/ins/ins_int.c ****   ins_ned_to_state();
 274:subsystems/ins/ins_int.c **** }
 275:subsystems/ins/ins_int.c **** 
 276:subsystems/ins/ins_int.c **** static void baro_cb(uint8_t __attribute__((unused)) sender_id, float pressure)
 277:subsystems/ins/ins_int.c **** {
 278:subsystems/ins/ins_int.c ****   if (!ins_int.baro_initialized && pressure > 1e-7) {
 279:subsystems/ins/ins_int.c ****     // wait for a first positive value
 280:subsystems/ins/ins_int.c ****     ins_int.qfe = pressure;
 281:subsystems/ins/ins_int.c ****     ins_int.baro_initialized = TRUE;
 282:subsystems/ins/ins_int.c ****   }
 283:subsystems/ins/ins_int.c **** 
 284:subsystems/ins/ins_int.c ****   if (ins_int.baro_initialized) {
 285:subsystems/ins/ins_int.c ****     if (ins_int.vf_reset) {
 286:subsystems/ins/ins_int.c ****       ins_int.vf_reset = FALSE;
 287:subsystems/ins/ins_int.c ****       ins_int.qfe = pressure;
 288:subsystems/ins/ins_int.c ****       vff_realign(0.);
 289:subsystems/ins/ins_int.c ****       ins_update_from_vff();
 290:subsystems/ins/ins_int.c ****     } else {
 291:subsystems/ins/ins_int.c ****       ins_int.baro_z = -pprz_isa_height_of_pressure(pressure, ins_int.qfe);
 292:subsystems/ins/ins_int.c **** #if USE_VFF_EXTENDED
 293:subsystems/ins/ins_int.c ****       vff_update_baro(ins_int.baro_z);
 294:subsystems/ins/ins_int.c **** #else
 295:subsystems/ins/ins_int.c ****       vff_update(ins_int.baro_z);
 296:subsystems/ins/ins_int.c **** #endif
 297:subsystems/ins/ins_int.c ****     }
 298:subsystems/ins/ins_int.c ****     ins_ned_to_state();
 299:subsystems/ins/ins_int.c ****   }
 300:subsystems/ins/ins_int.c **** }
 301:subsystems/ins/ins_int.c **** 
 302:subsystems/ins/ins_int.c **** #if USE_GPS
 303:subsystems/ins/ins_int.c **** void ins_int_update_gps(struct GpsState *gps_s)
 304:subsystems/ins/ins_int.c **** {
 305:subsystems/ins/ins_int.c ****   if (gps_s->fix != GPS_FIX_3D) {
 306:subsystems/ins/ins_int.c ****     return;
 307:subsystems/ins/ins_int.c ****   }
 308:subsystems/ins/ins_int.c **** 
 309:subsystems/ins/ins_int.c ****   if (!ins_int.ltp_initialized) {
 310:subsystems/ins/ins_int.c ****     ins_reset_local_origin();
 311:subsystems/ins/ins_int.c ****   }
 312:subsystems/ins/ins_int.c **** 
 313:subsystems/ins/ins_int.c ****   struct NedCoor_i gps_pos_cm_ned;
 314:subsystems/ins/ins_int.c ****   ned_of_ecef_point_i(&gps_pos_cm_ned, &ins_int.ltp_def, &gps_s->ecef_pos);
 315:subsystems/ins/ins_int.c **** 
 316:subsystems/ins/ins_int.c ****   /* calculate body frame position taking BODY_TO_GPS translation (in cm) into account */
 317:subsystems/ins/ins_int.c **** #ifdef INS_BODY_TO_GPS_X
 318:subsystems/ins/ins_int.c ****   /* body2gps translation in body frame */
 319:subsystems/ins/ins_int.c ****   struct Int32Vect3 b2g_b = {
 320:subsystems/ins/ins_int.c ****     .x = INS_BODY_TO_GPS_X,
 321:subsystems/ins/ins_int.c ****     .y = INS_BODY_TO_GPS_Y,
 322:subsystems/ins/ins_int.c ****     .z = INS_BODY_TO_GPS_Z
 323:subsystems/ins/ins_int.c ****   };
 324:subsystems/ins/ins_int.c ****   /* rotate offset given in body frame to navigation/ltp frame using current attitude */
 325:subsystems/ins/ins_int.c ****   struct Int32Quat q_b2n;
 326:subsystems/ins/ins_int.c ****   memcpy(&q_b2n, stateGetNedToBodyQuat_i(), sizeof(struct Int32Quat));
 327:subsystems/ins/ins_int.c ****   QUAT_INVERT(q_b2n, q_b2n);
 328:subsystems/ins/ins_int.c ****   struct Int32Vect3 b2g_n;
 329:subsystems/ins/ins_int.c ****   int32_quat_vmult(&b2g_n, &q_b2n, &b2g_b);
 330:subsystems/ins/ins_int.c ****   /* subtract body2gps translation in ltp from gps position */
 331:subsystems/ins/ins_int.c ****   VECT3_SUB(gps_pos_cm_ned, b2g_n);
 332:subsystems/ins/ins_int.c **** #endif
 333:subsystems/ins/ins_int.c **** 
 334:subsystems/ins/ins_int.c ****   /// @todo maybe use gps_s->ned_vel directly??
 335:subsystems/ins/ins_int.c ****   struct NedCoor_i gps_speed_cm_s_ned;
 336:subsystems/ins/ins_int.c ****   ned_of_ecef_vect_i(&gps_speed_cm_s_ned, &ins_int.ltp_def, &gps_s->ecef_vel);
 337:subsystems/ins/ins_int.c **** 
 338:subsystems/ins/ins_int.c **** #if INS_USE_GPS_ALT
 339:subsystems/ins/ins_int.c ****   vff_update_z_conf((float)gps_pos_cm_ned.z / 100.0, INS_VFF_R_GPS);
 340:subsystems/ins/ins_int.c **** #endif
 341:subsystems/ins/ins_int.c **** 
 342:subsystems/ins/ins_int.c **** #if USE_HFF
 343:subsystems/ins/ins_int.c ****   /* horizontal gps transformed to NED in meters as float */
 344:subsystems/ins/ins_int.c ****   struct FloatVect2 gps_pos_m_ned;
 345:subsystems/ins/ins_int.c ****   VECT2_ASSIGN(gps_pos_m_ned, gps_pos_cm_ned.x, gps_pos_cm_ned.y);
 346:subsystems/ins/ins_int.c ****   VECT2_SDIV(gps_pos_m_ned, gps_pos_m_ned, 100.0f);
 347:subsystems/ins/ins_int.c **** 
 348:subsystems/ins/ins_int.c ****   struct FloatVect2 gps_speed_m_s_ned;
 349:subsystems/ins/ins_int.c ****   VECT2_ASSIGN(gps_speed_m_s_ned, gps_speed_cm_s_ned.x, gps_speed_cm_s_ned.y);
 350:subsystems/ins/ins_int.c ****   VECT2_SDIV(gps_speed_m_s_ned, gps_speed_m_s_ned, 100.);
 351:subsystems/ins/ins_int.c **** 
 352:subsystems/ins/ins_int.c ****   if (ins_int.hf_realign) {
 353:subsystems/ins/ins_int.c ****     ins_int.hf_realign = FALSE;
 354:subsystems/ins/ins_int.c ****     const struct FloatVect2 zero = {0.0f, 0.0f};
 355:subsystems/ins/ins_int.c ****     b2_hff_realign(gps_pos_m_ned, zero);
 356:subsystems/ins/ins_int.c ****   }
 357:subsystems/ins/ins_int.c ****   // run horizontal filter
 358:subsystems/ins/ins_int.c ****   b2_hff_update_gps(&gps_pos_m_ned, &gps_speed_m_s_ned);
 359:subsystems/ins/ins_int.c ****   // convert and copy result to ins_int
 360:subsystems/ins/ins_int.c ****   ins_update_from_hff();
 361:subsystems/ins/ins_int.c **** 
 362:subsystems/ins/ins_int.c **** #else  /* hff not used */
 363:subsystems/ins/ins_int.c ****   /* simply copy horizontal pos/speed from gps */
 364:subsystems/ins/ins_int.c ****   INT32_VECT2_SCALE_2(ins_int.ltp_pos, gps_pos_cm_ned,
 365:subsystems/ins/ins_int.c ****                       INT32_POS_OF_CM_NUM, INT32_POS_OF_CM_DEN);
 366:subsystems/ins/ins_int.c ****   INT32_VECT2_SCALE_2(ins_int.ltp_speed, gps_speed_cm_s_ned,
 367:subsystems/ins/ins_int.c ****                       INT32_SPEED_OF_CM_S_NUM, INT32_SPEED_OF_CM_S_DEN);
 368:subsystems/ins/ins_int.c **** #endif /* USE_HFF */
 369:subsystems/ins/ins_int.c **** 
 370:subsystems/ins/ins_int.c ****   ins_ned_to_state();
 371:subsystems/ins/ins_int.c **** }
 372:subsystems/ins/ins_int.c **** #else
 373:subsystems/ins/ins_int.c **** void ins_int_update_gps(struct GpsState *gps_s __attribute__((unused))) {}
 374:subsystems/ins/ins_int.c **** #endif /* USE_GPS */
 375:subsystems/ins/ins_int.c **** 
 376:subsystems/ins/ins_int.c **** 
 377:subsystems/ins/ins_int.c **** #if USE_SONAR
 378:subsystems/ins/ins_int.c **** static void sonar_cb(uint8_t __attribute__((unused)) sender_id, float distance)
 379:subsystems/ins/ins_int.c **** {
 380:subsystems/ins/ins_int.c ****   static float last_offset = 0.;
 381:subsystems/ins/ins_int.c **** 
 382:subsystems/ins/ins_int.c ****   /* update filter assuming a flat ground */
 383:subsystems/ins/ins_int.c ****   if (distance < INS_SONAR_MAX_RANGE && distance > INS_SONAR_MIN_RANGE
 384:subsystems/ins/ins_int.c **** #ifdef INS_SONAR_THROTTLE_THRESHOLD
 385:subsystems/ins/ins_int.c ****       && stabilization_cmd[COMMAND_THRUST] < INS_SONAR_THROTTLE_THRESHOLD
 386:subsystems/ins/ins_int.c **** #endif
 387:subsystems/ins/ins_int.c **** #ifdef INS_SONAR_BARO_THRESHOLD
 388:subsystems/ins/ins_int.c ****       && ins_int.baro_z > -INS_SONAR_BARO_THRESHOLD /* z down */
 389:subsystems/ins/ins_int.c **** #endif
 390:subsystems/ins/ins_int.c ****       && ins_int.update_on_agl
 391:subsystems/ins/ins_int.c ****       && ins_int.baro_initialized) {
 392:subsystems/ins/ins_int.c ****     vff_update_z_conf(-(distance), VFF_R_SONAR_0 + VFF_R_SONAR_OF_M * fabsf(distance));
 393:subsystems/ins/ins_int.c ****     last_offset = vff.offset;
 394:subsystems/ins/ins_int.c ****   } else {
 395:subsystems/ins/ins_int.c ****     /* update offset with last value to avoid divergence */
 396:subsystems/ins/ins_int.c ****     vff_update_offset(last_offset);
 397:subsystems/ins/ins_int.c ****   }
 398:subsystems/ins/ins_int.c **** }
 399:subsystems/ins/ins_int.c **** #endif // USE_SONAR
 400:subsystems/ins/ins_int.c **** 
 401:subsystems/ins/ins_int.c **** 
 402:subsystems/ins/ins_int.c **** /** initialize the local origin (ltp_def) from flight plan position */
 403:subsystems/ins/ins_int.c **** static void ins_init_origin_from_flightplan(void)
 404:subsystems/ins/ins_int.c **** {
 405:subsystems/ins/ins_int.c **** 
 406:subsystems/ins/ins_int.c ****   struct LlaCoor_i llh_nav0; /* Height above the ellipsoid */
 407:subsystems/ins/ins_int.c ****   llh_nav0.lat = NAV_LAT0;
 408:subsystems/ins/ins_int.c ****   llh_nav0.lon = NAV_LON0;
 409:subsystems/ins/ins_int.c ****   /* NAV_ALT0 = ground alt above msl, NAV_MSL0 = geoid-height (msl) over ellipsoid */
 410:subsystems/ins/ins_int.c ****   llh_nav0.alt = NAV_ALT0 + NAV_MSL0;
 411:subsystems/ins/ins_int.c **** 
 412:subsystems/ins/ins_int.c ****   struct EcefCoor_i ecef_nav0;
 413:subsystems/ins/ins_int.c ****   ecef_of_lla_i(&ecef_nav0, &llh_nav0);
 414:subsystems/ins/ins_int.c **** 
 415:subsystems/ins/ins_int.c ****   ltp_def_from_ecef_i(&ins_int.ltp_def, &ecef_nav0);
 416:subsystems/ins/ins_int.c ****   ins_int.ltp_def.hmsl = NAV_ALT0;
 417:subsystems/ins/ins_int.c ****   stateSetLocalOrigin_i(&ins_int.ltp_def);
 418:subsystems/ins/ins_int.c **** 
 419:subsystems/ins/ins_int.c **** }
 420:subsystems/ins/ins_int.c **** 
 421:subsystems/ins/ins_int.c **** /** copy position and speed to state interface */
 422:subsystems/ins/ins_int.c **** static void ins_ned_to_state(void)
 423:subsystems/ins/ins_int.c **** {
 424:subsystems/ins/ins_int.c ****   stateSetPositionNed_i(&ins_int.ltp_pos);
 425:subsystems/ins/ins_int.c ****   stateSetSpeedNed_i(&ins_int.ltp_speed);
 426:subsystems/ins/ins_int.c ****   stateSetAccelNed_i(&ins_int.ltp_accel);
 427:subsystems/ins/ins_int.c **** 
 428:subsystems/ins/ins_int.c **** #if defined SITL && USE_NPS
 429:subsystems/ins/ins_int.c ****   if (nps_bypass_ins) {
 430:subsystems/ins/ins_int.c ****     sim_overwrite_ins();
 431:subsystems/ins/ins_int.c ****   }
 432:subsystems/ins/ins_int.c **** #endif
 433:subsystems/ins/ins_int.c **** }
 434:subsystems/ins/ins_int.c **** 
 435:subsystems/ins/ins_int.c **** /** update ins state from vertical filter */
 436:subsystems/ins/ins_int.c **** static void ins_update_from_vff(void)
 437:subsystems/ins/ins_int.c **** {
  27              		.loc 1 437 0
  28              		.cfi_startproc
  29              		@ args = 0, pretend = 0, frame = 0
  30              		@ frame_needed = 0, uses_anonymous_args = 0
  31              		@ link register save eliminated.
 438:subsystems/ins/ins_int.c ****   ins_int.ltp_accel.z = ACCEL_BFP_OF_REAL(vff.zdotdot);
  32              		.loc 1 438 0
  33 0000 104A     		ldr	r2, .L2
  34 0002 DFED117A 		flds	s15, .L2+4
  35 0006 92ED037A 		flds	s14, [r2, #12]
  36 000a 104B     		ldr	r3, .L2+8
  37 000c 67EE277A 		fmuls	s15, s14, s15
 439:subsystems/ins/ins_int.c ****   ins_int.ltp_speed.z = SPEED_BFP_OF_REAL(vff.zdot);
  38              		.loc 1 439 0
  39 0010 92ED017A 		flds	s14, [r2, #4]
 438:subsystems/ins/ins_int.c ****   ins_int.ltp_accel.z = ACCEL_BFP_OF_REAL(vff.zdotdot);
  40              		.loc 1 438 0
  41 0014 FDEEE77A 		ftosizs	s15, s15
  42 0018 C3ED197A 		fsts	s15, [r3, #100]	@ int
  43              		.loc 1 439 0
  44 001c DFED0C7A 		flds	s15, .L2+12
  45 0020 67EE277A 		fmuls	s15, s14, s15
 440:subsystems/ins/ins_int.c ****   ins_int.ltp_pos.z   = POS_BFP_OF_REAL(vff.z);
  46              		.loc 1 440 0
  47 0024 92ED007A 		flds	s14, [r2]
 439:subsystems/ins/ins_int.c ****   ins_int.ltp_speed.z = SPEED_BFP_OF_REAL(vff.zdot);
  48              		.loc 1 439 0
  49 0028 FDEEE77A 		ftosizs	s15, s15
  50 002c C3ED167A 		fsts	s15, [r3, #88]	@ int
  51              		.loc 1 440 0
  52 0030 DFED087A 		flds	s15, .L2+16
  53 0034 67EE277A 		fmuls	s15, s14, s15
  54 0038 FDEEE77A 		ftosizs	s15, s15
  55 003c C3ED137A 		fsts	s15, [r3, #76]	@ int
  56 0040 7047     		bx	lr
  57              	.L3:
  58 0042 00BF     		.align	2
  59              	.L2:
  60 0044 00000000 		.word	vff
  61 0048 00008044 		.word	1149239296
  62 004c 00000000 		.word	.LANCHOR0
  63 0050 00000049 		.word	1224736768
  64 0054 00008043 		.word	1132462080
  65              		.cfi_endproc
  66              	.LFE502:
  68              		.section	.text.ins_update_from_hff,"ax",%progbits
  69              		.align	1
  70              		.thumb
  71              		.thumb_func
  73              	ins_update_from_hff:
  74              	.LFB503:
 441:subsystems/ins/ins_int.c **** }
 442:subsystems/ins/ins_int.c **** 
 443:subsystems/ins/ins_int.c **** #if USE_HFF
 444:subsystems/ins/ins_int.c **** /** update ins state from horizontal filter */
 445:subsystems/ins/ins_int.c **** static void ins_update_from_hff(void)
 446:subsystems/ins/ins_int.c **** {
  75              		.loc 1 446 0
  76              		.cfi_startproc
  77              		@ args = 0, pretend = 0, frame = 0
  78              		@ frame_needed = 0, uses_anonymous_args = 0
  79              		@ link register save eliminated.
 447:subsystems/ins/ins_int.c ****   ins_int.ltp_accel.x = ACCEL_BFP_OF_REAL(b2_hff_state.xdotdot);
  80              		.loc 1 447 0
  81 0000 1C4A     		ldr	r2, .L5
  82 0002 DFED1D7A 		flds	s15, .L5+4
  83 0006 92ED027A 		flds	s14, [r2, #8]
  84 000a 1C4B     		ldr	r3, .L5+8
  85 000c 27EE277A 		fmuls	s14, s14, s15
  86 0010 BDEEC77A 		ftosizs	s14, s14
  87 0014 83ED177A 		fsts	s14, [r3, #92]	@ int
 448:subsystems/ins/ins_int.c ****   ins_int.ltp_accel.y = ACCEL_BFP_OF_REAL(b2_hff_state.ydotdot);
  88              		.loc 1 448 0
  89 0018 92ED057A 		flds	s14, [r2, #20]
  90 001c 67EE277A 		fmuls	s15, s14, s15
 449:subsystems/ins/ins_int.c ****   ins_int.ltp_speed.x = SPEED_BFP_OF_REAL(b2_hff_state.xdot);
  91              		.loc 1 449 0
  92 0020 92ED017A 		flds	s14, [r2, #4]
 448:subsystems/ins/ins_int.c ****   ins_int.ltp_accel.y = ACCEL_BFP_OF_REAL(b2_hff_state.ydotdot);
  93              		.loc 1 448 0
  94 0024 FDEEE77A 		ftosizs	s15, s15
  95 0028 C3ED187A 		fsts	s15, [r3, #96]	@ int
  96              		.loc 1 449 0
  97 002c DFED147A 		flds	s15, .L5+12
  98 0030 27EE277A 		fmuls	s14, s14, s15
  99 0034 BDEEC77A 		ftosizs	s14, s14
 100 0038 83ED147A 		fsts	s14, [r3, #80]	@ int
 450:subsystems/ins/ins_int.c ****   ins_int.ltp_speed.y = SPEED_BFP_OF_REAL(b2_hff_state.ydot);
 101              		.loc 1 450 0
 102 003c 92ED047A 		flds	s14, [r2, #16]
 103 0040 67EE277A 		fmuls	s15, s14, s15
 451:subsystems/ins/ins_int.c ****   ins_int.ltp_pos.x   = POS_BFP_OF_REAL(b2_hff_state.x);
 104              		.loc 1 451 0
 105 0044 92ED007A 		flds	s14, [r2]
 450:subsystems/ins/ins_int.c ****   ins_int.ltp_speed.y = SPEED_BFP_OF_REAL(b2_hff_state.ydot);
 106              		.loc 1 450 0
 107 0048 FDEEE77A 		ftosizs	s15, s15
 108 004c C3ED157A 		fsts	s15, [r3, #84]	@ int
 109              		.loc 1 451 0
 110 0050 DFED0C7A 		flds	s15, .L5+16
 111 0054 27EE277A 		fmuls	s14, s14, s15
 112 0058 BDEEC77A 		ftosizs	s14, s14
 113 005c 83ED117A 		fsts	s14, [r3, #68]	@ int
 452:subsystems/ins/ins_int.c ****   ins_int.ltp_pos.y   = POS_BFP_OF_REAL(b2_hff_state.y);
 114              		.loc 1 452 0
 115 0060 92ED037A 		flds	s14, [r2, #12]
 116 0064 67EE277A 		fmuls	s15, s14, s15
 117 0068 FDEEE77A 		ftosizs	s15, s15
 118 006c C3ED127A 		fsts	s15, [r3, #72]	@ int
 119 0070 7047     		bx	lr
 120              	.L6:
 121 0072 00BF     		.align	2
 122              	.L5:
 123 0074 00000000 		.word	b2_hff_state
 124 0078 00008044 		.word	1149239296
 125 007c 00000000 		.word	.LANCHOR0
 126 0080 00000049 		.word	1224736768
 127 0084 00008043 		.word	1132462080
 128              		.cfi_endproc
 129              	.LFE503:
 131              		.section	.text.send_ins,"ax",%progbits
 132              		.align	1
 133              		.thumb
 134              		.thumb_func
 136              	send_ins:
 137              	.LFB491:
 134:subsystems/ins/ins_int.c **** {
 138              		.loc 1 134 0
 139              		.cfi_startproc
 140              		@ args = 0, pretend = 0, frame = 8
 141              		@ frame_needed = 0, uses_anonymous_args = 0
 142              	.LVL0:
 143 0000 2DE9FF41 		push	{r0, r1, r2, r3, r4, r5, r6, r7, r8, lr}
 144              		.cfi_def_cfa_offset 40
 145              		.cfi_offset 0, -40
 146              		.cfi_offset 1, -36
 147              		.cfi_offset 2, -32
 148              		.cfi_offset 3, -28
 149              		.cfi_offset 4, -24
 150              		.cfi_offset 5, -20
 151              		.cfi_offset 6, -16
 152              		.cfi_offset 7, -12
 153              		.cfi_offset 8, -8
 154              		.cfi_offset 14, -4
 155              	.LBB10:
 156              	.LBB11:
 157              		.file 2 "/home/lsk/paparazzi/var/include/messages.h"
   1:/home/lsk/paparazzi/var/include/messages.h **** /* Automatically generated by gen_messages from /home/lsk/paparazzi/conf/messages.xml */
   2:/home/lsk/paparazzi/var/include/messages.h **** /* Please DO NOT EDIT */
   3:/home/lsk/paparazzi/var/include/messages.h **** /* Macros to send and receive messages of class telemetry */
   4:/home/lsk/paparazzi/var/include/messages.h **** #ifndef _VAR_MESSAGES_telemetry_H_
   5:/home/lsk/paparazzi/var/include/messages.h **** #define _VAR_MESSAGES_telemetry_H_
   6:/home/lsk/paparazzi/var/include/messages.h **** #include "subsystems/datalink/transport.h"
   7:/home/lsk/paparazzi/var/include/messages.h **** #include "mcu_periph/link_device.h"
   8:/home/lsk/paparazzi/var/include/messages.h **** #if DOWNLINK
   9:/home/lsk/paparazzi/var/include/messages.h **** #define DL_AUTOPILOT_VERSION 1
  10:/home/lsk/paparazzi/var/include/messages.h **** #define DL_ALIVE 2
  11:/home/lsk/paparazzi/var/include/messages.h **** #define DL_PONG 3
  12:/home/lsk/paparazzi/var/include/messages.h **** #define DL_TAKEOFF 4
  13:/home/lsk/paparazzi/var/include/messages.h **** #define DL_ARDRONE_NAVDATA 5
  14:/home/lsk/paparazzi/var/include/messages.h **** #define DL_ATTITUDE 6
  15:/home/lsk/paparazzi/var/include/messages.h **** #define DL_IR_SENSORS 7
  16:/home/lsk/paparazzi/var/include/messages.h **** #define DL_GPS 8
  17:/home/lsk/paparazzi/var/include/messages.h **** #define DL_NAVIGATION_REF 9
  18:/home/lsk/paparazzi/var/include/messages.h **** #define DL_NAVIGATION 10
  19:/home/lsk/paparazzi/var/include/messages.h **** #define DL_PPRZ_MODE 11
  20:/home/lsk/paparazzi/var/include/messages.h **** #define DL_BAT 12
  21:/home/lsk/paparazzi/var/include/messages.h **** #define DL_DEBUG_MCU_LINK 13
  22:/home/lsk/paparazzi/var/include/messages.h **** #define DL_CALIBRATION 14
  23:/home/lsk/paparazzi/var/include/messages.h **** #define DL_SETTINGS 15
  24:/home/lsk/paparazzi/var/include/messages.h **** #define DL_DESIRED 16
  25:/home/lsk/paparazzi/var/include/messages.h **** #define DL_GPS_SOL 17
  26:/home/lsk/paparazzi/var/include/messages.h **** #define DL_ADC_GENERIC 18
  27:/home/lsk/paparazzi/var/include/messages.h **** #define DL_TEST_FORMAT 19
  28:/home/lsk/paparazzi/var/include/messages.h **** #define DL_CAM 20
  29:/home/lsk/paparazzi/var/include/messages.h **** #define DL_CIRCLE 21
  30:/home/lsk/paparazzi/var/include/messages.h **** #define DL_SEGMENT 22
  31:/home/lsk/paparazzi/var/include/messages.h **** #define DL_SVINFO 25
  32:/home/lsk/paparazzi/var/include/messages.h **** #define DL_DEBUG 26
  33:/home/lsk/paparazzi/var/include/messages.h **** #define DL_SURVEY 27
  34:/home/lsk/paparazzi/var/include/messages.h **** #define DL_WC_RSSI 28
  35:/home/lsk/paparazzi/var/include/messages.h **** #define DL_RANGEFINDER 29
  36:/home/lsk/paparazzi/var/include/messages.h **** #define DL_DATALINK_REPORT 30
  37:/home/lsk/paparazzi/var/include/messages.h **** #define DL_DL_VALUE 31
  38:/home/lsk/paparazzi/var/include/messages.h **** #define DL_MARK 32
  39:/home/lsk/paparazzi/var/include/messages.h **** #define DL_SYS_MON 33
  40:/home/lsk/paparazzi/var/include/messages.h **** #define DL_MOTOR 34
  41:/home/lsk/paparazzi/var/include/messages.h **** #define DL_WP_MOVED 35
  42:/home/lsk/paparazzi/var/include/messages.h **** #define DL_MKK 36
  43:/home/lsk/paparazzi/var/include/messages.h **** #define DL_ENERGY 37
  44:/home/lsk/paparazzi/var/include/messages.h **** #define DL_BARO_BMP85_CALIB 38
  45:/home/lsk/paparazzi/var/include/messages.h **** #define DL_BARO_BMP85 39
  46:/home/lsk/paparazzi/var/include/messages.h **** #define DL_SPEED_LOOP 40
  47:/home/lsk/paparazzi/var/include/messages.h **** #define DL_ALT_KALMAN 41
  48:/home/lsk/paparazzi/var/include/messages.h **** #define DL_ESTIMATOR 42
  49:/home/lsk/paparazzi/var/include/messages.h **** #define DL_TUNE_ROLL 43
  50:/home/lsk/paparazzi/var/include/messages.h **** #define DL_BARO_MS5534A 44
  51:/home/lsk/paparazzi/var/include/messages.h **** #define DL_PRESSURE 45
  52:/home/lsk/paparazzi/var/include/messages.h **** #define DL_BARO_WORDS 46
  53:/home/lsk/paparazzi/var/include/messages.h **** #define DL_WP_MOVED_LLA 47
  54:/home/lsk/paparazzi/var/include/messages.h **** #define DL_CHRONO 48
  55:/home/lsk/paparazzi/var/include/messages.h **** #define DL_WP_MOVED_ENU 49
  56:/home/lsk/paparazzi/var/include/messages.h **** #define DL_WINDTURBINE_STATUS_ 50
  57:/home/lsk/paparazzi/var/include/messages.h **** #define DL_RC_3CH_ 51
  58:/home/lsk/paparazzi/var/include/messages.h **** #define DL_MPPT 52
  59:/home/lsk/paparazzi/var/include/messages.h **** #define DL_DEBUG_IR_I2C 53
  60:/home/lsk/paparazzi/var/include/messages.h **** #define DL_AIRSPEED 54
  61:/home/lsk/paparazzi/var/include/messages.h **** #define DL_XSENS 55
  62:/home/lsk/paparazzi/var/include/messages.h **** #define DL_BARO_ETS 56
  63:/home/lsk/paparazzi/var/include/messages.h **** #define DL_AIRSPEED_ETS 57
  64:/home/lsk/paparazzi/var/include/messages.h **** #define DL_PBN 58
  65:/home/lsk/paparazzi/var/include/messages.h **** #define DL_GPS_LLA 59
  66:/home/lsk/paparazzi/var/include/messages.h **** #define DL_H_CTL_A 60
  67:/home/lsk/paparazzi/var/include/messages.h **** #define DL_TURB_PRESSURE_RAW 61
  68:/home/lsk/paparazzi/var/include/messages.h **** #define DL_TURB_PRESSURE_VOLTAGE 62
  69:/home/lsk/paparazzi/var/include/messages.h **** #define DL_CAM_POINT 63
  70:/home/lsk/paparazzi/var/include/messages.h **** #define DL_DC_INFO 64
  71:/home/lsk/paparazzi/var/include/messages.h **** #define DL_AMSYS_BARO 65
  72:/home/lsk/paparazzi/var/include/messages.h **** #define DL_AMSYS_AIRSPEED 66
  73:/home/lsk/paparazzi/var/include/messages.h **** #define DL_FLIGHT_BENCHMARK 67
  74:/home/lsk/paparazzi/var/include/messages.h **** #define DL_MPL3115_BARO 68
  75:/home/lsk/paparazzi/var/include/messages.h **** #define DL_AOA_ADC 69
  76:/home/lsk/paparazzi/var/include/messages.h **** #define DL_XTEND_RSSI 70
  77:/home/lsk/paparazzi/var/include/messages.h **** #define DL_SUPERBITRF 72
  78:/home/lsk/paparazzi/var/include/messages.h **** #define DL_GX3_INFO 73
  79:/home/lsk/paparazzi/var/include/messages.h **** #define DL_EXPLAIN 74
  80:/home/lsk/paparazzi/var/include/messages.h **** #define DL_VIDEO_TELEMETRY 75
  81:/home/lsk/paparazzi/var/include/messages.h **** #define DL_VF_UPDATE 76
  82:/home/lsk/paparazzi/var/include/messages.h **** #define DL_VF_PREDICT 77
  83:/home/lsk/paparazzi/var/include/messages.h **** #define DL_INV_FILTER 78
  84:/home/lsk/paparazzi/var/include/messages.h **** #define DL_MISSION_STATUS 79
  85:/home/lsk/paparazzi/var/include/messages.h **** #define DL_CROSS_TRACK_ERROR 80
  86:/home/lsk/paparazzi/var/include/messages.h **** #define DL_GENERIC_COM 81
  87:/home/lsk/paparazzi/var/include/messages.h **** #define DL_FORMATION_SLOT_TM 82
  88:/home/lsk/paparazzi/var/include/messages.h **** #define DL_FORMATION_STATUS_TM 83
  89:/home/lsk/paparazzi/var/include/messages.h **** #define DL_BMP_STATUS 84
  90:/home/lsk/paparazzi/var/include/messages.h **** #define DL_MLX_STATUS 85
  91:/home/lsk/paparazzi/var/include/messages.h **** #define DL_TMP_STATUS 86
  92:/home/lsk/paparazzi/var/include/messages.h **** #define DL_WIND_INFO_RET 87
  93:/home/lsk/paparazzi/var/include/messages.h **** #define DL_SCP_STATUS 88
  94:/home/lsk/paparazzi/var/include/messages.h **** #define DL_SHT_STATUS 89
  95:/home/lsk/paparazzi/var/include/messages.h **** #define DL_ENOSE_STATUS 90
  96:/home/lsk/paparazzi/var/include/messages.h **** #define DL_DPICCO_STATUS 91
  97:/home/lsk/paparazzi/var/include/messages.h **** #define DL_ANTENNA_DEBUG 92
  98:/home/lsk/paparazzi/var/include/messages.h **** #define DL_ANTENNA_STATUS 93
  99:/home/lsk/paparazzi/var/include/messages.h **** #define DL_MOTOR_BENCH_STATUS 94
 100:/home/lsk/paparazzi/var/include/messages.h **** #define DL_MOTOR_BENCH_STATIC 95
 101:/home/lsk/paparazzi/var/include/messages.h **** #define DL_HIH_STATUS 96
 102:/home/lsk/paparazzi/var/include/messages.h **** #define DL_TEMT_STATUS 97
 103:/home/lsk/paparazzi/var/include/messages.h **** #define DL_GP2Y_STATUS 98
 104:/home/lsk/paparazzi/var/include/messages.h **** #define DL_SHT_I2C_SERIAL 99
 105:/home/lsk/paparazzi/var/include/messages.h **** #define DL_PPM 100
 106:/home/lsk/paparazzi/var/include/messages.h **** #define DL_RC 101
 107:/home/lsk/paparazzi/var/include/messages.h **** #define DL_COMMANDS 102
 108:/home/lsk/paparazzi/var/include/messages.h **** #define DL_FBW_STATUS 103
 109:/home/lsk/paparazzi/var/include/messages.h **** #define DL_ADC 104
 110:/home/lsk/paparazzi/var/include/messages.h **** #define DL_ACTUATORS 105
 111:/home/lsk/paparazzi/var/include/messages.h **** #define DL_DC_SHOT 110
 112:/home/lsk/paparazzi/var/include/messages.h **** #define DL_TEST_BOARD_RESULTS 111
 113:/home/lsk/paparazzi/var/include/messages.h **** #define DL_MLX_SERIAL 113
 114:/home/lsk/paparazzi/var/include/messages.h **** #define DL_PAYLOAD 114
 115:/home/lsk/paparazzi/var/include/messages.h **** #define DL_HTM_STATUS 115
 116:/home/lsk/paparazzi/var/include/messages.h **** #define DL_BARO_MS5611 116
 117:/home/lsk/paparazzi/var/include/messages.h **** #define DL_MS5611_COEFF 117
 118:/home/lsk/paparazzi/var/include/messages.h **** #define DL_ATMOSPHERE_CHARGE 118
 119:/home/lsk/paparazzi/var/include/messages.h **** #define DL_SOLAR_RADIATION 119
 120:/home/lsk/paparazzi/var/include/messages.h **** #define DL_TCAS_TA 120
 121:/home/lsk/paparazzi/var/include/messages.h **** #define DL_TCAS_RA 121
 122:/home/lsk/paparazzi/var/include/messages.h **** #define DL_TCAS_RESOLVED 122
 123:/home/lsk/paparazzi/var/include/messages.h **** #define DL_TCAS_DEBUG 123
 124:/home/lsk/paparazzi/var/include/messages.h **** #define DL_POTENTIAL 124
 125:/home/lsk/paparazzi/var/include/messages.h **** #define DL_VERTICAL_ENERGY 125
 126:/home/lsk/paparazzi/var/include/messages.h **** #define DL_TEMP_TCOUPLE 126
 127:/home/lsk/paparazzi/var/include/messages.h **** #define DL_SHT_I2C_STATUS 127
 128:/home/lsk/paparazzi/var/include/messages.h **** #define DL_CAMERA_SNAPSHOT 128
 129:/home/lsk/paparazzi/var/include/messages.h **** #define DL_TIMESTAMP 129
 130:/home/lsk/paparazzi/var/include/messages.h **** #define DL_STAB_ATTITUDE_FLOAT 130
 131:/home/lsk/paparazzi/var/include/messages.h **** #define DL_IMU_GYRO_SCALED 131
 132:/home/lsk/paparazzi/var/include/messages.h **** #define DL_IMU_ACCEL_SCALED 132
 133:/home/lsk/paparazzi/var/include/messages.h **** #define DL_IMU_MAG_SCALED 133
 134:/home/lsk/paparazzi/var/include/messages.h **** #define DL_FILTER 134
 135:/home/lsk/paparazzi/var/include/messages.h **** #define DL_FILTER2 135
 136:/home/lsk/paparazzi/var/include/messages.h **** #define DL_RATE_LOOP 136
 137:/home/lsk/paparazzi/var/include/messages.h **** #define DL_FILTER_ALIGNER 137
 138:/home/lsk/paparazzi/var/include/messages.h **** #define DL_AIRSPEED_MS45XX 138
 139:/home/lsk/paparazzi/var/include/messages.h **** #define DL_FILTER_COR 139
 140:/home/lsk/paparazzi/var/include/messages.h **** #define DL_STAB_ATTITUDE_INT 140
 141:/home/lsk/paparazzi/var/include/messages.h **** #define DL_STAB_ATTITUDE_REF_INT 141
 142:/home/lsk/paparazzi/var/include/messages.h **** #define DL_STAB_ATTITUDE_REF_FLOAT 142
 143:/home/lsk/paparazzi/var/include/messages.h **** #define DL_ROTORCRAFT_CMD 143
 144:/home/lsk/paparazzi/var/include/messages.h **** #define DL_GUIDANCE_H_INT 144
 145:/home/lsk/paparazzi/var/include/messages.h **** #define DL_VERT_LOOP 145
 146:/home/lsk/paparazzi/var/include/messages.h **** #define DL_HOVER_LOOP 146
 147:/home/lsk/paparazzi/var/include/messages.h **** #define DL_ROTORCRAFT_FP 147
 148:/home/lsk/paparazzi/var/include/messages.h **** #define DL_TEMP_ADC 148
 149:/home/lsk/paparazzi/var/include/messages.h **** #define DL_GUIDANCE_H_REF_INT 149
 150:/home/lsk/paparazzi/var/include/messages.h **** #define DL_ROTORCRAFT_TUNE_HOVER 150
 151:/home/lsk/paparazzi/var/include/messages.h **** #define DL_INS_Z 151
 152:/home/lsk/paparazzi/var/include/messages.h **** #define DL_PCAP01_STATUS 152
 153:/home/lsk/paparazzi/var/include/messages.h **** #define DL_GEIGER_COUNTER 153
 154:/home/lsk/paparazzi/var/include/messages.h **** #define DL_INS_REF 154
 155:/home/lsk/paparazzi/var/include/messages.h **** #define DL_GPS_INT 155
 156:/home/lsk/paparazzi/var/include/messages.h **** #define DL_AHRS_EULER_INT 156
 157:/home/lsk/paparazzi/var/include/messages.h **** #define DL_AHRS_QUAT_INT 157
 158:/home/lsk/paparazzi/var/include/messages.h **** #define DL_AHRS_RMAT_INT 158
 159:/home/lsk/paparazzi/var/include/messages.h **** #define DL_ROTORCRAFT_NAV_STATUS 159
 160:/home/lsk/paparazzi/var/include/messages.h **** #define DL_ROTORCRAFT_RADIO_CONTROL 160
 161:/home/lsk/paparazzi/var/include/messages.h **** #define DL_VFF_EXTENDED 161
 162:/home/lsk/paparazzi/var/include/messages.h **** #define DL_VFF 162
 163:/home/lsk/paparazzi/var/include/messages.h **** #define DL_GEO_MAG 163
 164:/home/lsk/paparazzi/var/include/messages.h **** #define DL_HFF 164
 165:/home/lsk/paparazzi/var/include/messages.h **** #define DL_HFF_DBG 165
 166:/home/lsk/paparazzi/var/include/messages.h **** #define DL_HFF_GPS 166
 167:/home/lsk/paparazzi/var/include/messages.h **** #define DL_INS_SONAR 167
 168:/home/lsk/paparazzi/var/include/messages.h **** #define DL_ROTORCRAFT_CAM 168
 169:/home/lsk/paparazzi/var/include/messages.h **** #define DL_AHRS_REF_QUAT 169
 170:/home/lsk/paparazzi/var/include/messages.h **** #define DL_EKF7_XHAT 170
 171:/home/lsk/paparazzi/var/include/messages.h **** #define DL_EKF7_Y 171
 172:/home/lsk/paparazzi/var/include/messages.h **** #define DL_EKF7_P_DIAG 172
 173:/home/lsk/paparazzi/var/include/messages.h **** #define DL_AHRS_EULER 173
 174:/home/lsk/paparazzi/var/include/messages.h **** #define DL_AHRS_MEASUREMENT_EULER 174
 175:/home/lsk/paparazzi/var/include/messages.h **** #define DL_WT 175
 176:/home/lsk/paparazzi/var/include/messages.h **** #define DL_CSC_CAN_DEBUG 176
 177:/home/lsk/paparazzi/var/include/messages.h **** #define DL_CSC_CAN_MSG 177
 178:/home/lsk/paparazzi/var/include/messages.h **** #define DL_AHRS_GYRO_BIAS_INT 178
 179:/home/lsk/paparazzi/var/include/messages.h **** #define DL_FLOW_AP_OTF 179
 180:/home/lsk/paparazzi/var/include/messages.h **** #define DL_FMS_TIME 180
 181:/home/lsk/paparazzi/var/include/messages.h **** #define DL_LOADCELL 181
 182:/home/lsk/paparazzi/var/include/messages.h **** #define DL_FLA_DEBUG 182
 183:/home/lsk/paparazzi/var/include/messages.h **** #define DL_BLMC_FAULT_STATUS 183
 184:/home/lsk/paparazzi/var/include/messages.h **** #define DL_BLMC_SPEEDS 184
 185:/home/lsk/paparazzi/var/include/messages.h **** #define DL_AHRS_DEBUG_QUAT 185
 186:/home/lsk/paparazzi/var/include/messages.h **** #define DL_BLMC_BUSVOLTS 186
 187:/home/lsk/paparazzi/var/include/messages.h **** #define DL_SYSTEM_STATUS 187
 188:/home/lsk/paparazzi/var/include/messages.h **** #define DL_DYNAMIXEL 188
 189:/home/lsk/paparazzi/var/include/messages.h **** #define DL_RMAT_DEBUG 189
 190:/home/lsk/paparazzi/var/include/messages.h **** #define DL_SIMPLE_COMMANDS 190
 191:/home/lsk/paparazzi/var/include/messages.h **** #define DL_VANE_SENSOR 191
 192:/home/lsk/paparazzi/var/include/messages.h **** #define DL_CONTROLLER_GAINS 192
 193:/home/lsk/paparazzi/var/include/messages.h **** #define DL_AHRS_LKF 193
 194:/home/lsk/paparazzi/var/include/messages.h **** #define DL_AHRS_LKF_DEBUG 194
 195:/home/lsk/paparazzi/var/include/messages.h **** #define DL_AHRS_LKF_ACC_DBG 195
 196:/home/lsk/paparazzi/var/include/messages.h **** #define DL_AHRS_LKF_MAG_DBG 196
 197:/home/lsk/paparazzi/var/include/messages.h **** #define DL_NPS_SENSORS_SCALED 197
 198:/home/lsk/paparazzi/var/include/messages.h **** #define DL_INS 198
 199:/home/lsk/paparazzi/var/include/messages.h **** #define DL_GPS_ERROR 199
 200:/home/lsk/paparazzi/var/include/messages.h **** #define DL_IMU_GYRO 200
 201:/home/lsk/paparazzi/var/include/messages.h **** #define DL_IMU_MAG 201
 202:/home/lsk/paparazzi/var/include/messages.h **** #define DL_IMU_ACCEL 202
 203:/home/lsk/paparazzi/var/include/messages.h **** #define DL_IMU_GYRO_RAW 203
 204:/home/lsk/paparazzi/var/include/messages.h **** #define DL_IMU_ACCEL_RAW 204
 205:/home/lsk/paparazzi/var/include/messages.h **** #define DL_IMU_MAG_RAW 205
 206:/home/lsk/paparazzi/var/include/messages.h **** #define DL_IMU_MAG_SETTINGS 206
 207:/home/lsk/paparazzi/var/include/messages.h **** #define DL_IMU_MAG_CURRENT_CALIBRATION 207
 208:/home/lsk/paparazzi/var/include/messages.h **** #define DL_UART_ERRORS 208
 209:/home/lsk/paparazzi/var/include/messages.h **** #define DL_IMU_GYRO_LP 209
 210:/home/lsk/paparazzi/var/include/messages.h **** #define DL_IMU_PRESSURE 210
 211:/home/lsk/paparazzi/var/include/messages.h **** #define DL_IMU_HS_GYRO 211
 212:/home/lsk/paparazzi/var/include/messages.h **** #define DL_TEST_PASSTHROUGH_STATUS 212
 213:/home/lsk/paparazzi/var/include/messages.h **** #define DL_TUNE_VERT 213
 214:/home/lsk/paparazzi/var/include/messages.h **** #define DL_MF_DAQ_STATE 214
 215:/home/lsk/paparazzi/var/include/messages.h **** #define DL_INFO_MSG 215
 216:/home/lsk/paparazzi/var/include/messages.h **** #define DL_BEBOP_ACTUATORS 218
 217:/home/lsk/paparazzi/var/include/messages.h **** #define DL_WEATHER 219
 218:/home/lsk/paparazzi/var/include/messages.h **** #define DL_IMU_TURNTABLE 220
 219:/home/lsk/paparazzi/var/include/messages.h **** #define DL_BARO_RAW 221
 220:/home/lsk/paparazzi/var/include/messages.h **** #define DL_AIR_DATA 222
 221:/home/lsk/paparazzi/var/include/messages.h **** #define DL_AMSL 223
 222:/home/lsk/paparazzi/var/include/messages.h **** #define DL_VIDEO_SYNC 225
 223:/home/lsk/paparazzi/var/include/messages.h **** #define DL_PERIODIC_TELEMETRY_ERR 226
 224:/home/lsk/paparazzi/var/include/messages.h **** #define DL_TIME 227
 225:/home/lsk/paparazzi/var/include/messages.h **** #define DL_OPTIC_FLOW_EST 228
 226:/home/lsk/paparazzi/var/include/messages.h **** #define DL_AHRS_ARDRONE2 230
 227:/home/lsk/paparazzi/var/include/messages.h **** #define DL_ROTORCRAFT_STATUS 231
 228:/home/lsk/paparazzi/var/include/messages.h **** #define DL_STATE_FILTER_STATUS 232
 229:/home/lsk/paparazzi/var/include/messages.h **** #define DL_PX4FLOW 233
 230:/home/lsk/paparazzi/var/include/messages.h **** #define DL_OPTICFLOW 234
 231:/home/lsk/paparazzi/var/include/messages.h **** #define DL_VISUALTARGET 235
 232:/home/lsk/paparazzi/var/include/messages.h **** #define DL_SONAR 236
 233:/home/lsk/paparazzi/var/include/messages.h **** #define DL_PAYLOAD_FLOAT 237
 234:/home/lsk/paparazzi/var/include/messages.h **** #define DL_NPS_POS_LLH 238
 235:/home/lsk/paparazzi/var/include/messages.h **** #define DL_NPS_RPMS 239
 236:/home/lsk/paparazzi/var/include/messages.h **** #define DL_NPS_SPEED_POS 240
 237:/home/lsk/paparazzi/var/include/messages.h **** #define DL_NPS_RATE_ATTITUDE 241
 238:/home/lsk/paparazzi/var/include/messages.h **** #define DL_NPS_GYRO_BIAS 242
 239:/home/lsk/paparazzi/var/include/messages.h **** #define DL_NPS_RANGE_METER 243
 240:/home/lsk/paparazzi/var/include/messages.h **** #define DL_NPS_WIND 244
 241:/home/lsk/paparazzi/var/include/messages.h **** #define DL_PPRZ_DEBUG 247
 242:/home/lsk/paparazzi/var/include/messages.h **** #define DL_NPS_ACCEL_LTP 248
 243:/home/lsk/paparazzi/var/include/messages.h **** #define DL_LOOSE_INS_GPS 249
 244:/home/lsk/paparazzi/var/include/messages.h **** #define DL_AFL_COEFFS 250
 245:/home/lsk/paparazzi/var/include/messages.h **** #define DL_I2C_ERRORS 253
 246:/home/lsk/paparazzi/var/include/messages.h **** #define DL_RDYB_TRAJECTORY 254
 247:/home/lsk/paparazzi/var/include/messages.h **** #define DL_HENRY_GNSS 255
 248:/home/lsk/paparazzi/var/include/messages.h **** #define DL_MSG_telemetry_NB 239
 249:/home/lsk/paparazzi/var/include/messages.h **** 
 250:/home/lsk/paparazzi/var/include/messages.h **** #define DOWNLINK_SEND_AUTOPILOT_VERSION(_trans, _dev, version, nb_desc, desc) pprz_msg_send_AUTOPIL
 251:/home/lsk/paparazzi/var/include/messages.h **** static inline void pprz_msg_send_AUTOPILOT_VERSION(struct transport_tx *trans, struct link_device *
 252:/home/lsk/paparazzi/var/include/messages.h **** 	if (trans->check_available_space(trans->impl, dev, trans->size_of(trans->impl, 0+4+1+nb_desc*1 +2 
 253:/home/lsk/paparazzi/var/include/messages.h **** 	  trans->count_bytes(trans->impl, dev, trans->size_of(trans->impl, 0+4+1+nb_desc*1 +2 /* msg heade
 254:/home/lsk/paparazzi/var/include/messages.h **** 	  trans->start_message(trans->impl, dev, 0+4+1+nb_desc*1 +2 /* msg header overhead */);
 255:/home/lsk/paparazzi/var/include/messages.h **** 	  trans->put_bytes(trans->impl, dev, DL_TYPE_UINT8, DL_FORMAT_SCALAR, 1, &ac_id);
 256:/home/lsk/paparazzi/var/include/messages.h **** 	  trans->put_named_byte(trans->impl, dev, DL_TYPE_UINT8, DL_FORMAT_SCALAR, DL_AUTOPILOT_VERSION, "
 257:/home/lsk/paparazzi/var/include/messages.h **** 	  trans->put_bytes(trans->impl, dev, DL_TYPE_UINT32, DL_FORMAT_SCALAR, 4, (void *) _version);
 258:/home/lsk/paparazzi/var/include/messages.h **** 	  trans->put_bytes(trans->impl, dev, DL_TYPE_ARRAY_LENGTH, DL_FORMAT_SCALAR, 1, (void *) &nb_desc)
 259:/home/lsk/paparazzi/var/include/messages.h **** 	  trans->put_bytes(trans->impl, dev, DL_TYPE_CHAR, DL_FORMAT_ARRAY, 1 * nb_desc, (void *) _desc);
 260:/home/lsk/paparazzi/var/include/messages.h **** 	  trans->end_message(trans->impl, dev);
 261:/home/lsk/paparazzi/var/include/messages.h **** 	} else
 262:/home/lsk/paparazzi/var/include/messages.h **** 	  trans->overrun(trans->impl, dev);
 263:/home/lsk/paparazzi/var/include/messages.h **** }
 264:/home/lsk/paparazzi/var/include/messages.h **** 
 265:/home/lsk/paparazzi/var/include/messages.h **** #define DOWNLINK_SEND_ALIVE(_trans, _dev, nb_md5sum, md5sum) pprz_msg_send_ALIVE(&((_trans).trans_t
 266:/home/lsk/paparazzi/var/include/messages.h **** static inline void pprz_msg_send_ALIVE(struct transport_tx *trans, struct link_device *dev, uint8_t
 267:/home/lsk/paparazzi/var/include/messages.h **** 	if (trans->check_available_space(trans->impl, dev, trans->size_of(trans->impl, 0+1+nb_md5sum*1 +2 
 268:/home/lsk/paparazzi/var/include/messages.h **** 	  trans->count_bytes(trans->impl, dev, trans->size_of(trans->impl, 0+1+nb_md5sum*1 +2 /* msg heade
 269:/home/lsk/paparazzi/var/include/messages.h **** 	  trans->start_message(trans->impl, dev, 0+1+nb_md5sum*1 +2 /* msg header overhead */);
 270:/home/lsk/paparazzi/var/include/messages.h **** 	  trans->put_bytes(trans->impl, dev, DL_TYPE_UINT8, DL_FORMAT_SCALAR, 1, &ac_id);
 271:/home/lsk/paparazzi/var/include/messages.h **** 	  trans->put_named_byte(trans->impl, dev, DL_TYPE_UINT8, DL_FORMAT_SCALAR, DL_ALIVE, "ALIVE");
 272:/home/lsk/paparazzi/var/include/messages.h **** 	  trans->put_bytes(trans->impl, dev, DL_TYPE_ARRAY_LENGTH, DL_FORMAT_SCALAR, 1, (void *) &nb_md5su
 273:/home/lsk/paparazzi/var/include/messages.h **** 	  trans->put_bytes(trans->impl, dev, DL_TYPE_UINT8, DL_FORMAT_ARRAY, 1 * nb_md5sum, (void *) _md5s
 274:/home/lsk/paparazzi/var/include/messages.h **** 	  trans->end_message(trans->impl, dev);
 275:/home/lsk/paparazzi/var/include/messages.h **** 	} else
 276:/home/lsk/paparazzi/var/include/messages.h **** 	  trans->overrun(trans->impl, dev);
 277:/home/lsk/paparazzi/var/include/messages.h **** }
 278:/home/lsk/paparazzi/var/include/messages.h **** 
 279:/home/lsk/paparazzi/var/include/messages.h **** #define DOWNLINK_SEND_PONG(_trans, _dev) pprz_msg_send_PONG(&((_trans).trans_tx), &((_dev).device),
 280:/home/lsk/paparazzi/var/include/messages.h **** static inline void pprz_msg_send_PONG(struct transport_tx *trans, struct link_device *dev, uint8_t 
 281:/home/lsk/paparazzi/var/include/messages.h **** 	if (trans->check_available_space(trans->impl, dev, trans->size_of(trans->impl, 0 +2 /* msg header 
 282:/home/lsk/paparazzi/var/include/messages.h **** 	  trans->count_bytes(trans->impl, dev, trans->size_of(trans->impl, 0 +2 /* msg header overhead */)
 283:/home/lsk/paparazzi/var/include/messages.h **** 	  trans->start_message(trans->impl, dev, 0 +2 /* msg header overhead */);
 284:/home/lsk/paparazzi/var/include/messages.h **** 	  trans->put_bytes(trans->impl, dev, DL_TYPE_UINT8, DL_FORMAT_SCALAR, 1, &ac_id);
 285:/home/lsk/paparazzi/var/include/messages.h **** 	  trans->put_named_byte(trans->impl, dev, DL_TYPE_UINT8, DL_FORMAT_SCALAR, DL_PONG, "PONG");
 286:/home/lsk/paparazzi/var/include/messages.h **** 	  trans->end_message(trans->impl, dev);
 287:/home/lsk/paparazzi/var/include/messages.h **** 	} else
 288:/home/lsk/paparazzi/var/include/messages.h **** 	  trans->overrun(trans->impl, dev);
 289:/home/lsk/paparazzi/var/include/messages.h **** }
 290:/home/lsk/paparazzi/var/include/messages.h **** 
 291:/home/lsk/paparazzi/var/include/messages.h **** #define DOWNLINK_SEND_TAKEOFF(_trans, _dev, cpu_time) pprz_msg_send_TAKEOFF(&((_trans).trans_tx), &
 292:/home/lsk/paparazzi/var/include/messages.h **** static inline void pprz_msg_send_TAKEOFF(struct transport_tx *trans, struct link_device *dev, uint8
 293:/home/lsk/paparazzi/var/include/messages.h **** 	if (trans->check_available_space(trans->impl, dev, trans->size_of(trans->impl, 0+2 +2 /* msg heade
 294:/home/lsk/paparazzi/var/include/messages.h **** 	  trans->count_bytes(trans->impl, dev, trans->size_of(trans->impl, 0+2 +2 /* msg header overhead *
 295:/home/lsk/paparazzi/var/include/messages.h **** 	  trans->start_message(trans->impl, dev, 0+2 +2 /* msg header overhead */);
 296:/home/lsk/paparazzi/var/include/messages.h **** 	  trans->put_bytes(trans->impl, dev, DL_TYPE_UINT8, DL_FORMAT_SCALAR, 1, &ac_id);
 297:/home/lsk/paparazzi/var/include/messages.h **** 	  trans->put_named_byte(trans->impl, dev, DL_TYPE_UINT8, DL_FORMAT_SCALAR, DL_TAKEOFF, "TAKEOFF");
 298:/home/lsk/paparazzi/var/include/messages.h **** 	  trans->put_bytes(trans->impl, dev, DL_TYPE_UINT16, DL_FORMAT_SCALAR, 2, (void *) _cpu_time);
 299:/home/lsk/paparazzi/var/include/messages.h **** 	  trans->end_message(trans->impl, dev);
 300:/home/lsk/paparazzi/var/include/messages.h **** 	} else
 301:/home/lsk/paparazzi/var/include/messages.h **** 	  trans->overrun(trans->impl, dev);
 302:/home/lsk/paparazzi/var/include/messages.h **** }
 303:/home/lsk/paparazzi/var/include/messages.h **** 
 304:/home/lsk/paparazzi/var/include/messages.h **** #define DOWNLINK_SEND_ARDRONE_NAVDATA(_trans, _dev, taille, nu_trame, ax, ay, az, vx, vy, vz, tempe
 305:/home/lsk/paparazzi/var/include/messages.h **** static inline void pprz_msg_send_ARDRONE_NAVDATA(struct transport_tx *trans, struct link_device *de
 306:/home/lsk/paparazzi/var/include/messages.h **** 	if (trans->check_available_space(trans->impl, dev, trans->size_of(trans->impl, 0+2+2+2+2+2+2+2+2+2
 307:/home/lsk/paparazzi/var/include/messages.h **** 	  trans->count_bytes(trans->impl, dev, trans->size_of(trans->impl, 0+2+2+2+2+2+2+2+2+2+2+2+2+2+2+2
 308:/home/lsk/paparazzi/var/include/messages.h **** 	  trans->start_message(trans->impl, dev, 0+2+2+2+2+2+2+2+2+2+2+2+2+2+2+2+2+2+2+2+4+2+2+4+2+2+2+2+2
 309:/home/lsk/paparazzi/var/include/messages.h **** 	  trans->put_bytes(trans->impl, dev, DL_TYPE_UINT8, DL_FORMAT_SCALAR, 1, &ac_id);
 310:/home/lsk/paparazzi/var/include/messages.h **** 	  trans->put_named_byte(trans->impl, dev, DL_TYPE_UINT8, DL_FORMAT_SCALAR, DL_ARDRONE_NAVDATA, "AR
 311:/home/lsk/paparazzi/var/include/messages.h **** 	  trans->put_bytes(trans->impl, dev, DL_TYPE_UINT16, DL_FORMAT_SCALAR, 2, (void *) _taille);
 312:/home/lsk/paparazzi/var/include/messages.h **** 	  trans->put_bytes(trans->impl, dev, DL_TYPE_UINT16, DL_FORMAT_SCALAR, 2, (void *) _nu_trame);
 313:/home/lsk/paparazzi/var/include/messages.h **** 	  trans->put_bytes(trans->impl, dev, DL_TYPE_UINT16, DL_FORMAT_SCALAR, 2, (void *) _ax);
 314:/home/lsk/paparazzi/var/include/messages.h **** 	  trans->put_bytes(trans->impl, dev, DL_TYPE_UINT16, DL_FORMAT_SCALAR, 2, (void *) _ay);
 315:/home/lsk/paparazzi/var/include/messages.h **** 	  trans->put_bytes(trans->impl, dev, DL_TYPE_UINT16, DL_FORMAT_SCALAR, 2, (void *) _az);
 316:/home/lsk/paparazzi/var/include/messages.h **** 	  trans->put_bytes(trans->impl, dev, DL_TYPE_INT16, DL_FORMAT_SCALAR, 2, (void *) _vx);
 317:/home/lsk/paparazzi/var/include/messages.h **** 	  trans->put_bytes(trans->impl, dev, DL_TYPE_INT16, DL_FORMAT_SCALAR, 2, (void *) _vy);
 318:/home/lsk/paparazzi/var/include/messages.h **** 	  trans->put_bytes(trans->impl, dev, DL_TYPE_INT16, DL_FORMAT_SCALAR, 2, (void *) _vz);
 319:/home/lsk/paparazzi/var/include/messages.h **** 	  trans->put_bytes(trans->impl, dev, DL_TYPE_UINT16, DL_FORMAT_SCALAR, 2, (void *) _temperature_ac
 320:/home/lsk/paparazzi/var/include/messages.h **** 	  trans->put_bytes(trans->impl, dev, DL_TYPE_UINT16, DL_FORMAT_SCALAR, 2, (void *) _temperature_gy
 321:/home/lsk/paparazzi/var/include/messages.h **** 	  trans->put_bytes(trans->impl, dev, DL_TYPE_UINT16, DL_FORMAT_SCALAR, 2, (void *) _ultrasound);
 322:/home/lsk/paparazzi/var/include/messages.h **** 	  trans->put_bytes(trans->impl, dev, DL_TYPE_UINT16, DL_FORMAT_SCALAR, 2, (void *) _us_debut_echo)
 323:/home/lsk/paparazzi/var/include/messages.h **** 	  trans->put_bytes(trans->impl, dev, DL_TYPE_UINT16, DL_FORMAT_SCALAR, 2, (void *) _us_fin_echo);
 324:/home/lsk/paparazzi/var/include/messages.h **** 	  trans->put_bytes(trans->impl, dev, DL_TYPE_UINT16, DL_FORMAT_SCALAR, 2, (void *) _us_association
 325:/home/lsk/paparazzi/var/include/messages.h **** 	  trans->put_bytes(trans->impl, dev, DL_TYPE_UINT16, DL_FORMAT_SCALAR, 2, (void *) _us_distance_ec
 326:/home/lsk/paparazzi/var/include/messages.h **** 	  trans->put_bytes(trans->impl, dev, DL_TYPE_UINT16, DL_FORMAT_SCALAR, 2, (void *) _us_curve_time)
 327:/home/lsk/paparazzi/var/include/messages.h **** 	  trans->put_bytes(trans->impl, dev, DL_TYPE_UINT16, DL_FORMAT_SCALAR, 2, (void *) _us_curve_value
 328:/home/lsk/paparazzi/var/include/messages.h **** 	  trans->put_bytes(trans->impl, dev, DL_TYPE_UINT16, DL_FORMAT_SCALAR, 2, (void *) _us_curve_ref);
 329:/home/lsk/paparazzi/var/include/messages.h **** 	  trans->put_bytes(trans->impl, dev, DL_TYPE_UINT16, DL_FORMAT_SCALAR, 2, (void *) _nb_echo);
 330:/home/lsk/paparazzi/var/include/messages.h **** 	  trans->put_bytes(trans->impl, dev, DL_TYPE_UINT32, DL_FORMAT_SCALAR, 4, (void *) _sum_echo);
 331:/home/lsk/paparazzi/var/include/messages.h **** 	  trans->put_bytes(trans->impl, dev, DL_TYPE_INT16, DL_FORMAT_SCALAR, 2, (void *) _gradient);
 332:/home/lsk/paparazzi/var/include/messages.h **** 	  trans->put_bytes(trans->impl, dev, DL_TYPE_UINT16, DL_FORMAT_SCALAR, 2, (void *) _flag_echo_ini)
 333:/home/lsk/paparazzi/var/include/messages.h **** 	  trans->put_bytes(trans->impl, dev, DL_TYPE_INT32, DL_FORMAT_SCALAR, 4, (void *) _pressure);
 334:/home/lsk/paparazzi/var/include/messages.h **** 	  trans->put_bytes(trans->impl, dev, DL_TYPE_UINT16, DL_FORMAT_SCALAR, 2, (void *) _temperature_pr
 335:/home/lsk/paparazzi/var/include/messages.h **** 	  trans->put_bytes(trans->impl, dev, DL_TYPE_INT16, DL_FORMAT_SCALAR, 2, (void *) _mx);
 336:/home/lsk/paparazzi/var/include/messages.h **** 	  trans->put_bytes(trans->impl, dev, DL_TYPE_INT16, DL_FORMAT_SCALAR, 2, (void *) _my);
 337:/home/lsk/paparazzi/var/include/messages.h **** 	  trans->put_bytes(trans->impl, dev, DL_TYPE_INT16, DL_FORMAT_SCALAR, 2, (void *) _mz);
 338:/home/lsk/paparazzi/var/include/messages.h **** 	  trans->put_bytes(trans->impl, dev, DL_TYPE_UINT16, DL_FORMAT_SCALAR, 2, (void *) _chksum);
 339:/home/lsk/paparazzi/var/include/messages.h **** 	  trans->put_bytes(trans->impl, dev, DL_TYPE_UINT32, DL_FORMAT_SCALAR, 4, (void *) _checksum_error
 340:/home/lsk/paparazzi/var/include/messages.h **** 	  trans->end_message(trans->impl, dev);
 341:/home/lsk/paparazzi/var/include/messages.h **** 	} else
 342:/home/lsk/paparazzi/var/include/messages.h **** 	  trans->overrun(trans->impl, dev);
 343:/home/lsk/paparazzi/var/include/messages.h **** }
 344:/home/lsk/paparazzi/var/include/messages.h **** 
 345:/home/lsk/paparazzi/var/include/messages.h **** #define DOWNLINK_SEND_ATTITUDE(_trans, _dev, phi, psi, theta) pprz_msg_send_ATTITUDE(&((_trans).tra
 346:/home/lsk/paparazzi/var/include/messages.h **** static inline void pprz_msg_send_ATTITUDE(struct transport_tx *trans, struct link_device *dev, uint
 347:/home/lsk/paparazzi/var/include/messages.h **** 	if (trans->check_available_space(trans->impl, dev, trans->size_of(trans->impl, 0+4+4+4 +2 /* msg h
 348:/home/lsk/paparazzi/var/include/messages.h **** 	  trans->count_bytes(trans->impl, dev, trans->size_of(trans->impl, 0+4+4+4 +2 /* msg header overhe
 349:/home/lsk/paparazzi/var/include/messages.h **** 	  trans->start_message(trans->impl, dev, 0+4+4+4 +2 /* msg header overhead */);
 350:/home/lsk/paparazzi/var/include/messages.h **** 	  trans->put_bytes(trans->impl, dev, DL_TYPE_UINT8, DL_FORMAT_SCALAR, 1, &ac_id);
 351:/home/lsk/paparazzi/var/include/messages.h **** 	  trans->put_named_byte(trans->impl, dev, DL_TYPE_UINT8, DL_FORMAT_SCALAR, DL_ATTITUDE, "ATTITUDE"
 352:/home/lsk/paparazzi/var/include/messages.h **** 	  trans->put_bytes(trans->impl, dev, DL_TYPE_FLOAT, DL_FORMAT_SCALAR, 4, (void *) _phi);
 353:/home/lsk/paparazzi/var/include/messages.h **** 	  trans->put_bytes(trans->impl, dev, DL_TYPE_FLOAT, DL_FORMAT_SCALAR, 4, (void *) _psi);
 354:/home/lsk/paparazzi/var/include/messages.h **** 	  trans->put_bytes(trans->impl, dev, DL_TYPE_FLOAT, DL_FORMAT_SCALAR, 4, (void *) _theta);
 355:/home/lsk/paparazzi/var/include/messages.h **** 	  trans->end_message(trans->impl, dev);
 356:/home/lsk/paparazzi/var/include/messages.h **** 	} else
 357:/home/lsk/paparazzi/var/include/messages.h **** 	  trans->overrun(trans->impl, dev);
 358:/home/lsk/paparazzi/var/include/messages.h **** }
 359:/home/lsk/paparazzi/var/include/messages.h **** 
 360:/home/lsk/paparazzi/var/include/messages.h **** #define DOWNLINK_SEND_IR_SENSORS(_trans, _dev, ir1, ir2, longitudinal, lateral, vertical) pprz_msg_
 361:/home/lsk/paparazzi/var/include/messages.h **** static inline void pprz_msg_send_IR_SENSORS(struct transport_tx *trans, struct link_device *dev, ui
 362:/home/lsk/paparazzi/var/include/messages.h **** 	if (trans->check_available_space(trans->impl, dev, trans->size_of(trans->impl, 0+2+2+2+2+2 +2 /* m
 363:/home/lsk/paparazzi/var/include/messages.h **** 	  trans->count_bytes(trans->impl, dev, trans->size_of(trans->impl, 0+2+2+2+2+2 +2 /* msg header ov
 364:/home/lsk/paparazzi/var/include/messages.h **** 	  trans->start_message(trans->impl, dev, 0+2+2+2+2+2 +2 /* msg header overhead */);
 365:/home/lsk/paparazzi/var/include/messages.h **** 	  trans->put_bytes(trans->impl, dev, DL_TYPE_UINT8, DL_FORMAT_SCALAR, 1, &ac_id);
 366:/home/lsk/paparazzi/var/include/messages.h **** 	  trans->put_named_byte(trans->impl, dev, DL_TYPE_UINT8, DL_FORMAT_SCALAR, DL_IR_SENSORS, "IR_SENS
 367:/home/lsk/paparazzi/var/include/messages.h **** 	  trans->put_bytes(trans->impl, dev, DL_TYPE_INT16, DL_FORMAT_SCALAR, 2, (void *) _ir1);
 368:/home/lsk/paparazzi/var/include/messages.h **** 	  trans->put_bytes(trans->impl, dev, DL_TYPE_INT16, DL_FORMAT_SCALAR, 2, (void *) _ir2);
 369:/home/lsk/paparazzi/var/include/messages.h **** 	  trans->put_bytes(trans->impl, dev, DL_TYPE_INT16, DL_FORMAT_SCALAR, 2, (void *) _longitudinal);
 370:/home/lsk/paparazzi/var/include/messages.h **** 	  trans->put_bytes(trans->impl, dev, DL_TYPE_INT16, DL_FORMAT_SCALAR, 2, (void *) _lateral);
 371:/home/lsk/paparazzi/var/include/messages.h **** 	  trans->put_bytes(trans->impl, dev, DL_TYPE_INT16, DL_FORMAT_SCALAR, 2, (void *) _vertical);
 372:/home/lsk/paparazzi/var/include/messages.h **** 	  trans->end_message(trans->impl, dev);
 373:/home/lsk/paparazzi/var/include/messages.h **** 	} else
 374:/home/lsk/paparazzi/var/include/messages.h **** 	  trans->overrun(trans->impl, dev);
 375:/home/lsk/paparazzi/var/include/messages.h **** }
 376:/home/lsk/paparazzi/var/include/messages.h **** 
 377:/home/lsk/paparazzi/var/include/messages.h **** #define DOWNLINK_SEND_GPS(_trans, _dev, mode, utm_east, utm_north, course, alt, speed, climb, week,
 378:/home/lsk/paparazzi/var/include/messages.h **** static inline void pprz_msg_send_GPS(struct transport_tx *trans, struct link_device *dev, uint8_t a
 379:/home/lsk/paparazzi/var/include/messages.h **** 	if (trans->check_available_space(trans->impl, dev, trans->size_of(trans->impl, 0+1+4+4+2+4+2+2+2+4
 380:/home/lsk/paparazzi/var/include/messages.h **** 	  trans->count_bytes(trans->impl, dev, trans->size_of(trans->impl, 0+1+4+4+2+4+2+2+2+4+1+1 +2 /* m
 381:/home/lsk/paparazzi/var/include/messages.h **** 	  trans->start_message(trans->impl, dev, 0+1+4+4+2+4+2+2+2+4+1+1 +2 /* msg header overhead */);
 382:/home/lsk/paparazzi/var/include/messages.h **** 	  trans->put_bytes(trans->impl, dev, DL_TYPE_UINT8, DL_FORMAT_SCALAR, 1, &ac_id);
 383:/home/lsk/paparazzi/var/include/messages.h **** 	  trans->put_named_byte(trans->impl, dev, DL_TYPE_UINT8, DL_FORMAT_SCALAR, DL_GPS, "GPS");
 384:/home/lsk/paparazzi/var/include/messages.h **** 	  trans->put_bytes(trans->impl, dev, DL_TYPE_UINT8, DL_FORMAT_SCALAR, 1, (void *) _mode);
 385:/home/lsk/paparazzi/var/include/messages.h **** 	  trans->put_bytes(trans->impl, dev, DL_TYPE_INT32, DL_FORMAT_SCALAR, 4, (void *) _utm_east);
 386:/home/lsk/paparazzi/var/include/messages.h **** 	  trans->put_bytes(trans->impl, dev, DL_TYPE_INT32, DL_FORMAT_SCALAR, 4, (void *) _utm_north);
 387:/home/lsk/paparazzi/var/include/messages.h **** 	  trans->put_bytes(trans->impl, dev, DL_TYPE_INT16, DL_FORMAT_SCALAR, 2, (void *) _course);
 388:/home/lsk/paparazzi/var/include/messages.h **** 	  trans->put_bytes(trans->impl, dev, DL_TYPE_INT32, DL_FORMAT_SCALAR, 4, (void *) _alt);
 389:/home/lsk/paparazzi/var/include/messages.h **** 	  trans->put_bytes(trans->impl, dev, DL_TYPE_UINT16, DL_FORMAT_SCALAR, 2, (void *) _speed);
 390:/home/lsk/paparazzi/var/include/messages.h **** 	  trans->put_bytes(trans->impl, dev, DL_TYPE_INT16, DL_FORMAT_SCALAR, 2, (void *) _climb);
 391:/home/lsk/paparazzi/var/include/messages.h **** 	  trans->put_bytes(trans->impl, dev, DL_TYPE_UINT16, DL_FORMAT_SCALAR, 2, (void *) _week);
 392:/home/lsk/paparazzi/var/include/messages.h **** 	  trans->put_bytes(trans->impl, dev, DL_TYPE_UINT32, DL_FORMAT_SCALAR, 4, (void *) _itow);
 393:/home/lsk/paparazzi/var/include/messages.h **** 	  trans->put_bytes(trans->impl, dev, DL_TYPE_UINT8, DL_FORMAT_SCALAR, 1, (void *) _utm_zone);
 394:/home/lsk/paparazzi/var/include/messages.h **** 	  trans->put_bytes(trans->impl, dev, DL_TYPE_UINT8, DL_FORMAT_SCALAR, 1, (void *) _gps_nb_err);
 395:/home/lsk/paparazzi/var/include/messages.h **** 	  trans->end_message(trans->impl, dev);
 396:/home/lsk/paparazzi/var/include/messages.h **** 	} else
 397:/home/lsk/paparazzi/var/include/messages.h **** 	  trans->overrun(trans->impl, dev);
 398:/home/lsk/paparazzi/var/include/messages.h **** }
 399:/home/lsk/paparazzi/var/include/messages.h **** 
 400:/home/lsk/paparazzi/var/include/messages.h **** #define DOWNLINK_SEND_NAVIGATION_REF(_trans, _dev, utm_east, utm_north, utm_zone, ground_alt) pprz_
 401:/home/lsk/paparazzi/var/include/messages.h **** static inline void pprz_msg_send_NAVIGATION_REF(struct transport_tx *trans, struct link_device *dev
 402:/home/lsk/paparazzi/var/include/messages.h **** 	if (trans->check_available_space(trans->impl, dev, trans->size_of(trans->impl, 0+4+4+1+4 +2 /* msg
 403:/home/lsk/paparazzi/var/include/messages.h **** 	  trans->count_bytes(trans->impl, dev, trans->size_of(trans->impl, 0+4+4+1+4 +2 /* msg header over
 404:/home/lsk/paparazzi/var/include/messages.h **** 	  trans->start_message(trans->impl, dev, 0+4+4+1+4 +2 /* msg header overhead */);
 405:/home/lsk/paparazzi/var/include/messages.h **** 	  trans->put_bytes(trans->impl, dev, DL_TYPE_UINT8, DL_FORMAT_SCALAR, 1, &ac_id);
 406:/home/lsk/paparazzi/var/include/messages.h **** 	  trans->put_named_byte(trans->impl, dev, DL_TYPE_UINT8, DL_FORMAT_SCALAR, DL_NAVIGATION_REF, "NAV
 407:/home/lsk/paparazzi/var/include/messages.h **** 	  trans->put_bytes(trans->impl, dev, DL_TYPE_INT32, DL_FORMAT_SCALAR, 4, (void *) _utm_east);
 408:/home/lsk/paparazzi/var/include/messages.h **** 	  trans->put_bytes(trans->impl, dev, DL_TYPE_INT32, DL_FORMAT_SCALAR, 4, (void *) _utm_north);
 409:/home/lsk/paparazzi/var/include/messages.h **** 	  trans->put_bytes(trans->impl, dev, DL_TYPE_UINT8, DL_FORMAT_SCALAR, 1, (void *) _utm_zone);
 410:/home/lsk/paparazzi/var/include/messages.h **** 	  trans->put_bytes(trans->impl, dev, DL_TYPE_FLOAT, DL_FORMAT_SCALAR, 4, (void *) _ground_alt);
 411:/home/lsk/paparazzi/var/include/messages.h **** 	  trans->end_message(trans->impl, dev);
 412:/home/lsk/paparazzi/var/include/messages.h **** 	} else
 413:/home/lsk/paparazzi/var/include/messages.h **** 	  trans->overrun(trans->impl, dev);
 414:/home/lsk/paparazzi/var/include/messages.h **** }
 415:/home/lsk/paparazzi/var/include/messages.h **** 
 416:/home/lsk/paparazzi/var/include/messages.h **** #define DOWNLINK_SEND_NAVIGATION(_trans, _dev, cur_block, cur_stage, pos_x, pos_y, dist_wp, dist_ho
 417:/home/lsk/paparazzi/var/include/messages.h **** static inline void pprz_msg_send_NAVIGATION(struct transport_tx *trans, struct link_device *dev, ui
 418:/home/lsk/paparazzi/var/include/messages.h **** 	if (trans->check_available_space(trans->impl, dev, trans->size_of(trans->impl, 0+1+1+4+4+4+4+1+1 +
 419:/home/lsk/paparazzi/var/include/messages.h **** 	  trans->count_bytes(trans->impl, dev, trans->size_of(trans->impl, 0+1+1+4+4+4+4+1+1 +2 /* msg hea
 420:/home/lsk/paparazzi/var/include/messages.h **** 	  trans->start_message(trans->impl, dev, 0+1+1+4+4+4+4+1+1 +2 /* msg header overhead */);
 421:/home/lsk/paparazzi/var/include/messages.h **** 	  trans->put_bytes(trans->impl, dev, DL_TYPE_UINT8, DL_FORMAT_SCALAR, 1, &ac_id);
 422:/home/lsk/paparazzi/var/include/messages.h **** 	  trans->put_named_byte(trans->impl, dev, DL_TYPE_UINT8, DL_FORMAT_SCALAR, DL_NAVIGATION, "NAVIGAT
 423:/home/lsk/paparazzi/var/include/messages.h **** 	  trans->put_bytes(trans->impl, dev, DL_TYPE_UINT8, DL_FORMAT_SCALAR, 1, (void *) _cur_block);
 424:/home/lsk/paparazzi/var/include/messages.h **** 	  trans->put_bytes(trans->impl, dev, DL_TYPE_UINT8, DL_FORMAT_SCALAR, 1, (void *) _cur_stage);
 425:/home/lsk/paparazzi/var/include/messages.h **** 	  trans->put_bytes(trans->impl, dev, DL_TYPE_FLOAT, DL_FORMAT_SCALAR, 4, (void *) _pos_x);
 426:/home/lsk/paparazzi/var/include/messages.h **** 	  trans->put_bytes(trans->impl, dev, DL_TYPE_FLOAT, DL_FORMAT_SCALAR, 4, (void *) _pos_y);
 427:/home/lsk/paparazzi/var/include/messages.h **** 	  trans->put_bytes(trans->impl, dev, DL_TYPE_FLOAT, DL_FORMAT_SCALAR, 4, (void *) _dist_wp);
 428:/home/lsk/paparazzi/var/include/messages.h **** 	  trans->put_bytes(trans->impl, dev, DL_TYPE_FLOAT, DL_FORMAT_SCALAR, 4, (void *) _dist_home);
 429:/home/lsk/paparazzi/var/include/messages.h **** 	  trans->put_bytes(trans->impl, dev, DL_TYPE_UINT8, DL_FORMAT_SCALAR, 1, (void *) _circle_count);
 430:/home/lsk/paparazzi/var/include/messages.h **** 	  trans->put_bytes(trans->impl, dev, DL_TYPE_UINT8, DL_FORMAT_SCALAR, 1, (void *) _oval_count);
 431:/home/lsk/paparazzi/var/include/messages.h **** 	  trans->end_message(trans->impl, dev);
 432:/home/lsk/paparazzi/var/include/messages.h **** 	} else
 433:/home/lsk/paparazzi/var/include/messages.h **** 	  trans->overrun(trans->impl, dev);
 434:/home/lsk/paparazzi/var/include/messages.h **** }
 435:/home/lsk/paparazzi/var/include/messages.h **** 
 436:/home/lsk/paparazzi/var/include/messages.h **** #define DOWNLINK_SEND_PPRZ_MODE(_trans, _dev, ap_mode, ap_gaz, ap_lateral, ap_horizontal, if_calib_
 437:/home/lsk/paparazzi/var/include/messages.h **** static inline void pprz_msg_send_PPRZ_MODE(struct transport_tx *trans, struct link_device *dev, uin
 438:/home/lsk/paparazzi/var/include/messages.h **** 	if (trans->check_available_space(trans->impl, dev, trans->size_of(trans->impl, 0+1+1+1+1+1+1 +2 /*
 439:/home/lsk/paparazzi/var/include/messages.h **** 	  trans->count_bytes(trans->impl, dev, trans->size_of(trans->impl, 0+1+1+1+1+1+1 +2 /* msg header 
 440:/home/lsk/paparazzi/var/include/messages.h **** 	  trans->start_message(trans->impl, dev, 0+1+1+1+1+1+1 +2 /* msg header overhead */);
 441:/home/lsk/paparazzi/var/include/messages.h **** 	  trans->put_bytes(trans->impl, dev, DL_TYPE_UINT8, DL_FORMAT_SCALAR, 1, &ac_id);
 442:/home/lsk/paparazzi/var/include/messages.h **** 	  trans->put_named_byte(trans->impl, dev, DL_TYPE_UINT8, DL_FORMAT_SCALAR, DL_PPRZ_MODE, "PPRZ_MOD
 443:/home/lsk/paparazzi/var/include/messages.h **** 	  trans->put_bytes(trans->impl, dev, DL_TYPE_UINT8, DL_FORMAT_SCALAR, 1, (void *) _ap_mode);
 444:/home/lsk/paparazzi/var/include/messages.h **** 	  trans->put_bytes(trans->impl, dev, DL_TYPE_UINT8, DL_FORMAT_SCALAR, 1, (void *) _ap_gaz);
 445:/home/lsk/paparazzi/var/include/messages.h **** 	  trans->put_bytes(trans->impl, dev, DL_TYPE_UINT8, DL_FORMAT_SCALAR, 1, (void *) _ap_lateral);
 446:/home/lsk/paparazzi/var/include/messages.h **** 	  trans->put_bytes(trans->impl, dev, DL_TYPE_UINT8, DL_FORMAT_SCALAR, 1, (void *) _ap_horizontal);
 447:/home/lsk/paparazzi/var/include/messages.h **** 	  trans->put_bytes(trans->impl, dev, DL_TYPE_UINT8, DL_FORMAT_SCALAR, 1, (void *) _if_calib_mode);
 448:/home/lsk/paparazzi/var/include/messages.h **** 	  trans->put_bytes(trans->impl, dev, DL_TYPE_UINT8, DL_FORMAT_SCALAR, 1, (void *) _mcu1_status);
 449:/home/lsk/paparazzi/var/include/messages.h **** 	  trans->end_message(trans->impl, dev);
 450:/home/lsk/paparazzi/var/include/messages.h **** 	} else
 451:/home/lsk/paparazzi/var/include/messages.h **** 	  trans->overrun(trans->impl, dev);
 452:/home/lsk/paparazzi/var/include/messages.h **** }
 453:/home/lsk/paparazzi/var/include/messages.h **** 
 454:/home/lsk/paparazzi/var/include/messages.h **** #define DOWNLINK_SEND_BAT(_trans, _dev, throttle, voltage, amps, flight_time, kill_auto_throttle, b
 455:/home/lsk/paparazzi/var/include/messages.h **** static inline void pprz_msg_send_BAT(struct transport_tx *trans, struct link_device *dev, uint8_t a
 456:/home/lsk/paparazzi/var/include/messages.h **** 	if (trans->check_available_space(trans->impl, dev, trans->size_of(trans->impl, 0+2+2+2+2+1+2+2+2 +
 457:/home/lsk/paparazzi/var/include/messages.h **** 	  trans->count_bytes(trans->impl, dev, trans->size_of(trans->impl, 0+2+2+2+2+1+2+2+2 +2 /* msg hea
 458:/home/lsk/paparazzi/var/include/messages.h **** 	  trans->start_message(trans->impl, dev, 0+2+2+2+2+1+2+2+2 +2 /* msg header overhead */);
 459:/home/lsk/paparazzi/var/include/messages.h **** 	  trans->put_bytes(trans->impl, dev, DL_TYPE_UINT8, DL_FORMAT_SCALAR, 1, &ac_id);
 460:/home/lsk/paparazzi/var/include/messages.h **** 	  trans->put_named_byte(trans->impl, dev, DL_TYPE_UINT8, DL_FORMAT_SCALAR, DL_BAT, "BAT");
 461:/home/lsk/paparazzi/var/include/messages.h **** 	  trans->put_bytes(trans->impl, dev, DL_TYPE_INT16, DL_FORMAT_SCALAR, 2, (void *) _throttle);
 462:/home/lsk/paparazzi/var/include/messages.h **** 	  trans->put_bytes(trans->impl, dev, DL_TYPE_UINT16, DL_FORMAT_SCALAR, 2, (void *) _voltage);
 463:/home/lsk/paparazzi/var/include/messages.h **** 	  trans->put_bytes(trans->impl, dev, DL_TYPE_INT16, DL_FORMAT_SCALAR, 2, (void *) _amps);
 464:/home/lsk/paparazzi/var/include/messages.h **** 	  trans->put_bytes(trans->impl, dev, DL_TYPE_UINT16, DL_FORMAT_SCALAR, 2, (void *) _flight_time);
 465:/home/lsk/paparazzi/var/include/messages.h **** 	  trans->put_bytes(trans->impl, dev, DL_TYPE_UINT8, DL_FORMAT_SCALAR, 1, (void *) _kill_auto_throt
 466:/home/lsk/paparazzi/var/include/messages.h **** 	  trans->put_bytes(trans->impl, dev, DL_TYPE_UINT16, DL_FORMAT_SCALAR, 2, (void *) _block_time);
 467:/home/lsk/paparazzi/var/include/messages.h **** 	  trans->put_bytes(trans->impl, dev, DL_TYPE_UINT16, DL_FORMAT_SCALAR, 2, (void *) _stage_time);
 468:/home/lsk/paparazzi/var/include/messages.h **** 	  trans->put_bytes(trans->impl, dev, DL_TYPE_INT16, DL_FORMAT_SCALAR, 2, (void *) _energy);
 469:/home/lsk/paparazzi/var/include/messages.h **** 	  trans->end_message(trans->impl, dev);
 470:/home/lsk/paparazzi/var/include/messages.h **** 	} else
 471:/home/lsk/paparazzi/var/include/messages.h **** 	  trans->overrun(trans->impl, dev);
 472:/home/lsk/paparazzi/var/include/messages.h **** }
 473:/home/lsk/paparazzi/var/include/messages.h **** 
 474:/home/lsk/paparazzi/var/include/messages.h **** #define DOWNLINK_SEND_DEBUG_MCU_LINK(_trans, _dev, i2c_nb_err, i2c_mcu1_nb_err, ppm_rate) pprz_msg_
 475:/home/lsk/paparazzi/var/include/messages.h **** static inline void pprz_msg_send_DEBUG_MCU_LINK(struct transport_tx *trans, struct link_device *dev
 476:/home/lsk/paparazzi/var/include/messages.h **** 	if (trans->check_available_space(trans->impl, dev, trans->size_of(trans->impl, 0+1+1+1 +2 /* msg h
 477:/home/lsk/paparazzi/var/include/messages.h **** 	  trans->count_bytes(trans->impl, dev, trans->size_of(trans->impl, 0+1+1+1 +2 /* msg header overhe
 478:/home/lsk/paparazzi/var/include/messages.h **** 	  trans->start_message(trans->impl, dev, 0+1+1+1 +2 /* msg header overhead */);
 479:/home/lsk/paparazzi/var/include/messages.h **** 	  trans->put_bytes(trans->impl, dev, DL_TYPE_UINT8, DL_FORMAT_SCALAR, 1, &ac_id);
 480:/home/lsk/paparazzi/var/include/messages.h **** 	  trans->put_named_byte(trans->impl, dev, DL_TYPE_UINT8, DL_FORMAT_SCALAR, DL_DEBUG_MCU_LINK, "DEB
 481:/home/lsk/paparazzi/var/include/messages.h **** 	  trans->put_bytes(trans->impl, dev, DL_TYPE_UINT8, DL_FORMAT_SCALAR, 1, (void *) _i2c_nb_err);
 482:/home/lsk/paparazzi/var/include/messages.h **** 	  trans->put_bytes(trans->impl, dev, DL_TYPE_UINT8, DL_FORMAT_SCALAR, 1, (void *) _i2c_mcu1_nb_err
 483:/home/lsk/paparazzi/var/include/messages.h **** 	  trans->put_bytes(trans->impl, dev, DL_TYPE_UINT8, DL_FORMAT_SCALAR, 1, (void *) _ppm_rate);
 484:/home/lsk/paparazzi/var/include/messages.h **** 	  trans->end_message(trans->impl, dev);
 485:/home/lsk/paparazzi/var/include/messages.h **** 	} else
 486:/home/lsk/paparazzi/var/include/messages.h **** 	  trans->overrun(trans->impl, dev);
 487:/home/lsk/paparazzi/var/include/messages.h **** }
 488:/home/lsk/paparazzi/var/include/messages.h **** 
 489:/home/lsk/paparazzi/var/include/messages.h **** #define DOWNLINK_SEND_CALIBRATION(_trans, _dev, climb_sum_err, climb_gaz_submode) pprz_msg_send_CAL
 490:/home/lsk/paparazzi/var/include/messages.h **** static inline void pprz_msg_send_CALIBRATION(struct transport_tx *trans, struct link_device *dev, u
 491:/home/lsk/paparazzi/var/include/messages.h **** 	if (trans->check_available_space(trans->impl, dev, trans->size_of(trans->impl, 0+4+1 +2 /* msg hea
 492:/home/lsk/paparazzi/var/include/messages.h **** 	  trans->count_bytes(trans->impl, dev, trans->size_of(trans->impl, 0+4+1 +2 /* msg header overhead
 493:/home/lsk/paparazzi/var/include/messages.h **** 	  trans->start_message(trans->impl, dev, 0+4+1 +2 /* msg header overhead */);
 494:/home/lsk/paparazzi/var/include/messages.h **** 	  trans->put_bytes(trans->impl, dev, DL_TYPE_UINT8, DL_FORMAT_SCALAR, 1, &ac_id);
 495:/home/lsk/paparazzi/var/include/messages.h **** 	  trans->put_named_byte(trans->impl, dev, DL_TYPE_UINT8, DL_FORMAT_SCALAR, DL_CALIBRATION, "CALIBR
 496:/home/lsk/paparazzi/var/include/messages.h **** 	  trans->put_bytes(trans->impl, dev, DL_TYPE_FLOAT, DL_FORMAT_SCALAR, 4, (void *) _climb_sum_err);
 497:/home/lsk/paparazzi/var/include/messages.h **** 	  trans->put_bytes(trans->impl, dev, DL_TYPE_UINT8, DL_FORMAT_SCALAR, 1, (void *) _climb_gaz_submo
 498:/home/lsk/paparazzi/var/include/messages.h **** 	  trans->end_message(trans->impl, dev);
 499:/home/lsk/paparazzi/var/include/messages.h **** 	} else
 500:/home/lsk/paparazzi/var/include/messages.h **** 	  trans->overrun(trans->impl, dev);
 501:/home/lsk/paparazzi/var/include/messages.h **** }
 502:/home/lsk/paparazzi/var/include/messages.h **** 
 503:/home/lsk/paparazzi/var/include/messages.h **** #define DOWNLINK_SEND_SETTINGS(_trans, _dev, slider_1_val, slider_2_val) pprz_msg_send_SETTINGS(&((
 504:/home/lsk/paparazzi/var/include/messages.h **** static inline void pprz_msg_send_SETTINGS(struct transport_tx *trans, struct link_device *dev, uint
 505:/home/lsk/paparazzi/var/include/messages.h **** 	if (trans->check_available_space(trans->impl, dev, trans->size_of(trans->impl, 0+4+4 +2 /* msg hea
 506:/home/lsk/paparazzi/var/include/messages.h **** 	  trans->count_bytes(trans->impl, dev, trans->size_of(trans->impl, 0+4+4 +2 /* msg header overhead
 507:/home/lsk/paparazzi/var/include/messages.h **** 	  trans->start_message(trans->impl, dev, 0+4+4 +2 /* msg header overhead */);
 508:/home/lsk/paparazzi/var/include/messages.h **** 	  trans->put_bytes(trans->impl, dev, DL_TYPE_UINT8, DL_FORMAT_SCALAR, 1, &ac_id);
 509:/home/lsk/paparazzi/var/include/messages.h **** 	  trans->put_named_byte(trans->impl, dev, DL_TYPE_UINT8, DL_FORMAT_SCALAR, DL_SETTINGS, "SETTINGS"
 510:/home/lsk/paparazzi/var/include/messages.h **** 	  trans->put_bytes(trans->impl, dev, DL_TYPE_FLOAT, DL_FORMAT_SCALAR, 4, (void *) _slider_1_val);
 511:/home/lsk/paparazzi/var/include/messages.h **** 	  trans->put_bytes(trans->impl, dev, DL_TYPE_FLOAT, DL_FORMAT_SCALAR, 4, (void *) _slider_2_val);
 512:/home/lsk/paparazzi/var/include/messages.h **** 	  trans->end_message(trans->impl, dev);
 513:/home/lsk/paparazzi/var/include/messages.h **** 	} else
 514:/home/lsk/paparazzi/var/include/messages.h **** 	  trans->overrun(trans->impl, dev);
 515:/home/lsk/paparazzi/var/include/messages.h **** }
 516:/home/lsk/paparazzi/var/include/messages.h **** 
 517:/home/lsk/paparazzi/var/include/messages.h **** #define DOWNLINK_SEND_DESIRED(_trans, _dev, roll, pitch, course, x, y, altitude, climb, airspeed) p
 518:/home/lsk/paparazzi/var/include/messages.h **** static inline void pprz_msg_send_DESIRED(struct transport_tx *trans, struct link_device *dev, uint8
 519:/home/lsk/paparazzi/var/include/messages.h **** 	if (trans->check_available_space(trans->impl, dev, trans->size_of(trans->impl, 0+4+4+4+4+4+4+4+4 +
 520:/home/lsk/paparazzi/var/include/messages.h **** 	  trans->count_bytes(trans->impl, dev, trans->size_of(trans->impl, 0+4+4+4+4+4+4+4+4 +2 /* msg hea
 521:/home/lsk/paparazzi/var/include/messages.h **** 	  trans->start_message(trans->impl, dev, 0+4+4+4+4+4+4+4+4 +2 /* msg header overhead */);
 522:/home/lsk/paparazzi/var/include/messages.h **** 	  trans->put_bytes(trans->impl, dev, DL_TYPE_UINT8, DL_FORMAT_SCALAR, 1, &ac_id);
 523:/home/lsk/paparazzi/var/include/messages.h **** 	  trans->put_named_byte(trans->impl, dev, DL_TYPE_UINT8, DL_FORMAT_SCALAR, DL_DESIRED, "DESIRED");
 524:/home/lsk/paparazzi/var/include/messages.h **** 	  trans->put_bytes(trans->impl, dev, DL_TYPE_FLOAT, DL_FORMAT_SCALAR, 4, (void *) _roll);
 525:/home/lsk/paparazzi/var/include/messages.h **** 	  trans->put_bytes(trans->impl, dev, DL_TYPE_FLOAT, DL_FORMAT_SCALAR, 4, (void *) _pitch);
 526:/home/lsk/paparazzi/var/include/messages.h **** 	  trans->put_bytes(trans->impl, dev, DL_TYPE_FLOAT, DL_FORMAT_SCALAR, 4, (void *) _course);
 527:/home/lsk/paparazzi/var/include/messages.h **** 	  trans->put_bytes(trans->impl, dev, DL_TYPE_FLOAT, DL_FORMAT_SCALAR, 4, (void *) _x);
 528:/home/lsk/paparazzi/var/include/messages.h **** 	  trans->put_bytes(trans->impl, dev, DL_TYPE_FLOAT, DL_FORMAT_SCALAR, 4, (void *) _y);
 529:/home/lsk/paparazzi/var/include/messages.h **** 	  trans->put_bytes(trans->impl, dev, DL_TYPE_FLOAT, DL_FORMAT_SCALAR, 4, (void *) _altitude);
 530:/home/lsk/paparazzi/var/include/messages.h **** 	  trans->put_bytes(trans->impl, dev, DL_TYPE_FLOAT, DL_FORMAT_SCALAR, 4, (void *) _climb);
 531:/home/lsk/paparazzi/var/include/messages.h **** 	  trans->put_bytes(trans->impl, dev, DL_TYPE_FLOAT, DL_FORMAT_SCALAR, 4, (void *) _airspeed);
 532:/home/lsk/paparazzi/var/include/messages.h **** 	  trans->end_message(trans->impl, dev);
 533:/home/lsk/paparazzi/var/include/messages.h **** 	} else
 534:/home/lsk/paparazzi/var/include/messages.h **** 	  trans->overrun(trans->impl, dev);
 535:/home/lsk/paparazzi/var/include/messages.h **** }
 536:/home/lsk/paparazzi/var/include/messages.h **** 
 537:/home/lsk/paparazzi/var/include/messages.h **** #define DOWNLINK_SEND_GPS_SOL(_trans, _dev, Pacc, Sacc, PDOP, numSV) pprz_msg_send_GPS_SOL(&((_tran
 538:/home/lsk/paparazzi/var/include/messages.h **** static inline void pprz_msg_send_GPS_SOL(struct transport_tx *trans, struct link_device *dev, uint8
 539:/home/lsk/paparazzi/var/include/messages.h **** 	if (trans->check_available_space(trans->impl, dev, trans->size_of(trans->impl, 0+4+4+2+1 +2 /* msg
 540:/home/lsk/paparazzi/var/include/messages.h **** 	  trans->count_bytes(trans->impl, dev, trans->size_of(trans->impl, 0+4+4+2+1 +2 /* msg header over
 541:/home/lsk/paparazzi/var/include/messages.h **** 	  trans->start_message(trans->impl, dev, 0+4+4+2+1 +2 /* msg header overhead */);
 542:/home/lsk/paparazzi/var/include/messages.h **** 	  trans->put_bytes(trans->impl, dev, DL_TYPE_UINT8, DL_FORMAT_SCALAR, 1, &ac_id);
 543:/home/lsk/paparazzi/var/include/messages.h **** 	  trans->put_named_byte(trans->impl, dev, DL_TYPE_UINT8, DL_FORMAT_SCALAR, DL_GPS_SOL, "GPS_SOL");
 544:/home/lsk/paparazzi/var/include/messages.h **** 	  trans->put_bytes(trans->impl, dev, DL_TYPE_UINT32, DL_FORMAT_SCALAR, 4, (void *) _Pacc);
 545:/home/lsk/paparazzi/var/include/messages.h **** 	  trans->put_bytes(trans->impl, dev, DL_TYPE_UINT32, DL_FORMAT_SCALAR, 4, (void *) _Sacc);
 546:/home/lsk/paparazzi/var/include/messages.h **** 	  trans->put_bytes(trans->impl, dev, DL_TYPE_UINT16, DL_FORMAT_SCALAR, 2, (void *) _PDOP);
 547:/home/lsk/paparazzi/var/include/messages.h **** 	  trans->put_bytes(trans->impl, dev, DL_TYPE_UINT8, DL_FORMAT_SCALAR, 1, (void *) _numSV);
 548:/home/lsk/paparazzi/var/include/messages.h **** 	  trans->end_message(trans->impl, dev);
 549:/home/lsk/paparazzi/var/include/messages.h **** 	} else
 550:/home/lsk/paparazzi/var/include/messages.h **** 	  trans->overrun(trans->impl, dev);
 551:/home/lsk/paparazzi/var/include/messages.h **** }
 552:/home/lsk/paparazzi/var/include/messages.h **** 
 553:/home/lsk/paparazzi/var/include/messages.h **** #define DOWNLINK_SEND_ADC_GENERIC(_trans, _dev, val1, val2) pprz_msg_send_ADC_GENERIC(&((_trans).tr
 554:/home/lsk/paparazzi/var/include/messages.h **** static inline void pprz_msg_send_ADC_GENERIC(struct transport_tx *trans, struct link_device *dev, u
 555:/home/lsk/paparazzi/var/include/messages.h **** 	if (trans->check_available_space(trans->impl, dev, trans->size_of(trans->impl, 0+2+2 +2 /* msg hea
 556:/home/lsk/paparazzi/var/include/messages.h **** 	  trans->count_bytes(trans->impl, dev, trans->size_of(trans->impl, 0+2+2 +2 /* msg header overhead
 557:/home/lsk/paparazzi/var/include/messages.h **** 	  trans->start_message(trans->impl, dev, 0+2+2 +2 /* msg header overhead */);
 558:/home/lsk/paparazzi/var/include/messages.h **** 	  trans->put_bytes(trans->impl, dev, DL_TYPE_UINT8, DL_FORMAT_SCALAR, 1, &ac_id);
 559:/home/lsk/paparazzi/var/include/messages.h **** 	  trans->put_named_byte(trans->impl, dev, DL_TYPE_UINT8, DL_FORMAT_SCALAR, DL_ADC_GENERIC, "ADC_GE
 560:/home/lsk/paparazzi/var/include/messages.h **** 	  trans->put_bytes(trans->impl, dev, DL_TYPE_UINT16, DL_FORMAT_SCALAR, 2, (void *) _val1);
 561:/home/lsk/paparazzi/var/include/messages.h **** 	  trans->put_bytes(trans->impl, dev, DL_TYPE_UINT16, DL_FORMAT_SCALAR, 2, (void *) _val2);
 562:/home/lsk/paparazzi/var/include/messages.h **** 	  trans->end_message(trans->impl, dev);
 563:/home/lsk/paparazzi/var/include/messages.h **** 	} else
 564:/home/lsk/paparazzi/var/include/messages.h **** 	  trans->overrun(trans->impl, dev);
 565:/home/lsk/paparazzi/var/include/messages.h **** }
 566:/home/lsk/paparazzi/var/include/messages.h **** 
 567:/home/lsk/paparazzi/var/include/messages.h **** #define DOWNLINK_SEND_TEST_FORMAT(_trans, _dev, val1, val2) pprz_msg_send_TEST_FORMAT(&((_trans).tr
 568:/home/lsk/paparazzi/var/include/messages.h **** static inline void pprz_msg_send_TEST_FORMAT(struct transport_tx *trans, struct link_device *dev, u
 569:/home/lsk/paparazzi/var/include/messages.h **** 	if (trans->check_available_space(trans->impl, dev, trans->size_of(trans->impl, 0+8+4 +2 /* msg hea
 570:/home/lsk/paparazzi/var/include/messages.h **** 	  trans->count_bytes(trans->impl, dev, trans->size_of(trans->impl, 0+8+4 +2 /* msg header overhead
 571:/home/lsk/paparazzi/var/include/messages.h **** 	  trans->start_message(trans->impl, dev, 0+8+4 +2 /* msg header overhead */);
 572:/home/lsk/paparazzi/var/include/messages.h **** 	  trans->put_bytes(trans->impl, dev, DL_TYPE_UINT8, DL_FORMAT_SCALAR, 1, &ac_id);
 573:/home/lsk/paparazzi/var/include/messages.h **** 	  trans->put_named_byte(trans->impl, dev, DL_TYPE_UINT8, DL_FORMAT_SCALAR, DL_TEST_FORMAT, "TEST_F
 574:/home/lsk/paparazzi/var/include/messages.h **** 	  trans->put_bytes(trans->impl, dev, DL_TYPE_DOUBLE, DL_FORMAT_SCALAR, 8, (void *) _val1);
 575:/home/lsk/paparazzi/var/include/messages.h **** 	  trans->put_bytes(trans->impl, dev, DL_TYPE_FLOAT, DL_FORMAT_SCALAR, 4, (void *) _val2);
 576:/home/lsk/paparazzi/var/include/messages.h **** 	  trans->end_message(trans->impl, dev);
 577:/home/lsk/paparazzi/var/include/messages.h **** 	} else
 578:/home/lsk/paparazzi/var/include/messages.h **** 	  trans->overrun(trans->impl, dev);
 579:/home/lsk/paparazzi/var/include/messages.h **** }
 580:/home/lsk/paparazzi/var/include/messages.h **** 
 581:/home/lsk/paparazzi/var/include/messages.h **** #define DOWNLINK_SEND_CAM(_trans, _dev, phi, theta, target_x, target_y) pprz_msg_send_CAM(&((_trans
 582:/home/lsk/paparazzi/var/include/messages.h **** static inline void pprz_msg_send_CAM(struct transport_tx *trans, struct link_device *dev, uint8_t a
 583:/home/lsk/paparazzi/var/include/messages.h **** 	if (trans->check_available_space(trans->impl, dev, trans->size_of(trans->impl, 0+2+2+2+2 +2 /* msg
 584:/home/lsk/paparazzi/var/include/messages.h **** 	  trans->count_bytes(trans->impl, dev, trans->size_of(trans->impl, 0+2+2+2+2 +2 /* msg header over
 585:/home/lsk/paparazzi/var/include/messages.h **** 	  trans->start_message(trans->impl, dev, 0+2+2+2+2 +2 /* msg header overhead */);
 586:/home/lsk/paparazzi/var/include/messages.h **** 	  trans->put_bytes(trans->impl, dev, DL_TYPE_UINT8, DL_FORMAT_SCALAR, 1, &ac_id);
 587:/home/lsk/paparazzi/var/include/messages.h **** 	  trans->put_named_byte(trans->impl, dev, DL_TYPE_UINT8, DL_FORMAT_SCALAR, DL_CAM, "CAM");
 588:/home/lsk/paparazzi/var/include/messages.h **** 	  trans->put_bytes(trans->impl, dev, DL_TYPE_INT16, DL_FORMAT_SCALAR, 2, (void *) _phi);
 589:/home/lsk/paparazzi/var/include/messages.h **** 	  trans->put_bytes(trans->impl, dev, DL_TYPE_INT16, DL_FORMAT_SCALAR, 2, (void *) _theta);
 590:/home/lsk/paparazzi/var/include/messages.h **** 	  trans->put_bytes(trans->impl, dev, DL_TYPE_INT16, DL_FORMAT_SCALAR, 2, (void *) _target_x);
 591:/home/lsk/paparazzi/var/include/messages.h **** 	  trans->put_bytes(trans->impl, dev, DL_TYPE_INT16, DL_FORMAT_SCALAR, 2, (void *) _target_y);
 592:/home/lsk/paparazzi/var/include/messages.h **** 	  trans->end_message(trans->impl, dev);
 593:/home/lsk/paparazzi/var/include/messages.h **** 	} else
 594:/home/lsk/paparazzi/var/include/messages.h **** 	  trans->overrun(trans->impl, dev);
 595:/home/lsk/paparazzi/var/include/messages.h **** }
 596:/home/lsk/paparazzi/var/include/messages.h **** 
 597:/home/lsk/paparazzi/var/include/messages.h **** #define DOWNLINK_SEND_CIRCLE(_trans, _dev, center_east, center_north, radius) pprz_msg_send_CIRCLE(
 598:/home/lsk/paparazzi/var/include/messages.h **** static inline void pprz_msg_send_CIRCLE(struct transport_tx *trans, struct link_device *dev, uint8_
 599:/home/lsk/paparazzi/var/include/messages.h **** 	if (trans->check_available_space(trans->impl, dev, trans->size_of(trans->impl, 0+4+4+4 +2 /* msg h
 600:/home/lsk/paparazzi/var/include/messages.h **** 	  trans->count_bytes(trans->impl, dev, trans->size_of(trans->impl, 0+4+4+4 +2 /* msg header overhe
 601:/home/lsk/paparazzi/var/include/messages.h **** 	  trans->start_message(trans->impl, dev, 0+4+4+4 +2 /* msg header overhead */);
 602:/home/lsk/paparazzi/var/include/messages.h **** 	  trans->put_bytes(trans->impl, dev, DL_TYPE_UINT8, DL_FORMAT_SCALAR, 1, &ac_id);
 603:/home/lsk/paparazzi/var/include/messages.h **** 	  trans->put_named_byte(trans->impl, dev, DL_TYPE_UINT8, DL_FORMAT_SCALAR, DL_CIRCLE, "CIRCLE");
 604:/home/lsk/paparazzi/var/include/messages.h **** 	  trans->put_bytes(trans->impl, dev, DL_TYPE_FLOAT, DL_FORMAT_SCALAR, 4, (void *) _center_east);
 605:/home/lsk/paparazzi/var/include/messages.h **** 	  trans->put_bytes(trans->impl, dev, DL_TYPE_FLOAT, DL_FORMAT_SCALAR, 4, (void *) _center_north);
 606:/home/lsk/paparazzi/var/include/messages.h **** 	  trans->put_bytes(trans->impl, dev, DL_TYPE_FLOAT, DL_FORMAT_SCALAR, 4, (void *) _radius);
 607:/home/lsk/paparazzi/var/include/messages.h **** 	  trans->end_message(trans->impl, dev);
 608:/home/lsk/paparazzi/var/include/messages.h **** 	} else
 609:/home/lsk/paparazzi/var/include/messages.h **** 	  trans->overrun(trans->impl, dev);
 610:/home/lsk/paparazzi/var/include/messages.h **** }
 611:/home/lsk/paparazzi/var/include/messages.h **** 
 612:/home/lsk/paparazzi/var/include/messages.h **** #define DOWNLINK_SEND_SEGMENT(_trans, _dev, segment_east_1, segment_north_1, segment_east_2, segmen
 613:/home/lsk/paparazzi/var/include/messages.h **** static inline void pprz_msg_send_SEGMENT(struct transport_tx *trans, struct link_device *dev, uint8
 614:/home/lsk/paparazzi/var/include/messages.h **** 	if (trans->check_available_space(trans->impl, dev, trans->size_of(trans->impl, 0+4+4+4+4 +2 /* msg
 615:/home/lsk/paparazzi/var/include/messages.h **** 	  trans->count_bytes(trans->impl, dev, trans->size_of(trans->impl, 0+4+4+4+4 +2 /* msg header over
 616:/home/lsk/paparazzi/var/include/messages.h **** 	  trans->start_message(trans->impl, dev, 0+4+4+4+4 +2 /* msg header overhead */);
 617:/home/lsk/paparazzi/var/include/messages.h **** 	  trans->put_bytes(trans->impl, dev, DL_TYPE_UINT8, DL_FORMAT_SCALAR, 1, &ac_id);
 618:/home/lsk/paparazzi/var/include/messages.h **** 	  trans->put_named_byte(trans->impl, dev, DL_TYPE_UINT8, DL_FORMAT_SCALAR, DL_SEGMENT, "SEGMENT");
 619:/home/lsk/paparazzi/var/include/messages.h **** 	  trans->put_bytes(trans->impl, dev, DL_TYPE_FLOAT, DL_FORMAT_SCALAR, 4, (void *) _segment_east_1)
 620:/home/lsk/paparazzi/var/include/messages.h **** 	  trans->put_bytes(trans->impl, dev, DL_TYPE_FLOAT, DL_FORMAT_SCALAR, 4, (void *) _segment_north_1
 621:/home/lsk/paparazzi/var/include/messages.h **** 	  trans->put_bytes(trans->impl, dev, DL_TYPE_FLOAT, DL_FORMAT_SCALAR, 4, (void *) _segment_east_2)
 622:/home/lsk/paparazzi/var/include/messages.h **** 	  trans->put_bytes(trans->impl, dev, DL_TYPE_FLOAT, DL_FORMAT_SCALAR, 4, (void *) _segment_north_2
 623:/home/lsk/paparazzi/var/include/messages.h **** 	  trans->end_message(trans->impl, dev);
 624:/home/lsk/paparazzi/var/include/messages.h **** 	} else
 625:/home/lsk/paparazzi/var/include/messages.h **** 	  trans->overrun(trans->impl, dev);
 626:/home/lsk/paparazzi/var/include/messages.h **** }
 627:/home/lsk/paparazzi/var/include/messages.h **** 
 628:/home/lsk/paparazzi/var/include/messages.h **** #define DOWNLINK_SEND_SVINFO(_trans, _dev, chn, SVID, Flags, QI, CNO, Elev, Azim) pprz_msg_send_SVI
 629:/home/lsk/paparazzi/var/include/messages.h **** static inline void pprz_msg_send_SVINFO(struct transport_tx *trans, struct link_device *dev, uint8_
 630:/home/lsk/paparazzi/var/include/messages.h **** 	if (trans->check_available_space(trans->impl, dev, trans->size_of(trans->impl, 0+1+1+1+1+1+1+2 +2 
 631:/home/lsk/paparazzi/var/include/messages.h **** 	  trans->count_bytes(trans->impl, dev, trans->size_of(trans->impl, 0+1+1+1+1+1+1+2 +2 /* msg heade
 632:/home/lsk/paparazzi/var/include/messages.h **** 	  trans->start_message(trans->impl, dev, 0+1+1+1+1+1+1+2 +2 /* msg header overhead */);
 633:/home/lsk/paparazzi/var/include/messages.h **** 	  trans->put_bytes(trans->impl, dev, DL_TYPE_UINT8, DL_FORMAT_SCALAR, 1, &ac_id);
 634:/home/lsk/paparazzi/var/include/messages.h **** 	  trans->put_named_byte(trans->impl, dev, DL_TYPE_UINT8, DL_FORMAT_SCALAR, DL_SVINFO, "SVINFO");
 635:/home/lsk/paparazzi/var/include/messages.h **** 	  trans->put_bytes(trans->impl, dev, DL_TYPE_UINT8, DL_FORMAT_SCALAR, 1, (void *) _chn);
 636:/home/lsk/paparazzi/var/include/messages.h **** 	  trans->put_bytes(trans->impl, dev, DL_TYPE_UINT8, DL_FORMAT_SCALAR, 1, (void *) _SVID);
 637:/home/lsk/paparazzi/var/include/messages.h **** 	  trans->put_bytes(trans->impl, dev, DL_TYPE_UINT8, DL_FORMAT_SCALAR, 1, (void *) _Flags);
 638:/home/lsk/paparazzi/var/include/messages.h **** 	  trans->put_bytes(trans->impl, dev, DL_TYPE_UINT8, DL_FORMAT_SCALAR, 1, (void *) _QI);
 639:/home/lsk/paparazzi/var/include/messages.h **** 	  trans->put_bytes(trans->impl, dev, DL_TYPE_UINT8, DL_FORMAT_SCALAR, 1, (void *) _CNO);
 640:/home/lsk/paparazzi/var/include/messages.h **** 	  trans->put_bytes(trans->impl, dev, DL_TYPE_INT8, DL_FORMAT_SCALAR, 1, (void *) _Elev);
 641:/home/lsk/paparazzi/var/include/messages.h **** 	  trans->put_bytes(trans->impl, dev, DL_TYPE_INT16, DL_FORMAT_SCALAR, 2, (void *) _Azim);
 642:/home/lsk/paparazzi/var/include/messages.h **** 	  trans->end_message(trans->impl, dev);
 643:/home/lsk/paparazzi/var/include/messages.h **** 	} else
 644:/home/lsk/paparazzi/var/include/messages.h **** 	  trans->overrun(trans->impl, dev);
 645:/home/lsk/paparazzi/var/include/messages.h **** }
 646:/home/lsk/paparazzi/var/include/messages.h **** 
 647:/home/lsk/paparazzi/var/include/messages.h **** #define DOWNLINK_SEND_DEBUG(_trans, _dev, nb_msg, msg) pprz_msg_send_DEBUG(&((_trans).trans_tx), &(
 648:/home/lsk/paparazzi/var/include/messages.h **** static inline void pprz_msg_send_DEBUG(struct transport_tx *trans, struct link_device *dev, uint8_t
 649:/home/lsk/paparazzi/var/include/messages.h **** 	if (trans->check_available_space(trans->impl, dev, trans->size_of(trans->impl, 0+1+nb_msg*1 +2 /* 
 650:/home/lsk/paparazzi/var/include/messages.h **** 	  trans->count_bytes(trans->impl, dev, trans->size_of(trans->impl, 0+1+nb_msg*1 +2 /* msg header o
 651:/home/lsk/paparazzi/var/include/messages.h **** 	  trans->start_message(trans->impl, dev, 0+1+nb_msg*1 +2 /* msg header overhead */);
 652:/home/lsk/paparazzi/var/include/messages.h **** 	  trans->put_bytes(trans->impl, dev, DL_TYPE_UINT8, DL_FORMAT_SCALAR, 1, &ac_id);
 653:/home/lsk/paparazzi/var/include/messages.h **** 	  trans->put_named_byte(trans->impl, dev, DL_TYPE_UINT8, DL_FORMAT_SCALAR, DL_DEBUG, "DEBUG");
 654:/home/lsk/paparazzi/var/include/messages.h **** 	  trans->put_bytes(trans->impl, dev, DL_TYPE_ARRAY_LENGTH, DL_FORMAT_SCALAR, 1, (void *) &nb_msg);
 655:/home/lsk/paparazzi/var/include/messages.h **** 	  trans->put_bytes(trans->impl, dev, DL_TYPE_UINT8, DL_FORMAT_ARRAY, 1 * nb_msg, (void *) _msg);
 656:/home/lsk/paparazzi/var/include/messages.h **** 	  trans->end_message(trans->impl, dev);
 657:/home/lsk/paparazzi/var/include/messages.h **** 	} else
 658:/home/lsk/paparazzi/var/include/messages.h **** 	  trans->overrun(trans->impl, dev);
 659:/home/lsk/paparazzi/var/include/messages.h **** }
 660:/home/lsk/paparazzi/var/include/messages.h **** 
 661:/home/lsk/paparazzi/var/include/messages.h **** #define DOWNLINK_SEND_SURVEY(_trans, _dev, east, north, west, south) pprz_msg_send_SURVEY(&((_trans
 662:/home/lsk/paparazzi/var/include/messages.h **** static inline void pprz_msg_send_SURVEY(struct transport_tx *trans, struct link_device *dev, uint8_
 663:/home/lsk/paparazzi/var/include/messages.h **** 	if (trans->check_available_space(trans->impl, dev, trans->size_of(trans->impl, 0+4+4+4+4 +2 /* msg
 664:/home/lsk/paparazzi/var/include/messages.h **** 	  trans->count_bytes(trans->impl, dev, trans->size_of(trans->impl, 0+4+4+4+4 +2 /* msg header over
 665:/home/lsk/paparazzi/var/include/messages.h **** 	  trans->start_message(trans->impl, dev, 0+4+4+4+4 +2 /* msg header overhead */);
 666:/home/lsk/paparazzi/var/include/messages.h **** 	  trans->put_bytes(trans->impl, dev, DL_TYPE_UINT8, DL_FORMAT_SCALAR, 1, &ac_id);
 667:/home/lsk/paparazzi/var/include/messages.h **** 	  trans->put_named_byte(trans->impl, dev, DL_TYPE_UINT8, DL_FORMAT_SCALAR, DL_SURVEY, "SURVEY");
 668:/home/lsk/paparazzi/var/include/messages.h **** 	  trans->put_bytes(trans->impl, dev, DL_TYPE_FLOAT, DL_FORMAT_SCALAR, 4, (void *) _east);
 669:/home/lsk/paparazzi/var/include/messages.h **** 	  trans->put_bytes(trans->impl, dev, DL_TYPE_FLOAT, DL_FORMAT_SCALAR, 4, (void *) _north);
 670:/home/lsk/paparazzi/var/include/messages.h **** 	  trans->put_bytes(trans->impl, dev, DL_TYPE_FLOAT, DL_FORMAT_SCALAR, 4, (void *) _west);
 671:/home/lsk/paparazzi/var/include/messages.h **** 	  trans->put_bytes(trans->impl, dev, DL_TYPE_FLOAT, DL_FORMAT_SCALAR, 4, (void *) _south);
 672:/home/lsk/paparazzi/var/include/messages.h **** 	  trans->end_message(trans->impl, dev);
 673:/home/lsk/paparazzi/var/include/messages.h **** 	} else
 674:/home/lsk/paparazzi/var/include/messages.h **** 	  trans->overrun(trans->impl, dev);
 675:/home/lsk/paparazzi/var/include/messages.h **** }
 676:/home/lsk/paparazzi/var/include/messages.h **** 
 677:/home/lsk/paparazzi/var/include/messages.h **** #define DOWNLINK_SEND_WC_RSSI(_trans, _dev, raw_level) pprz_msg_send_WC_RSSI(&((_trans).trans_tx), 
 678:/home/lsk/paparazzi/var/include/messages.h **** static inline void pprz_msg_send_WC_RSSI(struct transport_tx *trans, struct link_device *dev, uint8
 679:/home/lsk/paparazzi/var/include/messages.h **** 	if (trans->check_available_space(trans->impl, dev, trans->size_of(trans->impl, 0+1 +2 /* msg heade
 680:/home/lsk/paparazzi/var/include/messages.h **** 	  trans->count_bytes(trans->impl, dev, trans->size_of(trans->impl, 0+1 +2 /* msg header overhead *
 681:/home/lsk/paparazzi/var/include/messages.h **** 	  trans->start_message(trans->impl, dev, 0+1 +2 /* msg header overhead */);
 682:/home/lsk/paparazzi/var/include/messages.h **** 	  trans->put_bytes(trans->impl, dev, DL_TYPE_UINT8, DL_FORMAT_SCALAR, 1, &ac_id);
 683:/home/lsk/paparazzi/var/include/messages.h **** 	  trans->put_named_byte(trans->impl, dev, DL_TYPE_UINT8, DL_FORMAT_SCALAR, DL_WC_RSSI, "WC_RSSI");
 684:/home/lsk/paparazzi/var/include/messages.h **** 	  trans->put_bytes(trans->impl, dev, DL_TYPE_UINT8, DL_FORMAT_SCALAR, 1, (void *) _raw_level);
 685:/home/lsk/paparazzi/var/include/messages.h **** 	  trans->end_message(trans->impl, dev);
 686:/home/lsk/paparazzi/var/include/messages.h **** 	} else
 687:/home/lsk/paparazzi/var/include/messages.h **** 	  trans->overrun(trans->impl, dev);
 688:/home/lsk/paparazzi/var/include/messages.h **** }
 689:/home/lsk/paparazzi/var/include/messages.h **** 
 690:/home/lsk/paparazzi/var/include/messages.h **** #define DOWNLINK_SEND_RANGEFINDER(_trans, _dev, range, z_dot, z_dot_sum_err, z_dot_setpoint, z_sum_
 691:/home/lsk/paparazzi/var/include/messages.h **** static inline void pprz_msg_send_RANGEFINDER(struct transport_tx *trans, struct link_device *dev, u
 692:/home/lsk/paparazzi/var/include/messages.h **** 	if (trans->check_available_space(trans->impl, dev, trans->size_of(trans->impl, 0+2+4+4+4+4+4+1 +2 
 693:/home/lsk/paparazzi/var/include/messages.h **** 	  trans->count_bytes(trans->impl, dev, trans->size_of(trans->impl, 0+2+4+4+4+4+4+1 +2 /* msg heade
 694:/home/lsk/paparazzi/var/include/messages.h **** 	  trans->start_message(trans->impl, dev, 0+2+4+4+4+4+4+1 +2 /* msg header overhead */);
 695:/home/lsk/paparazzi/var/include/messages.h **** 	  trans->put_bytes(trans->impl, dev, DL_TYPE_UINT8, DL_FORMAT_SCALAR, 1, &ac_id);
 696:/home/lsk/paparazzi/var/include/messages.h **** 	  trans->put_named_byte(trans->impl, dev, DL_TYPE_UINT8, DL_FORMAT_SCALAR, DL_RANGEFINDER, "RANGEF
 697:/home/lsk/paparazzi/var/include/messages.h **** 	  trans->put_bytes(trans->impl, dev, DL_TYPE_UINT16, DL_FORMAT_SCALAR, 2, (void *) _range);
 698:/home/lsk/paparazzi/var/include/messages.h **** 	  trans->put_bytes(trans->impl, dev, DL_TYPE_FLOAT, DL_FORMAT_SCALAR, 4, (void *) _z_dot);
 699:/home/lsk/paparazzi/var/include/messages.h **** 	  trans->put_bytes(trans->impl, dev, DL_TYPE_FLOAT, DL_FORMAT_SCALAR, 4, (void *) _z_dot_sum_err);
 700:/home/lsk/paparazzi/var/include/messages.h **** 	  trans->put_bytes(trans->impl, dev, DL_TYPE_FLOAT, DL_FORMAT_SCALAR, 4, (void *) _z_dot_setpoint)
 701:/home/lsk/paparazzi/var/include/messages.h **** 	  trans->put_bytes(trans->impl, dev, DL_TYPE_FLOAT, DL_FORMAT_SCALAR, 4, (void *) _z_sum_err);
 702:/home/lsk/paparazzi/var/include/messages.h **** 	  trans->put_bytes(trans->impl, dev, DL_TYPE_FLOAT, DL_FORMAT_SCALAR, 4, (void *) _z_setpoint);
 703:/home/lsk/paparazzi/var/include/messages.h **** 	  trans->put_bytes(trans->impl, dev, DL_TYPE_UINT8, DL_FORMAT_SCALAR, 1, (void *) _flying);
 704:/home/lsk/paparazzi/var/include/messages.h **** 	  trans->end_message(trans->impl, dev);
 705:/home/lsk/paparazzi/var/include/messages.h **** 	} else
 706:/home/lsk/paparazzi/var/include/messages.h **** 	  trans->overrun(trans->impl, dev);
 707:/home/lsk/paparazzi/var/include/messages.h **** }
 708:/home/lsk/paparazzi/var/include/messages.h **** 
 709:/home/lsk/paparazzi/var/include/messages.h **** #define DOWNLINK_SEND_DATALINK_REPORT(_trans, _dev, uplink_lost_time, uplink_nb_msgs, downlink_nb_m
 710:/home/lsk/paparazzi/var/include/messages.h **** static inline void pprz_msg_send_DATALINK_REPORT(struct transport_tx *trans, struct link_device *de
 711:/home/lsk/paparazzi/var/include/messages.h **** 	if (trans->check_available_space(trans->impl, dev, trans->size_of(trans->impl, 0+2+2+2+2+1 +2 /* m
 712:/home/lsk/paparazzi/var/include/messages.h **** 	  trans->count_bytes(trans->impl, dev, trans->size_of(trans->impl, 0+2+2+2+2+1 +2 /* msg header ov
 713:/home/lsk/paparazzi/var/include/messages.h **** 	  trans->start_message(trans->impl, dev, 0+2+2+2+2+1 +2 /* msg header overhead */);
 714:/home/lsk/paparazzi/var/include/messages.h **** 	  trans->put_bytes(trans->impl, dev, DL_TYPE_UINT8, DL_FORMAT_SCALAR, 1, &ac_id);
 715:/home/lsk/paparazzi/var/include/messages.h **** 	  trans->put_named_byte(trans->impl, dev, DL_TYPE_UINT8, DL_FORMAT_SCALAR, DL_DATALINK_REPORT, "DA
 716:/home/lsk/paparazzi/var/include/messages.h **** 	  trans->put_bytes(trans->impl, dev, DL_TYPE_UINT16, DL_FORMAT_SCALAR, 2, (void *) _uplink_lost_ti
 717:/home/lsk/paparazzi/var/include/messages.h **** 	  trans->put_bytes(trans->impl, dev, DL_TYPE_UINT16, DL_FORMAT_SCALAR, 2, (void *) _uplink_nb_msgs
 718:/home/lsk/paparazzi/var/include/messages.h **** 	  trans->put_bytes(trans->impl, dev, DL_TYPE_UINT16, DL_FORMAT_SCALAR, 2, (void *) _downlink_nb_ms
 719:/home/lsk/paparazzi/var/include/messages.h **** 	  trans->put_bytes(trans->impl, dev, DL_TYPE_UINT16, DL_FORMAT_SCALAR, 2, (void *) _downlink_rate)
 720:/home/lsk/paparazzi/var/include/messages.h **** 	  trans->put_bytes(trans->impl, dev, DL_TYPE_UINT8, DL_FORMAT_SCALAR, 1, (void *) _downlink_ovrn);
 721:/home/lsk/paparazzi/var/include/messages.h **** 	  trans->end_message(trans->impl, dev);
 722:/home/lsk/paparazzi/var/include/messages.h **** 	} else
 723:/home/lsk/paparazzi/var/include/messages.h **** 	  trans->overrun(trans->impl, dev);
 724:/home/lsk/paparazzi/var/include/messages.h **** }
 725:/home/lsk/paparazzi/var/include/messages.h **** 
 726:/home/lsk/paparazzi/var/include/messages.h **** #define DOWNLINK_SEND_DL_VALUE(_trans, _dev, index, value) pprz_msg_send_DL_VALUE(&((_trans).trans_
 727:/home/lsk/paparazzi/var/include/messages.h **** static inline void pprz_msg_send_DL_VALUE(struct transport_tx *trans, struct link_device *dev, uint
 728:/home/lsk/paparazzi/var/include/messages.h **** 	if (trans->check_available_space(trans->impl, dev, trans->size_of(trans->impl, 0+1+4 +2 /* msg hea
 729:/home/lsk/paparazzi/var/include/messages.h **** 	  trans->count_bytes(trans->impl, dev, trans->size_of(trans->impl, 0+1+4 +2 /* msg header overhead
 730:/home/lsk/paparazzi/var/include/messages.h **** 	  trans->start_message(trans->impl, dev, 0+1+4 +2 /* msg header overhead */);
 731:/home/lsk/paparazzi/var/include/messages.h **** 	  trans->put_bytes(trans->impl, dev, DL_TYPE_UINT8, DL_FORMAT_SCALAR, 1, &ac_id);
 732:/home/lsk/paparazzi/var/include/messages.h **** 	  trans->put_named_byte(trans->impl, dev, DL_TYPE_UINT8, DL_FORMAT_SCALAR, DL_DL_VALUE, "DL_VALUE"
 733:/home/lsk/paparazzi/var/include/messages.h **** 	  trans->put_bytes(trans->impl, dev, DL_TYPE_UINT8, DL_FORMAT_SCALAR, 1, (void *) _index);
 734:/home/lsk/paparazzi/var/include/messages.h **** 	  trans->put_bytes(trans->impl, dev, DL_TYPE_FLOAT, DL_FORMAT_SCALAR, 4, (void *) _value);
 735:/home/lsk/paparazzi/var/include/messages.h **** 	  trans->end_message(trans->impl, dev);
 736:/home/lsk/paparazzi/var/include/messages.h **** 	} else
 737:/home/lsk/paparazzi/var/include/messages.h **** 	  trans->overrun(trans->impl, dev);
 738:/home/lsk/paparazzi/var/include/messages.h **** }
 739:/home/lsk/paparazzi/var/include/messages.h **** 
 740:/home/lsk/paparazzi/var/include/messages.h **** #define DOWNLINK_SEND_MARK(_trans, _dev, ac_id, lat, long) pprz_msg_send_MARK(&((_trans).trans_tx),
 741:/home/lsk/paparazzi/var/include/messages.h **** static inline void pprz_msg_send_MARK(struct transport_tx *trans, struct link_device *dev, uint8_t 
 742:/home/lsk/paparazzi/var/include/messages.h **** 	if (trans->check_available_space(trans->impl, dev, trans->size_of(trans->impl, 0+1+4+4 +2 /* msg h
 743:/home/lsk/paparazzi/var/include/messages.h **** 	  trans->count_bytes(trans->impl, dev, trans->size_of(trans->impl, 0+1+4+4 +2 /* msg header overhe
 744:/home/lsk/paparazzi/var/include/messages.h **** 	  trans->start_message(trans->impl, dev, 0+1+4+4 +2 /* msg header overhead */);
 745:/home/lsk/paparazzi/var/include/messages.h **** 	  trans->put_bytes(trans->impl, dev, DL_TYPE_UINT8, DL_FORMAT_SCALAR, 1, &ac_id);
 746:/home/lsk/paparazzi/var/include/messages.h **** 	  trans->put_named_byte(trans->impl, dev, DL_TYPE_UINT8, DL_FORMAT_SCALAR, DL_MARK, "MARK");
 747:/home/lsk/paparazzi/var/include/messages.h **** 	  trans->put_bytes(trans->impl, dev, DL_TYPE_UINT8, DL_FORMAT_SCALAR, 1, (void *) _ac_id);
 748:/home/lsk/paparazzi/var/include/messages.h **** 	  trans->put_bytes(trans->impl, dev, DL_TYPE_FLOAT, DL_FORMAT_SCALAR, 4, (void *) _lat);
 749:/home/lsk/paparazzi/var/include/messages.h **** 	  trans->put_bytes(trans->impl, dev, DL_TYPE_FLOAT, DL_FORMAT_SCALAR, 4, (void *) _long);
 750:/home/lsk/paparazzi/var/include/messages.h **** 	  trans->end_message(trans->impl, dev);
 751:/home/lsk/paparazzi/var/include/messages.h **** 	} else
 752:/home/lsk/paparazzi/var/include/messages.h **** 	  trans->overrun(trans->impl, dev);
 753:/home/lsk/paparazzi/var/include/messages.h **** }
 754:/home/lsk/paparazzi/var/include/messages.h **** 
 755:/home/lsk/paparazzi/var/include/messages.h **** #define DOWNLINK_SEND_SYS_MON(_trans, _dev, periodic_time, periodic_time_min, periodic_time_max, pe
 756:/home/lsk/paparazzi/var/include/messages.h **** static inline void pprz_msg_send_SYS_MON(struct transport_tx *trans, struct link_device *dev, uint8
 757:/home/lsk/paparazzi/var/include/messages.h **** 	if (trans->check_available_space(trans->impl, dev, trans->size_of(trans->impl, 0+2+2+2+2+2+2+2+1 +
 758:/home/lsk/paparazzi/var/include/messages.h **** 	  trans->count_bytes(trans->impl, dev, trans->size_of(trans->impl, 0+2+2+2+2+2+2+2+1 +2 /* msg hea
 759:/home/lsk/paparazzi/var/include/messages.h **** 	  trans->start_message(trans->impl, dev, 0+2+2+2+2+2+2+2+1 +2 /* msg header overhead */);
 760:/home/lsk/paparazzi/var/include/messages.h **** 	  trans->put_bytes(trans->impl, dev, DL_TYPE_UINT8, DL_FORMAT_SCALAR, 1, &ac_id);
 761:/home/lsk/paparazzi/var/include/messages.h **** 	  trans->put_named_byte(trans->impl, dev, DL_TYPE_UINT8, DL_FORMAT_SCALAR, DL_SYS_MON, "SYS_MON");
 762:/home/lsk/paparazzi/var/include/messages.h **** 	  trans->put_bytes(trans->impl, dev, DL_TYPE_UINT16, DL_FORMAT_SCALAR, 2, (void *) _periodic_time)
 763:/home/lsk/paparazzi/var/include/messages.h **** 	  trans->put_bytes(trans->impl, dev, DL_TYPE_UINT16, DL_FORMAT_SCALAR, 2, (void *) _periodic_time_
 764:/home/lsk/paparazzi/var/include/messages.h **** 	  trans->put_bytes(trans->impl, dev, DL_TYPE_UINT16, DL_FORMAT_SCALAR, 2, (void *) _periodic_time_
 765:/home/lsk/paparazzi/var/include/messages.h **** 	  trans->put_bytes(trans->impl, dev, DL_TYPE_UINT16, DL_FORMAT_SCALAR, 2, (void *) _periodic_cycle
 766:/home/lsk/paparazzi/var/include/messages.h **** 	  trans->put_bytes(trans->impl, dev, DL_TYPE_UINT16, DL_FORMAT_SCALAR, 2, (void *) _periodic_cycle
 767:/home/lsk/paparazzi/var/include/messages.h **** 	  trans->put_bytes(trans->impl, dev, DL_TYPE_UINT16, DL_FORMAT_SCALAR, 2, (void *) _periodic_cycle
 768:/home/lsk/paparazzi/var/include/messages.h **** 	  trans->put_bytes(trans->impl, dev, DL_TYPE_UINT16, DL_FORMAT_SCALAR, 2, (void *) _event_number);
 769:/home/lsk/paparazzi/var/include/messages.h **** 	  trans->put_bytes(trans->impl, dev, DL_TYPE_UINT8, DL_FORMAT_SCALAR, 1, (void *) _cpu_load);
 770:/home/lsk/paparazzi/var/include/messages.h **** 	  trans->end_message(trans->impl, dev);
 771:/home/lsk/paparazzi/var/include/messages.h **** 	} else
 772:/home/lsk/paparazzi/var/include/messages.h **** 	  trans->overrun(trans->impl, dev);
 773:/home/lsk/paparazzi/var/include/messages.h **** }
 774:/home/lsk/paparazzi/var/include/messages.h **** 
 775:/home/lsk/paparazzi/var/include/messages.h **** #define DOWNLINK_SEND_MOTOR(_trans, _dev, rpm, current) pprz_msg_send_MOTOR(&((_trans).trans_tx), &
 776:/home/lsk/paparazzi/var/include/messages.h **** static inline void pprz_msg_send_MOTOR(struct transport_tx *trans, struct link_device *dev, uint8_t
 777:/home/lsk/paparazzi/var/include/messages.h **** 	if (trans->check_available_space(trans->impl, dev, trans->size_of(trans->impl, 0+2+4 +2 /* msg hea
 778:/home/lsk/paparazzi/var/include/messages.h **** 	  trans->count_bytes(trans->impl, dev, trans->size_of(trans->impl, 0+2+4 +2 /* msg header overhead
 779:/home/lsk/paparazzi/var/include/messages.h **** 	  trans->start_message(trans->impl, dev, 0+2+4 +2 /* msg header overhead */);
 780:/home/lsk/paparazzi/var/include/messages.h **** 	  trans->put_bytes(trans->impl, dev, DL_TYPE_UINT8, DL_FORMAT_SCALAR, 1, &ac_id);
 781:/home/lsk/paparazzi/var/include/messages.h **** 	  trans->put_named_byte(trans->impl, dev, DL_TYPE_UINT8, DL_FORMAT_SCALAR, DL_MOTOR, "MOTOR");
 782:/home/lsk/paparazzi/var/include/messages.h **** 	  trans->put_bytes(trans->impl, dev, DL_TYPE_UINT16, DL_FORMAT_SCALAR, 2, (void *) _rpm);
 783:/home/lsk/paparazzi/var/include/messages.h **** 	  trans->put_bytes(trans->impl, dev, DL_TYPE_INT32, DL_FORMAT_SCALAR, 4, (void *) _current);
 784:/home/lsk/paparazzi/var/include/messages.h **** 	  trans->end_message(trans->impl, dev);
 785:/home/lsk/paparazzi/var/include/messages.h **** 	} else
 786:/home/lsk/paparazzi/var/include/messages.h **** 	  trans->overrun(trans->impl, dev);
 787:/home/lsk/paparazzi/var/include/messages.h **** }
 788:/home/lsk/paparazzi/var/include/messages.h **** 
 789:/home/lsk/paparazzi/var/include/messages.h **** #define DOWNLINK_SEND_WP_MOVED(_trans, _dev, wp_id, utm_east, utm_north, alt, utm_zone) pprz_msg_se
 790:/home/lsk/paparazzi/var/include/messages.h **** static inline void pprz_msg_send_WP_MOVED(struct transport_tx *trans, struct link_device *dev, uint
 791:/home/lsk/paparazzi/var/include/messages.h **** 	if (trans->check_available_space(trans->impl, dev, trans->size_of(trans->impl, 0+1+4+4+4+1 +2 /* m
 792:/home/lsk/paparazzi/var/include/messages.h **** 	  trans->count_bytes(trans->impl, dev, trans->size_of(trans->impl, 0+1+4+4+4+1 +2 /* msg header ov
 793:/home/lsk/paparazzi/var/include/messages.h **** 	  trans->start_message(trans->impl, dev, 0+1+4+4+4+1 +2 /* msg header overhead */);
 794:/home/lsk/paparazzi/var/include/messages.h **** 	  trans->put_bytes(trans->impl, dev, DL_TYPE_UINT8, DL_FORMAT_SCALAR, 1, &ac_id);
 795:/home/lsk/paparazzi/var/include/messages.h **** 	  trans->put_named_byte(trans->impl, dev, DL_TYPE_UINT8, DL_FORMAT_SCALAR, DL_WP_MOVED, "WP_MOVED"
 796:/home/lsk/paparazzi/var/include/messages.h **** 	  trans->put_bytes(trans->impl, dev, DL_TYPE_UINT8, DL_FORMAT_SCALAR, 1, (void *) _wp_id);
 797:/home/lsk/paparazzi/var/include/messages.h **** 	  trans->put_bytes(trans->impl, dev, DL_TYPE_FLOAT, DL_FORMAT_SCALAR, 4, (void *) _utm_east);
 798:/home/lsk/paparazzi/var/include/messages.h **** 	  trans->put_bytes(trans->impl, dev, DL_TYPE_FLOAT, DL_FORMAT_SCALAR, 4, (void *) _utm_north);
 799:/home/lsk/paparazzi/var/include/messages.h **** 	  trans->put_bytes(trans->impl, dev, DL_TYPE_FLOAT, DL_FORMAT_SCALAR, 4, (void *) _alt);
 800:/home/lsk/paparazzi/var/include/messages.h **** 	  trans->put_bytes(trans->impl, dev, DL_TYPE_UINT8, DL_FORMAT_SCALAR, 1, (void *) _utm_zone);
 801:/home/lsk/paparazzi/var/include/messages.h **** 	  trans->end_message(trans->impl, dev);
 802:/home/lsk/paparazzi/var/include/messages.h **** 	} else
 803:/home/lsk/paparazzi/var/include/messages.h **** 	  trans->overrun(trans->impl, dev);
 804:/home/lsk/paparazzi/var/include/messages.h **** }
 805:/home/lsk/paparazzi/var/include/messages.h **** 
 806:/home/lsk/paparazzi/var/include/messages.h **** #define DOWNLINK_SEND_MKK(_trans, _dev, nr, rpm, current, temp) pprz_msg_send_MKK(&((_trans).trans_
 807:/home/lsk/paparazzi/var/include/messages.h **** static inline void pprz_msg_send_MKK(struct transport_tx *trans, struct link_device *dev, uint8_t a
 808:/home/lsk/paparazzi/var/include/messages.h **** 	if (trans->check_available_space(trans->impl, dev, trans->size_of(trans->impl, 0+1+1+1+1 +2 /* msg
 809:/home/lsk/paparazzi/var/include/messages.h **** 	  trans->count_bytes(trans->impl, dev, trans->size_of(trans->impl, 0+1+1+1+1 +2 /* msg header over
 810:/home/lsk/paparazzi/var/include/messages.h **** 	  trans->start_message(trans->impl, dev, 0+1+1+1+1 +2 /* msg header overhead */);
 811:/home/lsk/paparazzi/var/include/messages.h **** 	  trans->put_bytes(trans->impl, dev, DL_TYPE_UINT8, DL_FORMAT_SCALAR, 1, &ac_id);
 812:/home/lsk/paparazzi/var/include/messages.h **** 	  trans->put_named_byte(trans->impl, dev, DL_TYPE_UINT8, DL_FORMAT_SCALAR, DL_MKK, "MKK");
 813:/home/lsk/paparazzi/var/include/messages.h **** 	  trans->put_bytes(trans->impl, dev, DL_TYPE_UINT8, DL_FORMAT_SCALAR, 1, (void *) _nr);
 814:/home/lsk/paparazzi/var/include/messages.h **** 	  trans->put_bytes(trans->impl, dev, DL_TYPE_UINT8, DL_FORMAT_SCALAR, 1, (void *) _rpm);
 815:/home/lsk/paparazzi/var/include/messages.h **** 	  trans->put_bytes(trans->impl, dev, DL_TYPE_UINT8, DL_FORMAT_SCALAR, 1, (void *) _current);
 816:/home/lsk/paparazzi/var/include/messages.h **** 	  trans->put_bytes(trans->impl, dev, DL_TYPE_INT8, DL_FORMAT_SCALAR, 1, (void *) _temp);
 817:/home/lsk/paparazzi/var/include/messages.h **** 	  trans->end_message(trans->impl, dev);
 818:/home/lsk/paparazzi/var/include/messages.h **** 	} else
 819:/home/lsk/paparazzi/var/include/messages.h **** 	  trans->overrun(trans->impl, dev);
 820:/home/lsk/paparazzi/var/include/messages.h **** }
 821:/home/lsk/paparazzi/var/include/messages.h **** 
 822:/home/lsk/paparazzi/var/include/messages.h **** #define DOWNLINK_SEND_ENERGY(_trans, _dev, bat, amp, energy, power) pprz_msg_send_ENERGY(&((_trans)
 823:/home/lsk/paparazzi/var/include/messages.h **** static inline void pprz_msg_send_ENERGY(struct transport_tx *trans, struct link_device *dev, uint8_
 824:/home/lsk/paparazzi/var/include/messages.h **** 	if (trans->check_available_space(trans->impl, dev, trans->size_of(trans->impl, 0+4+4+2+4 +2 /* msg
 825:/home/lsk/paparazzi/var/include/messages.h **** 	  trans->count_bytes(trans->impl, dev, trans->size_of(trans->impl, 0+4+4+2+4 +2 /* msg header over
 826:/home/lsk/paparazzi/var/include/messages.h **** 	  trans->start_message(trans->impl, dev, 0+4+4+2+4 +2 /* msg header overhead */);
 827:/home/lsk/paparazzi/var/include/messages.h **** 	  trans->put_bytes(trans->impl, dev, DL_TYPE_UINT8, DL_FORMAT_SCALAR, 1, &ac_id);
 828:/home/lsk/paparazzi/var/include/messages.h **** 	  trans->put_named_byte(trans->impl, dev, DL_TYPE_UINT8, DL_FORMAT_SCALAR, DL_ENERGY, "ENERGY");
 829:/home/lsk/paparazzi/var/include/messages.h **** 	  trans->put_bytes(trans->impl, dev, DL_TYPE_FLOAT, DL_FORMAT_SCALAR, 4, (void *) _bat);
 830:/home/lsk/paparazzi/var/include/messages.h **** 	  trans->put_bytes(trans->impl, dev, DL_TYPE_FLOAT, DL_FORMAT_SCALAR, 4, (void *) _amp);
 831:/home/lsk/paparazzi/var/include/messages.h **** 	  trans->put_bytes(trans->impl, dev, DL_TYPE_UINT16, DL_FORMAT_SCALAR, 2, (void *) _energy);
 832:/home/lsk/paparazzi/var/include/messages.h **** 	  trans->put_bytes(trans->impl, dev, DL_TYPE_FLOAT, DL_FORMAT_SCALAR, 4, (void *) _power);
 833:/home/lsk/paparazzi/var/include/messages.h **** 	  trans->end_message(trans->impl, dev);
 834:/home/lsk/paparazzi/var/include/messages.h **** 	} else
 835:/home/lsk/paparazzi/var/include/messages.h **** 	  trans->overrun(trans->impl, dev);
 836:/home/lsk/paparazzi/var/include/messages.h **** }
 837:/home/lsk/paparazzi/var/include/messages.h **** 
 838:/home/lsk/paparazzi/var/include/messages.h **** #define DOWNLINK_SEND_BARO_BMP85_CALIB(_trans, _dev, a1, a2, a3, a4, a5, a6, b1, b2, mb, mc, md) pp
 839:/home/lsk/paparazzi/var/include/messages.h **** static inline void pprz_msg_send_BARO_BMP85_CALIB(struct transport_tx *trans, struct link_device *d
 840:/home/lsk/paparazzi/var/include/messages.h **** 	if (trans->check_available_space(trans->impl, dev, trans->size_of(trans->impl, 0+2+2+2+2+2+2+2+2+2
 841:/home/lsk/paparazzi/var/include/messages.h **** 	  trans->count_bytes(trans->impl, dev, trans->size_of(trans->impl, 0+2+2+2+2+2+2+2+2+2+2+2 +2 /* m
 842:/home/lsk/paparazzi/var/include/messages.h **** 	  trans->start_message(trans->impl, dev, 0+2+2+2+2+2+2+2+2+2+2+2 +2 /* msg header overhead */);
 843:/home/lsk/paparazzi/var/include/messages.h **** 	  trans->put_bytes(trans->impl, dev, DL_TYPE_UINT8, DL_FORMAT_SCALAR, 1, &ac_id);
 844:/home/lsk/paparazzi/var/include/messages.h **** 	  trans->put_named_byte(trans->impl, dev, DL_TYPE_UINT8, DL_FORMAT_SCALAR, DL_BARO_BMP85_CALIB, "B
 845:/home/lsk/paparazzi/var/include/messages.h **** 	  trans->put_bytes(trans->impl, dev, DL_TYPE_INT16, DL_FORMAT_SCALAR, 2, (void *) _a1);
 846:/home/lsk/paparazzi/var/include/messages.h **** 	  trans->put_bytes(trans->impl, dev, DL_TYPE_INT16, DL_FORMAT_SCALAR, 2, (void *) _a2);
 847:/home/lsk/paparazzi/var/include/messages.h **** 	  trans->put_bytes(trans->impl, dev, DL_TYPE_INT16, DL_FORMAT_SCALAR, 2, (void *) _a3);
 848:/home/lsk/paparazzi/var/include/messages.h **** 	  trans->put_bytes(trans->impl, dev, DL_TYPE_UINT16, DL_FORMAT_SCALAR, 2, (void *) _a4);
 849:/home/lsk/paparazzi/var/include/messages.h **** 	  trans->put_bytes(trans->impl, dev, DL_TYPE_UINT16, DL_FORMAT_SCALAR, 2, (void *) _a5);
 850:/home/lsk/paparazzi/var/include/messages.h **** 	  trans->put_bytes(trans->impl, dev, DL_TYPE_UINT16, DL_FORMAT_SCALAR, 2, (void *) _a6);
 851:/home/lsk/paparazzi/var/include/messages.h **** 	  trans->put_bytes(trans->impl, dev, DL_TYPE_INT16, DL_FORMAT_SCALAR, 2, (void *) _b1);
 852:/home/lsk/paparazzi/var/include/messages.h **** 	  trans->put_bytes(trans->impl, dev, DL_TYPE_INT16, DL_FORMAT_SCALAR, 2, (void *) _b2);
 853:/home/lsk/paparazzi/var/include/messages.h **** 	  trans->put_bytes(trans->impl, dev, DL_TYPE_INT16, DL_FORMAT_SCALAR, 2, (void *) _mb);
 854:/home/lsk/paparazzi/var/include/messages.h **** 	  trans->put_bytes(trans->impl, dev, DL_TYPE_INT16, DL_FORMAT_SCALAR, 2, (void *) _mc);
 855:/home/lsk/paparazzi/var/include/messages.h **** 	  trans->put_bytes(trans->impl, dev, DL_TYPE_INT16, DL_FORMAT_SCALAR, 2, (void *) _md);
 856:/home/lsk/paparazzi/var/include/messages.h **** 	  trans->end_message(trans->impl, dev);
 857:/home/lsk/paparazzi/var/include/messages.h **** 	} else
 858:/home/lsk/paparazzi/var/include/messages.h **** 	  trans->overrun(trans->impl, dev);
 859:/home/lsk/paparazzi/var/include/messages.h **** }
 860:/home/lsk/paparazzi/var/include/messages.h **** 
 861:/home/lsk/paparazzi/var/include/messages.h **** #define DOWNLINK_SEND_BARO_BMP85(_trans, _dev, UT, UP, P, T, MSL) pprz_msg_send_BARO_BMP85(&((_tran
 862:/home/lsk/paparazzi/var/include/messages.h **** static inline void pprz_msg_send_BARO_BMP85(struct transport_tx *trans, struct link_device *dev, ui
 863:/home/lsk/paparazzi/var/include/messages.h **** 	if (trans->check_available_space(trans->impl, dev, trans->size_of(trans->impl, 0+4+4+4+4+4 +2 /* m
 864:/home/lsk/paparazzi/var/include/messages.h **** 	  trans->count_bytes(trans->impl, dev, trans->size_of(trans->impl, 0+4+4+4+4+4 +2 /* msg header ov
 865:/home/lsk/paparazzi/var/include/messages.h **** 	  trans->start_message(trans->impl, dev, 0+4+4+4+4+4 +2 /* msg header overhead */);
 866:/home/lsk/paparazzi/var/include/messages.h **** 	  trans->put_bytes(trans->impl, dev, DL_TYPE_UINT8, DL_FORMAT_SCALAR, 1, &ac_id);
 867:/home/lsk/paparazzi/var/include/messages.h **** 	  trans->put_named_byte(trans->impl, dev, DL_TYPE_UINT8, DL_FORMAT_SCALAR, DL_BARO_BMP85, "BARO_BM
 868:/home/lsk/paparazzi/var/include/messages.h **** 	  trans->put_bytes(trans->impl, dev, DL_TYPE_INT32, DL_FORMAT_SCALAR, 4, (void *) _UT);
 869:/home/lsk/paparazzi/var/include/messages.h **** 	  trans->put_bytes(trans->impl, dev, DL_TYPE_INT32, DL_FORMAT_SCALAR, 4, (void *) _UP);
 870:/home/lsk/paparazzi/var/include/messages.h **** 	  trans->put_bytes(trans->impl, dev, DL_TYPE_UINT32, DL_FORMAT_SCALAR, 4, (void *) _P);
 871:/home/lsk/paparazzi/var/include/messages.h **** 	  trans->put_bytes(trans->impl, dev, DL_TYPE_FLOAT, DL_FORMAT_SCALAR, 4, (void *) _T);
 872:/home/lsk/paparazzi/var/include/messages.h **** 	  trans->put_bytes(trans->impl, dev, DL_TYPE_FLOAT, DL_FORMAT_SCALAR, 4, (void *) _MSL);
 873:/home/lsk/paparazzi/var/include/messages.h **** 	  trans->end_message(trans->impl, dev);
 874:/home/lsk/paparazzi/var/include/messages.h **** 	} else
 875:/home/lsk/paparazzi/var/include/messages.h **** 	  trans->overrun(trans->impl, dev);
 876:/home/lsk/paparazzi/var/include/messages.h **** }
 877:/home/lsk/paparazzi/var/include/messages.h **** 
 878:/home/lsk/paparazzi/var/include/messages.h **** #define DOWNLINK_SEND_SPEED_LOOP(_trans, _dev, ve_set_point, ve, vn_set_point, vn, north_sp, east_s
 879:/home/lsk/paparazzi/var/include/messages.h **** static inline void pprz_msg_send_SPEED_LOOP(struct transport_tx *trans, struct link_device *dev, ui
 880:/home/lsk/paparazzi/var/include/messages.h **** 	if (trans->check_available_space(trans->impl, dev, trans->size_of(trans->impl, 0+4+4+4+4+4+4 +2 /*
 881:/home/lsk/paparazzi/var/include/messages.h **** 	  trans->count_bytes(trans->impl, dev, trans->size_of(trans->impl, 0+4+4+4+4+4+4 +2 /* msg header 
 882:/home/lsk/paparazzi/var/include/messages.h **** 	  trans->start_message(trans->impl, dev, 0+4+4+4+4+4+4 +2 /* msg header overhead */);
 883:/home/lsk/paparazzi/var/include/messages.h **** 	  trans->put_bytes(trans->impl, dev, DL_TYPE_UINT8, DL_FORMAT_SCALAR, 1, &ac_id);
 884:/home/lsk/paparazzi/var/include/messages.h **** 	  trans->put_named_byte(trans->impl, dev, DL_TYPE_UINT8, DL_FORMAT_SCALAR, DL_SPEED_LOOP, "SPEED_L
 885:/home/lsk/paparazzi/var/include/messages.h **** 	  trans->put_bytes(trans->impl, dev, DL_TYPE_FLOAT, DL_FORMAT_SCALAR, 4, (void *) _ve_set_point);
 886:/home/lsk/paparazzi/var/include/messages.h **** 	  trans->put_bytes(trans->impl, dev, DL_TYPE_FLOAT, DL_FORMAT_SCALAR, 4, (void *) _ve);
 887:/home/lsk/paparazzi/var/include/messages.h **** 	  trans->put_bytes(trans->impl, dev, DL_TYPE_FLOAT, DL_FORMAT_SCALAR, 4, (void *) _vn_set_point);
 888:/home/lsk/paparazzi/var/include/messages.h **** 	  trans->put_bytes(trans->impl, dev, DL_TYPE_FLOAT, DL_FORMAT_SCALAR, 4, (void *) _vn);
 889:/home/lsk/paparazzi/var/include/messages.h **** 	  trans->put_bytes(trans->impl, dev, DL_TYPE_FLOAT, DL_FORMAT_SCALAR, 4, (void *) _north_sp);
 890:/home/lsk/paparazzi/var/include/messages.h **** 	  trans->put_bytes(trans->impl, dev, DL_TYPE_FLOAT, DL_FORMAT_SCALAR, 4, (void *) _east_sp);
 891:/home/lsk/paparazzi/var/include/messages.h **** 	  trans->end_message(trans->impl, dev);
 892:/home/lsk/paparazzi/var/include/messages.h **** 	} else
 893:/home/lsk/paparazzi/var/include/messages.h **** 	  trans->overrun(trans->impl, dev);
 894:/home/lsk/paparazzi/var/include/messages.h **** }
 895:/home/lsk/paparazzi/var/include/messages.h **** 
 896:/home/lsk/paparazzi/var/include/messages.h **** #define DOWNLINK_SEND_ALT_KALMAN(_trans, _dev, p00, p01, p10, p11) pprz_msg_send_ALT_KALMAN(&((_tra
 897:/home/lsk/paparazzi/var/include/messages.h **** static inline void pprz_msg_send_ALT_KALMAN(struct transport_tx *trans, struct link_device *dev, ui
 898:/home/lsk/paparazzi/var/include/messages.h **** 	if (trans->check_available_space(trans->impl, dev, trans->size_of(trans->impl, 0+4+4+4+4 +2 /* msg
 899:/home/lsk/paparazzi/var/include/messages.h **** 	  trans->count_bytes(trans->impl, dev, trans->size_of(trans->impl, 0+4+4+4+4 +2 /* msg header over
 900:/home/lsk/paparazzi/var/include/messages.h **** 	  trans->start_message(trans->impl, dev, 0+4+4+4+4 +2 /* msg header overhead */);
 901:/home/lsk/paparazzi/var/include/messages.h **** 	  trans->put_bytes(trans->impl, dev, DL_TYPE_UINT8, DL_FORMAT_SCALAR, 1, &ac_id);
 902:/home/lsk/paparazzi/var/include/messages.h **** 	  trans->put_named_byte(trans->impl, dev, DL_TYPE_UINT8, DL_FORMAT_SCALAR, DL_ALT_KALMAN, "ALT_KAL
 903:/home/lsk/paparazzi/var/include/messages.h **** 	  trans->put_bytes(trans->impl, dev, DL_TYPE_FLOAT, DL_FORMAT_SCALAR, 4, (void *) _p00);
 904:/home/lsk/paparazzi/var/include/messages.h **** 	  trans->put_bytes(trans->impl, dev, DL_TYPE_FLOAT, DL_FORMAT_SCALAR, 4, (void *) _p01);
 905:/home/lsk/paparazzi/var/include/messages.h **** 	  trans->put_bytes(trans->impl, dev, DL_TYPE_FLOAT, DL_FORMAT_SCALAR, 4, (void *) _p10);
 906:/home/lsk/paparazzi/var/include/messages.h **** 	  trans->put_bytes(trans->impl, dev, DL_TYPE_FLOAT, DL_FORMAT_SCALAR, 4, (void *) _p11);
 907:/home/lsk/paparazzi/var/include/messages.h **** 	  trans->end_message(trans->impl, dev);
 908:/home/lsk/paparazzi/var/include/messages.h **** 	} else
 909:/home/lsk/paparazzi/var/include/messages.h **** 	  trans->overrun(trans->impl, dev);
 910:/home/lsk/paparazzi/var/include/messages.h **** }
 911:/home/lsk/paparazzi/var/include/messages.h **** 
 912:/home/lsk/paparazzi/var/include/messages.h **** #define DOWNLINK_SEND_ESTIMATOR(_trans, _dev, z, z_dot) pprz_msg_send_ESTIMATOR(&((_trans).trans_tx
 913:/home/lsk/paparazzi/var/include/messages.h **** static inline void pprz_msg_send_ESTIMATOR(struct transport_tx *trans, struct link_device *dev, uin
 914:/home/lsk/paparazzi/var/include/messages.h **** 	if (trans->check_available_space(trans->impl, dev, trans->size_of(trans->impl, 0+4+4 +2 /* msg hea
 915:/home/lsk/paparazzi/var/include/messages.h **** 	  trans->count_bytes(trans->impl, dev, trans->size_of(trans->impl, 0+4+4 +2 /* msg header overhead
 916:/home/lsk/paparazzi/var/include/messages.h **** 	  trans->start_message(trans->impl, dev, 0+4+4 +2 /* msg header overhead */);
 917:/home/lsk/paparazzi/var/include/messages.h **** 	  trans->put_bytes(trans->impl, dev, DL_TYPE_UINT8, DL_FORMAT_SCALAR, 1, &ac_id);
 918:/home/lsk/paparazzi/var/include/messages.h **** 	  trans->put_named_byte(trans->impl, dev, DL_TYPE_UINT8, DL_FORMAT_SCALAR, DL_ESTIMATOR, "ESTIMATO
 919:/home/lsk/paparazzi/var/include/messages.h **** 	  trans->put_bytes(trans->impl, dev, DL_TYPE_FLOAT, DL_FORMAT_SCALAR, 4, (void *) _z);
 920:/home/lsk/paparazzi/var/include/messages.h **** 	  trans->put_bytes(trans->impl, dev, DL_TYPE_FLOAT, DL_FORMAT_SCALAR, 4, (void *) _z_dot);
 921:/home/lsk/paparazzi/var/include/messages.h **** 	  trans->end_message(trans->impl, dev);
 922:/home/lsk/paparazzi/var/include/messages.h **** 	} else
 923:/home/lsk/paparazzi/var/include/messages.h **** 	  trans->overrun(trans->impl, dev);
 924:/home/lsk/paparazzi/var/include/messages.h **** }
 925:/home/lsk/paparazzi/var/include/messages.h **** 
 926:/home/lsk/paparazzi/var/include/messages.h **** #define DOWNLINK_SEND_TUNE_ROLL(_trans, _dev, p, phi, phi_sp) pprz_msg_send_TUNE_ROLL(&((_trans).tr
 927:/home/lsk/paparazzi/var/include/messages.h **** static inline void pprz_msg_send_TUNE_ROLL(struct transport_tx *trans, struct link_device *dev, uin
 928:/home/lsk/paparazzi/var/include/messages.h **** 	if (trans->check_available_space(trans->impl, dev, trans->size_of(trans->impl, 0+4+4+4 +2 /* msg h
 929:/home/lsk/paparazzi/var/include/messages.h **** 	  trans->count_bytes(trans->impl, dev, trans->size_of(trans->impl, 0+4+4+4 +2 /* msg header overhe
 930:/home/lsk/paparazzi/var/include/messages.h **** 	  trans->start_message(trans->impl, dev, 0+4+4+4 +2 /* msg header overhead */);
 931:/home/lsk/paparazzi/var/include/messages.h **** 	  trans->put_bytes(trans->impl, dev, DL_TYPE_UINT8, DL_FORMAT_SCALAR, 1, &ac_id);
 932:/home/lsk/paparazzi/var/include/messages.h **** 	  trans->put_named_byte(trans->impl, dev, DL_TYPE_UINT8, DL_FORMAT_SCALAR, DL_TUNE_ROLL, "TUNE_ROL
 933:/home/lsk/paparazzi/var/include/messages.h **** 	  trans->put_bytes(trans->impl, dev, DL_TYPE_FLOAT, DL_FORMAT_SCALAR, 4, (void *) _p);
 934:/home/lsk/paparazzi/var/include/messages.h **** 	  trans->put_bytes(trans->impl, dev, DL_TYPE_FLOAT, DL_FORMAT_SCALAR, 4, (void *) _phi);
 935:/home/lsk/paparazzi/var/include/messages.h **** 	  trans->put_bytes(trans->impl, dev, DL_TYPE_FLOAT, DL_FORMAT_SCALAR, 4, (void *) _phi_sp);
 936:/home/lsk/paparazzi/var/include/messages.h **** 	  trans->end_message(trans->impl, dev);
 937:/home/lsk/paparazzi/var/include/messages.h **** 	} else
 938:/home/lsk/paparazzi/var/include/messages.h **** 	  trans->overrun(trans->impl, dev);
 939:/home/lsk/paparazzi/var/include/messages.h **** }
 940:/home/lsk/paparazzi/var/include/messages.h **** 
 941:/home/lsk/paparazzi/var/include/messages.h **** #define DOWNLINK_SEND_BARO_MS5534A(_trans, _dev, pressure, temp, alt) pprz_msg_send_BARO_MS5534A(&(
 942:/home/lsk/paparazzi/var/include/messages.h **** static inline void pprz_msg_send_BARO_MS5534A(struct transport_tx *trans, struct link_device *dev, 
 943:/home/lsk/paparazzi/var/include/messages.h **** 	if (trans->check_available_space(trans->impl, dev, trans->size_of(trans->impl, 0+4+2+4 +2 /* msg h
 944:/home/lsk/paparazzi/var/include/messages.h **** 	  trans->count_bytes(trans->impl, dev, trans->size_of(trans->impl, 0+4+2+4 +2 /* msg header overhe
 945:/home/lsk/paparazzi/var/include/messages.h **** 	  trans->start_message(trans->impl, dev, 0+4+2+4 +2 /* msg header overhead */);
 946:/home/lsk/paparazzi/var/include/messages.h **** 	  trans->put_bytes(trans->impl, dev, DL_TYPE_UINT8, DL_FORMAT_SCALAR, 1, &ac_id);
 947:/home/lsk/paparazzi/var/include/messages.h **** 	  trans->put_named_byte(trans->impl, dev, DL_TYPE_UINT8, DL_FORMAT_SCALAR, DL_BARO_MS5534A, "BARO_
 948:/home/lsk/paparazzi/var/include/messages.h **** 	  trans->put_bytes(trans->impl, dev, DL_TYPE_UINT32, DL_FORMAT_SCALAR, 4, (void *) _pressure);
 949:/home/lsk/paparazzi/var/include/messages.h **** 	  trans->put_bytes(trans->impl, dev, DL_TYPE_UINT16, DL_FORMAT_SCALAR, 2, (void *) _temp);
 950:/home/lsk/paparazzi/var/include/messages.h **** 	  trans->put_bytes(trans->impl, dev, DL_TYPE_FLOAT, DL_FORMAT_SCALAR, 4, (void *) _alt);
 951:/home/lsk/paparazzi/var/include/messages.h **** 	  trans->end_message(trans->impl, dev);
 952:/home/lsk/paparazzi/var/include/messages.h **** 	} else
 953:/home/lsk/paparazzi/var/include/messages.h **** 	  trans->overrun(trans->impl, dev);
 954:/home/lsk/paparazzi/var/include/messages.h **** }
 955:/home/lsk/paparazzi/var/include/messages.h **** 
 956:/home/lsk/paparazzi/var/include/messages.h **** #define DOWNLINK_SEND_PRESSURE(_trans, _dev, airspeed_adc, airspeed, altitude_adc, altitude) pprz_m
 957:/home/lsk/paparazzi/var/include/messages.h **** static inline void pprz_msg_send_PRESSURE(struct transport_tx *trans, struct link_device *dev, uint
 958:/home/lsk/paparazzi/var/include/messages.h **** 	if (trans->check_available_space(trans->impl, dev, trans->size_of(trans->impl, 0+4+4+4+4 +2 /* msg
 959:/home/lsk/paparazzi/var/include/messages.h **** 	  trans->count_bytes(trans->impl, dev, trans->size_of(trans->impl, 0+4+4+4+4 +2 /* msg header over
 960:/home/lsk/paparazzi/var/include/messages.h **** 	  trans->start_message(trans->impl, dev, 0+4+4+4+4 +2 /* msg header overhead */);
 961:/home/lsk/paparazzi/var/include/messages.h **** 	  trans->put_bytes(trans->impl, dev, DL_TYPE_UINT8, DL_FORMAT_SCALAR, 1, &ac_id);
 962:/home/lsk/paparazzi/var/include/messages.h **** 	  trans->put_named_byte(trans->impl, dev, DL_TYPE_UINT8, DL_FORMAT_SCALAR, DL_PRESSURE, "PRESSURE"
 963:/home/lsk/paparazzi/var/include/messages.h **** 	  trans->put_bytes(trans->impl, dev, DL_TYPE_FLOAT, DL_FORMAT_SCALAR, 4, (void *) _airspeed_adc);
 964:/home/lsk/paparazzi/var/include/messages.h **** 	  trans->put_bytes(trans->impl, dev, DL_TYPE_FLOAT, DL_FORMAT_SCALAR, 4, (void *) _airspeed);
 965:/home/lsk/paparazzi/var/include/messages.h **** 	  trans->put_bytes(trans->impl, dev, DL_TYPE_FLOAT, DL_FORMAT_SCALAR, 4, (void *) _altitude_adc);
 966:/home/lsk/paparazzi/var/include/messages.h **** 	  trans->put_bytes(trans->impl, dev, DL_TYPE_FLOAT, DL_FORMAT_SCALAR, 4, (void *) _altitude);
 967:/home/lsk/paparazzi/var/include/messages.h **** 	  trans->end_message(trans->impl, dev);
 968:/home/lsk/paparazzi/var/include/messages.h **** 	} else
 969:/home/lsk/paparazzi/var/include/messages.h **** 	  trans->overrun(trans->impl, dev);
 970:/home/lsk/paparazzi/var/include/messages.h **** }
 971:/home/lsk/paparazzi/var/include/messages.h **** 
 972:/home/lsk/paparazzi/var/include/messages.h **** #define DOWNLINK_SEND_BARO_WORDS(_trans, _dev, w1, w2, w3, w4) pprz_msg_send_BARO_WORDS(&((_trans).
 973:/home/lsk/paparazzi/var/include/messages.h **** static inline void pprz_msg_send_BARO_WORDS(struct transport_tx *trans, struct link_device *dev, ui
 974:/home/lsk/paparazzi/var/include/messages.h **** 	if (trans->check_available_space(trans->impl, dev, trans->size_of(trans->impl, 0+2+2+2+2 +2 /* msg
 975:/home/lsk/paparazzi/var/include/messages.h **** 	  trans->count_bytes(trans->impl, dev, trans->size_of(trans->impl, 0+2+2+2+2 +2 /* msg header over
 976:/home/lsk/paparazzi/var/include/messages.h **** 	  trans->start_message(trans->impl, dev, 0+2+2+2+2 +2 /* msg header overhead */);
 977:/home/lsk/paparazzi/var/include/messages.h **** 	  trans->put_bytes(trans->impl, dev, DL_TYPE_UINT8, DL_FORMAT_SCALAR, 1, &ac_id);
 978:/home/lsk/paparazzi/var/include/messages.h **** 	  trans->put_named_byte(trans->impl, dev, DL_TYPE_UINT8, DL_FORMAT_SCALAR, DL_BARO_WORDS, "BARO_WO
 979:/home/lsk/paparazzi/var/include/messages.h **** 	  trans->put_bytes(trans->impl, dev, DL_TYPE_UINT16, DL_FORMAT_SCALAR, 2, (void *) _w1);
 980:/home/lsk/paparazzi/var/include/messages.h **** 	  trans->put_bytes(trans->impl, dev, DL_TYPE_UINT16, DL_FORMAT_SCALAR, 2, (void *) _w2);
 981:/home/lsk/paparazzi/var/include/messages.h **** 	  trans->put_bytes(trans->impl, dev, DL_TYPE_UINT16, DL_FORMAT_SCALAR, 2, (void *) _w3);
 982:/home/lsk/paparazzi/var/include/messages.h **** 	  trans->put_bytes(trans->impl, dev, DL_TYPE_UINT16, DL_FORMAT_SCALAR, 2, (void *) _w4);
 983:/home/lsk/paparazzi/var/include/messages.h **** 	  trans->end_message(trans->impl, dev);
 984:/home/lsk/paparazzi/var/include/messages.h **** 	} else
 985:/home/lsk/paparazzi/var/include/messages.h **** 	  trans->overrun(trans->impl, dev);
 986:/home/lsk/paparazzi/var/include/messages.h **** }
 987:/home/lsk/paparazzi/var/include/messages.h **** 
 988:/home/lsk/paparazzi/var/include/messages.h **** #define DOWNLINK_SEND_WP_MOVED_LLA(_trans, _dev, wp_id, lat, lon, alt) pprz_msg_send_WP_MOVED_LLA(&
 989:/home/lsk/paparazzi/var/include/messages.h **** static inline void pprz_msg_send_WP_MOVED_LLA(struct transport_tx *trans, struct link_device *dev, 
 990:/home/lsk/paparazzi/var/include/messages.h **** 	if (trans->check_available_space(trans->impl, dev, trans->size_of(trans->impl, 0+1+4+4+4 +2 /* msg
 991:/home/lsk/paparazzi/var/include/messages.h **** 	  trans->count_bytes(trans->impl, dev, trans->size_of(trans->impl, 0+1+4+4+4 +2 /* msg header over
 992:/home/lsk/paparazzi/var/include/messages.h **** 	  trans->start_message(trans->impl, dev, 0+1+4+4+4 +2 /* msg header overhead */);
 993:/home/lsk/paparazzi/var/include/messages.h **** 	  trans->put_bytes(trans->impl, dev, DL_TYPE_UINT8, DL_FORMAT_SCALAR, 1, &ac_id);
 994:/home/lsk/paparazzi/var/include/messages.h **** 	  trans->put_named_byte(trans->impl, dev, DL_TYPE_UINT8, DL_FORMAT_SCALAR, DL_WP_MOVED_LLA, "WP_MO
 995:/home/lsk/paparazzi/var/include/messages.h **** 	  trans->put_bytes(trans->impl, dev, DL_TYPE_UINT8, DL_FORMAT_SCALAR, 1, (void *) _wp_id);
 996:/home/lsk/paparazzi/var/include/messages.h **** 	  trans->put_bytes(trans->impl, dev, DL_TYPE_INT32, DL_FORMAT_SCALAR, 4, (void *) _lat);
 997:/home/lsk/paparazzi/var/include/messages.h **** 	  trans->put_bytes(trans->impl, dev, DL_TYPE_INT32, DL_FORMAT_SCALAR, 4, (void *) _lon);
 998:/home/lsk/paparazzi/var/include/messages.h **** 	  trans->put_bytes(trans->impl, dev, DL_TYPE_INT32, DL_FORMAT_SCALAR, 4, (void *) _alt);
 999:/home/lsk/paparazzi/var/include/messages.h **** 	  trans->end_message(trans->impl, dev);
1000:/home/lsk/paparazzi/var/include/messages.h **** 	} else
1001:/home/lsk/paparazzi/var/include/messages.h **** 	  trans->overrun(trans->impl, dev);
1002:/home/lsk/paparazzi/var/include/messages.h **** }
1003:/home/lsk/paparazzi/var/include/messages.h **** 
1004:/home/lsk/paparazzi/var/include/messages.h **** #define DOWNLINK_SEND_CHRONO(_trans, _dev, tag, time) pprz_msg_send_CHRONO(&((_trans).trans_tx), &(
1005:/home/lsk/paparazzi/var/include/messages.h **** static inline void pprz_msg_send_CHRONO(struct transport_tx *trans, struct link_device *dev, uint8_
1006:/home/lsk/paparazzi/var/include/messages.h **** 	if (trans->check_available_space(trans->impl, dev, trans->size_of(trans->impl, 0+1+4 +2 /* msg hea
1007:/home/lsk/paparazzi/var/include/messages.h **** 	  trans->count_bytes(trans->impl, dev, trans->size_of(trans->impl, 0+1+4 +2 /* msg header overhead
1008:/home/lsk/paparazzi/var/include/messages.h **** 	  trans->start_message(trans->impl, dev, 0+1+4 +2 /* msg header overhead */);
1009:/home/lsk/paparazzi/var/include/messages.h **** 	  trans->put_bytes(trans->impl, dev, DL_TYPE_UINT8, DL_FORMAT_SCALAR, 1, &ac_id);
1010:/home/lsk/paparazzi/var/include/messages.h **** 	  trans->put_named_byte(trans->impl, dev, DL_TYPE_UINT8, DL_FORMAT_SCALAR, DL_CHRONO, "CHRONO");
1011:/home/lsk/paparazzi/var/include/messages.h **** 	  trans->put_bytes(trans->impl, dev, DL_TYPE_UINT8, DL_FORMAT_SCALAR, 1, (void *) _tag);
1012:/home/lsk/paparazzi/var/include/messages.h **** 	  trans->put_bytes(trans->impl, dev, DL_TYPE_UINT32, DL_FORMAT_SCALAR, 4, (void *) _time);
1013:/home/lsk/paparazzi/var/include/messages.h **** 	  trans->end_message(trans->impl, dev);
1014:/home/lsk/paparazzi/var/include/messages.h **** 	} else
1015:/home/lsk/paparazzi/var/include/messages.h **** 	  trans->overrun(trans->impl, dev);
1016:/home/lsk/paparazzi/var/include/messages.h **** }
1017:/home/lsk/paparazzi/var/include/messages.h **** 
1018:/home/lsk/paparazzi/var/include/messages.h **** #define DOWNLINK_SEND_WP_MOVED_ENU(_trans, _dev, wp_id, east, north, up) pprz_msg_send_WP_MOVED_ENU
1019:/home/lsk/paparazzi/var/include/messages.h **** static inline void pprz_msg_send_WP_MOVED_ENU(struct transport_tx *trans, struct link_device *dev, 
1020:/home/lsk/paparazzi/var/include/messages.h **** 	if (trans->check_available_space(trans->impl, dev, trans->size_of(trans->impl, 0+1+4+4+4 +2 /* msg
1021:/home/lsk/paparazzi/var/include/messages.h **** 	  trans->count_bytes(trans->impl, dev, trans->size_of(trans->impl, 0+1+4+4+4 +2 /* msg header over
1022:/home/lsk/paparazzi/var/include/messages.h **** 	  trans->start_message(trans->impl, dev, 0+1+4+4+4 +2 /* msg header overhead */);
1023:/home/lsk/paparazzi/var/include/messages.h **** 	  trans->put_bytes(trans->impl, dev, DL_TYPE_UINT8, DL_FORMAT_SCALAR, 1, &ac_id);
1024:/home/lsk/paparazzi/var/include/messages.h **** 	  trans->put_named_byte(trans->impl, dev, DL_TYPE_UINT8, DL_FORMAT_SCALAR, DL_WP_MOVED_ENU, "WP_MO
1025:/home/lsk/paparazzi/var/include/messages.h **** 	  trans->put_bytes(trans->impl, dev, DL_TYPE_UINT8, DL_FORMAT_SCALAR, 1, (void *) _wp_id);
1026:/home/lsk/paparazzi/var/include/messages.h **** 	  trans->put_bytes(trans->impl, dev, DL_TYPE_INT32, DL_FORMAT_SCALAR, 4, (void *) _east);
1027:/home/lsk/paparazzi/var/include/messages.h **** 	  trans->put_bytes(trans->impl, dev, DL_TYPE_INT32, DL_FORMAT_SCALAR, 4, (void *) _north);
1028:/home/lsk/paparazzi/var/include/messages.h **** 	  trans->put_bytes(trans->impl, dev, DL_TYPE_INT32, DL_FORMAT_SCALAR, 4, (void *) _up);
1029:/home/lsk/paparazzi/var/include/messages.h **** 	  trans->end_message(trans->impl, dev);
1030:/home/lsk/paparazzi/var/include/messages.h **** 	} else
1031:/home/lsk/paparazzi/var/include/messages.h **** 	  trans->overrun(trans->impl, dev);
1032:/home/lsk/paparazzi/var/include/messages.h **** }
1033:/home/lsk/paparazzi/var/include/messages.h **** 
1034:/home/lsk/paparazzi/var/include/messages.h **** #define DOWNLINK_SEND_WINDTURBINE_STATUS_(_trans, _dev, ac_id, tb_id, sync_itow, cycle_time) pprz_m
1035:/home/lsk/paparazzi/var/include/messages.h **** static inline void pprz_msg_send_WINDTURBINE_STATUS_(struct transport_tx *trans, struct link_device
1036:/home/lsk/paparazzi/var/include/messages.h **** 	if (trans->check_available_space(trans->impl, dev, trans->size_of(trans->impl, 0+1+1+4+4 +2 /* msg
1037:/home/lsk/paparazzi/var/include/messages.h **** 	  trans->count_bytes(trans->impl, dev, trans->size_of(trans->impl, 0+1+1+4+4 +2 /* msg header over
1038:/home/lsk/paparazzi/var/include/messages.h **** 	  trans->start_message(trans->impl, dev, 0+1+1+4+4 +2 /* msg header overhead */);
1039:/home/lsk/paparazzi/var/include/messages.h **** 	  trans->put_bytes(trans->impl, dev, DL_TYPE_UINT8, DL_FORMAT_SCALAR, 1, &ac_id);
1040:/home/lsk/paparazzi/var/include/messages.h **** 	  trans->put_named_byte(trans->impl, dev, DL_TYPE_UINT8, DL_FORMAT_SCALAR, DL_WINDTURBINE_STATUS_,
1041:/home/lsk/paparazzi/var/include/messages.h **** 	  trans->put_bytes(trans->impl, dev, DL_TYPE_UINT8, DL_FORMAT_SCALAR, 1, (void *) _ac_id);
1042:/home/lsk/paparazzi/var/include/messages.h **** 	  trans->put_bytes(trans->impl, dev, DL_TYPE_UINT8, DL_FORMAT_SCALAR, 1, (void *) _tb_id);
1043:/home/lsk/paparazzi/var/include/messages.h **** 	  trans->put_bytes(trans->impl, dev, DL_TYPE_UINT32, DL_FORMAT_SCALAR, 4, (void *) _sync_itow);
1044:/home/lsk/paparazzi/var/include/messages.h **** 	  trans->put_bytes(trans->impl, dev, DL_TYPE_UINT32, DL_FORMAT_SCALAR, 4, (void *) _cycle_time);
1045:/home/lsk/paparazzi/var/include/messages.h **** 	  trans->end_message(trans->impl, dev);
1046:/home/lsk/paparazzi/var/include/messages.h **** 	} else
1047:/home/lsk/paparazzi/var/include/messages.h **** 	  trans->overrun(trans->impl, dev);
1048:/home/lsk/paparazzi/var/include/messages.h **** }
1049:/home/lsk/paparazzi/var/include/messages.h **** 
1050:/home/lsk/paparazzi/var/include/messages.h **** #define DOWNLINK_SEND_RC_3CH_(_trans, _dev, throttle_mode, roll, pitch) pprz_msg_send_RC_3CH_(&((_t
1051:/home/lsk/paparazzi/var/include/messages.h **** static inline void pprz_msg_send_RC_3CH_(struct transport_tx *trans, struct link_device *dev, uint8
1052:/home/lsk/paparazzi/var/include/messages.h **** 	if (trans->check_available_space(trans->impl, dev, trans->size_of(trans->impl, 0+1+1+1 +2 /* msg h
1053:/home/lsk/paparazzi/var/include/messages.h **** 	  trans->count_bytes(trans->impl, dev, trans->size_of(trans->impl, 0+1+1+1 +2 /* msg header overhe
1054:/home/lsk/paparazzi/var/include/messages.h **** 	  trans->start_message(trans->impl, dev, 0+1+1+1 +2 /* msg header overhead */);
1055:/home/lsk/paparazzi/var/include/messages.h **** 	  trans->put_bytes(trans->impl, dev, DL_TYPE_UINT8, DL_FORMAT_SCALAR, 1, &ac_id);
1056:/home/lsk/paparazzi/var/include/messages.h **** 	  trans->put_named_byte(trans->impl, dev, DL_TYPE_UINT8, DL_FORMAT_SCALAR, DL_RC_3CH_, "RC_3CH_");
1057:/home/lsk/paparazzi/var/include/messages.h **** 	  trans->put_bytes(trans->impl, dev, DL_TYPE_UINT8, DL_FORMAT_SCALAR, 1, (void *) _throttle_mode);
1058:/home/lsk/paparazzi/var/include/messages.h **** 	  trans->put_bytes(trans->impl, dev, DL_TYPE_INT8, DL_FORMAT_SCALAR, 1, (void *) _roll);
1059:/home/lsk/paparazzi/var/include/messages.h **** 	  trans->put_bytes(trans->impl, dev, DL_TYPE_INT8, DL_FORMAT_SCALAR, 1, (void *) _pitch);
1060:/home/lsk/paparazzi/var/include/messages.h **** 	  trans->end_message(trans->impl, dev);
1061:/home/lsk/paparazzi/var/include/messages.h **** 	} else
1062:/home/lsk/paparazzi/var/include/messages.h **** 	  trans->overrun(trans->impl, dev);
1063:/home/lsk/paparazzi/var/include/messages.h **** }
1064:/home/lsk/paparazzi/var/include/messages.h **** 
1065:/home/lsk/paparazzi/var/include/messages.h **** #define DOWNLINK_SEND_MPPT(_trans, _dev, nb_values, values) pprz_msg_send_MPPT(&((_trans).trans_tx)
1066:/home/lsk/paparazzi/var/include/messages.h **** static inline void pprz_msg_send_MPPT(struct transport_tx *trans, struct link_device *dev, uint8_t 
1067:/home/lsk/paparazzi/var/include/messages.h **** 	if (trans->check_available_space(trans->impl, dev, trans->size_of(trans->impl, 0+1+nb_values*2 +2 
1068:/home/lsk/paparazzi/var/include/messages.h **** 	  trans->count_bytes(trans->impl, dev, trans->size_of(trans->impl, 0+1+nb_values*2 +2 /* msg heade
1069:/home/lsk/paparazzi/var/include/messages.h **** 	  trans->start_message(trans->impl, dev, 0+1+nb_values*2 +2 /* msg header overhead */);
1070:/home/lsk/paparazzi/var/include/messages.h **** 	  trans->put_bytes(trans->impl, dev, DL_TYPE_UINT8, DL_FORMAT_SCALAR, 1, &ac_id);
1071:/home/lsk/paparazzi/var/include/messages.h **** 	  trans->put_named_byte(trans->impl, dev, DL_TYPE_UINT8, DL_FORMAT_SCALAR, DL_MPPT, "MPPT");
1072:/home/lsk/paparazzi/var/include/messages.h **** 	  trans->put_bytes(trans->impl, dev, DL_TYPE_ARRAY_LENGTH, DL_FORMAT_SCALAR, 1, (void *) &nb_value
1073:/home/lsk/paparazzi/var/include/messages.h **** 	  trans->put_bytes(trans->impl, dev, DL_TYPE_INT16, DL_FORMAT_ARRAY, 2 * nb_values, (void *) _valu
1074:/home/lsk/paparazzi/var/include/messages.h **** 	  trans->end_message(trans->impl, dev);
1075:/home/lsk/paparazzi/var/include/messages.h **** 	} else
1076:/home/lsk/paparazzi/var/include/messages.h **** 	  trans->overrun(trans->impl, dev);
1077:/home/lsk/paparazzi/var/include/messages.h **** }
1078:/home/lsk/paparazzi/var/include/messages.h **** 
1079:/home/lsk/paparazzi/var/include/messages.h **** #define DOWNLINK_SEND_DEBUG_IR_I2C(_trans, _dev, ir1, ir2, top) pprz_msg_send_DEBUG_IR_I2C(&((_tran
1080:/home/lsk/paparazzi/var/include/messages.h **** static inline void pprz_msg_send_DEBUG_IR_I2C(struct transport_tx *trans, struct link_device *dev, 
1081:/home/lsk/paparazzi/var/include/messages.h **** 	if (trans->check_available_space(trans->impl, dev, trans->size_of(trans->impl, 0+2+2+2 +2 /* msg h
1082:/home/lsk/paparazzi/var/include/messages.h **** 	  trans->count_bytes(trans->impl, dev, trans->size_of(trans->impl, 0+2+2+2 +2 /* msg header overhe
1083:/home/lsk/paparazzi/var/include/messages.h **** 	  trans->start_message(trans->impl, dev, 0+2+2+2 +2 /* msg header overhead */);
1084:/home/lsk/paparazzi/var/include/messages.h **** 	  trans->put_bytes(trans->impl, dev, DL_TYPE_UINT8, DL_FORMAT_SCALAR, 1, &ac_id);
1085:/home/lsk/paparazzi/var/include/messages.h **** 	  trans->put_named_byte(trans->impl, dev, DL_TYPE_UINT8, DL_FORMAT_SCALAR, DL_DEBUG_IR_I2C, "DEBUG
1086:/home/lsk/paparazzi/var/include/messages.h **** 	  trans->put_bytes(trans->impl, dev, DL_TYPE_INT16, DL_FORMAT_SCALAR, 2, (void *) _ir1);
1087:/home/lsk/paparazzi/var/include/messages.h **** 	  trans->put_bytes(trans->impl, dev, DL_TYPE_INT16, DL_FORMAT_SCALAR, 2, (void *) _ir2);
1088:/home/lsk/paparazzi/var/include/messages.h **** 	  trans->put_bytes(trans->impl, dev, DL_TYPE_INT16, DL_FORMAT_SCALAR, 2, (void *) _top);
1089:/home/lsk/paparazzi/var/include/messages.h **** 	  trans->end_message(trans->impl, dev);
1090:/home/lsk/paparazzi/var/include/messages.h **** 	} else
1091:/home/lsk/paparazzi/var/include/messages.h **** 	  trans->overrun(trans->impl, dev);
1092:/home/lsk/paparazzi/var/include/messages.h **** }
1093:/home/lsk/paparazzi/var/include/messages.h **** 
1094:/home/lsk/paparazzi/var/include/messages.h **** #define DOWNLINK_SEND_AIRSPEED(_trans, _dev, airspeed, airspeed_sp, airspeed_cnt, groundspeed_sp) p
1095:/home/lsk/paparazzi/var/include/messages.h **** static inline void pprz_msg_send_AIRSPEED(struct transport_tx *trans, struct link_device *dev, uint
1096:/home/lsk/paparazzi/var/include/messages.h **** 	if (trans->check_available_space(trans->impl, dev, trans->size_of(trans->impl, 0+4+4+4+4 +2 /* msg
1097:/home/lsk/paparazzi/var/include/messages.h **** 	  trans->count_bytes(trans->impl, dev, trans->size_of(trans->impl, 0+4+4+4+4 +2 /* msg header over
1098:/home/lsk/paparazzi/var/include/messages.h **** 	  trans->start_message(trans->impl, dev, 0+4+4+4+4 +2 /* msg header overhead */);
1099:/home/lsk/paparazzi/var/include/messages.h **** 	  trans->put_bytes(trans->impl, dev, DL_TYPE_UINT8, DL_FORMAT_SCALAR, 1, &ac_id);
1100:/home/lsk/paparazzi/var/include/messages.h **** 	  trans->put_named_byte(trans->impl, dev, DL_TYPE_UINT8, DL_FORMAT_SCALAR, DL_AIRSPEED, "AIRSPEED"
1101:/home/lsk/paparazzi/var/include/messages.h **** 	  trans->put_bytes(trans->impl, dev, DL_TYPE_FLOAT, DL_FORMAT_SCALAR, 4, (void *) _airspeed);
1102:/home/lsk/paparazzi/var/include/messages.h **** 	  trans->put_bytes(trans->impl, dev, DL_TYPE_FLOAT, DL_FORMAT_SCALAR, 4, (void *) _airspeed_sp);
1103:/home/lsk/paparazzi/var/include/messages.h **** 	  trans->put_bytes(trans->impl, dev, DL_TYPE_FLOAT, DL_FORMAT_SCALAR, 4, (void *) _airspeed_cnt);
1104:/home/lsk/paparazzi/var/include/messages.h **** 	  trans->put_bytes(trans->impl, dev, DL_TYPE_FLOAT, DL_FORMAT_SCALAR, 4, (void *) _groundspeed_sp)
1105:/home/lsk/paparazzi/var/include/messages.h **** 	  trans->end_message(trans->impl, dev);
1106:/home/lsk/paparazzi/var/include/messages.h **** 	} else
1107:/home/lsk/paparazzi/var/include/messages.h **** 	  trans->overrun(trans->impl, dev);
1108:/home/lsk/paparazzi/var/include/messages.h **** }
1109:/home/lsk/paparazzi/var/include/messages.h **** 
1110:/home/lsk/paparazzi/var/include/messages.h **** #define DOWNLINK_SEND_XSENS(_trans, _dev, counter, p, q, r, phi, theta, psi, ax, ay, az, vx, vy, vz
1111:/home/lsk/paparazzi/var/include/messages.h **** static inline void pprz_msg_send_XSENS(struct transport_tx *trans, struct link_device *dev, uint8_t
1112:/home/lsk/paparazzi/var/include/messages.h **** 	if (trans->check_available_space(trans->impl, dev, trans->size_of(trans->impl, 0+2+4+4+4+4+4+4+4+4
1113:/home/lsk/paparazzi/var/include/messages.h **** 	  trans->count_bytes(trans->impl, dev, trans->size_of(trans->impl, 0+2+4+4+4+4+4+4+4+4+4+4+4+4+4+4
1114:/home/lsk/paparazzi/var/include/messages.h **** 	  trans->start_message(trans->impl, dev, 0+2+4+4+4+4+4+4+4+4+4+4+4+4+4+4+4+1+1+1+1+4+2+1+1 +2 /* m
1115:/home/lsk/paparazzi/var/include/messages.h **** 	  trans->put_bytes(trans->impl, dev, DL_TYPE_UINT8, DL_FORMAT_SCALAR, 1, &ac_id);
1116:/home/lsk/paparazzi/var/include/messages.h **** 	  trans->put_named_byte(trans->impl, dev, DL_TYPE_UINT8, DL_FORMAT_SCALAR, DL_XSENS, "XSENS");
1117:/home/lsk/paparazzi/var/include/messages.h **** 	  trans->put_bytes(trans->impl, dev, DL_TYPE_INT16, DL_FORMAT_SCALAR, 2, (void *) _counter);
1118:/home/lsk/paparazzi/var/include/messages.h **** 	  trans->put_bytes(trans->impl, dev, DL_TYPE_FLOAT, DL_FORMAT_SCALAR, 4, (void *) _p);
1119:/home/lsk/paparazzi/var/include/messages.h **** 	  trans->put_bytes(trans->impl, dev, DL_TYPE_FLOAT, DL_FORMAT_SCALAR, 4, (void *) _q);
1120:/home/lsk/paparazzi/var/include/messages.h **** 	  trans->put_bytes(trans->impl, dev, DL_TYPE_FLOAT, DL_FORMAT_SCALAR, 4, (void *) _r);
1121:/home/lsk/paparazzi/var/include/messages.h **** 	  trans->put_bytes(trans->impl, dev, DL_TYPE_FLOAT, DL_FORMAT_SCALAR, 4, (void *) _phi);
1122:/home/lsk/paparazzi/var/include/messages.h **** 	  trans->put_bytes(trans->impl, dev, DL_TYPE_FLOAT, DL_FORMAT_SCALAR, 4, (void *) _theta);
1123:/home/lsk/paparazzi/var/include/messages.h **** 	  trans->put_bytes(trans->impl, dev, DL_TYPE_FLOAT, DL_FORMAT_SCALAR, 4, (void *) _psi);
1124:/home/lsk/paparazzi/var/include/messages.h **** 	  trans->put_bytes(trans->impl, dev, DL_TYPE_FLOAT, DL_FORMAT_SCALAR, 4, (void *) _ax);
1125:/home/lsk/paparazzi/var/include/messages.h **** 	  trans->put_bytes(trans->impl, dev, DL_TYPE_FLOAT, DL_FORMAT_SCALAR, 4, (void *) _ay);
1126:/home/lsk/paparazzi/var/include/messages.h **** 	  trans->put_bytes(trans->impl, dev, DL_TYPE_FLOAT, DL_FORMAT_SCALAR, 4, (void *) _az);
1127:/home/lsk/paparazzi/var/include/messages.h **** 	  trans->put_bytes(trans->impl, dev, DL_TYPE_FLOAT, DL_FORMAT_SCALAR, 4, (void *) _vx);
1128:/home/lsk/paparazzi/var/include/messages.h **** 	  trans->put_bytes(trans->impl, dev, DL_TYPE_FLOAT, DL_FORMAT_SCALAR, 4, (void *) _vy);
1129:/home/lsk/paparazzi/var/include/messages.h **** 	  trans->put_bytes(trans->impl, dev, DL_TYPE_FLOAT, DL_FORMAT_SCALAR, 4, (void *) _vz);
1130:/home/lsk/paparazzi/var/include/messages.h **** 	  trans->put_bytes(trans->impl, dev, DL_TYPE_FLOAT, DL_FORMAT_SCALAR, 4, (void *) _lat);
1131:/home/lsk/paparazzi/var/include/messages.h **** 	  trans->put_bytes(trans->impl, dev, DL_TYPE_FLOAT, DL_FORMAT_SCALAR, 4, (void *) _lon);
1132:/home/lsk/paparazzi/var/include/messages.h **** 	  trans->put_bytes(trans->impl, dev, DL_TYPE_FLOAT, DL_FORMAT_SCALAR, 4, (void *) _alt);
1133:/home/lsk/paparazzi/var/include/messages.h **** 	  trans->put_bytes(trans->impl, dev, DL_TYPE_UINT8, DL_FORMAT_SCALAR, 1, (void *) _status);
1134:/home/lsk/paparazzi/var/include/messages.h **** 	  trans->put_bytes(trans->impl, dev, DL_TYPE_UINT8, DL_FORMAT_SCALAR, 1, (void *) _hour);
1135:/home/lsk/paparazzi/var/include/messages.h **** 	  trans->put_bytes(trans->impl, dev, DL_TYPE_UINT8, DL_FORMAT_SCALAR, 1, (void *) _min);
1136:/home/lsk/paparazzi/var/include/messages.h **** 	  trans->put_bytes(trans->impl, dev, DL_TYPE_UINT8, DL_FORMAT_SCALAR, 1, (void *) _sec);
1137:/home/lsk/paparazzi/var/include/messages.h **** 	  trans->put_bytes(trans->impl, dev, DL_TYPE_UINT32, DL_FORMAT_SCALAR, 4, (void *) _nanosec);
1138:/home/lsk/paparazzi/var/include/messages.h **** 	  trans->put_bytes(trans->impl, dev, DL_TYPE_UINT16, DL_FORMAT_SCALAR, 2, (void *) _year);
1139:/home/lsk/paparazzi/var/include/messages.h **** 	  trans->put_bytes(trans->impl, dev, DL_TYPE_UINT8, DL_FORMAT_SCALAR, 1, (void *) _month);
1140:/home/lsk/paparazzi/var/include/messages.h **** 	  trans->put_bytes(trans->impl, dev, DL_TYPE_UINT8, DL_FORMAT_SCALAR, 1, (void *) _day);
1141:/home/lsk/paparazzi/var/include/messages.h **** 	  trans->end_message(trans->impl, dev);
1142:/home/lsk/paparazzi/var/include/messages.h **** 	} else
1143:/home/lsk/paparazzi/var/include/messages.h **** 	  trans->overrun(trans->impl, dev);
1144:/home/lsk/paparazzi/var/include/messages.h **** }
1145:/home/lsk/paparazzi/var/include/messages.h **** 
1146:/home/lsk/paparazzi/var/include/messages.h **** #define DOWNLINK_SEND_BARO_ETS(_trans, _dev, adc, offset, scaled) pprz_msg_send_BARO_ETS(&((_trans)
1147:/home/lsk/paparazzi/var/include/messages.h **** static inline void pprz_msg_send_BARO_ETS(struct transport_tx *trans, struct link_device *dev, uint
1148:/home/lsk/paparazzi/var/include/messages.h **** 	if (trans->check_available_space(trans->impl, dev, trans->size_of(trans->impl, 0+2+2+4 +2 /* msg h
1149:/home/lsk/paparazzi/var/include/messages.h **** 	  trans->count_bytes(trans->impl, dev, trans->size_of(trans->impl, 0+2+2+4 +2 /* msg header overhe
1150:/home/lsk/paparazzi/var/include/messages.h **** 	  trans->start_message(trans->impl, dev, 0+2+2+4 +2 /* msg header overhead */);
1151:/home/lsk/paparazzi/var/include/messages.h **** 	  trans->put_bytes(trans->impl, dev, DL_TYPE_UINT8, DL_FORMAT_SCALAR, 1, &ac_id);
1152:/home/lsk/paparazzi/var/include/messages.h **** 	  trans->put_named_byte(trans->impl, dev, DL_TYPE_UINT8, DL_FORMAT_SCALAR, DL_BARO_ETS, "BARO_ETS"
1153:/home/lsk/paparazzi/var/include/messages.h **** 	  trans->put_bytes(trans->impl, dev, DL_TYPE_UINT16, DL_FORMAT_SCALAR, 2, (void *) _adc);
1154:/home/lsk/paparazzi/var/include/messages.h **** 	  trans->put_bytes(trans->impl, dev, DL_TYPE_UINT16, DL_FORMAT_SCALAR, 2, (void *) _offset);
1155:/home/lsk/paparazzi/var/include/messages.h **** 	  trans->put_bytes(trans->impl, dev, DL_TYPE_FLOAT, DL_FORMAT_SCALAR, 4, (void *) _scaled);
1156:/home/lsk/paparazzi/var/include/messages.h **** 	  trans->end_message(trans->impl, dev);
1157:/home/lsk/paparazzi/var/include/messages.h **** 	} else
1158:/home/lsk/paparazzi/var/include/messages.h **** 	  trans->overrun(trans->impl, dev);
1159:/home/lsk/paparazzi/var/include/messages.h **** }
1160:/home/lsk/paparazzi/var/include/messages.h **** 
1161:/home/lsk/paparazzi/var/include/messages.h **** #define DOWNLINK_SEND_AIRSPEED_ETS(_trans, _dev, adc, offset, scaled) pprz_msg_send_AIRSPEED_ETS(&(
1162:/home/lsk/paparazzi/var/include/messages.h **** static inline void pprz_msg_send_AIRSPEED_ETS(struct transport_tx *trans, struct link_device *dev, 
1163:/home/lsk/paparazzi/var/include/messages.h **** 	if (trans->check_available_space(trans->impl, dev, trans->size_of(trans->impl, 0+2+2+4 +2 /* msg h
1164:/home/lsk/paparazzi/var/include/messages.h **** 	  trans->count_bytes(trans->impl, dev, trans->size_of(trans->impl, 0+2+2+4 +2 /* msg header overhe
1165:/home/lsk/paparazzi/var/include/messages.h **** 	  trans->start_message(trans->impl, dev, 0+2+2+4 +2 /* msg header overhead */);
1166:/home/lsk/paparazzi/var/include/messages.h **** 	  trans->put_bytes(trans->impl, dev, DL_TYPE_UINT8, DL_FORMAT_SCALAR, 1, &ac_id);
1167:/home/lsk/paparazzi/var/include/messages.h **** 	  trans->put_named_byte(trans->impl, dev, DL_TYPE_UINT8, DL_FORMAT_SCALAR, DL_AIRSPEED_ETS, "AIRSP
1168:/home/lsk/paparazzi/var/include/messages.h **** 	  trans->put_bytes(trans->impl, dev, DL_TYPE_UINT16, DL_FORMAT_SCALAR, 2, (void *) _adc);
1169:/home/lsk/paparazzi/var/include/messages.h **** 	  trans->put_bytes(trans->impl, dev, DL_TYPE_UINT16, DL_FORMAT_SCALAR, 2, (void *) _offset);
1170:/home/lsk/paparazzi/var/include/messages.h **** 	  trans->put_bytes(trans->impl, dev, DL_TYPE_FLOAT, DL_FORMAT_SCALAR, 4, (void *) _scaled);
1171:/home/lsk/paparazzi/var/include/messages.h **** 	  trans->end_message(trans->impl, dev);
1172:/home/lsk/paparazzi/var/include/messages.h **** 	} else
1173:/home/lsk/paparazzi/var/include/messages.h **** 	  trans->overrun(trans->impl, dev);
1174:/home/lsk/paparazzi/var/include/messages.h **** }
1175:/home/lsk/paparazzi/var/include/messages.h **** 
1176:/home/lsk/paparazzi/var/include/messages.h **** #define DOWNLINK_SEND_PBN(_trans, _dev, airspeed_adc, altitude_adc, airspeed, altitude, airspeed_of
1177:/home/lsk/paparazzi/var/include/messages.h **** static inline void pprz_msg_send_PBN(struct transport_tx *trans, struct link_device *dev, uint8_t a
1178:/home/lsk/paparazzi/var/include/messages.h **** 	if (trans->check_available_space(trans->impl, dev, trans->size_of(trans->impl, 0+2+2+4+4+2+2 +2 /*
1179:/home/lsk/paparazzi/var/include/messages.h **** 	  trans->count_bytes(trans->impl, dev, trans->size_of(trans->impl, 0+2+2+4+4+2+2 +2 /* msg header 
1180:/home/lsk/paparazzi/var/include/messages.h **** 	  trans->start_message(trans->impl, dev, 0+2+2+4+4+2+2 +2 /* msg header overhead */);
1181:/home/lsk/paparazzi/var/include/messages.h **** 	  trans->put_bytes(trans->impl, dev, DL_TYPE_UINT8, DL_FORMAT_SCALAR, 1, &ac_id);
1182:/home/lsk/paparazzi/var/include/messages.h **** 	  trans->put_named_byte(trans->impl, dev, DL_TYPE_UINT8, DL_FORMAT_SCALAR, DL_PBN, "PBN");
1183:/home/lsk/paparazzi/var/include/messages.h **** 	  trans->put_bytes(trans->impl, dev, DL_TYPE_UINT16, DL_FORMAT_SCALAR, 2, (void *) _airspeed_adc);
1184:/home/lsk/paparazzi/var/include/messages.h **** 	  trans->put_bytes(trans->impl, dev, DL_TYPE_UINT16, DL_FORMAT_SCALAR, 2, (void *) _altitude_adc);
1185:/home/lsk/paparazzi/var/include/messages.h **** 	  trans->put_bytes(trans->impl, dev, DL_TYPE_FLOAT, DL_FORMAT_SCALAR, 4, (void *) _airspeed);
1186:/home/lsk/paparazzi/var/include/messages.h **** 	  trans->put_bytes(trans->impl, dev, DL_TYPE_FLOAT, DL_FORMAT_SCALAR, 4, (void *) _altitude);
1187:/home/lsk/paparazzi/var/include/messages.h **** 	  trans->put_bytes(trans->impl, dev, DL_TYPE_UINT16, DL_FORMAT_SCALAR, 2, (void *) _airspeed_offse
1188:/home/lsk/paparazzi/var/include/messages.h **** 	  trans->put_bytes(trans->impl, dev, DL_TYPE_UINT16, DL_FORMAT_SCALAR, 2, (void *) _altitude_offse
1189:/home/lsk/paparazzi/var/include/messages.h **** 	  trans->end_message(trans->impl, dev);
1190:/home/lsk/paparazzi/var/include/messages.h **** 	} else
1191:/home/lsk/paparazzi/var/include/messages.h **** 	  trans->overrun(trans->impl, dev);
1192:/home/lsk/paparazzi/var/include/messages.h **** }
1193:/home/lsk/paparazzi/var/include/messages.h **** 
1194:/home/lsk/paparazzi/var/include/messages.h **** #define DOWNLINK_SEND_GPS_LLA(_trans, _dev, lat, lon, alt, course, speed, climb, week, itow, mode, 
1195:/home/lsk/paparazzi/var/include/messages.h **** static inline void pprz_msg_send_GPS_LLA(struct transport_tx *trans, struct link_device *dev, uint8
1196:/home/lsk/paparazzi/var/include/messages.h **** 	if (trans->check_available_space(trans->impl, dev, trans->size_of(trans->impl, 0+4+4+4+2+2+2+2+4+1
1197:/home/lsk/paparazzi/var/include/messages.h **** 	  trans->count_bytes(trans->impl, dev, trans->size_of(trans->impl, 0+4+4+4+2+2+2+2+4+1+1 +2 /* msg
1198:/home/lsk/paparazzi/var/include/messages.h **** 	  trans->start_message(trans->impl, dev, 0+4+4+4+2+2+2+2+4+1+1 +2 /* msg header overhead */);
1199:/home/lsk/paparazzi/var/include/messages.h **** 	  trans->put_bytes(trans->impl, dev, DL_TYPE_UINT8, DL_FORMAT_SCALAR, 1, &ac_id);
1200:/home/lsk/paparazzi/var/include/messages.h **** 	  trans->put_named_byte(trans->impl, dev, DL_TYPE_UINT8, DL_FORMAT_SCALAR, DL_GPS_LLA, "GPS_LLA");
1201:/home/lsk/paparazzi/var/include/messages.h **** 	  trans->put_bytes(trans->impl, dev, DL_TYPE_INT32, DL_FORMAT_SCALAR, 4, (void *) _lat);
1202:/home/lsk/paparazzi/var/include/messages.h **** 	  trans->put_bytes(trans->impl, dev, DL_TYPE_INT32, DL_FORMAT_SCALAR, 4, (void *) _lon);
1203:/home/lsk/paparazzi/var/include/messages.h **** 	  trans->put_bytes(trans->impl, dev, DL_TYPE_INT32, DL_FORMAT_SCALAR, 4, (void *) _alt);
1204:/home/lsk/paparazzi/var/include/messages.h **** 	  trans->put_bytes(trans->impl, dev, DL_TYPE_INT16, DL_FORMAT_SCALAR, 2, (void *) _course);
1205:/home/lsk/paparazzi/var/include/messages.h **** 	  trans->put_bytes(trans->impl, dev, DL_TYPE_UINT16, DL_FORMAT_SCALAR, 2, (void *) _speed);
1206:/home/lsk/paparazzi/var/include/messages.h **** 	  trans->put_bytes(trans->impl, dev, DL_TYPE_INT16, DL_FORMAT_SCALAR, 2, (void *) _climb);
1207:/home/lsk/paparazzi/var/include/messages.h **** 	  trans->put_bytes(trans->impl, dev, DL_TYPE_UINT16, DL_FORMAT_SCALAR, 2, (void *) _week);
1208:/home/lsk/paparazzi/var/include/messages.h **** 	  trans->put_bytes(trans->impl, dev, DL_TYPE_UINT32, DL_FORMAT_SCALAR, 4, (void *) _itow);
1209:/home/lsk/paparazzi/var/include/messages.h **** 	  trans->put_bytes(trans->impl, dev, DL_TYPE_UINT8, DL_FORMAT_SCALAR, 1, (void *) _mode);
1210:/home/lsk/paparazzi/var/include/messages.h **** 	  trans->put_bytes(trans->impl, dev, DL_TYPE_UINT8, DL_FORMAT_SCALAR, 1, (void *) _gps_nb_err);
1211:/home/lsk/paparazzi/var/include/messages.h **** 	  trans->end_message(trans->impl, dev);
1212:/home/lsk/paparazzi/var/include/messages.h **** 	} else
1213:/home/lsk/paparazzi/var/include/messages.h **** 	  trans->overrun(trans->impl, dev);
1214:/home/lsk/paparazzi/var/include/messages.h **** }
1215:/home/lsk/paparazzi/var/include/messages.h **** 
1216:/home/lsk/paparazzi/var/include/messages.h **** #define DOWNLINK_SEND_H_CTL_A(_trans, _dev, roll_sum_err, roll_sp, roll_ref, phi, aileron_sp, pitch
1217:/home/lsk/paparazzi/var/include/messages.h **** static inline void pprz_msg_send_H_CTL_A(struct transport_tx *trans, struct link_device *dev, uint8
1218:/home/lsk/paparazzi/var/include/messages.h **** 	if (trans->check_available_space(trans->impl, dev, trans->size_of(trans->impl, 0+4+4+4+4+2+4+4+4+4
1219:/home/lsk/paparazzi/var/include/messages.h **** 	  trans->count_bytes(trans->impl, dev, trans->size_of(trans->impl, 0+4+4+4+4+2+4+4+4+4+2 +2 /* msg
1220:/home/lsk/paparazzi/var/include/messages.h **** 	  trans->start_message(trans->impl, dev, 0+4+4+4+4+2+4+4+4+4+2 +2 /* msg header overhead */);
1221:/home/lsk/paparazzi/var/include/messages.h **** 	  trans->put_bytes(trans->impl, dev, DL_TYPE_UINT8, DL_FORMAT_SCALAR, 1, &ac_id);
1222:/home/lsk/paparazzi/var/include/messages.h **** 	  trans->put_named_byte(trans->impl, dev, DL_TYPE_UINT8, DL_FORMAT_SCALAR, DL_H_CTL_A, "H_CTL_A");
1223:/home/lsk/paparazzi/var/include/messages.h **** 	  trans->put_bytes(trans->impl, dev, DL_TYPE_FLOAT, DL_FORMAT_SCALAR, 4, (void *) _roll_sum_err);
1224:/home/lsk/paparazzi/var/include/messages.h **** 	  trans->put_bytes(trans->impl, dev, DL_TYPE_FLOAT, DL_FORMAT_SCALAR, 4, (void *) _roll_sp);
1225:/home/lsk/paparazzi/var/include/messages.h **** 	  trans->put_bytes(trans->impl, dev, DL_TYPE_FLOAT, DL_FORMAT_SCALAR, 4, (void *) _roll_ref);
1226:/home/lsk/paparazzi/var/include/messages.h **** 	  trans->put_bytes(trans->impl, dev, DL_TYPE_FLOAT, DL_FORMAT_SCALAR, 4, (void *) _phi);
1227:/home/lsk/paparazzi/var/include/messages.h **** 	  trans->put_bytes(trans->impl, dev, DL_TYPE_INT16, DL_FORMAT_SCALAR, 2, (void *) _aileron_sp);
1228:/home/lsk/paparazzi/var/include/messages.h **** 	  trans->put_bytes(trans->impl, dev, DL_TYPE_FLOAT, DL_FORMAT_SCALAR, 4, (void *) _pitch_sum_err);
1229:/home/lsk/paparazzi/var/include/messages.h **** 	  trans->put_bytes(trans->impl, dev, DL_TYPE_FLOAT, DL_FORMAT_SCALAR, 4, (void *) _pitch_sp);
1230:/home/lsk/paparazzi/var/include/messages.h **** 	  trans->put_bytes(trans->impl, dev, DL_TYPE_FLOAT, DL_FORMAT_SCALAR, 4, (void *) _pitch_ref);
1231:/home/lsk/paparazzi/var/include/messages.h **** 	  trans->put_bytes(trans->impl, dev, DL_TYPE_FLOAT, DL_FORMAT_SCALAR, 4, (void *) _theta);
1232:/home/lsk/paparazzi/var/include/messages.h **** 	  trans->put_bytes(trans->impl, dev, DL_TYPE_INT16, DL_FORMAT_SCALAR, 2, (void *) _elevator_sp);
1233:/home/lsk/paparazzi/var/include/messages.h **** 	  trans->end_message(trans->impl, dev);
1234:/home/lsk/paparazzi/var/include/messages.h **** 	} else
1235:/home/lsk/paparazzi/var/include/messages.h **** 	  trans->overrun(trans->impl, dev);
1236:/home/lsk/paparazzi/var/include/messages.h **** }
1237:/home/lsk/paparazzi/var/include/messages.h **** 
1238:/home/lsk/paparazzi/var/include/messages.h **** #define DOWNLINK_SEND_TURB_PRESSURE_RAW(_trans, _dev, ch_0, ch_1, ch_2, ch_3, ch_4, ch_5, ch_6, ch_
1239:/home/lsk/paparazzi/var/include/messages.h **** static inline void pprz_msg_send_TURB_PRESSURE_RAW(struct transport_tx *trans, struct link_device *
1240:/home/lsk/paparazzi/var/include/messages.h **** 	if (trans->check_available_space(trans->impl, dev, trans->size_of(trans->impl, 0+4+4+4+4+4+4+4+4+4
1241:/home/lsk/paparazzi/var/include/messages.h **** 	  trans->count_bytes(trans->impl, dev, trans->size_of(trans->impl, 0+4+4+4+4+4+4+4+4+4+4+4+4+4+4+4
1242:/home/lsk/paparazzi/var/include/messages.h **** 	  trans->start_message(trans->impl, dev, 0+4+4+4+4+4+4+4+4+4+4+4+4+4+4+4+4 +2 /* msg header overhe
1243:/home/lsk/paparazzi/var/include/messages.h **** 	  trans->put_bytes(trans->impl, dev, DL_TYPE_UINT8, DL_FORMAT_SCALAR, 1, &ac_id);
1244:/home/lsk/paparazzi/var/include/messages.h **** 	  trans->put_named_byte(trans->impl, dev, DL_TYPE_UINT8, DL_FORMAT_SCALAR, DL_TURB_PRESSURE_RAW, "
1245:/home/lsk/paparazzi/var/include/messages.h **** 	  trans->put_bytes(trans->impl, dev, DL_TYPE_INT32, DL_FORMAT_SCALAR, 4, (void *) _ch_0);
1246:/home/lsk/paparazzi/var/include/messages.h **** 	  trans->put_bytes(trans->impl, dev, DL_TYPE_INT32, DL_FORMAT_SCALAR, 4, (void *) _ch_1);
1247:/home/lsk/paparazzi/var/include/messages.h **** 	  trans->put_bytes(trans->impl, dev, DL_TYPE_INT32, DL_FORMAT_SCALAR, 4, (void *) _ch_2);
1248:/home/lsk/paparazzi/var/include/messages.h **** 	  trans->put_bytes(trans->impl, dev, DL_TYPE_INT32, DL_FORMAT_SCALAR, 4, (void *) _ch_3);
1249:/home/lsk/paparazzi/var/include/messages.h **** 	  trans->put_bytes(trans->impl, dev, DL_TYPE_INT32, DL_FORMAT_SCALAR, 4, (void *) _ch_4);
1250:/home/lsk/paparazzi/var/include/messages.h **** 	  trans->put_bytes(trans->impl, dev, DL_TYPE_INT32, DL_FORMAT_SCALAR, 4, (void *) _ch_5);
1251:/home/lsk/paparazzi/var/include/messages.h **** 	  trans->put_bytes(trans->impl, dev, DL_TYPE_INT32, DL_FORMAT_SCALAR, 4, (void *) _ch_6);
1252:/home/lsk/paparazzi/var/include/messages.h **** 	  trans->put_bytes(trans->impl, dev, DL_TYPE_INT32, DL_FORMAT_SCALAR, 4, (void *) _ch_7);
1253:/home/lsk/paparazzi/var/include/messages.h **** 	  trans->put_bytes(trans->impl, dev, DL_TYPE_INT32, DL_FORMAT_SCALAR, 4, (void *) _ch_8);
1254:/home/lsk/paparazzi/var/include/messages.h **** 	  trans->put_bytes(trans->impl, dev, DL_TYPE_INT32, DL_FORMAT_SCALAR, 4, (void *) _ch_9);
1255:/home/lsk/paparazzi/var/include/messages.h **** 	  trans->put_bytes(trans->impl, dev, DL_TYPE_INT32, DL_FORMAT_SCALAR, 4, (void *) _ch_10);
1256:/home/lsk/paparazzi/var/include/messages.h **** 	  trans->put_bytes(trans->impl, dev, DL_TYPE_INT32, DL_FORMAT_SCALAR, 4, (void *) _ch_11);
1257:/home/lsk/paparazzi/var/include/messages.h **** 	  trans->put_bytes(trans->impl, dev, DL_TYPE_INT32, DL_FORMAT_SCALAR, 4, (void *) _ch_12);
1258:/home/lsk/paparazzi/var/include/messages.h **** 	  trans->put_bytes(trans->impl, dev, DL_TYPE_INT32, DL_FORMAT_SCALAR, 4, (void *) _ch_13);
1259:/home/lsk/paparazzi/var/include/messages.h **** 	  trans->put_bytes(trans->impl, dev, DL_TYPE_INT32, DL_FORMAT_SCALAR, 4, (void *) _ch_14);
1260:/home/lsk/paparazzi/var/include/messages.h **** 	  trans->put_bytes(trans->impl, dev, DL_TYPE_INT32, DL_FORMAT_SCALAR, 4, (void *) _ch_15);
1261:/home/lsk/paparazzi/var/include/messages.h **** 	  trans->end_message(trans->impl, dev);
1262:/home/lsk/paparazzi/var/include/messages.h **** 	} else
1263:/home/lsk/paparazzi/var/include/messages.h **** 	  trans->overrun(trans->impl, dev);
1264:/home/lsk/paparazzi/var/include/messages.h **** }
1265:/home/lsk/paparazzi/var/include/messages.h **** 
1266:/home/lsk/paparazzi/var/include/messages.h **** #define DOWNLINK_SEND_TURB_PRESSURE_VOLTAGE(_trans, _dev, ch_1_p, ch_1_t, ch_2_p, ch_2_t, ch_3_p, c
1267:/home/lsk/paparazzi/var/include/messages.h **** static inline void pprz_msg_send_TURB_PRESSURE_VOLTAGE(struct transport_tx *trans, struct link_devi
1268:/home/lsk/paparazzi/var/include/messages.h **** 	if (trans->check_available_space(trans->impl, dev, trans->size_of(trans->impl, 0+4+4+4+4+4+4+4+4+4
1269:/home/lsk/paparazzi/var/include/messages.h **** 	  trans->count_bytes(trans->impl, dev, trans->size_of(trans->impl, 0+4+4+4+4+4+4+4+4+4+4+4+4+4+4+4
1270:/home/lsk/paparazzi/var/include/messages.h **** 	  trans->start_message(trans->impl, dev, 0+4+4+4+4+4+4+4+4+4+4+4+4+4+4+4+4 +2 /* msg header overhe
1271:/home/lsk/paparazzi/var/include/messages.h **** 	  trans->put_bytes(trans->impl, dev, DL_TYPE_UINT8, DL_FORMAT_SCALAR, 1, &ac_id);
1272:/home/lsk/paparazzi/var/include/messages.h **** 	  trans->put_named_byte(trans->impl, dev, DL_TYPE_UINT8, DL_FORMAT_SCALAR, DL_TURB_PRESSURE_VOLTAG
1273:/home/lsk/paparazzi/var/include/messages.h **** 	  trans->put_bytes(trans->impl, dev, DL_TYPE_FLOAT, DL_FORMAT_SCALAR, 4, (void *) _ch_1_p);
1274:/home/lsk/paparazzi/var/include/messages.h **** 	  trans->put_bytes(trans->impl, dev, DL_TYPE_FLOAT, DL_FORMAT_SCALAR, 4, (void *) _ch_1_t);
1275:/home/lsk/paparazzi/var/include/messages.h **** 	  trans->put_bytes(trans->impl, dev, DL_TYPE_FLOAT, DL_FORMAT_SCALAR, 4, (void *) _ch_2_p);
1276:/home/lsk/paparazzi/var/include/messages.h **** 	  trans->put_bytes(trans->impl, dev, DL_TYPE_FLOAT, DL_FORMAT_SCALAR, 4, (void *) _ch_2_t);
1277:/home/lsk/paparazzi/var/include/messages.h **** 	  trans->put_bytes(trans->impl, dev, DL_TYPE_FLOAT, DL_FORMAT_SCALAR, 4, (void *) _ch_3_p);
1278:/home/lsk/paparazzi/var/include/messages.h **** 	  trans->put_bytes(trans->impl, dev, DL_TYPE_FLOAT, DL_FORMAT_SCALAR, 4, (void *) _ch_3_t);
1279:/home/lsk/paparazzi/var/include/messages.h **** 	  trans->put_bytes(trans->impl, dev, DL_TYPE_FLOAT, DL_FORMAT_SCALAR, 4, (void *) _ch_4_p);
1280:/home/lsk/paparazzi/var/include/messages.h **** 	  trans->put_bytes(trans->impl, dev, DL_TYPE_FLOAT, DL_FORMAT_SCALAR, 4, (void *) _ch_4_t);
1281:/home/lsk/paparazzi/var/include/messages.h **** 	  trans->put_bytes(trans->impl, dev, DL_TYPE_FLOAT, DL_FORMAT_SCALAR, 4, (void *) _ch_5_p);
1282:/home/lsk/paparazzi/var/include/messages.h **** 	  trans->put_bytes(trans->impl, dev, DL_TYPE_FLOAT, DL_FORMAT_SCALAR, 4, (void *) _ch_5_t);
1283:/home/lsk/paparazzi/var/include/messages.h **** 	  trans->put_bytes(trans->impl, dev, DL_TYPE_FLOAT, DL_FORMAT_SCALAR, 4, (void *) _ch_6_p);
1284:/home/lsk/paparazzi/var/include/messages.h **** 	  trans->put_bytes(trans->impl, dev, DL_TYPE_FLOAT, DL_FORMAT_SCALAR, 4, (void *) _ch_6_t);
1285:/home/lsk/paparazzi/var/include/messages.h **** 	  trans->put_bytes(trans->impl, dev, DL_TYPE_FLOAT, DL_FORMAT_SCALAR, 4, (void *) _ch_7_p);
1286:/home/lsk/paparazzi/var/include/messages.h **** 	  trans->put_bytes(trans->impl, dev, DL_TYPE_FLOAT, DL_FORMAT_SCALAR, 4, (void *) _ch_7_t);
1287:/home/lsk/paparazzi/var/include/messages.h **** 	  trans->put_bytes(trans->impl, dev, DL_TYPE_FLOAT, DL_FORMAT_SCALAR, 4, (void *) _gnd1);
1288:/home/lsk/paparazzi/var/include/messages.h **** 	  trans->put_bytes(trans->impl, dev, DL_TYPE_FLOAT, DL_FORMAT_SCALAR, 4, (void *) _gnd2);
1289:/home/lsk/paparazzi/var/include/messages.h **** 	  trans->end_message(trans->impl, dev);
1290:/home/lsk/paparazzi/var/include/messages.h **** 	} else
1291:/home/lsk/paparazzi/var/include/messages.h **** 	  trans->overrun(trans->impl, dev);
1292:/home/lsk/paparazzi/var/include/messages.h **** }
1293:/home/lsk/paparazzi/var/include/messages.h **** 
1294:/home/lsk/paparazzi/var/include/messages.h **** #define DOWNLINK_SEND_CAM_POINT(_trans, _dev, cam_point_distance_from_home, cam_point_lat, cam_poin
1295:/home/lsk/paparazzi/var/include/messages.h **** static inline void pprz_msg_send_CAM_POINT(struct transport_tx *trans, struct link_device *dev, uin
1296:/home/lsk/paparazzi/var/include/messages.h **** 	if (trans->check_available_space(trans->impl, dev, trans->size_of(trans->impl, 0+2+4+4 +2 /* msg h
1297:/home/lsk/paparazzi/var/include/messages.h **** 	  trans->count_bytes(trans->impl, dev, trans->size_of(trans->impl, 0+2+4+4 +2 /* msg header overhe
1298:/home/lsk/paparazzi/var/include/messages.h **** 	  trans->start_message(trans->impl, dev, 0+2+4+4 +2 /* msg header overhead */);
1299:/home/lsk/paparazzi/var/include/messages.h **** 	  trans->put_bytes(trans->impl, dev, DL_TYPE_UINT8, DL_FORMAT_SCALAR, 1, &ac_id);
1300:/home/lsk/paparazzi/var/include/messages.h **** 	  trans->put_named_byte(trans->impl, dev, DL_TYPE_UINT8, DL_FORMAT_SCALAR, DL_CAM_POINT, "CAM_POIN
1301:/home/lsk/paparazzi/var/include/messages.h **** 	  trans->put_bytes(trans->impl, dev, DL_TYPE_UINT16, DL_FORMAT_SCALAR, 2, (void *) _cam_point_dist
1302:/home/lsk/paparazzi/var/include/messages.h **** 	  trans->put_bytes(trans->impl, dev, DL_TYPE_FLOAT, DL_FORMAT_SCALAR, 4, (void *) _cam_point_lat);
1303:/home/lsk/paparazzi/var/include/messages.h **** 	  trans->put_bytes(trans->impl, dev, DL_TYPE_FLOAT, DL_FORMAT_SCALAR, 4, (void *) _cam_point_lon);
1304:/home/lsk/paparazzi/var/include/messages.h **** 	  trans->end_message(trans->impl, dev);
1305:/home/lsk/paparazzi/var/include/messages.h **** 	} else
1306:/home/lsk/paparazzi/var/include/messages.h **** 	  trans->overrun(trans->impl, dev);
1307:/home/lsk/paparazzi/var/include/messages.h **** }
1308:/home/lsk/paparazzi/var/include/messages.h **** 
1309:/home/lsk/paparazzi/var/include/messages.h **** #define DOWNLINK_SEND_DC_INFO(_trans, _dev, mode, lat, lon, alt, course, photo_nr, dist, next_dist,
1310:/home/lsk/paparazzi/var/include/messages.h **** static inline void pprz_msg_send_DC_INFO(struct transport_tx *trans, struct link_device *dev, uint8
1311:/home/lsk/paparazzi/var/include/messages.h **** 	if (trans->check_available_space(trans->impl, dev, trans->size_of(trans->impl, 0+2+4+4+4+4+2+4+4+4
1312:/home/lsk/paparazzi/var/include/messages.h **** 	  trans->count_bytes(trans->impl, dev, trans->size_of(trans->impl, 0+2+4+4+4+4+2+4+4+4+4+4+4+4+2+1
1313:/home/lsk/paparazzi/var/include/messages.h **** 	  trans->start_message(trans->impl, dev, 0+2+4+4+4+4+2+4+4+4+4+4+4+4+2+1 +2 /* msg header overhead
1314:/home/lsk/paparazzi/var/include/messages.h **** 	  trans->put_bytes(trans->impl, dev, DL_TYPE_UINT8, DL_FORMAT_SCALAR, 1, &ac_id);
1315:/home/lsk/paparazzi/var/include/messages.h **** 	  trans->put_named_byte(trans->impl, dev, DL_TYPE_UINT8, DL_FORMAT_SCALAR, DL_DC_INFO, "DC_INFO");
1316:/home/lsk/paparazzi/var/include/messages.h **** 	  trans->put_bytes(trans->impl, dev, DL_TYPE_INT16, DL_FORMAT_SCALAR, 2, (void *) _mode);
1317:/home/lsk/paparazzi/var/include/messages.h **** 	  trans->put_bytes(trans->impl, dev, DL_TYPE_INT32, DL_FORMAT_SCALAR, 4, (void *) _lat);
1318:/home/lsk/paparazzi/var/include/messages.h **** 	  trans->put_bytes(trans->impl, dev, DL_TYPE_INT32, DL_FORMAT_SCALAR, 4, (void *) _lon);
1319:/home/lsk/paparazzi/var/include/messages.h **** 	  trans->put_bytes(trans->impl, dev, DL_TYPE_INT32, DL_FORMAT_SCALAR, 4, (void *) _alt);
1320:/home/lsk/paparazzi/var/include/messages.h **** 	  trans->put_bytes(trans->impl, dev, DL_TYPE_FLOAT, DL_FORMAT_SCALAR, 4, (void *) _course);
1321:/home/lsk/paparazzi/var/include/messages.h **** 	  trans->put_bytes(trans->impl, dev, DL_TYPE_UINT16, DL_FORMAT_SCALAR, 2, (void *) _photo_nr);
1322:/home/lsk/paparazzi/var/include/messages.h **** 	  trans->put_bytes(trans->impl, dev, DL_TYPE_FLOAT, DL_FORMAT_SCALAR, 4, (void *) _dist);
1323:/home/lsk/paparazzi/var/include/messages.h **** 	  trans->put_bytes(trans->impl, dev, DL_TYPE_FLOAT, DL_FORMAT_SCALAR, 4, (void *) _next_dist);
1324:/home/lsk/paparazzi/var/include/messages.h **** 	  trans->put_bytes(trans->impl, dev, DL_TYPE_FLOAT, DL_FORMAT_SCALAR, 4, (void *) _start_x);
1325:/home/lsk/paparazzi/var/include/messages.h **** 	  trans->put_bytes(trans->impl, dev, DL_TYPE_FLOAT, DL_FORMAT_SCALAR, 4, (void *) _start_y);
1326:/home/lsk/paparazzi/var/include/messages.h **** 	  trans->put_bytes(trans->impl, dev, DL_TYPE_FLOAT, DL_FORMAT_SCALAR, 4, (void *) _start_angle);
1327:/home/lsk/paparazzi/var/include/messages.h **** 	  trans->put_bytes(trans->impl, dev, DL_TYPE_FLOAT, DL_FORMAT_SCALAR, 4, (void *) _angle);
1328:/home/lsk/paparazzi/var/include/messages.h **** 	  trans->put_bytes(trans->impl, dev, DL_TYPE_FLOAT, DL_FORMAT_SCALAR, 4, (void *) _last_block);
1329:/home/lsk/paparazzi/var/include/messages.h **** 	  trans->put_bytes(trans->impl, dev, DL_TYPE_UINT16, DL_FORMAT_SCALAR, 2, (void *) _count);
1330:/home/lsk/paparazzi/var/include/messages.h **** 	  trans->put_bytes(trans->impl, dev, DL_TYPE_UINT8, DL_FORMAT_SCALAR, 1, (void *) _shutter);
1331:/home/lsk/paparazzi/var/include/messages.h **** 	  trans->end_message(trans->impl, dev);
1332:/home/lsk/paparazzi/var/include/messages.h **** 	} else
1333:/home/lsk/paparazzi/var/include/messages.h **** 	  trans->overrun(trans->impl, dev);
1334:/home/lsk/paparazzi/var/include/messages.h **** }
1335:/home/lsk/paparazzi/var/include/messages.h **** 
1336:/home/lsk/paparazzi/var/include/messages.h **** #define DOWNLINK_SEND_AMSYS_BARO(_trans, _dev, pBaroRaw, pBaro, pHomePressure, AltOffset, aktuell, 
1337:/home/lsk/paparazzi/var/include/messages.h **** static inline void pprz_msg_send_AMSYS_BARO(struct transport_tx *trans, struct link_device *dev, ui
1338:/home/lsk/paparazzi/var/include/messages.h **** 	if (trans->check_available_space(trans->impl, dev, trans->size_of(trans->impl, 0+2+4+4+4+4+4+4 +2 
1339:/home/lsk/paparazzi/var/include/messages.h **** 	  trans->count_bytes(trans->impl, dev, trans->size_of(trans->impl, 0+2+4+4+4+4+4+4 +2 /* msg heade
1340:/home/lsk/paparazzi/var/include/messages.h **** 	  trans->start_message(trans->impl, dev, 0+2+4+4+4+4+4+4 +2 /* msg header overhead */);
1341:/home/lsk/paparazzi/var/include/messages.h **** 	  trans->put_bytes(trans->impl, dev, DL_TYPE_UINT8, DL_FORMAT_SCALAR, 1, &ac_id);
1342:/home/lsk/paparazzi/var/include/messages.h **** 	  trans->put_named_byte(trans->impl, dev, DL_TYPE_UINT8, DL_FORMAT_SCALAR, DL_AMSYS_BARO, "AMSYS_B
1343:/home/lsk/paparazzi/var/include/messages.h **** 	  trans->put_bytes(trans->impl, dev, DL_TYPE_UINT16, DL_FORMAT_SCALAR, 2, (void *) _pBaroRaw);
1344:/home/lsk/paparazzi/var/include/messages.h **** 	  trans->put_bytes(trans->impl, dev, DL_TYPE_FLOAT, DL_FORMAT_SCALAR, 4, (void *) _pBaro);
1345:/home/lsk/paparazzi/var/include/messages.h **** 	  trans->put_bytes(trans->impl, dev, DL_TYPE_FLOAT, DL_FORMAT_SCALAR, 4, (void *) _pHomePressure);
1346:/home/lsk/paparazzi/var/include/messages.h **** 	  trans->put_bytes(trans->impl, dev, DL_TYPE_FLOAT, DL_FORMAT_SCALAR, 4, (void *) _AltOffset);
1347:/home/lsk/paparazzi/var/include/messages.h **** 	  trans->put_bytes(trans->impl, dev, DL_TYPE_FLOAT, DL_FORMAT_SCALAR, 4, (void *) _aktuell);
1348:/home/lsk/paparazzi/var/include/messages.h **** 	  trans->put_bytes(trans->impl, dev, DL_TYPE_FLOAT, DL_FORMAT_SCALAR, 4, (void *) _Over_Ground);
1349:/home/lsk/paparazzi/var/include/messages.h **** 	  trans->put_bytes(trans->impl, dev, DL_TYPE_FLOAT, DL_FORMAT_SCALAR, 4, (void *) _tempBaro);
1350:/home/lsk/paparazzi/var/include/messages.h **** 	  trans->end_message(trans->impl, dev);
1351:/home/lsk/paparazzi/var/include/messages.h **** 	} else
1352:/home/lsk/paparazzi/var/include/messages.h **** 	  trans->overrun(trans->impl, dev);
1353:/home/lsk/paparazzi/var/include/messages.h **** }
1354:/home/lsk/paparazzi/var/include/messages.h **** 
1355:/home/lsk/paparazzi/var/include/messages.h **** #define DOWNLINK_SEND_AMSYS_AIRSPEED(_trans, _dev, asRaw, asPresure, asAirspeed, asAirsFilt, asTemp
1356:/home/lsk/paparazzi/var/include/messages.h **** static inline void pprz_msg_send_AMSYS_AIRSPEED(struct transport_tx *trans, struct link_device *dev
1357:/home/lsk/paparazzi/var/include/messages.h **** 	if (trans->check_available_space(trans->impl, dev, trans->size_of(trans->impl, 0+2+4+4+4+4 +2 /* m
1358:/home/lsk/paparazzi/var/include/messages.h **** 	  trans->count_bytes(trans->impl, dev, trans->size_of(trans->impl, 0+2+4+4+4+4 +2 /* msg header ov
1359:/home/lsk/paparazzi/var/include/messages.h **** 	  trans->start_message(trans->impl, dev, 0+2+4+4+4+4 +2 /* msg header overhead */);
1360:/home/lsk/paparazzi/var/include/messages.h **** 	  trans->put_bytes(trans->impl, dev, DL_TYPE_UINT8, DL_FORMAT_SCALAR, 1, &ac_id);
1361:/home/lsk/paparazzi/var/include/messages.h **** 	  trans->put_named_byte(trans->impl, dev, DL_TYPE_UINT8, DL_FORMAT_SCALAR, DL_AMSYS_AIRSPEED, "AMS
1362:/home/lsk/paparazzi/var/include/messages.h **** 	  trans->put_bytes(trans->impl, dev, DL_TYPE_UINT16, DL_FORMAT_SCALAR, 2, (void *) _asRaw);
1363:/home/lsk/paparazzi/var/include/messages.h **** 	  trans->put_bytes(trans->impl, dev, DL_TYPE_FLOAT, DL_FORMAT_SCALAR, 4, (void *) _asPresure);
1364:/home/lsk/paparazzi/var/include/messages.h **** 	  trans->put_bytes(trans->impl, dev, DL_TYPE_FLOAT, DL_FORMAT_SCALAR, 4, (void *) _asAirspeed);
1365:/home/lsk/paparazzi/var/include/messages.h **** 	  trans->put_bytes(trans->impl, dev, DL_TYPE_FLOAT, DL_FORMAT_SCALAR, 4, (void *) _asAirsFilt);
1366:/home/lsk/paparazzi/var/include/messages.h **** 	  trans->put_bytes(trans->impl, dev, DL_TYPE_FLOAT, DL_FORMAT_SCALAR, 4, (void *) _asTemp);
1367:/home/lsk/paparazzi/var/include/messages.h **** 	  trans->end_message(trans->impl, dev);
1368:/home/lsk/paparazzi/var/include/messages.h **** 	} else
1369:/home/lsk/paparazzi/var/include/messages.h **** 	  trans->overrun(trans->impl, dev);
1370:/home/lsk/paparazzi/var/include/messages.h **** }
1371:/home/lsk/paparazzi/var/include/messages.h **** 
1372:/home/lsk/paparazzi/var/include/messages.h **** #define DOWNLINK_SEND_FLIGHT_BENCHMARK(_trans, _dev, SE_As, SE_Alt, SE_Pos, Err_As, Err_Alt, Err_Po
1373:/home/lsk/paparazzi/var/include/messages.h **** static inline void pprz_msg_send_FLIGHT_BENCHMARK(struct transport_tx *trans, struct link_device *d
1374:/home/lsk/paparazzi/var/include/messages.h **** 	if (trans->check_available_space(trans->impl, dev, trans->size_of(trans->impl, 0+4+4+4+4+4+4 +2 /*
1375:/home/lsk/paparazzi/var/include/messages.h **** 	  trans->count_bytes(trans->impl, dev, trans->size_of(trans->impl, 0+4+4+4+4+4+4 +2 /* msg header 
1376:/home/lsk/paparazzi/var/include/messages.h **** 	  trans->start_message(trans->impl, dev, 0+4+4+4+4+4+4 +2 /* msg header overhead */);
1377:/home/lsk/paparazzi/var/include/messages.h **** 	  trans->put_bytes(trans->impl, dev, DL_TYPE_UINT8, DL_FORMAT_SCALAR, 1, &ac_id);
1378:/home/lsk/paparazzi/var/include/messages.h **** 	  trans->put_named_byte(trans->impl, dev, DL_TYPE_UINT8, DL_FORMAT_SCALAR, DL_FLIGHT_BENCHMARK, "F
1379:/home/lsk/paparazzi/var/include/messages.h **** 	  trans->put_bytes(trans->impl, dev, DL_TYPE_FLOAT, DL_FORMAT_SCALAR, 4, (void *) _SE_As);
1380:/home/lsk/paparazzi/var/include/messages.h **** 	  trans->put_bytes(trans->impl, dev, DL_TYPE_FLOAT, DL_FORMAT_SCALAR, 4, (void *) _SE_Alt);
1381:/home/lsk/paparazzi/var/include/messages.h **** 	  trans->put_bytes(trans->impl, dev, DL_TYPE_FLOAT, DL_FORMAT_SCALAR, 4, (void *) _SE_Pos);
1382:/home/lsk/paparazzi/var/include/messages.h **** 	  trans->put_bytes(trans->impl, dev, DL_TYPE_FLOAT, DL_FORMAT_SCALAR, 4, (void *) _Err_As);
1383:/home/lsk/paparazzi/var/include/messages.h **** 	  trans->put_bytes(trans->impl, dev, DL_TYPE_FLOAT, DL_FORMAT_SCALAR, 4, (void *) _Err_Alt);
1384:/home/lsk/paparazzi/var/include/messages.h **** 	  trans->put_bytes(trans->impl, dev, DL_TYPE_FLOAT, DL_FORMAT_SCALAR, 4, (void *) _Err_Pos);
1385:/home/lsk/paparazzi/var/include/messages.h **** 	  trans->end_message(trans->impl, dev);
1386:/home/lsk/paparazzi/var/include/messages.h **** 	} else
1387:/home/lsk/paparazzi/var/include/messages.h **** 	  trans->overrun(trans->impl, dev);
1388:/home/lsk/paparazzi/var/include/messages.h **** }
1389:/home/lsk/paparazzi/var/include/messages.h **** 
1390:/home/lsk/paparazzi/var/include/messages.h **** #define DOWNLINK_SEND_MPL3115_BARO(_trans, _dev, pressure, temp, alt) pprz_msg_send_MPL3115_BARO(&(
1391:/home/lsk/paparazzi/var/include/messages.h **** static inline void pprz_msg_send_MPL3115_BARO(struct transport_tx *trans, struct link_device *dev, 
1392:/home/lsk/paparazzi/var/include/messages.h **** 	if (trans->check_available_space(trans->impl, dev, trans->size_of(trans->impl, 0+4+2+4 +2 /* msg h
1393:/home/lsk/paparazzi/var/include/messages.h **** 	  trans->count_bytes(trans->impl, dev, trans->size_of(trans->impl, 0+4+2+4 +2 /* msg header overhe
1394:/home/lsk/paparazzi/var/include/messages.h **** 	  trans->start_message(trans->impl, dev, 0+4+2+4 +2 /* msg header overhead */);
1395:/home/lsk/paparazzi/var/include/messages.h **** 	  trans->put_bytes(trans->impl, dev, DL_TYPE_UINT8, DL_FORMAT_SCALAR, 1, &ac_id);
1396:/home/lsk/paparazzi/var/include/messages.h **** 	  trans->put_named_byte(trans->impl, dev, DL_TYPE_UINT8, DL_FORMAT_SCALAR, DL_MPL3115_BARO, "MPL31
1397:/home/lsk/paparazzi/var/include/messages.h **** 	  trans->put_bytes(trans->impl, dev, DL_TYPE_UINT32, DL_FORMAT_SCALAR, 4, (void *) _pressure);
1398:/home/lsk/paparazzi/var/include/messages.h **** 	  trans->put_bytes(trans->impl, dev, DL_TYPE_INT16, DL_FORMAT_SCALAR, 2, (void *) _temp);
1399:/home/lsk/paparazzi/var/include/messages.h **** 	  trans->put_bytes(trans->impl, dev, DL_TYPE_FLOAT, DL_FORMAT_SCALAR, 4, (void *) _alt);
1400:/home/lsk/paparazzi/var/include/messages.h **** 	  trans->end_message(trans->impl, dev);
1401:/home/lsk/paparazzi/var/include/messages.h **** 	} else
1402:/home/lsk/paparazzi/var/include/messages.h **** 	  trans->overrun(trans->impl, dev);
1403:/home/lsk/paparazzi/var/include/messages.h **** }
1404:/home/lsk/paparazzi/var/include/messages.h **** 
1405:/home/lsk/paparazzi/var/include/messages.h **** #define DOWNLINK_SEND_AOA_ADC(_trans, _dev, adcVal, AOA) pprz_msg_send_AOA_ADC(&((_trans).trans_tx)
1406:/home/lsk/paparazzi/var/include/messages.h **** static inline void pprz_msg_send_AOA_ADC(struct transport_tx *trans, struct link_device *dev, uint8
1407:/home/lsk/paparazzi/var/include/messages.h **** 	if (trans->check_available_space(trans->impl, dev, trans->size_of(trans->impl, 0+2+4 +2 /* msg hea
1408:/home/lsk/paparazzi/var/include/messages.h **** 	  trans->count_bytes(trans->impl, dev, trans->size_of(trans->impl, 0+2+4 +2 /* msg header overhead
1409:/home/lsk/paparazzi/var/include/messages.h **** 	  trans->start_message(trans->impl, dev, 0+2+4 +2 /* msg header overhead */);
1410:/home/lsk/paparazzi/var/include/messages.h **** 	  trans->put_bytes(trans->impl, dev, DL_TYPE_UINT8, DL_FORMAT_SCALAR, 1, &ac_id);
1411:/home/lsk/paparazzi/var/include/messages.h **** 	  trans->put_named_byte(trans->impl, dev, DL_TYPE_UINT8, DL_FORMAT_SCALAR, DL_AOA_ADC, "AOA_ADC");
1412:/home/lsk/paparazzi/var/include/messages.h **** 	  trans->put_bytes(trans->impl, dev, DL_TYPE_UINT16, DL_FORMAT_SCALAR, 2, (void *) _adcVal);
1413:/home/lsk/paparazzi/var/include/messages.h **** 	  trans->put_bytes(trans->impl, dev, DL_TYPE_FLOAT, DL_FORMAT_SCALAR, 4, (void *) _AOA);
1414:/home/lsk/paparazzi/var/include/messages.h **** 	  trans->end_message(trans->impl, dev);
1415:/home/lsk/paparazzi/var/include/messages.h **** 	} else
1416:/home/lsk/paparazzi/var/include/messages.h **** 	  trans->overrun(trans->impl, dev);
1417:/home/lsk/paparazzi/var/include/messages.h **** }
1418:/home/lsk/paparazzi/var/include/messages.h **** 
1419:/home/lsk/paparazzi/var/include/messages.h **** #define DOWNLINK_SEND_XTEND_RSSI(_trans, _dev, datalink_time, rssi_fade_margin, duty) pprz_msg_send
1420:/home/lsk/paparazzi/var/include/messages.h **** static inline void pprz_msg_send_XTEND_RSSI(struct transport_tx *trans, struct link_device *dev, ui
1421:/home/lsk/paparazzi/var/include/messages.h **** 	if (trans->check_available_space(trans->impl, dev, trans->size_of(trans->impl, 0+2+1+1 +2 /* msg h
1422:/home/lsk/paparazzi/var/include/messages.h **** 	  trans->count_bytes(trans->impl, dev, trans->size_of(trans->impl, 0+2+1+1 +2 /* msg header overhe
1423:/home/lsk/paparazzi/var/include/messages.h **** 	  trans->start_message(trans->impl, dev, 0+2+1+1 +2 /* msg header overhead */);
1424:/home/lsk/paparazzi/var/include/messages.h **** 	  trans->put_bytes(trans->impl, dev, DL_TYPE_UINT8, DL_FORMAT_SCALAR, 1, &ac_id);
1425:/home/lsk/paparazzi/var/include/messages.h **** 	  trans->put_named_byte(trans->impl, dev, DL_TYPE_UINT8, DL_FORMAT_SCALAR, DL_XTEND_RSSI, "XTEND_R
1426:/home/lsk/paparazzi/var/include/messages.h **** 	  trans->put_bytes(trans->impl, dev, DL_TYPE_UINT16, DL_FORMAT_SCALAR, 2, (void *) _datalink_time)
1427:/home/lsk/paparazzi/var/include/messages.h **** 	  trans->put_bytes(trans->impl, dev, DL_TYPE_UINT8, DL_FORMAT_SCALAR, 1, (void *) _rssi_fade_margi
1428:/home/lsk/paparazzi/var/include/messages.h **** 	  trans->put_bytes(trans->impl, dev, DL_TYPE_UINT8, DL_FORMAT_SCALAR, 1, (void *) _duty);
1429:/home/lsk/paparazzi/var/include/messages.h **** 	  trans->end_message(trans->impl, dev);
1430:/home/lsk/paparazzi/var/include/messages.h **** 	} else
1431:/home/lsk/paparazzi/var/include/messages.h **** 	  trans->overrun(trans->impl, dev);
1432:/home/lsk/paparazzi/var/include/messages.h **** }
1433:/home/lsk/paparazzi/var/include/messages.h **** 
1434:/home/lsk/paparazzi/var/include/messages.h **** #define DOWNLINK_SEND_SUPERBITRF(_trans, _dev, status, cyrf_status, irq_count, rx_packet_count, tx_
1435:/home/lsk/paparazzi/var/include/messages.h **** static inline void pprz_msg_send_SUPERBITRF(struct transport_tx *trans, struct link_device *dev, ui
1436:/home/lsk/paparazzi/var/include/messages.h **** 	if (trans->check_available_space(trans->impl, dev, trans->size_of(trans->impl, 0+1+1+4+4+4+4+4+4+4
1437:/home/lsk/paparazzi/var/include/messages.h **** 	  trans->count_bytes(trans->impl, dev, trans->size_of(trans->impl, 0+1+1+4+4+4+4+4+4+4+4+4+4+1+nb_
1438:/home/lsk/paparazzi/var/include/messages.h **** 	  trans->start_message(trans->impl, dev, 0+1+1+4+4+4+4+4+4+4+4+4+4+1+nb_mfg_id*1 +2 /* msg header 
1439:/home/lsk/paparazzi/var/include/messages.h **** 	  trans->put_bytes(trans->impl, dev, DL_TYPE_UINT8, DL_FORMAT_SCALAR, 1, &ac_id);
1440:/home/lsk/paparazzi/var/include/messages.h **** 	  trans->put_named_byte(trans->impl, dev, DL_TYPE_UINT8, DL_FORMAT_SCALAR, DL_SUPERBITRF, "SUPERBI
1441:/home/lsk/paparazzi/var/include/messages.h **** 	  trans->put_bytes(trans->impl, dev, DL_TYPE_UINT8, DL_FORMAT_SCALAR, 1, (void *) _status);
1442:/home/lsk/paparazzi/var/include/messages.h **** 	  trans->put_bytes(trans->impl, dev, DL_TYPE_UINT8, DL_FORMAT_SCALAR, 1, (void *) _cyrf_status);
1443:/home/lsk/paparazzi/var/include/messages.h **** 	  trans->put_bytes(trans->impl, dev, DL_TYPE_UINT32, DL_FORMAT_SCALAR, 4, (void *) _irq_count);
1444:/home/lsk/paparazzi/var/include/messages.h **** 	  trans->put_bytes(trans->impl, dev, DL_TYPE_UINT32, DL_FORMAT_SCALAR, 4, (void *) _rx_packet_coun
1445:/home/lsk/paparazzi/var/include/messages.h **** 	  trans->put_bytes(trans->impl, dev, DL_TYPE_UINT32, DL_FORMAT_SCALAR, 4, (void *) _tx_packet_coun
1446:/home/lsk/paparazzi/var/include/messages.h **** 	  trans->put_bytes(trans->impl, dev, DL_TYPE_UINT32, DL_FORMAT_SCALAR, 4, (void *) _transfer_timeo
1447:/home/lsk/paparazzi/var/include/messages.h **** 	  trans->put_bytes(trans->impl, dev, DL_TYPE_UINT32, DL_FORMAT_SCALAR, 4, (void *) _resync_count);
1448:/home/lsk/paparazzi/var/include/messages.h **** 	  trans->put_bytes(trans->impl, dev, DL_TYPE_UINT32, DL_FORMAT_SCALAR, 4, (void *) _uplink_count);
1449:/home/lsk/paparazzi/var/include/messages.h **** 	  trans->put_bytes(trans->impl, dev, DL_TYPE_UINT32, DL_FORMAT_SCALAR, 4, (void *) _rc_count);
1450:/home/lsk/paparazzi/var/include/messages.h **** 	  trans->put_bytes(trans->impl, dev, DL_TYPE_UINT32, DL_FORMAT_SCALAR, 4, (void *) _timing1);
1451:/home/lsk/paparazzi/var/include/messages.h **** 	  trans->put_bytes(trans->impl, dev, DL_TYPE_UINT32, DL_FORMAT_SCALAR, 4, (void *) _timing2);
1452:/home/lsk/paparazzi/var/include/messages.h **** 	  trans->put_bytes(trans->impl, dev, DL_TYPE_UINT32, DL_FORMAT_SCALAR, 4, (void *) _bind_mfg_id);
1453:/home/lsk/paparazzi/var/include/messages.h **** 	  trans->put_bytes(trans->impl, dev, DL_TYPE_ARRAY_LENGTH, DL_FORMAT_SCALAR, 1, (void *) &nb_mfg_i
1454:/home/lsk/paparazzi/var/include/messages.h **** 	  trans->put_bytes(trans->impl, dev, DL_TYPE_UINT8, DL_FORMAT_ARRAY, 1 * nb_mfg_id, (void *) _mfg_
1455:/home/lsk/paparazzi/var/include/messages.h **** 	  trans->end_message(trans->impl, dev);
1456:/home/lsk/paparazzi/var/include/messages.h **** 	} else
1457:/home/lsk/paparazzi/var/include/messages.h **** 	  trans->overrun(trans->impl, dev);
1458:/home/lsk/paparazzi/var/include/messages.h **** }
1459:/home/lsk/paparazzi/var/include/messages.h **** 
1460:/home/lsk/paparazzi/var/include/messages.h **** #define DOWNLINK_SEND_GX3_INFO(_trans, _dev, GX3_freq, chksm_error, hdr_error, GX3_chksm) pprz_msg_
1461:/home/lsk/paparazzi/var/include/messages.h **** static inline void pprz_msg_send_GX3_INFO(struct transport_tx *trans, struct link_device *dev, uint
1462:/home/lsk/paparazzi/var/include/messages.h **** 	if (trans->check_available_space(trans->impl, dev, trans->size_of(trans->impl, 0+4+4+4+2 +2 /* msg
1463:/home/lsk/paparazzi/var/include/messages.h **** 	  trans->count_bytes(trans->impl, dev, trans->size_of(trans->impl, 0+4+4+4+2 +2 /* msg header over
1464:/home/lsk/paparazzi/var/include/messages.h **** 	  trans->start_message(trans->impl, dev, 0+4+4+4+2 +2 /* msg header overhead */);
1465:/home/lsk/paparazzi/var/include/messages.h **** 	  trans->put_bytes(trans->impl, dev, DL_TYPE_UINT8, DL_FORMAT_SCALAR, 1, &ac_id);
1466:/home/lsk/paparazzi/var/include/messages.h **** 	  trans->put_named_byte(trans->impl, dev, DL_TYPE_UINT8, DL_FORMAT_SCALAR, DL_GX3_INFO, "GX3_INFO"
1467:/home/lsk/paparazzi/var/include/messages.h **** 	  trans->put_bytes(trans->impl, dev, DL_TYPE_FLOAT, DL_FORMAT_SCALAR, 4, (void *) _GX3_freq);
1468:/home/lsk/paparazzi/var/include/messages.h **** 	  trans->put_bytes(trans->impl, dev, DL_TYPE_UINT32, DL_FORMAT_SCALAR, 4, (void *) _chksm_error);
1469:/home/lsk/paparazzi/var/include/messages.h **** 	  trans->put_bytes(trans->impl, dev, DL_TYPE_UINT32, DL_FORMAT_SCALAR, 4, (void *) _hdr_error);
1470:/home/lsk/paparazzi/var/include/messages.h **** 	  trans->put_bytes(trans->impl, dev, DL_TYPE_UINT16, DL_FORMAT_SCALAR, 2, (void *) _GX3_chksm);
1471:/home/lsk/paparazzi/var/include/messages.h **** 	  trans->end_message(trans->impl, dev);
1472:/home/lsk/paparazzi/var/include/messages.h **** 	} else
1473:/home/lsk/paparazzi/var/include/messages.h **** 	  trans->overrun(trans->impl, dev);
1474:/home/lsk/paparazzi/var/include/messages.h **** }
1475:/home/lsk/paparazzi/var/include/messages.h **** 
1476:/home/lsk/paparazzi/var/include/messages.h **** #define DOWNLINK_SEND_EXPLAIN(_trans, _dev, type, id, nb_string, string) pprz_msg_send_EXPLAIN(&((_
1477:/home/lsk/paparazzi/var/include/messages.h **** static inline void pprz_msg_send_EXPLAIN(struct transport_tx *trans, struct link_device *dev, uint8
1478:/home/lsk/paparazzi/var/include/messages.h **** 	if (trans->check_available_space(trans->impl, dev, trans->size_of(trans->impl, 0+1+1+1+nb_string*1
1479:/home/lsk/paparazzi/var/include/messages.h **** 	  trans->count_bytes(trans->impl, dev, trans->size_of(trans->impl, 0+1+1+1+nb_string*1 +2 /* msg h
1480:/home/lsk/paparazzi/var/include/messages.h **** 	  trans->start_message(trans->impl, dev, 0+1+1+1+nb_string*1 +2 /* msg header overhead */);
1481:/home/lsk/paparazzi/var/include/messages.h **** 	  trans->put_bytes(trans->impl, dev, DL_TYPE_UINT8, DL_FORMAT_SCALAR, 1, &ac_id);
1482:/home/lsk/paparazzi/var/include/messages.h **** 	  trans->put_named_byte(trans->impl, dev, DL_TYPE_UINT8, DL_FORMAT_SCALAR, DL_EXPLAIN, "EXPLAIN");
1483:/home/lsk/paparazzi/var/include/messages.h **** 	  trans->put_bytes(trans->impl, dev, DL_TYPE_UINT8, DL_FORMAT_SCALAR, 1, (void *) _type);
1484:/home/lsk/paparazzi/var/include/messages.h **** 	  trans->put_bytes(trans->impl, dev, DL_TYPE_UINT8, DL_FORMAT_SCALAR, 1, (void *) _id);
1485:/home/lsk/paparazzi/var/include/messages.h **** 	  trans->put_bytes(trans->impl, dev, DL_TYPE_ARRAY_LENGTH, DL_FORMAT_SCALAR, 1, (void *) &nb_strin
1486:/home/lsk/paparazzi/var/include/messages.h **** 	  trans->put_bytes(trans->impl, dev, DL_TYPE_UINT8, DL_FORMAT_ARRAY, 1 * nb_string, (void *) _stri
1487:/home/lsk/paparazzi/var/include/messages.h **** 	  trans->end_message(trans->impl, dev);
1488:/home/lsk/paparazzi/var/include/messages.h **** 	} else
1489:/home/lsk/paparazzi/var/include/messages.h **** 	  trans->overrun(trans->impl, dev);
1490:/home/lsk/paparazzi/var/include/messages.h **** }
1491:/home/lsk/paparazzi/var/include/messages.h **** 
1492:/home/lsk/paparazzi/var/include/messages.h **** #define DOWNLINK_SEND_VIDEO_TELEMETRY(_trans, _dev, blob_x1, blob_y1, blob_x2, blob_y2, blob_x3, bl
1493:/home/lsk/paparazzi/var/include/messages.h **** static inline void pprz_msg_send_VIDEO_TELEMETRY(struct transport_tx *trans, struct link_device *de
1494:/home/lsk/paparazzi/var/include/messages.h **** 	if (trans->check_available_space(trans->impl, dev, trans->size_of(trans->impl, 0+4+4+4+4+4+4+4+4 +
1495:/home/lsk/paparazzi/var/include/messages.h **** 	  trans->count_bytes(trans->impl, dev, trans->size_of(trans->impl, 0+4+4+4+4+4+4+4+4 +2 /* msg hea
1496:/home/lsk/paparazzi/var/include/messages.h **** 	  trans->start_message(trans->impl, dev, 0+4+4+4+4+4+4+4+4 +2 /* msg header overhead */);
1497:/home/lsk/paparazzi/var/include/messages.h **** 	  trans->put_bytes(trans->impl, dev, DL_TYPE_UINT8, DL_FORMAT_SCALAR, 1, &ac_id);
1498:/home/lsk/paparazzi/var/include/messages.h **** 	  trans->put_named_byte(trans->impl, dev, DL_TYPE_UINT8, DL_FORMAT_SCALAR, DL_VIDEO_TELEMETRY, "VI
1499:/home/lsk/paparazzi/var/include/messages.h **** 	  trans->put_bytes(trans->impl, dev, DL_TYPE_INT32, DL_FORMAT_SCALAR, 4, (void *) _blob_x1);
1500:/home/lsk/paparazzi/var/include/messages.h **** 	  trans->put_bytes(trans->impl, dev, DL_TYPE_INT32, DL_FORMAT_SCALAR, 4, (void *) _blob_y1);
1501:/home/lsk/paparazzi/var/include/messages.h **** 	  trans->put_bytes(trans->impl, dev, DL_TYPE_INT32, DL_FORMAT_SCALAR, 4, (void *) _blob_x2);
1502:/home/lsk/paparazzi/var/include/messages.h **** 	  trans->put_bytes(trans->impl, dev, DL_TYPE_INT32, DL_FORMAT_SCALAR, 4, (void *) _blob_y2);
1503:/home/lsk/paparazzi/var/include/messages.h **** 	  trans->put_bytes(trans->impl, dev, DL_TYPE_INT32, DL_FORMAT_SCALAR, 4, (void *) _blob_x3);
1504:/home/lsk/paparazzi/var/include/messages.h **** 	  trans->put_bytes(trans->impl, dev, DL_TYPE_INT32, DL_FORMAT_SCALAR, 4, (void *) _blob_y3);
1505:/home/lsk/paparazzi/var/include/messages.h **** 	  trans->put_bytes(trans->impl, dev, DL_TYPE_INT32, DL_FORMAT_SCALAR, 4, (void *) _blob_x4);
1506:/home/lsk/paparazzi/var/include/messages.h **** 	  trans->put_bytes(trans->impl, dev, DL_TYPE_INT32, DL_FORMAT_SCALAR, 4, (void *) _blob_y4);
1507:/home/lsk/paparazzi/var/include/messages.h **** 	  trans->end_message(trans->impl, dev);
1508:/home/lsk/paparazzi/var/include/messages.h **** 	} else
1509:/home/lsk/paparazzi/var/include/messages.h **** 	  trans->overrun(trans->impl, dev);
1510:/home/lsk/paparazzi/var/include/messages.h **** }
1511:/home/lsk/paparazzi/var/include/messages.h **** 
1512:/home/lsk/paparazzi/var/include/messages.h **** #define DOWNLINK_SEND_VF_UPDATE(_trans, _dev, baro, range_meter) pprz_msg_send_VF_UPDATE(&((_trans)
1513:/home/lsk/paparazzi/var/include/messages.h **** static inline void pprz_msg_send_VF_UPDATE(struct transport_tx *trans, struct link_device *dev, uin
1514:/home/lsk/paparazzi/var/include/messages.h **** 	if (trans->check_available_space(trans->impl, dev, trans->size_of(trans->impl, 0+4+4 +2 /* msg hea
1515:/home/lsk/paparazzi/var/include/messages.h **** 	  trans->count_bytes(trans->impl, dev, trans->size_of(trans->impl, 0+4+4 +2 /* msg header overhead
1516:/home/lsk/paparazzi/var/include/messages.h **** 	  trans->start_message(trans->impl, dev, 0+4+4 +2 /* msg header overhead */);
1517:/home/lsk/paparazzi/var/include/messages.h **** 	  trans->put_bytes(trans->impl, dev, DL_TYPE_UINT8, DL_FORMAT_SCALAR, 1, &ac_id);
1518:/home/lsk/paparazzi/var/include/messages.h **** 	  trans->put_named_byte(trans->impl, dev, DL_TYPE_UINT8, DL_FORMAT_SCALAR, DL_VF_UPDATE, "VF_UPDAT
1519:/home/lsk/paparazzi/var/include/messages.h **** 	  trans->put_bytes(trans->impl, dev, DL_TYPE_FLOAT, DL_FORMAT_SCALAR, 4, (void *) _baro);
1520:/home/lsk/paparazzi/var/include/messages.h **** 	  trans->put_bytes(trans->impl, dev, DL_TYPE_FLOAT, DL_FORMAT_SCALAR, 4, (void *) _range_meter);
1521:/home/lsk/paparazzi/var/include/messages.h **** 	  trans->end_message(trans->impl, dev);
1522:/home/lsk/paparazzi/var/include/messages.h **** 	} else
1523:/home/lsk/paparazzi/var/include/messages.h **** 	  trans->overrun(trans->impl, dev);
1524:/home/lsk/paparazzi/var/include/messages.h **** }
1525:/home/lsk/paparazzi/var/include/messages.h **** 
1526:/home/lsk/paparazzi/var/include/messages.h **** #define DOWNLINK_SEND_VF_PREDICT(_trans, _dev, accel) pprz_msg_send_VF_PREDICT(&((_trans).trans_tx)
1527:/home/lsk/paparazzi/var/include/messages.h **** static inline void pprz_msg_send_VF_PREDICT(struct transport_tx *trans, struct link_device *dev, ui
1528:/home/lsk/paparazzi/var/include/messages.h **** 	if (trans->check_available_space(trans->impl, dev, trans->size_of(trans->impl, 0+4 +2 /* msg heade
1529:/home/lsk/paparazzi/var/include/messages.h **** 	  trans->count_bytes(trans->impl, dev, trans->size_of(trans->impl, 0+4 +2 /* msg header overhead *
1530:/home/lsk/paparazzi/var/include/messages.h **** 	  trans->start_message(trans->impl, dev, 0+4 +2 /* msg header overhead */);
1531:/home/lsk/paparazzi/var/include/messages.h **** 	  trans->put_bytes(trans->impl, dev, DL_TYPE_UINT8, DL_FORMAT_SCALAR, 1, &ac_id);
1532:/home/lsk/paparazzi/var/include/messages.h **** 	  trans->put_named_byte(trans->impl, dev, DL_TYPE_UINT8, DL_FORMAT_SCALAR, DL_VF_PREDICT, "VF_PRED
1533:/home/lsk/paparazzi/var/include/messages.h **** 	  trans->put_bytes(trans->impl, dev, DL_TYPE_FLOAT, DL_FORMAT_SCALAR, 4, (void *) _accel);
1534:/home/lsk/paparazzi/var/include/messages.h **** 	  trans->end_message(trans->impl, dev);
1535:/home/lsk/paparazzi/var/include/messages.h **** 	} else
1536:/home/lsk/paparazzi/var/include/messages.h **** 	  trans->overrun(trans->impl, dev);
1537:/home/lsk/paparazzi/var/include/messages.h **** }
1538:/home/lsk/paparazzi/var/include/messages.h **** 
1539:/home/lsk/paparazzi/var/include/messages.h **** #define DOWNLINK_SEND_INV_FILTER(_trans, _dev, quat, phi_inv, theta_inv, psi_inv, Vx_inv, Vy_inv, V
1540:/home/lsk/paparazzi/var/include/messages.h **** static inline void pprz_msg_send_INV_FILTER(struct transport_tx *trans, struct link_device *dev, ui
1541:/home/lsk/paparazzi/var/include/messages.h **** 	if (trans->check_available_space(trans->impl, dev, trans->size_of(trans->impl, 0+4+4+4+4+4+4+4+4+4
1542:/home/lsk/paparazzi/var/include/messages.h **** 	  trans->count_bytes(trans->impl, dev, trans->size_of(trans->impl, 0+4+4+4+4+4+4+4+4+4+4+4+4+4+4+4
1543:/home/lsk/paparazzi/var/include/messages.h **** 	  trans->start_message(trans->impl, dev, 0+4+4+4+4+4+4+4+4+4+4+4+4+4+4+4+4+4 +2 /* msg header over
1544:/home/lsk/paparazzi/var/include/messages.h **** 	  trans->put_bytes(trans->impl, dev, DL_TYPE_UINT8, DL_FORMAT_SCALAR, 1, &ac_id);
1545:/home/lsk/paparazzi/var/include/messages.h **** 	  trans->put_named_byte(trans->impl, dev, DL_TYPE_UINT8, DL_FORMAT_SCALAR, DL_INV_FILTER, "INV_FIL
1546:/home/lsk/paparazzi/var/include/messages.h **** 	  trans->put_bytes(trans->impl, dev, DL_TYPE_FLOAT, DL_FORMAT_SCALAR, 4, (void *) _quat);
1547:/home/lsk/paparazzi/var/include/messages.h **** 	  trans->put_bytes(trans->impl, dev, DL_TYPE_FLOAT, DL_FORMAT_SCALAR, 4, (void *) _phi_inv);
1548:/home/lsk/paparazzi/var/include/messages.h **** 	  trans->put_bytes(trans->impl, dev, DL_TYPE_FLOAT, DL_FORMAT_SCALAR, 4, (void *) _theta_inv);
1549:/home/lsk/paparazzi/var/include/messages.h **** 	  trans->put_bytes(trans->impl, dev, DL_TYPE_FLOAT, DL_FORMAT_SCALAR, 4, (void *) _psi_inv);
1550:/home/lsk/paparazzi/var/include/messages.h **** 	  trans->put_bytes(trans->impl, dev, DL_TYPE_FLOAT, DL_FORMAT_SCALAR, 4, (void *) _Vx_inv);
1551:/home/lsk/paparazzi/var/include/messages.h **** 	  trans->put_bytes(trans->impl, dev, DL_TYPE_FLOAT, DL_FORMAT_SCALAR, 4, (void *) _Vy_inv);
1552:/home/lsk/paparazzi/var/include/messages.h **** 	  trans->put_bytes(trans->impl, dev, DL_TYPE_FLOAT, DL_FORMAT_SCALAR, 4, (void *) _Vz_inv);
1553:/home/lsk/paparazzi/var/include/messages.h **** 	  trans->put_bytes(trans->impl, dev, DL_TYPE_FLOAT, DL_FORMAT_SCALAR, 4, (void *) _Px_inv);
1554:/home/lsk/paparazzi/var/include/messages.h **** 	  trans->put_bytes(trans->impl, dev, DL_TYPE_FLOAT, DL_FORMAT_SCALAR, 4, (void *) _Py_inv);
1555:/home/lsk/paparazzi/var/include/messages.h **** 	  trans->put_bytes(trans->impl, dev, DL_TYPE_FLOAT, DL_FORMAT_SCALAR, 4, (void *) _Pz_inv);
1556:/home/lsk/paparazzi/var/include/messages.h **** 	  trans->put_bytes(trans->impl, dev, DL_TYPE_FLOAT, DL_FORMAT_SCALAR, 4, (void *) _bias_phi);
1557:/home/lsk/paparazzi/var/include/messages.h **** 	  trans->put_bytes(trans->impl, dev, DL_TYPE_FLOAT, DL_FORMAT_SCALAR, 4, (void *) _bias_theta);
1558:/home/lsk/paparazzi/var/include/messages.h **** 	  trans->put_bytes(trans->impl, dev, DL_TYPE_FLOAT, DL_FORMAT_SCALAR, 4, (void *) _bias_psi);
1559:/home/lsk/paparazzi/var/include/messages.h **** 	  trans->put_bytes(trans->impl, dev, DL_TYPE_FLOAT, DL_FORMAT_SCALAR, 4, (void *) _bias_as);
1560:/home/lsk/paparazzi/var/include/messages.h **** 	  trans->put_bytes(trans->impl, dev, DL_TYPE_FLOAT, DL_FORMAT_SCALAR, 4, (void *) _bias_hb);
1561:/home/lsk/paparazzi/var/include/messages.h **** 	  trans->put_bytes(trans->impl, dev, DL_TYPE_FLOAT, DL_FORMAT_SCALAR, 4, (void *) _meas_baro);
1562:/home/lsk/paparazzi/var/include/messages.h **** 	  trans->put_bytes(trans->impl, dev, DL_TYPE_FLOAT, DL_FORMAT_SCALAR, 4, (void *) _meas_gps);
1563:/home/lsk/paparazzi/var/include/messages.h **** 	  trans->end_message(trans->impl, dev);
1564:/home/lsk/paparazzi/var/include/messages.h **** 	} else
1565:/home/lsk/paparazzi/var/include/messages.h **** 	  trans->overrun(trans->impl, dev);
1566:/home/lsk/paparazzi/var/include/messages.h **** }
1567:/home/lsk/paparazzi/var/include/messages.h **** 
1568:/home/lsk/paparazzi/var/include/messages.h **** #define DOWNLINK_SEND_MISSION_STATUS(_trans, _dev, remaining_time, nb_task_list, task_list) pprz_ms
1569:/home/lsk/paparazzi/var/include/messages.h **** static inline void pprz_msg_send_MISSION_STATUS(struct transport_tx *trans, struct link_device *dev
1570:/home/lsk/paparazzi/var/include/messages.h **** 	if (trans->check_available_space(trans->impl, dev, trans->size_of(trans->impl, 0+4+1+nb_task_list*
1571:/home/lsk/paparazzi/var/include/messages.h **** 	  trans->count_bytes(trans->impl, dev, trans->size_of(trans->impl, 0+4+1+nb_task_list*1 +2 /* msg 
1572:/home/lsk/paparazzi/var/include/messages.h **** 	  trans->start_message(trans->impl, dev, 0+4+1+nb_task_list*1 +2 /* msg header overhead */);
1573:/home/lsk/paparazzi/var/include/messages.h **** 	  trans->put_bytes(trans->impl, dev, DL_TYPE_UINT8, DL_FORMAT_SCALAR, 1, &ac_id);
1574:/home/lsk/paparazzi/var/include/messages.h **** 	  trans->put_named_byte(trans->impl, dev, DL_TYPE_UINT8, DL_FORMAT_SCALAR, DL_MISSION_STATUS, "MIS
1575:/home/lsk/paparazzi/var/include/messages.h **** 	  trans->put_bytes(trans->impl, dev, DL_TYPE_FLOAT, DL_FORMAT_SCALAR, 4, (void *) _remaining_time)
1576:/home/lsk/paparazzi/var/include/messages.h **** 	  trans->put_bytes(trans->impl, dev, DL_TYPE_ARRAY_LENGTH, DL_FORMAT_SCALAR, 1, (void *) &nb_task_
1577:/home/lsk/paparazzi/var/include/messages.h **** 	  trans->put_bytes(trans->impl, dev, DL_TYPE_UINT8, DL_FORMAT_ARRAY, 1 * nb_task_list, (void *) _t
1578:/home/lsk/paparazzi/var/include/messages.h **** 	  trans->end_message(trans->impl, dev);
1579:/home/lsk/paparazzi/var/include/messages.h **** 	} else
1580:/home/lsk/paparazzi/var/include/messages.h **** 	  trans->overrun(trans->impl, dev);
1581:/home/lsk/paparazzi/var/include/messages.h **** }
1582:/home/lsk/paparazzi/var/include/messages.h **** 
1583:/home/lsk/paparazzi/var/include/messages.h **** #define DOWNLINK_SEND_CROSS_TRACK_ERROR(_trans, _dev, cross_track_error, cte_int) pprz_msg_send_CRO
1584:/home/lsk/paparazzi/var/include/messages.h **** static inline void pprz_msg_send_CROSS_TRACK_ERROR(struct transport_tx *trans, struct link_device *
1585:/home/lsk/paparazzi/var/include/messages.h **** 	if (trans->check_available_space(trans->impl, dev, trans->size_of(trans->impl, 0+4+4 +2 /* msg hea
1586:/home/lsk/paparazzi/var/include/messages.h **** 	  trans->count_bytes(trans->impl, dev, trans->size_of(trans->impl, 0+4+4 +2 /* msg header overhead
1587:/home/lsk/paparazzi/var/include/messages.h **** 	  trans->start_message(trans->impl, dev, 0+4+4 +2 /* msg header overhead */);
1588:/home/lsk/paparazzi/var/include/messages.h **** 	  trans->put_bytes(trans->impl, dev, DL_TYPE_UINT8, DL_FORMAT_SCALAR, 1, &ac_id);
1589:/home/lsk/paparazzi/var/include/messages.h **** 	  trans->put_named_byte(trans->impl, dev, DL_TYPE_UINT8, DL_FORMAT_SCALAR, DL_CROSS_TRACK_ERROR, "
1590:/home/lsk/paparazzi/var/include/messages.h **** 	  trans->put_bytes(trans->impl, dev, DL_TYPE_FLOAT, DL_FORMAT_SCALAR, 4, (void *) _cross_track_err
1591:/home/lsk/paparazzi/var/include/messages.h **** 	  trans->put_bytes(trans->impl, dev, DL_TYPE_FLOAT, DL_FORMAT_SCALAR, 4, (void *) _cte_int);
1592:/home/lsk/paparazzi/var/include/messages.h **** 	  trans->end_message(trans->impl, dev);
1593:/home/lsk/paparazzi/var/include/messages.h **** 	} else
1594:/home/lsk/paparazzi/var/include/messages.h **** 	  trans->overrun(trans->impl, dev);
1595:/home/lsk/paparazzi/var/include/messages.h **** }
1596:/home/lsk/paparazzi/var/include/messages.h **** 
1597:/home/lsk/paparazzi/var/include/messages.h **** #define DOWNLINK_SEND_GENERIC_COM(_trans, _dev, lat, lon, alt, gspeed, course, airspeed, vsupply, e
1598:/home/lsk/paparazzi/var/include/messages.h **** static inline void pprz_msg_send_GENERIC_COM(struct transport_tx *trans, struct link_device *dev, u
1599:/home/lsk/paparazzi/var/include/messages.h **** 	if (trans->check_available_space(trans->impl, dev, trans->size_of(trans->impl, 0+4+4+2+2+2+2+1+1+1
1600:/home/lsk/paparazzi/var/include/messages.h **** 	  trans->count_bytes(trans->impl, dev, trans->size_of(trans->impl, 0+4+4+2+2+2+2+1+1+1+1+1+2 +2 /*
1601:/home/lsk/paparazzi/var/include/messages.h **** 	  trans->start_message(trans->impl, dev, 0+4+4+2+2+2+2+1+1+1+1+1+2 +2 /* msg header overhead */);
1602:/home/lsk/paparazzi/var/include/messages.h **** 	  trans->put_bytes(trans->impl, dev, DL_TYPE_UINT8, DL_FORMAT_SCALAR, 1, &ac_id);
1603:/home/lsk/paparazzi/var/include/messages.h **** 	  trans->put_named_byte(trans->impl, dev, DL_TYPE_UINT8, DL_FORMAT_SCALAR, DL_GENERIC_COM, "GENERI
1604:/home/lsk/paparazzi/var/include/messages.h **** 	  trans->put_bytes(trans->impl, dev, DL_TYPE_INT32, DL_FORMAT_SCALAR, 4, (void *) _lat);
1605:/home/lsk/paparazzi/var/include/messages.h **** 	  trans->put_bytes(trans->impl, dev, DL_TYPE_INT32, DL_FORMAT_SCALAR, 4, (void *) _lon);
1606:/home/lsk/paparazzi/var/include/messages.h **** 	  trans->put_bytes(trans->impl, dev, DL_TYPE_INT16, DL_FORMAT_SCALAR, 2, (void *) _alt);
1607:/home/lsk/paparazzi/var/include/messages.h **** 	  trans->put_bytes(trans->impl, dev, DL_TYPE_UINT16, DL_FORMAT_SCALAR, 2, (void *) _gspeed);
1608:/home/lsk/paparazzi/var/include/messages.h **** 	  trans->put_bytes(trans->impl, dev, DL_TYPE_INT16, DL_FORMAT_SCALAR, 2, (void *) _course);
1609:/home/lsk/paparazzi/var/include/messages.h **** 	  trans->put_bytes(trans->impl, dev, DL_TYPE_UINT16, DL_FORMAT_SCALAR, 2, (void *) _airspeed);
1610:/home/lsk/paparazzi/var/include/messages.h **** 	  trans->put_bytes(trans->impl, dev, DL_TYPE_UINT8, DL_FORMAT_SCALAR, 1, (void *) _vsupply);
1611:/home/lsk/paparazzi/var/include/messages.h **** 	  trans->put_bytes(trans->impl, dev, DL_TYPE_UINT8, DL_FORMAT_SCALAR, 1, (void *) _energy);
1612:/home/lsk/paparazzi/var/include/messages.h **** 	  trans->put_bytes(trans->impl, dev, DL_TYPE_UINT8, DL_FORMAT_SCALAR, 1, (void *) _throttle);
1613:/home/lsk/paparazzi/var/include/messages.h **** 	  trans->put_bytes(trans->impl, dev, DL_TYPE_UINT8, DL_FORMAT_SCALAR, 1, (void *) _ap_mode);
1614:/home/lsk/paparazzi/var/include/messages.h **** 	  trans->put_bytes(trans->impl, dev, DL_TYPE_UINT8, DL_FORMAT_SCALAR, 1, (void *) _nav_block);
1615:/home/lsk/paparazzi/var/include/messages.h **** 	  trans->put_bytes(trans->impl, dev, DL_TYPE_UINT16, DL_FORMAT_SCALAR, 2, (void *) _flight_time);
1616:/home/lsk/paparazzi/var/include/messages.h **** 	  trans->end_message(trans->impl, dev);
1617:/home/lsk/paparazzi/var/include/messages.h **** 	} else
1618:/home/lsk/paparazzi/var/include/messages.h **** 	  trans->overrun(trans->impl, dev);
1619:/home/lsk/paparazzi/var/include/messages.h **** }
1620:/home/lsk/paparazzi/var/include/messages.h **** 
1621:/home/lsk/paparazzi/var/include/messages.h **** #define DOWNLINK_SEND_FORMATION_SLOT_TM(_trans, _dev, ac_id, mode, slot_east, slot_north, slot_alt)
1622:/home/lsk/paparazzi/var/include/messages.h **** static inline void pprz_msg_send_FORMATION_SLOT_TM(struct transport_tx *trans, struct link_device *
1623:/home/lsk/paparazzi/var/include/messages.h **** 	if (trans->check_available_space(trans->impl, dev, trans->size_of(trans->impl, 0+1+1+4+4+4 +2 /* m
1624:/home/lsk/paparazzi/var/include/messages.h **** 	  trans->count_bytes(trans->impl, dev, trans->size_of(trans->impl, 0+1+1+4+4+4 +2 /* msg header ov
1625:/home/lsk/paparazzi/var/include/messages.h **** 	  trans->start_message(trans->impl, dev, 0+1+1+4+4+4 +2 /* msg header overhead */);
1626:/home/lsk/paparazzi/var/include/messages.h **** 	  trans->put_bytes(trans->impl, dev, DL_TYPE_UINT8, DL_FORMAT_SCALAR, 1, &ac_id);
1627:/home/lsk/paparazzi/var/include/messages.h **** 	  trans->put_named_byte(trans->impl, dev, DL_TYPE_UINT8, DL_FORMAT_SCALAR, DL_FORMATION_SLOT_TM, "
1628:/home/lsk/paparazzi/var/include/messages.h **** 	  trans->put_bytes(trans->impl, dev, DL_TYPE_UINT8, DL_FORMAT_SCALAR, 1, (void *) _ac_id);
1629:/home/lsk/paparazzi/var/include/messages.h **** 	  trans->put_bytes(trans->impl, dev, DL_TYPE_UINT8, DL_FORMAT_SCALAR, 1, (void *) _mode);
1630:/home/lsk/paparazzi/var/include/messages.h **** 	  trans->put_bytes(trans->impl, dev, DL_TYPE_FLOAT, DL_FORMAT_SCALAR, 4, (void *) _slot_east);
1631:/home/lsk/paparazzi/var/include/messages.h **** 	  trans->put_bytes(trans->impl, dev, DL_TYPE_FLOAT, DL_FORMAT_SCALAR, 4, (void *) _slot_north);
1632:/home/lsk/paparazzi/var/include/messages.h **** 	  trans->put_bytes(trans->impl, dev, DL_TYPE_FLOAT, DL_FORMAT_SCALAR, 4, (void *) _slot_alt);
1633:/home/lsk/paparazzi/var/include/messages.h **** 	  trans->end_message(trans->impl, dev);
1634:/home/lsk/paparazzi/var/include/messages.h **** 	} else
1635:/home/lsk/paparazzi/var/include/messages.h **** 	  trans->overrun(trans->impl, dev);
1636:/home/lsk/paparazzi/var/include/messages.h **** }
1637:/home/lsk/paparazzi/var/include/messages.h **** 
1638:/home/lsk/paparazzi/var/include/messages.h **** #define DOWNLINK_SEND_FORMATION_STATUS_TM(_trans, _dev, ac_id, leader_id, status) pprz_msg_send_FOR
1639:/home/lsk/paparazzi/var/include/messages.h **** static inline void pprz_msg_send_FORMATION_STATUS_TM(struct transport_tx *trans, struct link_device
1640:/home/lsk/paparazzi/var/include/messages.h **** 	if (trans->check_available_space(trans->impl, dev, trans->size_of(trans->impl, 0+1+1+1 +2 /* msg h
1641:/home/lsk/paparazzi/var/include/messages.h **** 	  trans->count_bytes(trans->impl, dev, trans->size_of(trans->impl, 0+1+1+1 +2 /* msg header overhe
1642:/home/lsk/paparazzi/var/include/messages.h **** 	  trans->start_message(trans->impl, dev, 0+1+1+1 +2 /* msg header overhead */);
1643:/home/lsk/paparazzi/var/include/messages.h **** 	  trans->put_bytes(trans->impl, dev, DL_TYPE_UINT8, DL_FORMAT_SCALAR, 1, &ac_id);
1644:/home/lsk/paparazzi/var/include/messages.h **** 	  trans->put_named_byte(trans->impl, dev, DL_TYPE_UINT8, DL_FORMAT_SCALAR, DL_FORMATION_STATUS_TM,
1645:/home/lsk/paparazzi/var/include/messages.h **** 	  trans->put_bytes(trans->impl, dev, DL_TYPE_UINT8, DL_FORMAT_SCALAR, 1, (void *) _ac_id);
1646:/home/lsk/paparazzi/var/include/messages.h **** 	  trans->put_bytes(trans->impl, dev, DL_TYPE_UINT8, DL_FORMAT_SCALAR, 1, (void *) _leader_id);
1647:/home/lsk/paparazzi/var/include/messages.h **** 	  trans->put_bytes(trans->impl, dev, DL_TYPE_UINT8, DL_FORMAT_SCALAR, 1, (void *) _status);
1648:/home/lsk/paparazzi/var/include/messages.h **** 	  trans->end_message(trans->impl, dev);
1649:/home/lsk/paparazzi/var/include/messages.h **** 	} else
1650:/home/lsk/paparazzi/var/include/messages.h **** 	  trans->overrun(trans->impl, dev);
1651:/home/lsk/paparazzi/var/include/messages.h **** }
1652:/home/lsk/paparazzi/var/include/messages.h **** 
1653:/home/lsk/paparazzi/var/include/messages.h **** #define DOWNLINK_SEND_BMP_STATUS(_trans, _dev, UP, UT, press, temp) pprz_msg_send_BMP_STATUS(&((_tr
1654:/home/lsk/paparazzi/var/include/messages.h **** static inline void pprz_msg_send_BMP_STATUS(struct transport_tx *trans, struct link_device *dev, ui
1655:/home/lsk/paparazzi/var/include/messages.h **** 	if (trans->check_available_space(trans->impl, dev, trans->size_of(trans->impl, 0+4+4+4+4 +2 /* msg
1656:/home/lsk/paparazzi/var/include/messages.h **** 	  trans->count_bytes(trans->impl, dev, trans->size_of(trans->impl, 0+4+4+4+4 +2 /* msg header over
1657:/home/lsk/paparazzi/var/include/messages.h **** 	  trans->start_message(trans->impl, dev, 0+4+4+4+4 +2 /* msg header overhead */);
1658:/home/lsk/paparazzi/var/include/messages.h **** 	  trans->put_bytes(trans->impl, dev, DL_TYPE_UINT8, DL_FORMAT_SCALAR, 1, &ac_id);
1659:/home/lsk/paparazzi/var/include/messages.h **** 	  trans->put_named_byte(trans->impl, dev, DL_TYPE_UINT8, DL_FORMAT_SCALAR, DL_BMP_STATUS, "BMP_STA
1660:/home/lsk/paparazzi/var/include/messages.h **** 	  trans->put_bytes(trans->impl, dev, DL_TYPE_INT32, DL_FORMAT_SCALAR, 4, (void *) _UP);
1661:/home/lsk/paparazzi/var/include/messages.h **** 	  trans->put_bytes(trans->impl, dev, DL_TYPE_INT32, DL_FORMAT_SCALAR, 4, (void *) _UT);
1662:/home/lsk/paparazzi/var/include/messages.h **** 	  trans->put_bytes(trans->impl, dev, DL_TYPE_INT32, DL_FORMAT_SCALAR, 4, (void *) _press);
1663:/home/lsk/paparazzi/var/include/messages.h **** 	  trans->put_bytes(trans->impl, dev, DL_TYPE_INT32, DL_FORMAT_SCALAR, 4, (void *) _temp);
1664:/home/lsk/paparazzi/var/include/messages.h **** 	  trans->end_message(trans->impl, dev);
1665:/home/lsk/paparazzi/var/include/messages.h **** 	} else
1666:/home/lsk/paparazzi/var/include/messages.h **** 	  trans->overrun(trans->impl, dev);
1667:/home/lsk/paparazzi/var/include/messages.h **** }
1668:/home/lsk/paparazzi/var/include/messages.h **** 
1669:/home/lsk/paparazzi/var/include/messages.h **** #define DOWNLINK_SEND_MLX_STATUS(_trans, _dev, itemp_case, temp_case, itemp_obj, temp_obj) pprz_msg
1670:/home/lsk/paparazzi/var/include/messages.h **** static inline void pprz_msg_send_MLX_STATUS(struct transport_tx *trans, struct link_device *dev, ui
1671:/home/lsk/paparazzi/var/include/messages.h **** 	if (trans->check_available_space(trans->impl, dev, trans->size_of(trans->impl, 0+2+4+2+4 +2 /* msg
1672:/home/lsk/paparazzi/var/include/messages.h **** 	  trans->count_bytes(trans->impl, dev, trans->size_of(trans->impl, 0+2+4+2+4 +2 /* msg header over
1673:/home/lsk/paparazzi/var/include/messages.h **** 	  trans->start_message(trans->impl, dev, 0+2+4+2+4 +2 /* msg header overhead */);
1674:/home/lsk/paparazzi/var/include/messages.h **** 	  trans->put_bytes(trans->impl, dev, DL_TYPE_UINT8, DL_FORMAT_SCALAR, 1, &ac_id);
1675:/home/lsk/paparazzi/var/include/messages.h **** 	  trans->put_named_byte(trans->impl, dev, DL_TYPE_UINT8, DL_FORMAT_SCALAR, DL_MLX_STATUS, "MLX_STA
1676:/home/lsk/paparazzi/var/include/messages.h **** 	  trans->put_bytes(trans->impl, dev, DL_TYPE_UINT16, DL_FORMAT_SCALAR, 2, (void *) _itemp_case);
1677:/home/lsk/paparazzi/var/include/messages.h **** 	  trans->put_bytes(trans->impl, dev, DL_TYPE_FLOAT, DL_FORMAT_SCALAR, 4, (void *) _temp_case);
1678:/home/lsk/paparazzi/var/include/messages.h **** 	  trans->put_bytes(trans->impl, dev, DL_TYPE_UINT16, DL_FORMAT_SCALAR, 2, (void *) _itemp_obj);
1679:/home/lsk/paparazzi/var/include/messages.h **** 	  trans->put_bytes(trans->impl, dev, DL_TYPE_FLOAT, DL_FORMAT_SCALAR, 4, (void *) _temp_obj);
1680:/home/lsk/paparazzi/var/include/messages.h **** 	  trans->end_message(trans->impl, dev);
1681:/home/lsk/paparazzi/var/include/messages.h **** 	} else
1682:/home/lsk/paparazzi/var/include/messages.h **** 	  trans->overrun(trans->impl, dev);
1683:/home/lsk/paparazzi/var/include/messages.h **** }
1684:/home/lsk/paparazzi/var/include/messages.h **** 
1685:/home/lsk/paparazzi/var/include/messages.h **** #define DOWNLINK_SEND_TMP_STATUS(_trans, _dev, itemp, temp) pprz_msg_send_TMP_STATUS(&((_trans).tra
1686:/home/lsk/paparazzi/var/include/messages.h **** static inline void pprz_msg_send_TMP_STATUS(struct transport_tx *trans, struct link_device *dev, ui
1687:/home/lsk/paparazzi/var/include/messages.h **** 	if (trans->check_available_space(trans->impl, dev, trans->size_of(trans->impl, 0+2+4 +2 /* msg hea
1688:/home/lsk/paparazzi/var/include/messages.h **** 	  trans->count_bytes(trans->impl, dev, trans->size_of(trans->impl, 0+2+4 +2 /* msg header overhead
1689:/home/lsk/paparazzi/var/include/messages.h **** 	  trans->start_message(trans->impl, dev, 0+2+4 +2 /* msg header overhead */);
1690:/home/lsk/paparazzi/var/include/messages.h **** 	  trans->put_bytes(trans->impl, dev, DL_TYPE_UINT8, DL_FORMAT_SCALAR, 1, &ac_id);
1691:/home/lsk/paparazzi/var/include/messages.h **** 	  trans->put_named_byte(trans->impl, dev, DL_TYPE_UINT8, DL_FORMAT_SCALAR, DL_TMP_STATUS, "TMP_STA
1692:/home/lsk/paparazzi/var/include/messages.h **** 	  trans->put_bytes(trans->impl, dev, DL_TYPE_UINT16, DL_FORMAT_SCALAR, 2, (void *) _itemp);
1693:/home/lsk/paparazzi/var/include/messages.h **** 	  trans->put_bytes(trans->impl, dev, DL_TYPE_FLOAT, DL_FORMAT_SCALAR, 4, (void *) _temp);
1694:/home/lsk/paparazzi/var/include/messages.h **** 	  trans->end_message(trans->impl, dev);
1695:/home/lsk/paparazzi/var/include/messages.h **** 	} else
1696:/home/lsk/paparazzi/var/include/messages.h **** 	  trans->overrun(trans->impl, dev);
1697:/home/lsk/paparazzi/var/include/messages.h **** }
1698:/home/lsk/paparazzi/var/include/messages.h **** 
1699:/home/lsk/paparazzi/var/include/messages.h **** #define DOWNLINK_SEND_WIND_INFO_RET(_trans, _dev, east, north, airspeed) pprz_msg_send_WIND_INFO_RE
1700:/home/lsk/paparazzi/var/include/messages.h **** static inline void pprz_msg_send_WIND_INFO_RET(struct transport_tx *trans, struct link_device *dev,
1701:/home/lsk/paparazzi/var/include/messages.h **** 	if (trans->check_available_space(trans->impl, dev, trans->size_of(trans->impl, 0+4+4+4 +2 /* msg h
1702:/home/lsk/paparazzi/var/include/messages.h **** 	  trans->count_bytes(trans->impl, dev, trans->size_of(trans->impl, 0+4+4+4 +2 /* msg header overhe
1703:/home/lsk/paparazzi/var/include/messages.h **** 	  trans->start_message(trans->impl, dev, 0+4+4+4 +2 /* msg header overhead */);
1704:/home/lsk/paparazzi/var/include/messages.h **** 	  trans->put_bytes(trans->impl, dev, DL_TYPE_UINT8, DL_FORMAT_SCALAR, 1, &ac_id);
1705:/home/lsk/paparazzi/var/include/messages.h **** 	  trans->put_named_byte(trans->impl, dev, DL_TYPE_UINT8, DL_FORMAT_SCALAR, DL_WIND_INFO_RET, "WIND
1706:/home/lsk/paparazzi/var/include/messages.h **** 	  trans->put_bytes(trans->impl, dev, DL_TYPE_FLOAT, DL_FORMAT_SCALAR, 4, (void *) _east);
1707:/home/lsk/paparazzi/var/include/messages.h **** 	  trans->put_bytes(trans->impl, dev, DL_TYPE_FLOAT, DL_FORMAT_SCALAR, 4, (void *) _north);
1708:/home/lsk/paparazzi/var/include/messages.h **** 	  trans->put_bytes(trans->impl, dev, DL_TYPE_FLOAT, DL_FORMAT_SCALAR, 4, (void *) _airspeed);
1709:/home/lsk/paparazzi/var/include/messages.h **** 	  trans->end_message(trans->impl, dev);
1710:/home/lsk/paparazzi/var/include/messages.h **** 	} else
1711:/home/lsk/paparazzi/var/include/messages.h **** 	  trans->overrun(trans->impl, dev);
1712:/home/lsk/paparazzi/var/include/messages.h **** }
1713:/home/lsk/paparazzi/var/include/messages.h **** 
1714:/home/lsk/paparazzi/var/include/messages.h **** #define DOWNLINK_SEND_SCP_STATUS(_trans, _dev, press, temp) pprz_msg_send_SCP_STATUS(&((_trans).tra
1715:/home/lsk/paparazzi/var/include/messages.h **** static inline void pprz_msg_send_SCP_STATUS(struct transport_tx *trans, struct link_device *dev, ui
1716:/home/lsk/paparazzi/var/include/messages.h **** 	if (trans->check_available_space(trans->impl, dev, trans->size_of(trans->impl, 0+4+2 +2 /* msg hea
1717:/home/lsk/paparazzi/var/include/messages.h **** 	  trans->count_bytes(trans->impl, dev, trans->size_of(trans->impl, 0+4+2 +2 /* msg header overhead
1718:/home/lsk/paparazzi/var/include/messages.h **** 	  trans->start_message(trans->impl, dev, 0+4+2 +2 /* msg header overhead */);
1719:/home/lsk/paparazzi/var/include/messages.h **** 	  trans->put_bytes(trans->impl, dev, DL_TYPE_UINT8, DL_FORMAT_SCALAR, 1, &ac_id);
1720:/home/lsk/paparazzi/var/include/messages.h **** 	  trans->put_named_byte(trans->impl, dev, DL_TYPE_UINT8, DL_FORMAT_SCALAR, DL_SCP_STATUS, "SCP_STA
1721:/home/lsk/paparazzi/var/include/messages.h **** 	  trans->put_bytes(trans->impl, dev, DL_TYPE_UINT32, DL_FORMAT_SCALAR, 4, (void *) _press);
1722:/home/lsk/paparazzi/var/include/messages.h **** 	  trans->put_bytes(trans->impl, dev, DL_TYPE_INT16, DL_FORMAT_SCALAR, 2, (void *) _temp);
1723:/home/lsk/paparazzi/var/include/messages.h **** 	  trans->end_message(trans->impl, dev);
1724:/home/lsk/paparazzi/var/include/messages.h **** 	} else
1725:/home/lsk/paparazzi/var/include/messages.h **** 	  trans->overrun(trans->impl, dev);
1726:/home/lsk/paparazzi/var/include/messages.h **** }
1727:/home/lsk/paparazzi/var/include/messages.h **** 
1728:/home/lsk/paparazzi/var/include/messages.h **** #define DOWNLINK_SEND_SHT_STATUS(_trans, _dev, ihumid, itemp, humid, temp) pprz_msg_send_SHT_STATUS
1729:/home/lsk/paparazzi/var/include/messages.h **** static inline void pprz_msg_send_SHT_STATUS(struct transport_tx *trans, struct link_device *dev, ui
1730:/home/lsk/paparazzi/var/include/messages.h **** 	if (trans->check_available_space(trans->impl, dev, trans->size_of(trans->impl, 0+2+2+4+4 +2 /* msg
1731:/home/lsk/paparazzi/var/include/messages.h **** 	  trans->count_bytes(trans->impl, dev, trans->size_of(trans->impl, 0+2+2+4+4 +2 /* msg header over
1732:/home/lsk/paparazzi/var/include/messages.h **** 	  trans->start_message(trans->impl, dev, 0+2+2+4+4 +2 /* msg header overhead */);
1733:/home/lsk/paparazzi/var/include/messages.h **** 	  trans->put_bytes(trans->impl, dev, DL_TYPE_UINT8, DL_FORMAT_SCALAR, 1, &ac_id);
1734:/home/lsk/paparazzi/var/include/messages.h **** 	  trans->put_named_byte(trans->impl, dev, DL_TYPE_UINT8, DL_FORMAT_SCALAR, DL_SHT_STATUS, "SHT_STA
1735:/home/lsk/paparazzi/var/include/messages.h **** 	  trans->put_bytes(trans->impl, dev, DL_TYPE_UINT16, DL_FORMAT_SCALAR, 2, (void *) _ihumid);
1736:/home/lsk/paparazzi/var/include/messages.h **** 	  trans->put_bytes(trans->impl, dev, DL_TYPE_UINT16, DL_FORMAT_SCALAR, 2, (void *) _itemp);
1737:/home/lsk/paparazzi/var/include/messages.h **** 	  trans->put_bytes(trans->impl, dev, DL_TYPE_FLOAT, DL_FORMAT_SCALAR, 4, (void *) _humid);
1738:/home/lsk/paparazzi/var/include/messages.h **** 	  trans->put_bytes(trans->impl, dev, DL_TYPE_FLOAT, DL_FORMAT_SCALAR, 4, (void *) _temp);
1739:/home/lsk/paparazzi/var/include/messages.h **** 	  trans->end_message(trans->impl, dev);
1740:/home/lsk/paparazzi/var/include/messages.h **** 	} else
1741:/home/lsk/paparazzi/var/include/messages.h **** 	  trans->overrun(trans->impl, dev);
1742:/home/lsk/paparazzi/var/include/messages.h **** }
1743:/home/lsk/paparazzi/var/include/messages.h **** 
1744:/home/lsk/paparazzi/var/include/messages.h **** #define DOWNLINK_SEND_ENOSE_STATUS(_trans, _dev, val1, val2, val3, PID, nb_heat, heat) pprz_msg_sen
1745:/home/lsk/paparazzi/var/include/messages.h **** static inline void pprz_msg_send_ENOSE_STATUS(struct transport_tx *trans, struct link_device *dev, 
1746:/home/lsk/paparazzi/var/include/messages.h **** 	if (trans->check_available_space(trans->impl, dev, trans->size_of(trans->impl, 0+2+2+2+2+1+nb_heat
1747:/home/lsk/paparazzi/var/include/messages.h **** 	  trans->count_bytes(trans->impl, dev, trans->size_of(trans->impl, 0+2+2+2+2+1+nb_heat*1 +2 /* msg
1748:/home/lsk/paparazzi/var/include/messages.h **** 	  trans->start_message(trans->impl, dev, 0+2+2+2+2+1+nb_heat*1 +2 /* msg header overhead */);
1749:/home/lsk/paparazzi/var/include/messages.h **** 	  trans->put_bytes(trans->impl, dev, DL_TYPE_UINT8, DL_FORMAT_SCALAR, 1, &ac_id);
1750:/home/lsk/paparazzi/var/include/messages.h **** 	  trans->put_named_byte(trans->impl, dev, DL_TYPE_UINT8, DL_FORMAT_SCALAR, DL_ENOSE_STATUS, "ENOSE
1751:/home/lsk/paparazzi/var/include/messages.h **** 	  trans->put_bytes(trans->impl, dev, DL_TYPE_UINT16, DL_FORMAT_SCALAR, 2, (void *) _val1);
1752:/home/lsk/paparazzi/var/include/messages.h **** 	  trans->put_bytes(trans->impl, dev, DL_TYPE_UINT16, DL_FORMAT_SCALAR, 2, (void *) _val2);
1753:/home/lsk/paparazzi/var/include/messages.h **** 	  trans->put_bytes(trans->impl, dev, DL_TYPE_UINT16, DL_FORMAT_SCALAR, 2, (void *) _val3);
1754:/home/lsk/paparazzi/var/include/messages.h **** 	  trans->put_bytes(trans->impl, dev, DL_TYPE_UINT16, DL_FORMAT_SCALAR, 2, (void *) _PID);
1755:/home/lsk/paparazzi/var/include/messages.h **** 	  trans->put_bytes(trans->impl, dev, DL_TYPE_ARRAY_LENGTH, DL_FORMAT_SCALAR, 1, (void *) &nb_heat)
1756:/home/lsk/paparazzi/var/include/messages.h **** 	  trans->put_bytes(trans->impl, dev, DL_TYPE_UINT8, DL_FORMAT_ARRAY, 1 * nb_heat, (void *) _heat);
1757:/home/lsk/paparazzi/var/include/messages.h **** 	  trans->end_message(trans->impl, dev);
1758:/home/lsk/paparazzi/var/include/messages.h **** 	} else
1759:/home/lsk/paparazzi/var/include/messages.h **** 	  trans->overrun(trans->impl, dev);
1760:/home/lsk/paparazzi/var/include/messages.h **** }
1761:/home/lsk/paparazzi/var/include/messages.h **** 
1762:/home/lsk/paparazzi/var/include/messages.h **** #define DOWNLINK_SEND_DPICCO_STATUS(_trans, _dev, humid, temp, fhumid, ftemp) pprz_msg_send_DPICCO_
1763:/home/lsk/paparazzi/var/include/messages.h **** static inline void pprz_msg_send_DPICCO_STATUS(struct transport_tx *trans, struct link_device *dev,
1764:/home/lsk/paparazzi/var/include/messages.h **** 	if (trans->check_available_space(trans->impl, dev, trans->size_of(trans->impl, 0+2+2+4+4 +2 /* msg
1765:/home/lsk/paparazzi/var/include/messages.h **** 	  trans->count_bytes(trans->impl, dev, trans->size_of(trans->impl, 0+2+2+4+4 +2 /* msg header over
1766:/home/lsk/paparazzi/var/include/messages.h **** 	  trans->start_message(trans->impl, dev, 0+2+2+4+4 +2 /* msg header overhead */);
1767:/home/lsk/paparazzi/var/include/messages.h **** 	  trans->put_bytes(trans->impl, dev, DL_TYPE_UINT8, DL_FORMAT_SCALAR, 1, &ac_id);
1768:/home/lsk/paparazzi/var/include/messages.h **** 	  trans->put_named_byte(trans->impl, dev, DL_TYPE_UINT8, DL_FORMAT_SCALAR, DL_DPICCO_STATUS, "DPIC
1769:/home/lsk/paparazzi/var/include/messages.h **** 	  trans->put_bytes(trans->impl, dev, DL_TYPE_UINT16, DL_FORMAT_SCALAR, 2, (void *) _humid);
1770:/home/lsk/paparazzi/var/include/messages.h **** 	  trans->put_bytes(trans->impl, dev, DL_TYPE_UINT16, DL_FORMAT_SCALAR, 2, (void *) _temp);
1771:/home/lsk/paparazzi/var/include/messages.h **** 	  trans->put_bytes(trans->impl, dev, DL_TYPE_FLOAT, DL_FORMAT_SCALAR, 4, (void *) _fhumid);
1772:/home/lsk/paparazzi/var/include/messages.h **** 	  trans->put_bytes(trans->impl, dev, DL_TYPE_FLOAT, DL_FORMAT_SCALAR, 4, (void *) _ftemp);
1773:/home/lsk/paparazzi/var/include/messages.h **** 	  trans->end_message(trans->impl, dev);
1774:/home/lsk/paparazzi/var/include/messages.h **** 	} else
1775:/home/lsk/paparazzi/var/include/messages.h **** 	  trans->overrun(trans->impl, dev);
1776:/home/lsk/paparazzi/var/include/messages.h **** }
1777:/home/lsk/paparazzi/var/include/messages.h **** 
1778:/home/lsk/paparazzi/var/include/messages.h **** #define DOWNLINK_SEND_ANTENNA_DEBUG(_trans, _dev, mag_xraw, mag_yraw, mag_xcal, mag_ycal, mag_headi
1779:/home/lsk/paparazzi/var/include/messages.h **** static inline void pprz_msg_send_ANTENNA_DEBUG(struct transport_tx *trans, struct link_device *dev,
1780:/home/lsk/paparazzi/var/include/messages.h **** 	if (trans->check_available_space(trans->impl, dev, trans->size_of(trans->impl, 0+4+4+4+4+4+4+4+1+1
1781:/home/lsk/paparazzi/var/include/messages.h **** 	  trans->count_bytes(trans->impl, dev, trans->size_of(trans->impl, 0+4+4+4+4+4+4+4+1+1 +2 /* msg h
1782:/home/lsk/paparazzi/var/include/messages.h **** 	  trans->start_message(trans->impl, dev, 0+4+4+4+4+4+4+4+1+1 +2 /* msg header overhead */);
1783:/home/lsk/paparazzi/var/include/messages.h **** 	  trans->put_bytes(trans->impl, dev, DL_TYPE_UINT8, DL_FORMAT_SCALAR, 1, &ac_id);
1784:/home/lsk/paparazzi/var/include/messages.h **** 	  trans->put_named_byte(trans->impl, dev, DL_TYPE_UINT8, DL_FORMAT_SCALAR, DL_ANTENNA_DEBUG, "ANTE
1785:/home/lsk/paparazzi/var/include/messages.h **** 	  trans->put_bytes(trans->impl, dev, DL_TYPE_INT32, DL_FORMAT_SCALAR, 4, (void *) _mag_xraw);
1786:/home/lsk/paparazzi/var/include/messages.h **** 	  trans->put_bytes(trans->impl, dev, DL_TYPE_INT32, DL_FORMAT_SCALAR, 4, (void *) _mag_yraw);
1787:/home/lsk/paparazzi/var/include/messages.h **** 	  trans->put_bytes(trans->impl, dev, DL_TYPE_FLOAT, DL_FORMAT_SCALAR, 4, (void *) _mag_xcal);
1788:/home/lsk/paparazzi/var/include/messages.h **** 	  trans->put_bytes(trans->impl, dev, DL_TYPE_FLOAT, DL_FORMAT_SCALAR, 4, (void *) _mag_ycal);
1789:/home/lsk/paparazzi/var/include/messages.h **** 	  trans->put_bytes(trans->impl, dev, DL_TYPE_FLOAT, DL_FORMAT_SCALAR, 4, (void *) _mag_heading);
1790:/home/lsk/paparazzi/var/include/messages.h **** 	  trans->put_bytes(trans->impl, dev, DL_TYPE_FLOAT, DL_FORMAT_SCALAR, 4, (void *) _mag_magnitude);
1791:/home/lsk/paparazzi/var/include/messages.h **** 	  trans->put_bytes(trans->impl, dev, DL_TYPE_FLOAT, DL_FORMAT_SCALAR, 4, (void *) _mag_temp);
1792:/home/lsk/paparazzi/var/include/messages.h **** 	  trans->put_bytes(trans->impl, dev, DL_TYPE_UINT8, DL_FORMAT_SCALAR, 1, (void *) _mag_distor);
1793:/home/lsk/paparazzi/var/include/messages.h **** 	  trans->put_bytes(trans->impl, dev, DL_TYPE_UINT8, DL_FORMAT_SCALAR, 1, (void *) _mag_cal_status)
1794:/home/lsk/paparazzi/var/include/messages.h **** 	  trans->end_message(trans->impl, dev);
1795:/home/lsk/paparazzi/var/include/messages.h **** 	} else
1796:/home/lsk/paparazzi/var/include/messages.h **** 	  trans->overrun(trans->impl, dev);
1797:/home/lsk/paparazzi/var/include/messages.h **** }
1798:/home/lsk/paparazzi/var/include/messages.h **** 
1799:/home/lsk/paparazzi/var/include/messages.h **** #define DOWNLINK_SEND_ANTENNA_STATUS(_trans, _dev, azim_sp, elev_sp, id_sp, mode) pprz_msg_send_ANT
1800:/home/lsk/paparazzi/var/include/messages.h **** static inline void pprz_msg_send_ANTENNA_STATUS(struct transport_tx *trans, struct link_device *dev
1801:/home/lsk/paparazzi/var/include/messages.h **** 	if (trans->check_available_space(trans->impl, dev, trans->size_of(trans->impl, 0+4+4+1+1 +2 /* msg
1802:/home/lsk/paparazzi/var/include/messages.h **** 	  trans->count_bytes(trans->impl, dev, trans->size_of(trans->impl, 0+4+4+1+1 +2 /* msg header over
1803:/home/lsk/paparazzi/var/include/messages.h **** 	  trans->start_message(trans->impl, dev, 0+4+4+1+1 +2 /* msg header overhead */);
