   1              		.syntax unified
   2              		.cpu cortex-m4
   3              		.eabi_attribute 27, 3
   4              		.fpu fpv4-sp-d16
   5              		.eabi_attribute 20, 1
   6              		.eabi_attribute 21, 1
   7              		.eabi_attribute 23, 3
   8              		.eabi_attribute 24, 1
   9              		.eabi_attribute 25, 1
  10              		.eabi_attribute 26, 1
  11              		.eabi_attribute 30, 4
  12              		.eabi_attribute 34, 1
  13              		.eabi_attribute 18, 4
  14              		.thumb
  15              		.file	"main.c"
  16              		.text
  17              	.Ltext0:
  18              		.cfi_sections	.debug_frame
  19              		.section	.text.startup.main,"ax",%progbits
  20              		.align	1
  21              		.global	main
  22              		.thumb
  23              		.thumb_func
  25              	main:
  26              	.LFB497:
  27              		.file 1 "firmwares/rotorcraft/main.c"
   1:firmwares/rotorcraft/main.c **** /*
   2:firmwares/rotorcraft/main.c ****  * Copyright (C) 2008-2010 The Paparazzi Team
   3:firmwares/rotorcraft/main.c ****  *
   4:firmwares/rotorcraft/main.c ****  * This file is part of Paparazzi.
   5:firmwares/rotorcraft/main.c ****  *
   6:firmwares/rotorcraft/main.c ****  * Paparazzi is free software; you can redistribute it and/or modify
   7:firmwares/rotorcraft/main.c ****  * it under the terms of the GNU General Public License as published by
   8:firmwares/rotorcraft/main.c ****  * the Free Software Foundation; either version 2, or (at your option)
   9:firmwares/rotorcraft/main.c ****  * any later version.
  10:firmwares/rotorcraft/main.c ****  *
  11:firmwares/rotorcraft/main.c ****  * Paparazzi is distributed in the hope that it will be useful,
  12:firmwares/rotorcraft/main.c ****  * but WITHOUT ANY WARRANTY; without even the implied warranty of
  13:firmwares/rotorcraft/main.c ****  * MERCHANTABILITY or FITNESS FOR A PARTICULAR PURPOSE.  See the
  14:firmwares/rotorcraft/main.c ****  * GNU General Public License for more details.
  15:firmwares/rotorcraft/main.c ****  *
  16:firmwares/rotorcraft/main.c ****  * You should have received a copy of the GNU General Public License
  17:firmwares/rotorcraft/main.c ****  * along with Paparazzi; see the file COPYING.  If not, write to
  18:firmwares/rotorcraft/main.c ****  * the Free Software Foundation, 59 Temple Place - Suite 330,
  19:firmwares/rotorcraft/main.c ****  * Boston, MA 02111-1307, USA.
  20:firmwares/rotorcraft/main.c ****  *
  21:firmwares/rotorcraft/main.c ****  */
  22:firmwares/rotorcraft/main.c **** 
  23:firmwares/rotorcraft/main.c **** /**
  24:firmwares/rotorcraft/main.c ****  * @file firmwares/rotorcraft/main.c
  25:firmwares/rotorcraft/main.c ****  *
  26:firmwares/rotorcraft/main.c ****  * Rotorcraft main loop.
  27:firmwares/rotorcraft/main.c ****  */
  28:firmwares/rotorcraft/main.c **** 
  29:firmwares/rotorcraft/main.c **** #define MODULES_C
  30:firmwares/rotorcraft/main.c **** 
  31:firmwares/rotorcraft/main.c **** #define ABI_C
  32:firmwares/rotorcraft/main.c **** 
  33:firmwares/rotorcraft/main.c **** #include <inttypes.h>
  34:firmwares/rotorcraft/main.c **** #include "mcu.h"
  35:firmwares/rotorcraft/main.c **** #include "mcu_periph/sys_time.h"
  36:firmwares/rotorcraft/main.c **** #include "led.h"
  37:firmwares/rotorcraft/main.c **** 
  38:firmwares/rotorcraft/main.c **** #include "subsystems/datalink/telemetry.h"
  39:firmwares/rotorcraft/main.c **** #include "subsystems/datalink/datalink.h"
  40:firmwares/rotorcraft/main.c **** #include "subsystems/datalink/downlink.h"
  41:firmwares/rotorcraft/main.c **** #include "subsystems/settings.h"
  42:firmwares/rotorcraft/main.c **** 
  43:firmwares/rotorcraft/main.c **** #include "subsystems/commands.h"
  44:firmwares/rotorcraft/main.c **** #include "subsystems/actuators.h"
  45:firmwares/rotorcraft/main.c **** #if USE_MOTOR_MIXING
  46:firmwares/rotorcraft/main.c **** #include "subsystems/actuators/motor_mixing.h"
  47:firmwares/rotorcraft/main.c **** #endif
  48:firmwares/rotorcraft/main.c **** 
  49:firmwares/rotorcraft/main.c **** #include "subsystems/imu.h"
  50:firmwares/rotorcraft/main.c **** #include "subsystems/gps.h"
  51:firmwares/rotorcraft/main.c **** 
  52:firmwares/rotorcraft/main.c **** #if USE_BARO_BOARD
  53:firmwares/rotorcraft/main.c **** #include "subsystems/sensors/baro.h"
  54:firmwares/rotorcraft/main.c **** PRINT_CONFIG_MSG_VALUE("USE_BARO_BOARD is TRUE, reading onboard baro: ", BARO_BOARD)
  55:firmwares/rotorcraft/main.c **** #endif
  56:firmwares/rotorcraft/main.c **** 
  57:firmwares/rotorcraft/main.c **** #include "subsystems/electrical.h"
  58:firmwares/rotorcraft/main.c **** 
  59:firmwares/rotorcraft/main.c **** #include "firmwares/rotorcraft/autopilot.h"
  60:firmwares/rotorcraft/main.c **** 
  61:firmwares/rotorcraft/main.c **** #include "subsystems/radio_control.h"
  62:firmwares/rotorcraft/main.c **** 
  63:firmwares/rotorcraft/main.c **** #include "firmwares/rotorcraft/stabilization.h"
  64:firmwares/rotorcraft/main.c **** #include "firmwares/rotorcraft/guidance.h"
  65:firmwares/rotorcraft/main.c **** 
  66:firmwares/rotorcraft/main.c **** #include "subsystems/ahrs.h"
  67:firmwares/rotorcraft/main.c **** #if USE_AHRS_ALIGNER
  68:firmwares/rotorcraft/main.c **** #include "subsystems/ahrs/ahrs_aligner.h"
  69:firmwares/rotorcraft/main.c **** #endif
  70:firmwares/rotorcraft/main.c **** #include "subsystems/ins.h"
  71:firmwares/rotorcraft/main.c **** 
  72:firmwares/rotorcraft/main.c **** #include "state.h"
  73:firmwares/rotorcraft/main.c **** 
  74:firmwares/rotorcraft/main.c **** #include "firmwares/rotorcraft/main.h"
  75:firmwares/rotorcraft/main.c **** 
  76:firmwares/rotorcraft/main.c **** #ifdef SITL
  77:firmwares/rotorcraft/main.c **** #include "nps_autopilot.h"
  78:firmwares/rotorcraft/main.c **** #endif
  79:firmwares/rotorcraft/main.c **** 
  80:firmwares/rotorcraft/main.c **** #include "generated/modules.h"
  81:firmwares/rotorcraft/main.c **** #include "subsystems/abi.h"
  82:firmwares/rotorcraft/main.c **** 
  83:firmwares/rotorcraft/main.c **** /* if PRINT_CONFIG is defined, print some config options */
  84:firmwares/rotorcraft/main.c **** PRINT_CONFIG_VAR(PERIODIC_FREQUENCY)
  85:firmwares/rotorcraft/main.c **** 
  86:firmwares/rotorcraft/main.c **** /* TELEMETRY_FREQUENCY is defined in generated/periodic_telemetry.h
  87:firmwares/rotorcraft/main.c ****  * defaults to 60Hz or set by TELEMETRY_FREQUENCY configure option in airframe file
  88:firmwares/rotorcraft/main.c ****  */
  89:firmwares/rotorcraft/main.c **** PRINT_CONFIG_VAR(TELEMETRY_FREQUENCY)
  90:firmwares/rotorcraft/main.c **** 
  91:firmwares/rotorcraft/main.c **** /* MODULES_FREQUENCY is defined in generated/modules.h
  92:firmwares/rotorcraft/main.c ****  * according to main_freq parameter set for modules in airframe file
  93:firmwares/rotorcraft/main.c ****  */
  94:firmwares/rotorcraft/main.c **** PRINT_CONFIG_VAR(MODULES_FREQUENCY)
  95:firmwares/rotorcraft/main.c **** 
  96:firmwares/rotorcraft/main.c **** #ifndef BARO_PERIODIC_FREQUENCY
  97:firmwares/rotorcraft/main.c **** #define BARO_PERIODIC_FREQUENCY 50
  98:firmwares/rotorcraft/main.c **** #endif
  99:firmwares/rotorcraft/main.c **** PRINT_CONFIG_VAR(BARO_PERIODIC_FREQUENCY)
 100:firmwares/rotorcraft/main.c **** 
 101:firmwares/rotorcraft/main.c **** #if USE_AHRS && USE_IMU && (defined AHRS_PROPAGATE_FREQUENCY)
 102:firmwares/rotorcraft/main.c **** #if (AHRS_PROPAGATE_FREQUENCY > PERIODIC_FREQUENCY)
 103:firmwares/rotorcraft/main.c **** #warning "PERIODIC_FREQUENCY should be least equal or greater than AHRS_PROPAGATE_FREQUENCY"
 104:firmwares/rotorcraft/main.c **** INFO_VALUE("it is recommended to configure in your airframe PERIODIC_FREQUENCY to at least ", AHRS_
 105:firmwares/rotorcraft/main.c **** #endif
 106:firmwares/rotorcraft/main.c **** #endif
 107:firmwares/rotorcraft/main.c **** 
 108:firmwares/rotorcraft/main.c **** tid_t main_periodic_tid; ///< id for main_periodic() timer
 109:firmwares/rotorcraft/main.c **** tid_t modules_tid;       ///< id for modules_periodic_task() timer
 110:firmwares/rotorcraft/main.c **** tid_t failsafe_tid;      ///< id for failsafe_check() timer
 111:firmwares/rotorcraft/main.c **** tid_t radio_control_tid; ///< id for radio_control_periodic_task() timer
 112:firmwares/rotorcraft/main.c **** tid_t electrical_tid;    ///< id for electrical_periodic() timer
 113:firmwares/rotorcraft/main.c **** tid_t telemetry_tid;     ///< id for telemetry_periodic() timer
 114:firmwares/rotorcraft/main.c **** #if USE_BARO_BOARD
 115:firmwares/rotorcraft/main.c **** tid_t baro_tid;          ///< id for baro_periodic() timer
 116:firmwares/rotorcraft/main.c **** #endif
 117:firmwares/rotorcraft/main.c **** 
 118:firmwares/rotorcraft/main.c **** #ifndef SITL
 119:firmwares/rotorcraft/main.c **** int main(void)
 120:firmwares/rotorcraft/main.c **** {
  28              		.loc 1 120 0
  29              		.cfi_startproc
  30              		@ Volatile: function does not return.
  31              		@ args = 0, pretend = 0, frame = 8
  32              		@ frame_needed = 0, uses_anonymous_args = 0
  33 0000 2DE98748 		push	{r0, r1, r2, r7, fp, lr}
  34              		.cfi_def_cfa_offset 24
  35              		.cfi_offset 0, -24
  36              		.cfi_offset 1, -20
  37              		.cfi_offset 2, -16
  38              		.cfi_offset 7, -12
  39              		.cfi_offset 11, -8
  40              		.cfi_offset 14, -4
  41              	.LBB95:
  42              	.LBB96:
  43              	.LBB97:
  44              	.LBB98:
  45              		.file 2 "/home/lsk/paparazzi/var/aircrafts/kroozsd_lsk/ap/generated/modules.h"
   1:/home/lsk/paparazzi/var/aircrafts/kroozsd_lsk/ap/generated/modules.h **** /* This file has been generated from /home/lsk/paparazzi/conf/airframes/examples/krooz_sd/krooz_sd_
   2:/home/lsk/paparazzi/var/aircrafts/kroozsd_lsk/ap/generated/modules.h **** /* Please DO NOT EDIT */
   3:/home/lsk/paparazzi/var/aircrafts/kroozsd_lsk/ap/generated/modules.h **** 
   4:/home/lsk/paparazzi/var/aircrafts/kroozsd_lsk/ap/generated/modules.h **** #ifndef MODULES_H
   5:/home/lsk/paparazzi/var/aircrafts/kroozsd_lsk/ap/generated/modules.h **** #define MODULES_H
   6:/home/lsk/paparazzi/var/aircrafts/kroozsd_lsk/ap/generated/modules.h **** 
   7:/home/lsk/paparazzi/var/aircrafts/kroozsd_lsk/ap/generated/modules.h **** #define MODULES_IDLE  0
   8:/home/lsk/paparazzi/var/aircrafts/kroozsd_lsk/ap/generated/modules.h **** #define MODULES_RUN   1
   9:/home/lsk/paparazzi/var/aircrafts/kroozsd_lsk/ap/generated/modules.h **** #define MODULES_START 2
  10:/home/lsk/paparazzi/var/aircrafts/kroozsd_lsk/ap/generated/modules.h **** #define MODULES_STOP  3
  11:/home/lsk/paparazzi/var/aircrafts/kroozsd_lsk/ap/generated/modules.h **** 
  12:/home/lsk/paparazzi/var/aircrafts/kroozsd_lsk/ap/generated/modules.h **** #define MODULES_FREQUENCY 512
  13:/home/lsk/paparazzi/var/aircrafts/kroozsd_lsk/ap/generated/modules.h **** 
  14:/home/lsk/paparazzi/var/aircrafts/kroozsd_lsk/ap/generated/modules.h **** #ifdef MODULES_C
  15:/home/lsk/paparazzi/var/aircrafts/kroozsd_lsk/ap/generated/modules.h **** #define EXTERN_MODULES
  16:/home/lsk/paparazzi/var/aircrafts/kroozsd_lsk/ap/generated/modules.h **** #else
  17:/home/lsk/paparazzi/var/aircrafts/kroozsd_lsk/ap/generated/modules.h **** #define EXTERN_MODULES extern
  18:/home/lsk/paparazzi/var/aircrafts/kroozsd_lsk/ap/generated/modules.h **** #endif
  19:/home/lsk/paparazzi/var/aircrafts/kroozsd_lsk/ap/generated/modules.h **** #include "std.h"
  20:/home/lsk/paparazzi/var/aircrafts/kroozsd_lsk/ap/generated/modules.h **** #include "gps/gps_ubx_ucenter.h"
  21:/home/lsk/paparazzi/var/aircrafts/kroozsd_lsk/ap/generated/modules.h **** #include "geo_mag/geo_mag.h"
  22:/home/lsk/paparazzi/var/aircrafts/kroozsd_lsk/ap/generated/modules.h **** #include "air_data/air_data.h"
  23:/home/lsk/paparazzi/var/aircrafts/kroozsd_lsk/ap/generated/modules.h **** 
  24:/home/lsk/paparazzi/var/aircrafts/kroozsd_lsk/ap/generated/modules.h **** #define GPS_UBX_UCENTER_PERIODIC_PERIOD 0.250000
  25:/home/lsk/paparazzi/var/aircrafts/kroozsd_lsk/ap/generated/modules.h **** #define GPS_UBX_UCENTER_PERIODIC_FREQ 4.000000
  26:/home/lsk/paparazzi/var/aircrafts/kroozsd_lsk/ap/generated/modules.h **** #define GEO_MAG_PERIODIC_PERIOD 1.000000
  27:/home/lsk/paparazzi/var/aircrafts/kroozsd_lsk/ap/generated/modules.h **** #define GEO_MAG_PERIODIC_FREQ 1.000000
  28:/home/lsk/paparazzi/var/aircrafts/kroozsd_lsk/ap/generated/modules.h **** #define AIR_DATA_PERIODIC_PERIOD 0.100000
  29:/home/lsk/paparazzi/var/aircrafts/kroozsd_lsk/ap/generated/modules.h **** #define AIR_DATA_PERIODIC_FREQ 10.000000
  30:/home/lsk/paparazzi/var/aircrafts/kroozsd_lsk/ap/generated/modules.h **** 
  31:/home/lsk/paparazzi/var/aircrafts/kroozsd_lsk/ap/generated/modules.h **** EXTERN_MODULES uint8_t gps_ubx_gps_ubx_ucenter_periodic_status;
  32:/home/lsk/paparazzi/var/aircrafts/kroozsd_lsk/ap/generated/modules.h **** 
  33:/home/lsk/paparazzi/var/aircrafts/kroozsd_lsk/ap/generated/modules.h **** #ifdef MODULES_C
  34:/home/lsk/paparazzi/var/aircrafts/kroozsd_lsk/ap/generated/modules.h **** 
  35:/home/lsk/paparazzi/var/aircrafts/kroozsd_lsk/ap/generated/modules.h **** static inline void modules_init(void) {
  36:/home/lsk/paparazzi/var/aircrafts/kroozsd_lsk/ap/generated/modules.h ****   gps_ubx_ucenter_init();
  37:/home/lsk/paparazzi/var/aircrafts/kroozsd_lsk/ap/generated/modules.h ****   gps_ubx_gps_ubx_ucenter_periodic_status = MODULES_START;
  46              		.loc 2 37 0
  47 0004 DFF86883 		ldr	r8, .L773+112
  48              	.LBE98:
  49              	.LBE97:
 121:firmwares/rotorcraft/main.c ****   main_init();
 122:firmwares/rotorcraft/main.c **** 
 123:firmwares/rotorcraft/main.c ****   while (1) {
 124:firmwares/rotorcraft/main.c ****     handle_periodic_tasks();
 125:firmwares/rotorcraft/main.c ****     main_event();
 126:firmwares/rotorcraft/main.c ****   }
 127:firmwares/rotorcraft/main.c ****   return 0;
 128:firmwares/rotorcraft/main.c **** }
 129:firmwares/rotorcraft/main.c **** #endif /* SITL */
 130:firmwares/rotorcraft/main.c **** 
 131:firmwares/rotorcraft/main.c **** STATIC_INLINE void main_init(void)
 132:firmwares/rotorcraft/main.c **** {
 133:firmwares/rotorcraft/main.c ****   mcu_init();
 134:firmwares/rotorcraft/main.c **** 
 135:firmwares/rotorcraft/main.c ****   electrical_init();
 136:firmwares/rotorcraft/main.c **** 
 137:firmwares/rotorcraft/main.c ****   stateInit();
 138:firmwares/rotorcraft/main.c **** 
 139:firmwares/rotorcraft/main.c ****   actuators_init();
 140:firmwares/rotorcraft/main.c **** #if USE_MOTOR_MIXING
 141:firmwares/rotorcraft/main.c ****   motor_mixing_init();
 142:firmwares/rotorcraft/main.c **** #endif
 143:firmwares/rotorcraft/main.c **** 
 144:firmwares/rotorcraft/main.c ****   radio_control_init();
 145:firmwares/rotorcraft/main.c **** 
 146:firmwares/rotorcraft/main.c **** #if USE_BARO_BOARD
 147:firmwares/rotorcraft/main.c ****   baro_init();
 148:firmwares/rotorcraft/main.c **** #endif
 149:firmwares/rotorcraft/main.c ****   imu_init();
 150:firmwares/rotorcraft/main.c **** #if USE_AHRS_ALIGNER
 151:firmwares/rotorcraft/main.c ****   ahrs_aligner_init();
 152:firmwares/rotorcraft/main.c **** #endif
 153:firmwares/rotorcraft/main.c **** 
 154:firmwares/rotorcraft/main.c **** #if USE_AHRS
 155:firmwares/rotorcraft/main.c ****   ahrs_init();
 156:firmwares/rotorcraft/main.c **** #endif
 157:firmwares/rotorcraft/main.c **** 
 158:firmwares/rotorcraft/main.c ****   ins_init();
 159:firmwares/rotorcraft/main.c **** 
 160:firmwares/rotorcraft/main.c **** #if USE_GPS
 161:firmwares/rotorcraft/main.c ****   gps_init();
 162:firmwares/rotorcraft/main.c **** #endif
 163:firmwares/rotorcraft/main.c **** 
 164:firmwares/rotorcraft/main.c ****   autopilot_init();
 165:firmwares/rotorcraft/main.c **** 
 166:firmwares/rotorcraft/main.c ****   modules_init();
 167:firmwares/rotorcraft/main.c **** 
 168:firmwares/rotorcraft/main.c ****   settings_init();
 169:firmwares/rotorcraft/main.c **** 
 170:firmwares/rotorcraft/main.c ****   mcu_int_enable();
 171:firmwares/rotorcraft/main.c **** 
 172:firmwares/rotorcraft/main.c **** #if DOWNLINK
 173:firmwares/rotorcraft/main.c ****   downlink_init();
 174:firmwares/rotorcraft/main.c **** #endif
 175:firmwares/rotorcraft/main.c **** 
 176:firmwares/rotorcraft/main.c ****   // register the timers for the periodic functions
 177:firmwares/rotorcraft/main.c ****   main_periodic_tid = sys_time_register_timer((1. / PERIODIC_FREQUENCY), NULL);
  50              		.loc 1 177 0
  51 0008 DFF85CA3 		ldr	r10, .L773+104
 178:firmwares/rotorcraft/main.c ****   modules_tid = sys_time_register_timer(1. / MODULES_FREQUENCY, NULL);
  52              		.loc 1 178 0
  53 000c DFF83C93 		ldr	r9, .L773+76
 179:firmwares/rotorcraft/main.c ****   radio_control_tid = sys_time_register_timer((1. / 60.), NULL);
  54              		.loc 1 179 0
  55 0010 BB4F     		ldr	r7, .L773
 180:firmwares/rotorcraft/main.c ****   failsafe_tid = sys_time_register_timer(0.05, NULL);
  56              		.loc 1 180 0
  57 0012 BC4E     		ldr	r6, .L773+4
 181:firmwares/rotorcraft/main.c ****   electrical_tid = sys_time_register_timer(0.1, NULL);
  58              		.loc 1 181 0
  59 0014 BC4D     		ldr	r5, .L773+8
 182:firmwares/rotorcraft/main.c ****   telemetry_tid = sys_time_register_timer((1. / TELEMETRY_FREQUENCY), NULL);
  60              		.loc 1 182 0
  61 0016 BD4C     		ldr	r4, .L773+12
 133:firmwares/rotorcraft/main.c ****   mcu_init();
  62              		.loc 1 133 0
  63 0018 FFF7FEFF 		bl	mcu_init
  64              	.LVL0:
 135:firmwares/rotorcraft/main.c ****   electrical_init();
  65              		.loc 1 135 0
  66 001c FFF7FEFF 		bl	electrical_init
  67              	.LVL1:
 137:firmwares/rotorcraft/main.c ****   stateInit();
  68              		.loc 1 137 0
  69 0020 FFF7FEFF 		bl	stateInit
  70              	.LVL2:
 139:firmwares/rotorcraft/main.c ****   actuators_init();
  71              		.loc 1 139 0
  72 0024 FFF7FEFF 		bl	actuators_init
  73              	.LVL3:
 141:firmwares/rotorcraft/main.c ****   motor_mixing_init();
  74              		.loc 1 141 0
  75 0028 FFF7FEFF 		bl	motor_mixing_init
  76              	.LVL4:
 144:firmwares/rotorcraft/main.c ****   radio_control_init();
  77              		.loc 1 144 0
  78 002c FFF7FEFF 		bl	radio_control_init
  79              	.LVL5:
 147:firmwares/rotorcraft/main.c ****   baro_init();
  80              		.loc 1 147 0
  81 0030 FFF7FEFF 		bl	baro_init
  82              	.LVL6:
 149:firmwares/rotorcraft/main.c ****   imu_init();
  83              		.loc 1 149 0
  84 0034 FFF7FEFF 		bl	imu_init
  85              	.LVL7:
 151:firmwares/rotorcraft/main.c ****   ahrs_aligner_init();
  86              		.loc 1 151 0
  87 0038 FFF7FEFF 		bl	ahrs_aligner_init
  88              	.LVL8:
 155:firmwares/rotorcraft/main.c ****   ahrs_init();
  89              		.loc 1 155 0
  90 003c FFF7FEFF 		bl	ahrs_init
  91              	.LVL9:
 158:firmwares/rotorcraft/main.c ****   ins_init();
  92              		.loc 1 158 0
  93 0040 FFF7FEFF 		bl	ins_init
  94              	.LVL10:
 161:firmwares/rotorcraft/main.c ****   gps_init();
  95              		.loc 1 161 0
  96 0044 FFF7FEFF 		bl	gps_init
  97              	.LVL11:
 164:firmwares/rotorcraft/main.c ****   autopilot_init();
  98              		.loc 1 164 0
  99 0048 FFF7FEFF 		bl	autopilot_init
 100              	.LVL12:
 101              	.LBB100:
 102              	.LBB99:
  36:/home/lsk/paparazzi/var/aircrafts/kroozsd_lsk/ap/generated/modules.h ****   gps_ubx_ucenter_init();
 103              		.loc 2 36 0
 104 004c FFF7FEFF 		bl	gps_ubx_ucenter_init
 105              	.LVL13:
 106              		.loc 2 37 0
 107 0050 0223     		movs	r3, #2
 108 0052 88F80030 		strb	r3, [r8]
  38:/home/lsk/paparazzi/var/aircrafts/kroozsd_lsk/ap/generated/modules.h ****   geo_mag_init();
 109              		.loc 2 38 0
 110 0056 FFF7FEFF 		bl	geo_mag_init
 111              	.LVL14:
  39:/home/lsk/paparazzi/var/aircrafts/kroozsd_lsk/ap/generated/modules.h ****   air_data_init();
 112              		.loc 2 39 0
 113 005a FFF7FEFF 		bl	air_data_init
 114              	.LVL15:
 115              	.LBE99:
 116              	.LBE100:
 168:firmwares/rotorcraft/main.c ****   settings_init();
 117              		.loc 1 168 0
 118 005e FFF7FEFF 		bl	settings_init
 119              	.LVL16:
 173:firmwares/rotorcraft/main.c ****   downlink_init();
 120              		.loc 1 173 0
 121 0062 FFF7FEFF 		bl	downlink_init
 122              	.LVL17:
 177:firmwares/rotorcraft/main.c ****   main_periodic_tid = sys_time_register_timer((1. / PERIODIC_FREQUENCY), NULL);
 123              		.loc 1 177 0
 124 0066 0021     		movs	r1, #0
 125 0068 4FF06C50 		mov	r0, #989855744
 126 006c FFF7FEFF 		bl	sys_time_register_timer
 127              	.LVL18:
 178:firmwares/rotorcraft/main.c ****   modules_tid = sys_time_register_timer(1. / MODULES_FREQUENCY, NULL);
 128              		.loc 1 178 0
 129 0070 0021     		movs	r1, #0
 177:firmwares/rotorcraft/main.c ****   main_periodic_tid = sys_time_register_timer((1. / PERIODIC_FREQUENCY), NULL);
 130              		.loc 1 177 0
 131 0072 8AF80000 		strb	r0, [r10]
 178:firmwares/rotorcraft/main.c ****   modules_tid = sys_time_register_timer(1. / MODULES_FREQUENCY, NULL);
 132              		.loc 1 178 0
 133 0076 4FF06C50 		mov	r0, #989855744
 134 007a FFF7FEFF 		bl	sys_time_register_timer
 135              	.LVL19:
 179:firmwares/rotorcraft/main.c ****   radio_control_tid = sys_time_register_timer((1. / 60.), NULL);
 136              		.loc 1 179 0
 137 007e 0021     		movs	r1, #0
 178:firmwares/rotorcraft/main.c ****   modules_tid = sys_time_register_timer(1. / MODULES_FREQUENCY, NULL);
 138              		.loc 1 178 0
 139 0080 89F80000 		strb	r0, [r9]
 179:firmwares/rotorcraft/main.c ****   radio_control_tid = sys_time_register_timer((1. / 60.), NULL);
 140              		.loc 1 179 0
 141 0084 A248     		ldr	r0, .L773+16
 142 0086 FFF7FEFF 		bl	sys_time_register_timer
 143              	.LVL20:
 180:firmwares/rotorcraft/main.c ****   failsafe_tid = sys_time_register_timer(0.05, NULL);
 144              		.loc 1 180 0
 145 008a 0021     		movs	r1, #0
 179:firmwares/rotorcraft/main.c ****   radio_control_tid = sys_time_register_timer((1. / 60.), NULL);
 146              		.loc 1 179 0
 147 008c 3870     		strb	r0, [r7]
 180:firmwares/rotorcraft/main.c ****   failsafe_tid = sys_time_register_timer(0.05, NULL);
 148              		.loc 1 180 0
 149 008e A148     		ldr	r0, .L773+20
 150 0090 FFF7FEFF 		bl	sys_time_register_timer
 151              	.LVL21:
 181:firmwares/rotorcraft/main.c ****   electrical_tid = sys_time_register_timer(0.1, NULL);
 152              		.loc 1 181 0
 153 0094 0021     		movs	r1, #0
 180:firmwares/rotorcraft/main.c ****   failsafe_tid = sys_time_register_timer(0.05, NULL);
 154              		.loc 1 180 0
 155 0096 3070     		strb	r0, [r6]
 181:firmwares/rotorcraft/main.c ****   electrical_tid = sys_time_register_timer(0.1, NULL);
 156              		.loc 1 181 0
 157 0098 9F48     		ldr	r0, .L773+24
 158 009a FFF7FEFF 		bl	sys_time_register_timer
 159              	.LVL22:
 160              		.loc 1 182 0
 161 009e 0021     		movs	r1, #0
 181:firmwares/rotorcraft/main.c ****   electrical_tid = sys_time_register_timer(0.1, NULL);
 162              		.loc 1 181 0
 163 00a0 2870     		strb	r0, [r5]
 164              		.loc 1 182 0
 165 00a2 4FF06C50 		mov	r0, #989855744
 166 00a6 FFF7FEFF 		bl	sys_time_register_timer
 167              	.LVL23:
 183:firmwares/rotorcraft/main.c **** #if USE_BARO_BOARD
 184:firmwares/rotorcraft/main.c ****   baro_tid = sys_time_register_timer(1. / BARO_PERIODIC_FREQUENCY, NULL);
 168              		.loc 1 184 0
 169 00aa 0021     		movs	r1, #0
 182:firmwares/rotorcraft/main.c ****   telemetry_tid = sys_time_register_timer((1. / TELEMETRY_FREQUENCY), NULL);
 170              		.loc 1 182 0
 171 00ac 2070     		strb	r0, [r4]
 172              		.loc 1 184 0
 173 00ae 9B48     		ldr	r0, .L773+28
 174 00b0 FFF7FEFF 		bl	sys_time_register_timer
 175              	.LVL24:
 176 00b4 9A4B     		ldr	r3, .L773+32
 177 00b6 1870     		strb	r0, [r3]
 178              	.LVL25:
 179              	.LBB101:
 180              	.LBB102:
 181              		.file 3 "./math/pprz_orientation_conversion.h"
   1:./math/pprz_orientation_conversion.h **** /*
   2:./math/pprz_orientation_conversion.h ****  * Copyright (C) 2011-2012 The Paparazzi Team
   3:./math/pprz_orientation_conversion.h ****  *
   4:./math/pprz_orientation_conversion.h ****  * This file is part of paparazzi.
   5:./math/pprz_orientation_conversion.h ****  *
   6:./math/pprz_orientation_conversion.h ****  * paparazzi is free software; you can redistribute it and/or modify
   7:./math/pprz_orientation_conversion.h ****  * it under the terms of the GNU General Public License as published by
   8:./math/pprz_orientation_conversion.h ****  * the Free Software Foundation; either version 2, or (at your option)
   9:./math/pprz_orientation_conversion.h ****  * any later version.
  10:./math/pprz_orientation_conversion.h ****  *
  11:./math/pprz_orientation_conversion.h ****  * paparazzi is distributed in the hope that it will be useful,
  12:./math/pprz_orientation_conversion.h ****  * but WITHOUT ANY WARRANTY; without even the implied warranty of
  13:./math/pprz_orientation_conversion.h ****  * MERCHANTABILITY or FITNESS FOR A PARTICULAR PURPOSE.  See the
  14:./math/pprz_orientation_conversion.h ****  * GNU General Public License for more details.
  15:./math/pprz_orientation_conversion.h ****  *
  16:./math/pprz_orientation_conversion.h ****  * You should have received a copy of the GNU General Public License
  17:./math/pprz_orientation_conversion.h ****  * along with paparazzi; see the file COPYING.  If not, see
  18:./math/pprz_orientation_conversion.h ****  * <http://www.gnu.org/licenses/>.
  19:./math/pprz_orientation_conversion.h ****  */
  20:./math/pprz_orientation_conversion.h **** 
  21:./math/pprz_orientation_conversion.h **** /**
  22:./math/pprz_orientation_conversion.h ****  * @file math/pprz_orientation_conversion.h
  23:./math/pprz_orientation_conversion.h ****  * Generic orientation representation and conversions.
  24:./math/pprz_orientation_conversion.h ****  *
  25:./math/pprz_orientation_conversion.h ****  * This file contains the functions to automatically convert between
  26:./math/pprz_orientation_conversion.h ****  * the different representations. They should normally not be used
  27:./math/pprz_orientation_conversion.h ****  * directly and instead the stateGet/Set interfaces used.
  28:./math/pprz_orientation_conversion.h ****  * Also see the @ref math_orientation_representation "Generic Orientation Representation" page.
  29:./math/pprz_orientation_conversion.h ****  *
  30:./math/pprz_orientation_conversion.h ****  * @author Felix Ruess <felix.ruess@gmail.com>
  31:./math/pprz_orientation_conversion.h ****  */
  32:./math/pprz_orientation_conversion.h **** 
  33:./math/pprz_orientation_conversion.h **** /**
  34:./math/pprz_orientation_conversion.h ****  * @addtogroup math
  35:./math/pprz_orientation_conversion.h ****  * @{
  36:./math/pprz_orientation_conversion.h ****  */
  37:./math/pprz_orientation_conversion.h **** 
  38:./math/pprz_orientation_conversion.h **** /**
  39:./math/pprz_orientation_conversion.h ****  * This generic orientation representation consists of a struct, containing the 6 orientation
  40:./math/pprz_orientation_conversion.h ****  * representations, and a status variable. The bits in the status variable indicate  which
  41:./math/pprz_orientation_conversion.h ****  * representations of the orientation are up-to-date.
  42:./math/pprz_orientation_conversion.h ****  *
  43:./math/pprz_orientation_conversion.h ****  * When a getter is used to get a certain representation, the status bit is checked to see if
  44:./math/pprz_orientation_conversion.h ****  * the current value is already available in the desired orientation representation.
  45:./math/pprz_orientation_conversion.h ****  * If the desired representation is not available, it will be calculated.
  46:./math/pprz_orientation_conversion.h ****  *
  47:./math/pprz_orientation_conversion.h ****  * When a setter is used to set a representation, all status bits are cleared, and only the
  48:./math/pprz_orientation_conversion.h ****  * status bit for the set representation is set to one.
  49:./math/pprz_orientation_conversion.h ****  */
  50:./math/pprz_orientation_conversion.h **** 
  51:./math/pprz_orientation_conversion.h **** /**
  52:./math/pprz_orientation_conversion.h ****  * @defgroup math_orientation_representation Generic Orientation Representations
  53:./math/pprz_orientation_conversion.h ****  * @{
  54:./math/pprz_orientation_conversion.h ****  */
  55:./math/pprz_orientation_conversion.h **** 
  56:./math/pprz_orientation_conversion.h **** #ifndef PPRZ_ORIENTATION_CONVERSION_H
  57:./math/pprz_orientation_conversion.h **** #define PPRZ_ORIENTATION_CONVERSION_H
  58:./math/pprz_orientation_conversion.h **** 
  59:./math/pprz_orientation_conversion.h **** #ifdef __cplusplus
  60:./math/pprz_orientation_conversion.h **** extern "C" {
  61:./math/pprz_orientation_conversion.h **** #endif
  62:./math/pprz_orientation_conversion.h **** 
  63:./math/pprz_orientation_conversion.h **** #include "math/pprz_algebra_int.h"
  64:./math/pprz_orientation_conversion.h **** #include "math/pprz_algebra_float.h"
  65:./math/pprz_orientation_conversion.h **** 
  66:./math/pprz_orientation_conversion.h **** #include "std.h"
  67:./math/pprz_orientation_conversion.h **** 
  68:./math/pprz_orientation_conversion.h **** 
  69:./math/pprz_orientation_conversion.h **** #define ORREP_QUAT_I  0  ///< Quaternion (BFP int)
  70:./math/pprz_orientation_conversion.h **** #define ORREP_EULER_I 1  ///< zyx Euler (BFP int)
  71:./math/pprz_orientation_conversion.h **** #define ORREP_RMAT_I  2  ///< Rotation Matrix (BFP int)
  72:./math/pprz_orientation_conversion.h **** #define ORREP_QUAT_F  3  ///< Quaternion (float)
  73:./math/pprz_orientation_conversion.h **** #define ORREP_EULER_F 4  ///< zyx Euler (float)
  74:./math/pprz_orientation_conversion.h **** #define ORREP_RMAT_F  5  ///< Rotation Matrix (float)
  75:./math/pprz_orientation_conversion.h **** 
  76:./math/pprz_orientation_conversion.h **** /*
  77:./math/pprz_orientation_conversion.h ****  * @brief Struct with euler/rmat/quaternion orientation representations in BFP int and float
  78:./math/pprz_orientation_conversion.h ****  */
  79:./math/pprz_orientation_conversion.h **** struct OrientationReps {
  80:./math/pprz_orientation_conversion.h ****   /**
  81:./math/pprz_orientation_conversion.h ****    * Holds the status bits for all orientation representations.
  82:./math/pprz_orientation_conversion.h ****    * When the corresponding bit is set, the representation
  83:./math/pprz_orientation_conversion.h ****    * is already computed.
  84:./math/pprz_orientation_conversion.h ****    */
  85:./math/pprz_orientation_conversion.h ****   uint8_t status;
  86:./math/pprz_orientation_conversion.h **** 
  87:./math/pprz_orientation_conversion.h ****   /**
  88:./math/pprz_orientation_conversion.h ****    * Orientation quaternion.
  89:./math/pprz_orientation_conversion.h ****    * Units: #INT32_QUAT_FRAC
  90:./math/pprz_orientation_conversion.h ****    */
  91:./math/pprz_orientation_conversion.h ****   struct Int32Quat quat_i;
  92:./math/pprz_orientation_conversion.h **** 
  93:./math/pprz_orientation_conversion.h ****   /**
  94:./math/pprz_orientation_conversion.h ****    * Orientation in zyx euler angles.
  95:./math/pprz_orientation_conversion.h ****    * Units: rad in BFP with #INT32_ANGLE_FRAC
  96:./math/pprz_orientation_conversion.h ****    */
  97:./math/pprz_orientation_conversion.h ****   struct Int32Eulers eulers_i;
  98:./math/pprz_orientation_conversion.h **** 
  99:./math/pprz_orientation_conversion.h ****   /**
 100:./math/pprz_orientation_conversion.h ****    * Orientation rotation matrix.
 101:./math/pprz_orientation_conversion.h ****    * Units: rad in BFP with #INT32_TRIG_FRAC
 102:./math/pprz_orientation_conversion.h ****    */
 103:./math/pprz_orientation_conversion.h ****   struct Int32RMat rmat_i;
 104:./math/pprz_orientation_conversion.h **** 
 105:./math/pprz_orientation_conversion.h ****   /**
 106:./math/pprz_orientation_conversion.h ****    * Orientation as quaternion.
 107:./math/pprz_orientation_conversion.h ****    * Units: unit length quaternion
 108:./math/pprz_orientation_conversion.h ****    */
 109:./math/pprz_orientation_conversion.h ****   struct FloatQuat quat_f;
 110:./math/pprz_orientation_conversion.h **** 
 111:./math/pprz_orientation_conversion.h ****   /**
 112:./math/pprz_orientation_conversion.h ****    * Orienation in zyx euler angles.
 113:./math/pprz_orientation_conversion.h ****    * Units: rad
 114:./math/pprz_orientation_conversion.h ****    */
 115:./math/pprz_orientation_conversion.h ****   struct FloatEulers eulers_f;
 116:./math/pprz_orientation_conversion.h **** 
 117:./math/pprz_orientation_conversion.h ****   /**
 118:./math/pprz_orientation_conversion.h ****    * Orientation rotation matrix.
 119:./math/pprz_orientation_conversion.h ****    * Units: rad
 120:./math/pprz_orientation_conversion.h ****    */
 121:./math/pprz_orientation_conversion.h ****   struct FloatRMat   rmat_f;
 122:./math/pprz_orientation_conversion.h **** };
 123:./math/pprz_orientation_conversion.h **** 
 124:./math/pprz_orientation_conversion.h **** /************* declaration of transformation functions ************/
 125:./math/pprz_orientation_conversion.h **** extern void orientationCalcQuat_i(struct OrientationReps *orientation);
 126:./math/pprz_orientation_conversion.h **** extern void orientationCalcRMat_i(struct OrientationReps *orientation);
 127:./math/pprz_orientation_conversion.h **** extern void orientationCalcEulers_i(struct OrientationReps *orientation);
 128:./math/pprz_orientation_conversion.h **** extern void orientationCalcQuat_f(struct OrientationReps *orientation);
 129:./math/pprz_orientation_conversion.h **** extern void orientationCalcRMat_f(struct OrientationReps *orientation);
 130:./math/pprz_orientation_conversion.h **** extern void orientationCalcEulers_f(struct OrientationReps *orientation);
 131:./math/pprz_orientation_conversion.h **** 
 132:./math/pprz_orientation_conversion.h **** 
 133:./math/pprz_orientation_conversion.h **** /*********************** validity test functions ******************/
 134:./math/pprz_orientation_conversion.h **** /// Test if orientations are valid.
 135:./math/pprz_orientation_conversion.h **** static inline bool_t orienationCheckValid(struct OrientationReps *orientation)
 136:./math/pprz_orientation_conversion.h **** {
 137:./math/pprz_orientation_conversion.h ****   return (orientation->status);
 138:./math/pprz_orientation_conversion.h **** }
 139:./math/pprz_orientation_conversion.h **** 
 140:./math/pprz_orientation_conversion.h **** /// Set vehicle body attitude from quaternion (int).
 141:./math/pprz_orientation_conversion.h **** static inline void orientationSetQuat_i(struct OrientationReps *orientation, struct Int32Quat *quat
 142:./math/pprz_orientation_conversion.h **** {
 143:./math/pprz_orientation_conversion.h ****   QUAT_COPY(orientation->quat_i, *quat);
 144:./math/pprz_orientation_conversion.h ****   /* clear bits for all attitude representations and only set the new one */
 145:./math/pprz_orientation_conversion.h ****   orientation->status = (1 << ORREP_QUAT_I);
 146:./math/pprz_orientation_conversion.h **** }
 147:./math/pprz_orientation_conversion.h **** 
 148:./math/pprz_orientation_conversion.h **** /// Set vehicle body attitude from rotation matrix (int).
 149:./math/pprz_orientation_conversion.h **** static inline void orientationSetRMat_i(struct OrientationReps *orientation, struct Int32RMat *rmat
 150:./math/pprz_orientation_conversion.h **** {
 151:./math/pprz_orientation_conversion.h ****   RMAT_COPY(orientation->rmat_i, *rmat);
 152:./math/pprz_orientation_conversion.h ****   /* clear bits for all attitude representations and only set the new one */
 153:./math/pprz_orientation_conversion.h ****   orientation->status = (1 << ORREP_RMAT_I);
 154:./math/pprz_orientation_conversion.h **** }
 155:./math/pprz_orientation_conversion.h **** 
 156:./math/pprz_orientation_conversion.h **** /// Set vehicle body attitude from euler angles (int).
 157:./math/pprz_orientation_conversion.h **** static inline void orientationSetEulers_i(struct OrientationReps *orientation, struct Int32Eulers *
 158:./math/pprz_orientation_conversion.h **** {
 159:./math/pprz_orientation_conversion.h ****   EULERS_COPY(orientation->eulers_i, *eulers);
 160:./math/pprz_orientation_conversion.h ****   /* clear bits for all attitude representations and only set the new one */
 161:./math/pprz_orientation_conversion.h ****   orientation->status = (1 << ORREP_EULER_I);
 162:./math/pprz_orientation_conversion.h **** }
 163:./math/pprz_orientation_conversion.h **** 
 164:./math/pprz_orientation_conversion.h **** /// Set vehicle body attitude from quaternion (float).
 165:./math/pprz_orientation_conversion.h **** static inline void orientationSetQuat_f(struct OrientationReps *orientation, struct FloatQuat *quat
 166:./math/pprz_orientation_conversion.h **** {
 167:./math/pprz_orientation_conversion.h ****   QUAT_COPY(orientation->quat_f, *quat);
 168:./math/pprz_orientation_conversion.h ****   /* clear bits for all attitude representations and only set the new one */
 169:./math/pprz_orientation_conversion.h ****   orientation->status = (1 << ORREP_QUAT_F);
 170:./math/pprz_orientation_conversion.h **** }
 171:./math/pprz_orientation_conversion.h **** 
 172:./math/pprz_orientation_conversion.h **** /// Set vehicle body attitude from rotation matrix (float).
 173:./math/pprz_orientation_conversion.h **** static inline void orientationSetRMat_f(struct OrientationReps *orientation, struct FloatRMat *rmat
 174:./math/pprz_orientation_conversion.h **** {
 175:./math/pprz_orientation_conversion.h ****   RMAT_COPY(orientation->rmat_f, *rmat);
 176:./math/pprz_orientation_conversion.h ****   /* clear bits for all attitude representations and only set the new one */
 177:./math/pprz_orientation_conversion.h ****   orientation->status = (1 << ORREP_RMAT_F);
 178:./math/pprz_orientation_conversion.h **** }
 179:./math/pprz_orientation_conversion.h **** 
 180:./math/pprz_orientation_conversion.h **** /// Set vehicle body attitude from euler angles (float).
 181:./math/pprz_orientation_conversion.h **** static inline void orientationSetEulers_f(struct OrientationReps *orientation, struct FloatEulers *
 182:./math/pprz_orientation_conversion.h **** {
 183:./math/pprz_orientation_conversion.h ****   EULERS_COPY(orientation->eulers_f, *eulers);
 184:./math/pprz_orientation_conversion.h ****   /* clear bits for all attitude representations and only set the new one */
 185:./math/pprz_orientation_conversion.h ****   orientation->status = (1 << ORREP_EULER_F);
 186:./math/pprz_orientation_conversion.h **** }
 187:./math/pprz_orientation_conversion.h **** 
 188:./math/pprz_orientation_conversion.h **** 
 189:./math/pprz_orientation_conversion.h **** /// Get vehicle body attitude quaternion (int).
 190:./math/pprz_orientation_conversion.h **** static inline struct Int32Quat *orientationGetQuat_i(struct OrientationReps *orientation)
 191:./math/pprz_orientation_conversion.h **** {
 192:./math/pprz_orientation_conversion.h ****   if (!bit_is_set(orientation->status, ORREP_QUAT_I)) {
 193:./math/pprz_orientation_conversion.h ****     orientationCalcQuat_i(orientation);
 194:./math/pprz_orientation_conversion.h ****   }
 195:./math/pprz_orientation_conversion.h ****   return &orientation->quat_i;
 196:./math/pprz_orientation_conversion.h **** }
 197:./math/pprz_orientation_conversion.h **** 
 198:./math/pprz_orientation_conversion.h **** /// Get vehicle body attitude rotation matrix (int).
 199:./math/pprz_orientation_conversion.h **** static inline struct Int32RMat *orientationGetRMat_i(struct OrientationReps *orientation)
 200:./math/pprz_orientation_conversion.h **** {
 201:./math/pprz_orientation_conversion.h ****   if (!bit_is_set(orientation->status, ORREP_RMAT_I)) {
 202:./math/pprz_orientation_conversion.h ****     orientationCalcRMat_i(orientation);
 203:./math/pprz_orientation_conversion.h ****   }
 204:./math/pprz_orientation_conversion.h ****   return &orientation->rmat_i;
 205:./math/pprz_orientation_conversion.h **** }
 206:./math/pprz_orientation_conversion.h **** 
 207:./math/pprz_orientation_conversion.h **** /// Get vehicle body attitude euler angles (int).
 208:./math/pprz_orientation_conversion.h **** static inline struct Int32Eulers *orientationGetEulers_i(struct OrientationReps *orientation)
 209:./math/pprz_orientation_conversion.h **** {
 210:./math/pprz_orientation_conversion.h ****   if (!bit_is_set(orientation->status, ORREP_EULER_I)) {
 211:./math/pprz_orientation_conversion.h ****     orientationCalcEulers_i(orientation);
 212:./math/pprz_orientation_conversion.h ****   }
 213:./math/pprz_orientation_conversion.h ****   return &orientation->eulers_i;
 214:./math/pprz_orientation_conversion.h **** }
 215:./math/pprz_orientation_conversion.h **** 
 216:./math/pprz_orientation_conversion.h **** /// Get vehicle body attitude quaternion (float).
 217:./math/pprz_orientation_conversion.h **** static inline struct FloatQuat *orientationGetQuat_f(struct OrientationReps *orientation)
 218:./math/pprz_orientation_conversion.h **** {
 219:./math/pprz_orientation_conversion.h ****   if (!bit_is_set(orientation->status, ORREP_QUAT_F)) {
 182              		.loc 3 219 0
 183 00b8 9A48     		ldr	r0, .L773+36
 184 00ba 90F88420 		ldrb	r2, [r0, #132]	@ zero_extendqisi2
 185 00be 12F0080F 		tst	r2, #8
 186 00c2 A946     		mov	r9, r5
 187 00c4 A246     		mov	r10, r4
 188 00c6 9B46     		mov	fp, r3
 189 00c8 02D1     		bne	.L2
 220:./math/pprz_orientation_conversion.h ****     orientationCalcQuat_f(orientation);
 190              		.loc 3 220 0
 191 00ca 8430     		adds	r0, r0, #132
 192 00cc FFF7FEFF 		bl	orientationCalcQuat_f
 193              	.LVL26:
 194              	.L2:
 195              	.LBE102:
 196              	.LBE101:
 197              	.LBB103:
 198              	.LBB104:
 199              		.file 4 "/home/lsk/paparazzi/var/include/abi_messages.h"
   1:/home/lsk/paparazzi/var/include/abi_messages.h **** /* Automatically generated by gen_abi from /home/lsk/paparazzi/conf/abi.xml */
   2:/home/lsk/paparazzi/var/include/abi_messages.h **** /* Please DO NOT EDIT */
   3:/home/lsk/paparazzi/var/include/abi_messages.h **** 
   4:/home/lsk/paparazzi/var/include/abi_messages.h **** /* Onboard middleware library ABI
   5:/home/lsk/paparazzi/var/include/abi_messages.h ****  * send and receive messages of class airborne
   6:/home/lsk/paparazzi/var/include/abi_messages.h ****  */
   7:/home/lsk/paparazzi/var/include/abi_messages.h **** 
   8:/home/lsk/paparazzi/var/include/abi_messages.h **** #ifndef ABI_MESSAGES_H
   9:/home/lsk/paparazzi/var/include/abi_messages.h **** #define ABI_MESSAGES_H
  10:/home/lsk/paparazzi/var/include/abi_messages.h **** 
  11:/home/lsk/paparazzi/var/include/abi_messages.h **** #include "subsystems/abi_common.h"
  12:/home/lsk/paparazzi/var/include/abi_messages.h **** 
  13:/home/lsk/paparazzi/var/include/abi_messages.h **** /* Messages IDs */
  14:/home/lsk/paparazzi/var/include/abi_messages.h **** #define ABI_BARO_ABS_ID 0
  15:/home/lsk/paparazzi/var/include/abi_messages.h **** #define ABI_BARO_DIFF_ID 1
  16:/home/lsk/paparazzi/var/include/abi_messages.h **** #define ABI_AGL_ID 2
  17:/home/lsk/paparazzi/var/include/abi_messages.h **** #define ABI_TEMPERATURE_ID 3
  18:/home/lsk/paparazzi/var/include/abi_messages.h **** #define ABI_IMU_GYRO_INT32_ID 4
  19:/home/lsk/paparazzi/var/include/abi_messages.h **** #define ABI_IMU_ACCEL_INT32_ID 5
  20:/home/lsk/paparazzi/var/include/abi_messages.h **** #define ABI_IMU_MAG_INT32_ID 6
  21:/home/lsk/paparazzi/var/include/abi_messages.h **** #define ABI_IMU_LOWPASSED_ID 7
  22:/home/lsk/paparazzi/var/include/abi_messages.h **** #define ABI_BODY_TO_IMU_QUAT_ID 8
  23:/home/lsk/paparazzi/var/include/abi_messages.h **** #define ABI_GEO_MAG_ID 9
  24:/home/lsk/paparazzi/var/include/abi_messages.h **** #define ABI_GPS_ID 10
  25:/home/lsk/paparazzi/var/include/abi_messages.h **** 
  26:/home/lsk/paparazzi/var/include/abi_messages.h **** /* Array and linked list structure */
  27:/home/lsk/paparazzi/var/include/abi_messages.h **** #define ABI_MESSAGE_NB 11
  28:/home/lsk/paparazzi/var/include/abi_messages.h **** 
  29:/home/lsk/paparazzi/var/include/abi_messages.h **** ABI_EXTERN abi_event* abi_queues[ABI_MESSAGE_NB];
  30:/home/lsk/paparazzi/var/include/abi_messages.h **** 
  31:/home/lsk/paparazzi/var/include/abi_messages.h **** /* Callbacks */
  32:/home/lsk/paparazzi/var/include/abi_messages.h **** typedef void (*abi_callbackBARO_ABS)(uint8_t sender_id, float pressure);
  33:/home/lsk/paparazzi/var/include/abi_messages.h **** typedef void (*abi_callbackBARO_DIFF)(uint8_t sender_id, float pressure);
  34:/home/lsk/paparazzi/var/include/abi_messages.h **** typedef void (*abi_callbackAGL)(uint8_t sender_id, float distance);
  35:/home/lsk/paparazzi/var/include/abi_messages.h **** typedef void (*abi_callbackTEMPERATURE)(uint8_t sender_id, float temp);
  36:/home/lsk/paparazzi/var/include/abi_messages.h **** typedef void (*abi_callbackIMU_GYRO_INT32)(uint8_t sender_id, uint32_t stamp, struct Int32Rates * g
  37:/home/lsk/paparazzi/var/include/abi_messages.h **** typedef void (*abi_callbackIMU_ACCEL_INT32)(uint8_t sender_id, uint32_t stamp, struct Int32Vect3 * 
  38:/home/lsk/paparazzi/var/include/abi_messages.h **** typedef void (*abi_callbackIMU_MAG_INT32)(uint8_t sender_id, uint32_t stamp, struct Int32Vect3 * ma
  39:/home/lsk/paparazzi/var/include/abi_messages.h **** typedef void (*abi_callbackIMU_LOWPASSED)(uint8_t sender_id, uint32_t stamp, struct Int32Rates * gy
  40:/home/lsk/paparazzi/var/include/abi_messages.h **** typedef void (*abi_callbackBODY_TO_IMU_QUAT)(uint8_t sender_id, struct FloatQuat * q_b2i_f);
  41:/home/lsk/paparazzi/var/include/abi_messages.h **** typedef void (*abi_callbackGEO_MAG)(uint8_t sender_id, struct FloatVect3 * h);
  42:/home/lsk/paparazzi/var/include/abi_messages.h **** typedef void (*abi_callbackGPS)(uint8_t sender_id, uint32_t stamp, struct GpsState * gps_s);
  43:/home/lsk/paparazzi/var/include/abi_messages.h **** 
  44:/home/lsk/paparazzi/var/include/abi_messages.h **** /* Bind and Send functions */
  45:/home/lsk/paparazzi/var/include/abi_messages.h **** 
  46:/home/lsk/paparazzi/var/include/abi_messages.h **** static inline void AbiBindMsgBARO_ABS(uint8_t sender_id, abi_event * ev, abi_callbackBARO_ABS cb) {
  47:/home/lsk/paparazzi/var/include/abi_messages.h ****   ev->id = sender_id;
  48:/home/lsk/paparazzi/var/include/abi_messages.h ****   ev->cb = (abi_callback)cb;
  49:/home/lsk/paparazzi/var/include/abi_messages.h ****   ABI_PREPEND(abi_queues[ABI_BARO_ABS_ID],ev);
  50:/home/lsk/paparazzi/var/include/abi_messages.h **** }
  51:/home/lsk/paparazzi/var/include/abi_messages.h **** 
  52:/home/lsk/paparazzi/var/include/abi_messages.h **** static inline void AbiSendMsgBARO_ABS(uint8_t sender_id, float pressure) {
  53:/home/lsk/paparazzi/var/include/abi_messages.h ****   abi_event* e;
  54:/home/lsk/paparazzi/var/include/abi_messages.h ****   ABI_FOREACH(abi_queues[ABI_BARO_ABS_ID],e) {
  55:/home/lsk/paparazzi/var/include/abi_messages.h ****     if (e->id == ABI_BROADCAST || e->id == sender_id) {
  56:/home/lsk/paparazzi/var/include/abi_messages.h ****       abi_callbackBARO_ABS cb = (abi_callbackBARO_ABS)(e->cb);
  57:/home/lsk/paparazzi/var/include/abi_messages.h ****       cb(sender_id, pressure);
  58:/home/lsk/paparazzi/var/include/abi_messages.h ****     }
  59:/home/lsk/paparazzi/var/include/abi_messages.h ****   }
  60:/home/lsk/paparazzi/var/include/abi_messages.h **** }
  61:/home/lsk/paparazzi/var/include/abi_messages.h **** 
  62:/home/lsk/paparazzi/var/include/abi_messages.h **** static inline void AbiBindMsgBARO_DIFF(uint8_t sender_id, abi_event * ev, abi_callbackBARO_DIFF cb)
  63:/home/lsk/paparazzi/var/include/abi_messages.h ****   ev->id = sender_id;
  64:/home/lsk/paparazzi/var/include/abi_messages.h ****   ev->cb = (abi_callback)cb;
  65:/home/lsk/paparazzi/var/include/abi_messages.h ****   ABI_PREPEND(abi_queues[ABI_BARO_DIFF_ID],ev);
  66:/home/lsk/paparazzi/var/include/abi_messages.h **** }
  67:/home/lsk/paparazzi/var/include/abi_messages.h **** 
  68:/home/lsk/paparazzi/var/include/abi_messages.h **** static inline void AbiSendMsgBARO_DIFF(uint8_t sender_id, float pressure) {
  69:/home/lsk/paparazzi/var/include/abi_messages.h ****   abi_event* e;
  70:/home/lsk/paparazzi/var/include/abi_messages.h ****   ABI_FOREACH(abi_queues[ABI_BARO_DIFF_ID],e) {
  71:/home/lsk/paparazzi/var/include/abi_messages.h ****     if (e->id == ABI_BROADCAST || e->id == sender_id) {
  72:/home/lsk/paparazzi/var/include/abi_messages.h ****       abi_callbackBARO_DIFF cb = (abi_callbackBARO_DIFF)(e->cb);
  73:/home/lsk/paparazzi/var/include/abi_messages.h ****       cb(sender_id, pressure);
  74:/home/lsk/paparazzi/var/include/abi_messages.h ****     }
  75:/home/lsk/paparazzi/var/include/abi_messages.h ****   }
  76:/home/lsk/paparazzi/var/include/abi_messages.h **** }
  77:/home/lsk/paparazzi/var/include/abi_messages.h **** 
  78:/home/lsk/paparazzi/var/include/abi_messages.h **** static inline void AbiBindMsgAGL(uint8_t sender_id, abi_event * ev, abi_callbackAGL cb) {
  79:/home/lsk/paparazzi/var/include/abi_messages.h ****   ev->id = sender_id;
  80:/home/lsk/paparazzi/var/include/abi_messages.h ****   ev->cb = (abi_callback)cb;
  81:/home/lsk/paparazzi/var/include/abi_messages.h ****   ABI_PREPEND(abi_queues[ABI_AGL_ID],ev);
  82:/home/lsk/paparazzi/var/include/abi_messages.h **** }
  83:/home/lsk/paparazzi/var/include/abi_messages.h **** 
  84:/home/lsk/paparazzi/var/include/abi_messages.h **** static inline void AbiSendMsgAGL(uint8_t sender_id, float distance) {
  85:/home/lsk/paparazzi/var/include/abi_messages.h ****   abi_event* e;
  86:/home/lsk/paparazzi/var/include/abi_messages.h ****   ABI_FOREACH(abi_queues[ABI_AGL_ID],e) {
  87:/home/lsk/paparazzi/var/include/abi_messages.h ****     if (e->id == ABI_BROADCAST || e->id == sender_id) {
  88:/home/lsk/paparazzi/var/include/abi_messages.h ****       abi_callbackAGL cb = (abi_callbackAGL)(e->cb);
  89:/home/lsk/paparazzi/var/include/abi_messages.h ****       cb(sender_id, distance);
  90:/home/lsk/paparazzi/var/include/abi_messages.h ****     }
  91:/home/lsk/paparazzi/var/include/abi_messages.h ****   }
  92:/home/lsk/paparazzi/var/include/abi_messages.h **** }
  93:/home/lsk/paparazzi/var/include/abi_messages.h **** 
  94:/home/lsk/paparazzi/var/include/abi_messages.h **** static inline void AbiBindMsgTEMPERATURE(uint8_t sender_id, abi_event * ev, abi_callbackTEMPERATURE
  95:/home/lsk/paparazzi/var/include/abi_messages.h ****   ev->id = sender_id;
  96:/home/lsk/paparazzi/var/include/abi_messages.h ****   ev->cb = (abi_callback)cb;
  97:/home/lsk/paparazzi/var/include/abi_messages.h ****   ABI_PREPEND(abi_queues[ABI_TEMPERATURE_ID],ev);
  98:/home/lsk/paparazzi/var/include/abi_messages.h **** }
  99:/home/lsk/paparazzi/var/include/abi_messages.h **** 
 100:/home/lsk/paparazzi/var/include/abi_messages.h **** static inline void AbiSendMsgTEMPERATURE(uint8_t sender_id, float temp) {
 101:/home/lsk/paparazzi/var/include/abi_messages.h ****   abi_event* e;
 102:/home/lsk/paparazzi/var/include/abi_messages.h ****   ABI_FOREACH(abi_queues[ABI_TEMPERATURE_ID],e) {
 103:/home/lsk/paparazzi/var/include/abi_messages.h ****     if (e->id == ABI_BROADCAST || e->id == sender_id) {
 104:/home/lsk/paparazzi/var/include/abi_messages.h ****       abi_callbackTEMPERATURE cb = (abi_callbackTEMPERATURE)(e->cb);
 105:/home/lsk/paparazzi/var/include/abi_messages.h ****       cb(sender_id, temp);
 106:/home/lsk/paparazzi/var/include/abi_messages.h ****     }
 107:/home/lsk/paparazzi/var/include/abi_messages.h ****   }
 108:/home/lsk/paparazzi/var/include/abi_messages.h **** }
 109:/home/lsk/paparazzi/var/include/abi_messages.h **** 
 110:/home/lsk/paparazzi/var/include/abi_messages.h **** static inline void AbiBindMsgIMU_GYRO_INT32(uint8_t sender_id, abi_event * ev, abi_callbackIMU_GYRO
 111:/home/lsk/paparazzi/var/include/abi_messages.h ****   ev->id = sender_id;
 112:/home/lsk/paparazzi/var/include/abi_messages.h ****   ev->cb = (abi_callback)cb;
 113:/home/lsk/paparazzi/var/include/abi_messages.h ****   ABI_PREPEND(abi_queues[ABI_IMU_GYRO_INT32_ID],ev);
 114:/home/lsk/paparazzi/var/include/abi_messages.h **** }
 115:/home/lsk/paparazzi/var/include/abi_messages.h **** 
 116:/home/lsk/paparazzi/var/include/abi_messages.h **** static inline void AbiSendMsgIMU_GYRO_INT32(uint8_t sender_id, uint32_t stamp, struct Int32Rates * 
 117:/home/lsk/paparazzi/var/include/abi_messages.h ****   abi_event* e;
 118:/home/lsk/paparazzi/var/include/abi_messages.h ****   ABI_FOREACH(abi_queues[ABI_IMU_GYRO_INT32_ID],e) {
 119:/home/lsk/paparazzi/var/include/abi_messages.h ****     if (e->id == ABI_BROADCAST || e->id == sender_id) {
 120:/home/lsk/paparazzi/var/include/abi_messages.h ****       abi_callbackIMU_GYRO_INT32 cb = (abi_callbackIMU_GYRO_INT32)(e->cb);
 121:/home/lsk/paparazzi/var/include/abi_messages.h ****       cb(sender_id, stamp, gyro);
 122:/home/lsk/paparazzi/var/include/abi_messages.h ****     }
 123:/home/lsk/paparazzi/var/include/abi_messages.h ****   }
 124:/home/lsk/paparazzi/var/include/abi_messages.h **** }
 125:/home/lsk/paparazzi/var/include/abi_messages.h **** 
 126:/home/lsk/paparazzi/var/include/abi_messages.h **** static inline void AbiBindMsgIMU_ACCEL_INT32(uint8_t sender_id, abi_event * ev, abi_callbackIMU_ACC
 127:/home/lsk/paparazzi/var/include/abi_messages.h ****   ev->id = sender_id;
 128:/home/lsk/paparazzi/var/include/abi_messages.h ****   ev->cb = (abi_callback)cb;
 129:/home/lsk/paparazzi/var/include/abi_messages.h ****   ABI_PREPEND(abi_queues[ABI_IMU_ACCEL_INT32_ID],ev);
 130:/home/lsk/paparazzi/var/include/abi_messages.h **** }
 131:/home/lsk/paparazzi/var/include/abi_messages.h **** 
 132:/home/lsk/paparazzi/var/include/abi_messages.h **** static inline void AbiSendMsgIMU_ACCEL_INT32(uint8_t sender_id, uint32_t stamp, struct Int32Vect3 *
 133:/home/lsk/paparazzi/var/include/abi_messages.h ****   abi_event* e;
 134:/home/lsk/paparazzi/var/include/abi_messages.h ****   ABI_FOREACH(abi_queues[ABI_IMU_ACCEL_INT32_ID],e) {
 135:/home/lsk/paparazzi/var/include/abi_messages.h ****     if (e->id == ABI_BROADCAST || e->id == sender_id) {
 136:/home/lsk/paparazzi/var/include/abi_messages.h ****       abi_callbackIMU_ACCEL_INT32 cb = (abi_callbackIMU_ACCEL_INT32)(e->cb);
 137:/home/lsk/paparazzi/var/include/abi_messages.h ****       cb(sender_id, stamp, accel);
 138:/home/lsk/paparazzi/var/include/abi_messages.h ****     }
 139:/home/lsk/paparazzi/var/include/abi_messages.h ****   }
 140:/home/lsk/paparazzi/var/include/abi_messages.h **** }
 141:/home/lsk/paparazzi/var/include/abi_messages.h **** 
 142:/home/lsk/paparazzi/var/include/abi_messages.h **** static inline void AbiBindMsgIMU_MAG_INT32(uint8_t sender_id, abi_event * ev, abi_callbackIMU_MAG_I
 143:/home/lsk/paparazzi/var/include/abi_messages.h ****   ev->id = sender_id;
 144:/home/lsk/paparazzi/var/include/abi_messages.h ****   ev->cb = (abi_callback)cb;
 145:/home/lsk/paparazzi/var/include/abi_messages.h ****   ABI_PREPEND(abi_queues[ABI_IMU_MAG_INT32_ID],ev);
 146:/home/lsk/paparazzi/var/include/abi_messages.h **** }
 147:/home/lsk/paparazzi/var/include/abi_messages.h **** 
 148:/home/lsk/paparazzi/var/include/abi_messages.h **** static inline void AbiSendMsgIMU_MAG_INT32(uint8_t sender_id, uint32_t stamp, struct Int32Vect3 * m
 149:/home/lsk/paparazzi/var/include/abi_messages.h ****   abi_event* e;
 150:/home/lsk/paparazzi/var/include/abi_messages.h ****   ABI_FOREACH(abi_queues[ABI_IMU_MAG_INT32_ID],e) {
 151:/home/lsk/paparazzi/var/include/abi_messages.h ****     if (e->id == ABI_BROADCAST || e->id == sender_id) {
 152:/home/lsk/paparazzi/var/include/abi_messages.h ****       abi_callbackIMU_MAG_INT32 cb = (abi_callbackIMU_MAG_INT32)(e->cb);
 153:/home/lsk/paparazzi/var/include/abi_messages.h ****       cb(sender_id, stamp, mag);
 154:/home/lsk/paparazzi/var/include/abi_messages.h ****     }
 155:/home/lsk/paparazzi/var/include/abi_messages.h ****   }
 156:/home/lsk/paparazzi/var/include/abi_messages.h **** }
 157:/home/lsk/paparazzi/var/include/abi_messages.h **** 
 158:/home/lsk/paparazzi/var/include/abi_messages.h **** static inline void AbiBindMsgIMU_LOWPASSED(uint8_t sender_id, abi_event * ev, abi_callbackIMU_LOWPA
 159:/home/lsk/paparazzi/var/include/abi_messages.h ****   ev->id = sender_id;
 160:/home/lsk/paparazzi/var/include/abi_messages.h ****   ev->cb = (abi_callback)cb;
 161:/home/lsk/paparazzi/var/include/abi_messages.h ****   ABI_PREPEND(abi_queues[ABI_IMU_LOWPASSED_ID],ev);
 162:/home/lsk/paparazzi/var/include/abi_messages.h **** }
 163:/home/lsk/paparazzi/var/include/abi_messages.h **** 
 164:/home/lsk/paparazzi/var/include/abi_messages.h **** static inline void AbiSendMsgIMU_LOWPASSED(uint8_t sender_id, uint32_t stamp, struct Int32Rates * g
 165:/home/lsk/paparazzi/var/include/abi_messages.h ****   abi_event* e;
 166:/home/lsk/paparazzi/var/include/abi_messages.h ****   ABI_FOREACH(abi_queues[ABI_IMU_LOWPASSED_ID],e) {
 167:/home/lsk/paparazzi/var/include/abi_messages.h ****     if (e->id == ABI_BROADCAST || e->id == sender_id) {
 168:/home/lsk/paparazzi/var/include/abi_messages.h ****       abi_callbackIMU_LOWPASSED cb = (abi_callbackIMU_LOWPASSED)(e->cb);
 169:/home/lsk/paparazzi/var/include/abi_messages.h ****       cb(sender_id, stamp, gyro, accel, mag);
 170:/home/lsk/paparazzi/var/include/abi_messages.h ****     }
 171:/home/lsk/paparazzi/var/include/abi_messages.h ****   }
 172:/home/lsk/paparazzi/var/include/abi_messages.h **** }
 173:/home/lsk/paparazzi/var/include/abi_messages.h **** 
 174:/home/lsk/paparazzi/var/include/abi_messages.h **** static inline void AbiBindMsgBODY_TO_IMU_QUAT(uint8_t sender_id, abi_event * ev, abi_callbackBODY_T
 175:/home/lsk/paparazzi/var/include/abi_messages.h ****   ev->id = sender_id;
 176:/home/lsk/paparazzi/var/include/abi_messages.h ****   ev->cb = (abi_callback)cb;
 177:/home/lsk/paparazzi/var/include/abi_messages.h ****   ABI_PREPEND(abi_queues[ABI_BODY_TO_IMU_QUAT_ID],ev);
 178:/home/lsk/paparazzi/var/include/abi_messages.h **** }
 179:/home/lsk/paparazzi/var/include/abi_messages.h **** 
 180:/home/lsk/paparazzi/var/include/abi_messages.h **** static inline void AbiSendMsgBODY_TO_IMU_QUAT(uint8_t sender_id, struct FloatQuat * q_b2i_f) {
 181:/home/lsk/paparazzi/var/include/abi_messages.h ****   abi_event* e;
 182:/home/lsk/paparazzi/var/include/abi_messages.h ****   ABI_FOREACH(abi_queues[ABI_BODY_TO_IMU_QUAT_ID],e) {
 200              		.loc 4 182 0
 201 00d0 954B     		ldr	r3, .L773+40
 202 00d2 1C6A     		ldr	r4, [r3, #32]
 203              	.LVL27:
 204              	.L3:
 205 00d4 002C     		cmp	r4, #0
 206 00d6 00F0FA80 		beq	.L333
 183:/home/lsk/paparazzi/var/include/abi_messages.h ****     if (e->id == ABI_BROADCAST || e->id == sender_id) {
 207              		.loc 4 183 0
 208 00da 2378     		ldrb	r3, [r4]	@ zero_extendqisi2
 209 00dc 012B     		cmp	r3, #1
 210 00de 03D8     		bhi	.L4
 211              	.LVL28:
 212              	.LBB105:
 184:/home/lsk/paparazzi/var/include/abi_messages.h ****       abi_callbackBODY_TO_IMU_QUAT cb = (abi_callbackBODY_TO_IMU_QUAT)(e->cb);
 185:/home/lsk/paparazzi/var/include/abi_messages.h ****       cb(sender_id, q_b2i_f);
 213              		.loc 4 185 0
 214 00e0 6368     		ldr	r3, [r4, #4]
 215 00e2 9249     		ldr	r1, .L773+44
 216              	.LVL29:
 217 00e4 0120     		movs	r0, #1
 218 00e6 9847     		blx	r3
 219              	.LVL30:
 220              	.L4:
 221              	.LBE105:
 182:/home/lsk/paparazzi/var/include/abi_messages.h ****   ABI_FOREACH(abi_queues[ABI_BODY_TO_IMU_QUAT_ID],e) {
 222              		.loc 4 182 0
 223 00e8 A468     		ldr	r4, [r4, #8]
 224              	.LVL31:
 225 00ea F3E7     		b	.L3
 226              	.LVL32:
 227              	.L770:
 228              	.LBE104:
 229              	.LBE103:
 230              	.LBE96:
 231              	.LBE95:
 232              	.LBB106:
 233              	.LBB107:
 234              	.LBB108:
 235              	.LBB109:
 236              		.file 5 "./mcu_periph/sys_time.h"
   1:./mcu_periph/sys_time.h **** /*
   2:./mcu_periph/sys_time.h ****  *
   3:./mcu_periph/sys_time.h ****  * Copyright (C) 2009-2011 The Paparazzi Team
   4:./mcu_periph/sys_time.h ****  *
   5:./mcu_periph/sys_time.h ****  * This file is part of paparazzi.
   6:./mcu_periph/sys_time.h ****  *
   7:./mcu_periph/sys_time.h ****  * paparazzi is free software; you can redistribute it and/or modify
   8:./mcu_periph/sys_time.h ****  * it under the terms of the GNU General Public License as published by
   9:./mcu_periph/sys_time.h ****  * the Free Software Foundation; either version 2, or (at your option)
  10:./mcu_periph/sys_time.h ****  * any later version.
  11:./mcu_periph/sys_time.h ****  *
  12:./mcu_periph/sys_time.h ****  * paparazzi is distributed in the hope that it will be useful,
  13:./mcu_periph/sys_time.h ****  * but WITHOUT ANY WARRANTY; without even the implied warranty of
  14:./mcu_periph/sys_time.h ****  * MERCHANTABILITY or FITNESS FOR A PARTICULAR PURPOSE.  See the
  15:./mcu_periph/sys_time.h ****  * GNU General Public License for more details.
  16:./mcu_periph/sys_time.h ****  *
  17:./mcu_periph/sys_time.h ****  * You should have received a copy of the GNU General Public License
  18:./mcu_periph/sys_time.h ****  * along with paparazzi; see the file COPYING.  If not, write to
  19:./mcu_periph/sys_time.h ****  * the Free Software Foundation, 59 Temple Place - Suite 330,
  20:./mcu_periph/sys_time.h ****  * Boston, MA 02111-1307, USA.
  21:./mcu_periph/sys_time.h ****  *
  22:./mcu_periph/sys_time.h ****  */
  23:./mcu_periph/sys_time.h **** 
  24:./mcu_periph/sys_time.h **** /**
  25:./mcu_periph/sys_time.h ****  * @file mcu_periph/sys_time.h
  26:./mcu_periph/sys_time.h ****  * @brief Architecture independent timing functions.
  27:./mcu_periph/sys_time.h ****  *
  28:./mcu_periph/sys_time.h ****  */
  29:./mcu_periph/sys_time.h **** 
  30:./mcu_periph/sys_time.h **** #ifndef SYS_TIME_H
  31:./mcu_periph/sys_time.h **** #define SYS_TIME_H
  32:./mcu_periph/sys_time.h **** 
  33:./mcu_periph/sys_time.h **** #include <inttypes.h>
  34:./mcu_periph/sys_time.h **** #include <stdlib.h>
  35:./mcu_periph/sys_time.h **** #include "std.h"
  36:./mcu_periph/sys_time.h **** 
  37:./mcu_periph/sys_time.h **** #include BOARD_CONFIG
  38:./mcu_periph/sys_time.h **** 
  39:./mcu_periph/sys_time.h **** #ifndef SYS_TIME_NB_TIMER
  40:./mcu_periph/sys_time.h **** #define SYS_TIME_NB_TIMER 16
  41:./mcu_periph/sys_time.h **** #endif
  42:./mcu_periph/sys_time.h **** 
  43:./mcu_periph/sys_time.h **** 
  44:./mcu_periph/sys_time.h **** /**
  45:./mcu_periph/sys_time.h ****  * (Default) sys_time timer frequency in Hz.
  46:./mcu_periph/sys_time.h ****  * sys_time.resolution is set from this define.
  47:./mcu_periph/sys_time.h ****  */
  48:./mcu_periph/sys_time.h **** #ifndef SYS_TIME_FREQUENCY
  49:./mcu_periph/sys_time.h **** #if defined PERIODIC_FREQUENCY
  50:./mcu_periph/sys_time.h **** #define SYS_TIME_FREQUENCY (2 * PERIODIC_FREQUENCY)
  51:./mcu_periph/sys_time.h **** #else
  52:./mcu_periph/sys_time.h **** #define SYS_TIME_FREQUENCY 1000
  53:./mcu_periph/sys_time.h **** #endif
  54:./mcu_periph/sys_time.h **** #endif
  55:./mcu_periph/sys_time.h **** 
  56:./mcu_periph/sys_time.h **** 
  57:./mcu_periph/sys_time.h **** typedef uint8_t tid_t; ///< sys_time timer id type
  58:./mcu_periph/sys_time.h **** typedef void (*sys_time_cb)(uint8_t id);
  59:./mcu_periph/sys_time.h **** 
  60:./mcu_periph/sys_time.h **** struct sys_time_timer {
  61:./mcu_periph/sys_time.h ****   bool_t          in_use;
  62:./mcu_periph/sys_time.h ****   sys_time_cb     cb;
  63:./mcu_periph/sys_time.h ****   volatile bool_t elapsed;
  64:./mcu_periph/sys_time.h ****   uint32_t        end_time; ///< in SYS_TIME_TICKS
  65:./mcu_periph/sys_time.h ****   uint32_t        duration; ///< in SYS_TIME_TICKS
  66:./mcu_periph/sys_time.h **** };
  67:./mcu_periph/sys_time.h **** 
  68:./mcu_periph/sys_time.h **** struct sys_time {
  69:./mcu_periph/sys_time.h ****   volatile uint32_t nb_sec;       ///< full seconds since startup
  70:./mcu_periph/sys_time.h ****   volatile uint32_t nb_sec_rem;   ///< remainder of seconds since startup in CPU_TICKS
  71:./mcu_periph/sys_time.h ****   volatile uint32_t nb_tick;      ///< SYS_TIME_TICKS since startup
  72:./mcu_periph/sys_time.h ****   struct sys_time_timer timer[SYS_TIME_NB_TIMER];
  73:./mcu_periph/sys_time.h **** 
  74:./mcu_periph/sys_time.h ****   float resolution;               ///< sys_time_timer resolution in seconds
  75:./mcu_periph/sys_time.h ****   uint32_t ticks_per_sec;         ///< sys_time ticks per second (SYS_TIME_FREQUENCY)
  76:./mcu_periph/sys_time.h ****   uint32_t resolution_cpu_ticks;  ///< sys_time_timer resolution in cpu ticks
  77:./mcu_periph/sys_time.h ****   uint32_t cpu_ticks_per_sec;     ///< cpu ticks per second
  78:./mcu_periph/sys_time.h **** };
  79:./mcu_periph/sys_time.h **** 
  80:./mcu_periph/sys_time.h **** extern struct sys_time sys_time;
  81:./mcu_periph/sys_time.h **** 
  82:./mcu_periph/sys_time.h **** 
  83:./mcu_periph/sys_time.h **** extern void sys_time_init(void);
  84:./mcu_periph/sys_time.h **** 
  85:./mcu_periph/sys_time.h **** /**
  86:./mcu_periph/sys_time.h ****  * Register a new system timer.
  87:./mcu_periph/sys_time.h ****  * @param duration Duration in seconds until the timer elapses.
  88:./mcu_periph/sys_time.h ****  * @param cb Callback function that is called from the ISR when timer elapses, or NULL
  89:./mcu_periph/sys_time.h ****  * @return -1 if it failed, the timer id otherwise
  90:./mcu_periph/sys_time.h ****  */
  91:./mcu_periph/sys_time.h **** extern int sys_time_register_timer(float duration, sys_time_cb cb);
  92:./mcu_periph/sys_time.h **** 
  93:./mcu_periph/sys_time.h **** /**
  94:./mcu_periph/sys_time.h ****  * Cancel a system timer by id.
  95:./mcu_periph/sys_time.h ****  * @param id Timer id.
  96:./mcu_periph/sys_time.h ****  */
  97:./mcu_periph/sys_time.h **** extern void sys_time_cancel_timer(tid_t id);
  98:./mcu_periph/sys_time.h **** 
  99:./mcu_periph/sys_time.h **** /**
 100:./mcu_periph/sys_time.h ****  * Update the duration until a timer elapses.
 101:./mcu_periph/sys_time.h ****  * @param id Timer id
 102:./mcu_periph/sys_time.h ****  * @param duration Duration in seconds until the timer elapses.
 103:./mcu_periph/sys_time.h ****  */
 104:./mcu_periph/sys_time.h **** extern void sys_time_update_timer(tid_t id, float duration);
 105:./mcu_periph/sys_time.h **** 
 106:./mcu_periph/sys_time.h **** /**
 107:./mcu_periph/sys_time.h ****  * Check if timer has elapsed.
 108:./mcu_periph/sys_time.h ****  * @param id Timer id
 109:./mcu_periph/sys_time.h ****  * @return TRUE if timer has elapsed
 110:./mcu_periph/sys_time.h ****  */
 111:./mcu_periph/sys_time.h **** static inline bool_t sys_time_check_and_ack_timer(tid_t id)
 112:./mcu_periph/sys_time.h **** {
 113:./mcu_periph/sys_time.h ****   if (sys_time.timer[id].elapsed) {
 114:./mcu_periph/sys_time.h ****     sys_time.timer[id].elapsed = FALSE;
 237              		.loc 5 114 0
 238 00ec 0024     		movs	r4, #0
 239 00ee 1C71     		strb	r4, [r3, #4]
 240              	.LBE109:
 241              	.LBE108:
 242              	.LBB111:
 243              	.LBB112:
 185:firmwares/rotorcraft/main.c **** #endif
 186:firmwares/rotorcraft/main.c **** 
 187:firmwares/rotorcraft/main.c ****   // send body_to_imu from here for now
 188:firmwares/rotorcraft/main.c ****   AbiSendMsgBODY_TO_IMU_QUAT(1, orientationGetQuat_f(&imu.body_to_imu));
 189:firmwares/rotorcraft/main.c **** }
 190:firmwares/rotorcraft/main.c **** 
 191:firmwares/rotorcraft/main.c **** STATIC_INLINE void handle_periodic_tasks(void)
 192:firmwares/rotorcraft/main.c **** {
 193:firmwares/rotorcraft/main.c ****   if (sys_time_check_and_ack_timer(main_periodic_tid)) {
 194:firmwares/rotorcraft/main.c ****     main_periodic();
 195:firmwares/rotorcraft/main.c ****   }
 196:firmwares/rotorcraft/main.c ****   if (sys_time_check_and_ack_timer(modules_tid)) {
 197:firmwares/rotorcraft/main.c ****     modules_periodic_task();
 198:firmwares/rotorcraft/main.c ****   }
 199:firmwares/rotorcraft/main.c ****   if (sys_time_check_and_ack_timer(radio_control_tid)) {
 200:firmwares/rotorcraft/main.c ****     radio_control_periodic_task();
 201:firmwares/rotorcraft/main.c ****   }
 202:firmwares/rotorcraft/main.c ****   if (sys_time_check_and_ack_timer(failsafe_tid)) {
 203:firmwares/rotorcraft/main.c ****     failsafe_check();
 204:firmwares/rotorcraft/main.c ****   }
 205:firmwares/rotorcraft/main.c ****   if (sys_time_check_and_ack_timer(electrical_tid)) {
 206:firmwares/rotorcraft/main.c ****     electrical_periodic();
 207:firmwares/rotorcraft/main.c ****   }
 208:firmwares/rotorcraft/main.c ****   if (sys_time_check_and_ack_timer(telemetry_tid)) {
 209:firmwares/rotorcraft/main.c ****     telemetry_periodic();
 210:firmwares/rotorcraft/main.c ****   }
 211:firmwares/rotorcraft/main.c **** #if USE_BARO_BOARD
 212:firmwares/rotorcraft/main.c ****   if (sys_time_check_and_ack_timer(baro_tid)) {
 213:firmwares/rotorcraft/main.c ****     baro_periodic();
 214:firmwares/rotorcraft/main.c ****   }
 215:firmwares/rotorcraft/main.c **** #endif
 216:firmwares/rotorcraft/main.c **** }
 217:firmwares/rotorcraft/main.c **** 
 218:firmwares/rotorcraft/main.c **** STATIC_INLINE void main_periodic(void)
 219:firmwares/rotorcraft/main.c **** {
 220:firmwares/rotorcraft/main.c **** 
 221:firmwares/rotorcraft/main.c ****   imu_periodic();
 244              		.loc 1 221 0
 245 00f0 FFF7FEFF 		bl	imu_periodic
 246              	.LVL33:
 222:firmwares/rotorcraft/main.c **** 
 223:firmwares/rotorcraft/main.c ****   //FIXME: temporary hack, remove me
 224:firmwares/rotorcraft/main.c **** #ifdef InsPeriodic
 225:firmwares/rotorcraft/main.c ****   InsPeriodic();
 226:firmwares/rotorcraft/main.c **** #endif
 227:firmwares/rotorcraft/main.c **** 
 228:firmwares/rotorcraft/main.c ****   /* run control loops */
 229:firmwares/rotorcraft/main.c ****   autopilot_periodic();
 247              		.loc 1 229 0
 248 00f4 FFF7FEFF 		bl	autopilot_periodic
 249              	.LVL34:
 250              	.LBB113:
 230:firmwares/rotorcraft/main.c ****   /* set actuators     */
 231:firmwares/rotorcraft/main.c ****   //actuators_set(autopilot_motors_on);
 232:firmwares/rotorcraft/main.c ****   SetActuatorsFromCommands(commands, autopilot_mode);
 251              		.loc 1 232 0
 252 00f8 8D4B     		ldr	r3, .L773+48
 253 00fa 8E4A     		ldr	r2, .L773+52
 254 00fc 1878     		ldrb	r0, [r3]	@ zero_extendqisi2
 255 00fe 2146     		mov	r1, r4
 256 0100 FFF7FEFF 		bl	motor_mixing_run
 257              	.LVL35:
 258 0104 8C49     		ldr	r1, .L773+56
 259 0106 0B68     		ldr	r3, [r1]
 260              	.LVL36:
 261 0108 A342     		cmp	r3, r4
 262 010a D4BF     		ite	le
 263 010c 1320     		movle	r0, #19
 264 010e 4720     		movgt	r0, #71
 265 0110 5843     		muls	r0, r3, r0
 266              	.LVL37:
 267 0112 4FF47072 		mov	r2, #960
 268 0116 90FBF2F0 		sdiv	r0, r0, r2
 269              	.LVL38:
 270 011a 00F2A640 		addw	r0, r0, #1190
 271              	.LVL39:
 272 011e B0F57A7F 		cmp	r0, #1000
 273 0122 C0F2E080 		blt	.L335
 274 0126 40F26C73 		movw	r3, #1900
 275 012a 9842     		cmp	r0, r3
 276 012c A8BF     		it	ge
 277 012e 1846     		movge	r0, r3
 278              	.LVL40:
 279 0130 80B2     		uxth	r0, r0
 280              	.L9:
 281 0132 824A     		ldr	r2, .L773+60
 282 0134 824B     		ldr	r3, .L773+64
 283 0136 1080     		strh	r0, [r2]	@ movhi
 284 0138 00B2     		sxth	r0, r0
 285 013a 1860     		str	r0, [r3]
 286 013c 4868     		ldr	r0, [r1, #4]
 287              	.LVL41:
 288 013e 0028     		cmp	r0, #0
 289 0140 D4BF     		ite	le
 290 0142 1324     		movle	r4, #19
 291 0144 4724     		movgt	r4, #71
 292              	.LVL42:
 293 0146 6043     		muls	r0, r4, r0
 294              	.LVL43:
 295 0148 4FF47074 		mov	r4, #960
 296 014c 90FBF4F0 		sdiv	r0, r0, r4
 297              	.LVL44:
 298 0150 00F2A640 		addw	r0, r0, #1190
 299              	.LVL45:
 300 0154 B0F57A7F 		cmp	r0, #1000
 301 0158 C0F2C880 		blt	.L337
 302 015c 40F26C74 		movw	r4, #1900
 303 0160 A042     		cmp	r0, r4
 304 0162 A8BF     		it	ge
 305 0164 2046     		movge	r0, r4
 306              	.LVL46:
 307 0166 80B2     		uxth	r0, r0
 308              	.L11:
 309 0168 5080     		strh	r0, [r2, #2]	@ movhi
 310 016a 00B2     		sxth	r0, r0
 311 016c 5860     		str	r0, [r3, #4]
 312 016e 8868     		ldr	r0, [r1, #8]
 313              	.LVL47:
 314 0170 0028     		cmp	r0, #0
 315 0172 D4BF     		ite	le
 316 0174 1324     		movle	r4, #19
 317 0176 4724     		movgt	r4, #71
 318 0178 6043     		muls	r0, r4, r0
 319              	.LVL48:
 320 017a 4FF47074 		mov	r4, #960
 321 017e 90FBF4F0 		sdiv	r0, r0, r4
 322              	.LVL49:
 323 0182 00F2A640 		addw	r0, r0, #1190
 324              	.LVL50:
 325 0186 B0F57A7F 		cmp	r0, #1000
 326 018a C0F2B280 		blt	.L339
 327 018e 40F26C74 		movw	r4, #1900
 328 0192 A042     		cmp	r0, r4
 329 0194 A8BF     		it	ge
 330 0196 2046     		movge	r0, r4
 331              	.LVL51:
 332 0198 80B2     		uxth	r0, r0
 333              	.L13:
 334 019a C968     		ldr	r1, [r1, #12]
 335              	.LVL52:
 336 019c 9080     		strh	r0, [r2, #4]	@ movhi
 337 019e 0029     		cmp	r1, #0
 338 01a0 00B2     		sxth	r0, r0
 339 01a2 9860     		str	r0, [r3, #8]
 340 01a4 D4BF     		ite	le
 341 01a6 1320     		movle	r0, #19
 342 01a8 4720     		movgt	r0, #71
 343 01aa 4143     		muls	r1, r0, r1
 344              	.LVL53:
 345 01ac 4FF47070 		mov	r0, #960
 346 01b0 91FBF0F1 		sdiv	r1, r1, r0
 347              	.LVL54:
 348 01b4 01F2A641 		addw	r1, r1, #1190
 349              	.LVL55:
 350 01b8 B1F57A7F 		cmp	r1, #1000
 351 01bc C0F29C80 		blt	.L341
 352 01c0 40F26C70 		movw	r0, #1900
 353 01c4 8142     		cmp	r1, r0
 354 01c6 A8BF     		it	ge
 355 01c8 0146     		movge	r1, r0
 356              	.LVL56:
 357 01ca 89B2     		uxth	r1, r1
 358              	.L15:
 359 01cc D180     		strh	r1, [r2, #6]	@ movhi
 360 01ce 09B2     		sxth	r1, r1
 361 01d0 D960     		str	r1, [r3, #12]
 362 01d2 FFF7FEFF 		bl	actuators_pwm_commit
 363              	.LVL57:
 364              	.LBE113:
 233:firmwares/rotorcraft/main.c **** 
 234:firmwares/rotorcraft/main.c ****   if (autopilot_in_flight) {
 365              		.loc 1 234 0
 366 01d6 5B4B     		ldr	r3, .L773+68
 367 01d8 1B78     		ldrb	r3, [r3]	@ zero_extendqisi2
 368 01da 002B     		cmp	r3, #0
 369 01dc 40F0CA80 		bne	.L766
 370              	.L17:
 371              	.LBB114:
 235:firmwares/rotorcraft/main.c ****     RunOnceEvery(PERIODIC_FREQUENCY, { autopilot_flight_time++;
 236:firmwares/rotorcraft/main.c **** #if defined DATALINK || defined SITL
 237:firmwares/rotorcraft/main.c ****                                        datalink_time++;
 238:firmwares/rotorcraft/main.c **** #endif
 239:firmwares/rotorcraft/main.c ****                                      });
 240:firmwares/rotorcraft/main.c ****   }
 241:firmwares/rotorcraft/main.c **** 
 242:firmwares/rotorcraft/main.c ****   RunOnceEvery(10, LED_PERIODIC());
 372              		.loc 1 242 0
 373 01e0 594B     		ldr	r3, .L773+72
 374 01e2 1A88     		ldrh	r2, [r3]
 375 01e4 0132     		adds	r2, r2, #1
 376 01e6 92B2     		uxth	r2, r2
 377 01e8 092A     		cmp	r2, #9
 378 01ea 88BF     		it	hi
 379 01ec 0022     		movhi	r2, #0
 380 01ee 1A80     		strh	r2, [r3]	@ movhi
 381              	.L7:
 382              	.LVL58:
 383              	.LBE114:
 384              	.LBE112:
 385              	.LBE111:
 386              	.LBB118:
 387              	.LBB119:
 113:./mcu_periph/sys_time.h ****   if (sys_time.timer[id].elapsed) {
 388              		.loc 5 113 0
 389 01f0 564A     		ldr	r2, .L773+76
 390 01f2 1378     		ldrb	r3, [r2]	@ zero_extendqisi2
 391 01f4 1422     		movs	r2, #20
 392 01f6 02FB0352 		mla	r2, r2, r3, r5
 393 01fa 1032     		adds	r2, r2, #16
 394 01fc 1379     		ldrb	r3, [r2, #4]	@ zero_extendqisi2
 395 01fe 002B     		cmp	r3, #0
 396 0200 40F0CA80 		bne	.L767
 397              	.LVL59:
 398              	.L23:
 399              	.LBE119:
 400              	.LBE118:
 401              	.LBB121:
 402              	.LBB122:
 403 0204 3E4A     		ldr	r2, .L773
 404 0206 1378     		ldrb	r3, [r2]	@ zero_extendqisi2
 405 0208 1422     		movs	r2, #20
 406 020a 02FB0353 		mla	r3, r2, r3, r5
 407 020e 1033     		adds	r3, r3, #16
 408 0210 1A79     		ldrb	r2, [r3, #4]	@ zero_extendqisi2
 409 0212 1AB1     		cbz	r2, .L35
 410              		.loc 5 114 0
 411 0214 0022     		movs	r2, #0
 412 0216 1A71     		strb	r2, [r3, #4]
 413              	.LBE122:
 414              	.LBE121:
 200:firmwares/rotorcraft/main.c ****     radio_control_periodic_task();
 415              		.loc 1 200 0
 416 0218 FFF7FEFF 		bl	radio_control_periodic_task
 417              	.LVL60:
 418              	.L35:
 419              	.LBB123:
 420              	.LBB124:
 113:./mcu_periph/sys_time.h ****   if (sys_time.timer[id].elapsed) {
 421              		.loc 5 113 0
 422 021c 394A     		ldr	r2, .L773+4
 423 021e 1378     		ldrb	r3, [r2]	@ zero_extendqisi2
 424 0220 1422     		movs	r2, #20
 425 0222 02FB0353 		mla	r3, r2, r3, r5
 426 0226 1033     		adds	r3, r3, #16
 427 0228 1A79     		ldrb	r2, [r3, #4]	@ zero_extendqisi2
 428 022a 002A     		cmp	r2, #0
 429 022c 40F0F480 		bne	.L768
 430              	.LVL61:
 431              	.L36:
 432              	.LBE124:
 433              	.LBE123:
 434              	.LBB126:
 435              	.LBB127:
 436 0230 99F80030 		ldrb	r3, [r9]	@ zero_extendqisi2
 437 0234 1422     		movs	r2, #20
 438 0236 02FB0353 		mla	r3, r2, r3, r5
 439 023a 1033     		adds	r3, r3, #16
 440 023c 1A79     		ldrb	r2, [r3, #4]	@ zero_extendqisi2
 441 023e 1AB1     		cbz	r2, .L42
 442              		.loc 5 114 0
 443 0240 0022     		movs	r2, #0
 444 0242 1A71     		strb	r2, [r3, #4]
 445              	.LBE127:
 446              	.LBE126:
 206:firmwares/rotorcraft/main.c ****     electrical_periodic();
 447              		.loc 1 206 0
 448 0244 FFF7FEFF 		bl	electrical_periodic
 449              	.LVL62:
 450              	.L42:
 451              	.LBB128:
 452              	.LBB129:
 113:./mcu_periph/sys_time.h ****   if (sys_time.timer[id].elapsed) {
 453              		.loc 5 113 0
 454 0248 9AF80030 		ldrb	r3, [r10]	@ zero_extendqisi2
 455 024c 1422     		movs	r2, #20
 456 024e 02FB0353 		mla	r3, r2, r3, r5
 457 0252 1033     		adds	r3, r3, #16
 458 0254 1A79     		ldrb	r2, [r3, #4]	@ zero_extendqisi2
 459 0256 002A     		cmp	r2, #0
 460 0258 40F00A81 		bne	.L769
 461              	.LVL63:
 462              	.L44:
 463              	.LBE129:
 464              	.LBE128:
 465              	.LBB131:
 466              	.LBB132:
 467 025c 9BF80030 		ldrb	r3, [fp]	@ zero_extendqisi2
 468 0260 1422     		movs	r2, #20
 469 0262 02FB0355 		mla	r5, r2, r3, r5
 470 0266 1035     		adds	r5, r5, #16
 471 0268 2B79     		ldrb	r3, [r5, #4]	@ zero_extendqisi2
 472 026a 1BB1     		cbz	r3, .L304
 473              		.loc 5 114 0
 474 026c 0023     		movs	r3, #0
 475 026e 2B71     		strb	r3, [r5, #4]
 476              	.LBE132:
 477              	.LBE131:
 213:firmwares/rotorcraft/main.c ****     baro_periodic();
 478              		.loc 1 213 0
 479 0270 FFF7FEFF 		bl	baro_periodic
 480              	.LVL64:
 481              	.L304:
 482              	.LBE107:
 483              	.LBE106:
 484              	.LBB170:
 485              	.LBB171:
 486              	.LBB172:
 487              	.LBB173:
 488              		.file 6 "./subsystems/datalink/pprz_transport.h"
   1:./subsystems/datalink/pprz_transport.h **** /*
   2:./subsystems/datalink/pprz_transport.h ****  * Copyright (C) 2003  Pascal Brisset, Antoine Drouin
   3:./subsystems/datalink/pprz_transport.h ****  * Copyright (C) 2014  Gautier Hattenberger <gautier.hattenberger@enac.fr>
   4:./subsystems/datalink/pprz_transport.h ****  *
   5:./subsystems/datalink/pprz_transport.h ****  * This file is part of paparazzi.
   6:./subsystems/datalink/pprz_transport.h ****  *
   7:./subsystems/datalink/pprz_transport.h ****  * paparazzi is free software; you can redistribute it and/or modify
   8:./subsystems/datalink/pprz_transport.h ****  * it under the terms of the GNU General Public License as published by
   9:./subsystems/datalink/pprz_transport.h ****  * the Free Software Foundation; either version 2, or (at your option)
  10:./subsystems/datalink/pprz_transport.h ****  * any later version.
  11:./subsystems/datalink/pprz_transport.h ****  *
  12:./subsystems/datalink/pprz_transport.h ****  * paparazzi is distributed in the hope that it will be useful,
  13:./subsystems/datalink/pprz_transport.h ****  * but WITHOUT ANY WARRANTY; without even the implied warranty of
  14:./subsystems/datalink/pprz_transport.h ****  * MERCHANTABILITY or FITNESS FOR A PARTICULAR PURPOSE.  See the
  15:./subsystems/datalink/pprz_transport.h ****  * GNU General Public License for more details.
  16:./subsystems/datalink/pprz_transport.h ****  *
  17:./subsystems/datalink/pprz_transport.h ****  * You should have received a copy of the GNU General Public License
  18:./subsystems/datalink/pprz_transport.h ****  * along with paparazzi; see the file COPYING.  If not, see
  19:./subsystems/datalink/pprz_transport.h ****  * <http://www.gnu.org/licenses/>.
  20:./subsystems/datalink/pprz_transport.h ****  *
  21:./subsystems/datalink/pprz_transport.h ****  */
  22:./subsystems/datalink/pprz_transport.h **** 
  23:./subsystems/datalink/pprz_transport.h **** /**
  24:./subsystems/datalink/pprz_transport.h ****  * @file subsystems/datalink/pprz_transport.h
  25:./subsystems/datalink/pprz_transport.h ****  *
  26:./subsystems/datalink/pprz_transport.h ****  * Building and parsing Paparazzi frames.
  27:./subsystems/datalink/pprz_transport.h ****  *
  28:./subsystems/datalink/pprz_transport.h ****  * Pprz frame:
  29:./subsystems/datalink/pprz_transport.h ****  *
  30:./subsystems/datalink/pprz_transport.h ****  * |STX|length|... payload=(length-4) bytes ...|Checksum A|Checksum B|
  31:./subsystems/datalink/pprz_transport.h ****  *
  32:./subsystems/datalink/pprz_transport.h ****  * where checksum is computed over length and payload:
  33:./subsystems/datalink/pprz_transport.h ****  * @code
  34:./subsystems/datalink/pprz_transport.h ****  * ck_A = ck_B = length
  35:./subsystems/datalink/pprz_transport.h ****  * for each byte b in payload
  36:./subsystems/datalink/pprz_transport.h ****  *     ck_A += b;
  37:./subsystems/datalink/pprz_transport.h ****  *     ck_b += ck_A;
  38:./subsystems/datalink/pprz_transport.h ****  * @endcode
  39:./subsystems/datalink/pprz_transport.h ****  */
  40:./subsystems/datalink/pprz_transport.h **** 
  41:./subsystems/datalink/pprz_transport.h **** #ifndef PPRZ_TRANSPORT_H
  42:./subsystems/datalink/pprz_transport.h **** #define PPRZ_TRANSPORT_H
  43:./subsystems/datalink/pprz_transport.h **** 
  44:./subsystems/datalink/pprz_transport.h **** #include <inttypes.h>
  45:./subsystems/datalink/pprz_transport.h **** #include "std.h"
  46:./subsystems/datalink/pprz_transport.h **** #ifndef PPRZ_DATALINK_EXPORT
  47:./subsystems/datalink/pprz_transport.h **** #include "subsystems/datalink/datalink.h"
  48:./subsystems/datalink/pprz_transport.h **** #include "subsystems/datalink/transport.h"
  49:./subsystems/datalink/pprz_transport.h **** #else /* PPRZ_DATALINK_EXPORT defined */
  50:./subsystems/datalink/pprz_transport.h **** #include "datalink.h"
  51:./subsystems/datalink/pprz_transport.h **** #include "transport.h"
  52:./subsystems/datalink/pprz_transport.h **** #endif
  53:./subsystems/datalink/pprz_transport.h **** 
  54:./subsystems/datalink/pprz_transport.h **** /* PPRZ Transport
  55:./subsystems/datalink/pprz_transport.h ****  */
  56:./subsystems/datalink/pprz_transport.h **** 
  57:./subsystems/datalink/pprz_transport.h **** #define STX  0x99
  58:./subsystems/datalink/pprz_transport.h **** 
  59:./subsystems/datalink/pprz_transport.h **** // PPRZ parsing state machine
  60:./subsystems/datalink/pprz_transport.h **** #define UNINIT      0
  61:./subsystems/datalink/pprz_transport.h **** #define GOT_STX     1
  62:./subsystems/datalink/pprz_transport.h **** #define GOT_LENGTH  2
  63:./subsystems/datalink/pprz_transport.h **** #define GOT_PAYLOAD 3
  64:./subsystems/datalink/pprz_transport.h **** #define GOT_CRC1    4
  65:./subsystems/datalink/pprz_transport.h **** 
  66:./subsystems/datalink/pprz_transport.h **** struct pprz_transport {
  67:./subsystems/datalink/pprz_transport.h ****   // generic reception interface
  68:./subsystems/datalink/pprz_transport.h ****   struct transport_rx trans_rx;
  69:./subsystems/datalink/pprz_transport.h ****   // specific pprz transport_rx variables
  70:./subsystems/datalink/pprz_transport.h ****   uint8_t status;
  71:./subsystems/datalink/pprz_transport.h ****   uint8_t payload_idx;
  72:./subsystems/datalink/pprz_transport.h ****   uint8_t ck_a_rx, ck_b_rx;
  73:./subsystems/datalink/pprz_transport.h ****   // generic transmission interface
  74:./subsystems/datalink/pprz_transport.h ****   struct transport_tx trans_tx;
  75:./subsystems/datalink/pprz_transport.h ****   // specific pprz transport_tx variables
  76:./subsystems/datalink/pprz_transport.h ****   uint8_t ck_a_tx, ck_b_tx;
  77:./subsystems/datalink/pprz_transport.h **** };
  78:./subsystems/datalink/pprz_transport.h **** 
  79:./subsystems/datalink/pprz_transport.h **** extern struct pprz_transport pprz_tp;
  80:./subsystems/datalink/pprz_transport.h **** 
  81:./subsystems/datalink/pprz_transport.h **** // Init function
  82:./subsystems/datalink/pprz_transport.h **** extern void pprz_transport_init(struct pprz_transport *t);
  83:./subsystems/datalink/pprz_transport.h **** 
  84:./subsystems/datalink/pprz_transport.h **** static inline void parse_pprz(struct pprz_transport *t, uint8_t c)
  85:./subsystems/datalink/pprz_transport.h **** {
  86:./subsystems/datalink/pprz_transport.h ****   switch (t->status) {
  87:./subsystems/datalink/pprz_transport.h ****     case UNINIT:
  88:./subsystems/datalink/pprz_transport.h ****       if (c == STX) {
  89:./subsystems/datalink/pprz_transport.h ****         t->status++;
  90:./subsystems/datalink/pprz_transport.h ****       }
  91:./subsystems/datalink/pprz_transport.h ****       break;
  92:./subsystems/datalink/pprz_transport.h ****     case GOT_STX:
  93:./subsystems/datalink/pprz_transport.h ****       if (t->trans_rx.msg_received) {
  94:./subsystems/datalink/pprz_transport.h ****         t->trans_rx.ovrn++;
  95:./subsystems/datalink/pprz_transport.h ****         goto error;
  96:./subsystems/datalink/pprz_transport.h ****       }
  97:./subsystems/datalink/pprz_transport.h ****       t->trans_rx.payload_len = c - 4; /* Counting STX, LENGTH and CRC1 and CRC2 */
  98:./subsystems/datalink/pprz_transport.h ****       t->ck_a_rx = t->ck_b_rx = c;
  99:./subsystems/datalink/pprz_transport.h ****       t->status++;
 100:./subsystems/datalink/pprz_transport.h ****       t->payload_idx = 0;
 101:./subsystems/datalink/pprz_transport.h ****       break;
 102:./subsystems/datalink/pprz_transport.h ****     case GOT_LENGTH:
 103:./subsystems/datalink/pprz_transport.h ****       t->trans_rx.payload[t->payload_idx] = c;
 104:./subsystems/datalink/pprz_transport.h ****       t->ck_a_rx += c; t->ck_b_rx += t->ck_a_rx;
 105:./subsystems/datalink/pprz_transport.h ****       t->payload_idx++;
 106:./subsystems/datalink/pprz_transport.h ****       if (t->payload_idx == t->trans_rx.payload_len) {
 107:./subsystems/datalink/pprz_transport.h ****         t->status++;
 108:./subsystems/datalink/pprz_transport.h ****       }
 109:./subsystems/datalink/pprz_transport.h ****       break;
 110:./subsystems/datalink/pprz_transport.h ****     case GOT_PAYLOAD:
 111:./subsystems/datalink/pprz_transport.h ****       if (c != t->ck_a_rx) {
 112:./subsystems/datalink/pprz_transport.h ****         goto error;
 113:./subsystems/datalink/pprz_transport.h ****       }
 114:./subsystems/datalink/pprz_transport.h ****       t->status++;
 115:./subsystems/datalink/pprz_transport.h ****       break;
 116:./subsystems/datalink/pprz_transport.h ****     case GOT_CRC1:
 117:./subsystems/datalink/pprz_transport.h ****       if (c != t->ck_b_rx) {
 118:./subsystems/datalink/pprz_transport.h ****         goto error;
 119:./subsystems/datalink/pprz_transport.h ****       }
 120:./subsystems/datalink/pprz_transport.h ****       t->trans_rx.msg_received = TRUE;
 121:./subsystems/datalink/pprz_transport.h ****       goto restart;
 122:./subsystems/datalink/pprz_transport.h ****     default:
 123:./subsystems/datalink/pprz_transport.h ****       goto error;
 124:./subsystems/datalink/pprz_transport.h ****   }
 125:./subsystems/datalink/pprz_transport.h ****   return;
 126:./subsystems/datalink/pprz_transport.h **** error:
 127:./subsystems/datalink/pprz_transport.h ****   t->trans_rx.error++;
 128:./subsystems/datalink/pprz_transport.h **** restart:
 129:./subsystems/datalink/pprz_transport.h ****   t->status = UNINIT;
 130:./subsystems/datalink/pprz_transport.h ****   return;
 131:./subsystems/datalink/pprz_transport.h **** }
 132:./subsystems/datalink/pprz_transport.h **** 
 133:./subsystems/datalink/pprz_transport.h **** static inline void pprz_parse_payload(struct pprz_transport *t)
 134:./subsystems/datalink/pprz_transport.h **** {
 135:./subsystems/datalink/pprz_transport.h ****   uint8_t i;
 136:./subsystems/datalink/pprz_transport.h ****   for (i = 0; i < t->trans_rx.payload_len; i++) {
 137:./subsystems/datalink/pprz_transport.h ****     dl_buffer[i] = t->trans_rx.payload[i];
 138:./subsystems/datalink/pprz_transport.h ****   }
 139:./subsystems/datalink/pprz_transport.h ****   dl_msg_available = TRUE;
 140:./subsystems/datalink/pprz_transport.h **** }
 141:./subsystems/datalink/pprz_transport.h **** 
 142:./subsystems/datalink/pprz_transport.h **** 
 143:./subsystems/datalink/pprz_transport.h **** #define PprzCheckAndParse(_dev, _trans) pprz_check_and_parse(&(_dev).device, &(_trans))
 144:./subsystems/datalink/pprz_transport.h **** 
 145:./subsystems/datalink/pprz_transport.h **** static inline void pprz_check_and_parse(struct link_device *dev, struct pprz_transport *trans)
 146:./subsystems/datalink/pprz_transport.h **** {
 147:./subsystems/datalink/pprz_transport.h ****   if (dev->char_available(dev->periph)) {
 489              		.loc 6 147 0
 490 0274 364D     		ldr	r5, .L773+80
 491              	.LBE173:
 492              	.LBE172:
 243:firmwares/rotorcraft/main.c **** }
 244:firmwares/rotorcraft/main.c **** 
 245:firmwares/rotorcraft/main.c **** STATIC_INLINE void telemetry_periodic(void)
 246:firmwares/rotorcraft/main.c **** {
 247:firmwares/rotorcraft/main.c ****   static uint8_t boot = TRUE;
 248:firmwares/rotorcraft/main.c **** 
 249:firmwares/rotorcraft/main.c ****   /* initialisation phase during boot */
 250:firmwares/rotorcraft/main.c ****   if (boot) {
 251:firmwares/rotorcraft/main.c **** #if DOWNLINK
 252:firmwares/rotorcraft/main.c ****     send_autopilot_version(&(DefaultChannel).trans_tx, &(DefaultDevice).device);
 253:firmwares/rotorcraft/main.c **** #endif
 254:firmwares/rotorcraft/main.c ****     boot = FALSE;
 255:firmwares/rotorcraft/main.c ****   }
 256:firmwares/rotorcraft/main.c ****   /* then report periodicly */
 257:firmwares/rotorcraft/main.c ****   else {
 258:firmwares/rotorcraft/main.c **** #if PERIODIC_TELEMETRY
 259:firmwares/rotorcraft/main.c ****     periodic_telemetry_send_Main(DefaultPeriodic, &(DefaultChannel).trans_tx, &(DefaultDevice).devi
 260:firmwares/rotorcraft/main.c **** #endif
 261:firmwares/rotorcraft/main.c ****   }
 262:firmwares/rotorcraft/main.c **** }
 263:firmwares/rotorcraft/main.c **** 
 264:firmwares/rotorcraft/main.c **** /** mode to enter when RC is lost while using a mode with RC input (not AP_MODE_NAV) */
 265:firmwares/rotorcraft/main.c **** #ifndef RC_LOST_MODE
 266:firmwares/rotorcraft/main.c **** #define RC_LOST_MODE AP_MODE_FAILSAFE
 267:firmwares/rotorcraft/main.c **** #endif
 268:firmwares/rotorcraft/main.c **** 
 269:firmwares/rotorcraft/main.c **** STATIC_INLINE void failsafe_check(void)
 270:firmwares/rotorcraft/main.c **** {
 271:firmwares/rotorcraft/main.c ****   if (radio_control.status == RC_REALLY_LOST &&
 272:firmwares/rotorcraft/main.c ****       autopilot_mode != AP_MODE_KILL &&
 273:firmwares/rotorcraft/main.c ****       autopilot_mode != AP_MODE_HOME &&
 274:firmwares/rotorcraft/main.c ****       autopilot_mode != AP_MODE_FAILSAFE &&
 275:firmwares/rotorcraft/main.c ****       autopilot_mode != AP_MODE_NAV) {
 276:firmwares/rotorcraft/main.c ****     autopilot_set_mode(RC_LOST_MODE);
 277:firmwares/rotorcraft/main.c ****   }
 278:firmwares/rotorcraft/main.c **** 
 279:firmwares/rotorcraft/main.c **** #if FAILSAFE_ON_BAT_CRITICAL
 280:firmwares/rotorcraft/main.c ****   if (autopilot_mode != AP_MODE_KILL &&
 281:firmwares/rotorcraft/main.c ****       electrical.bat_critical) {
 282:firmwares/rotorcraft/main.c ****     autopilot_set_mode(AP_MODE_FAILSAFE);
 283:firmwares/rotorcraft/main.c ****   }
 284:firmwares/rotorcraft/main.c **** #endif
 285:firmwares/rotorcraft/main.c **** 
 286:firmwares/rotorcraft/main.c **** #if USE_GPS
 287:firmwares/rotorcraft/main.c ****   gps_periodic_check();
 288:firmwares/rotorcraft/main.c ****   if (autopilot_mode == AP_MODE_NAV &&
 289:firmwares/rotorcraft/main.c ****       autopilot_motors_on &&
 290:firmwares/rotorcraft/main.c **** #if NO_GPS_LOST_WITH_RC_VALID
 291:firmwares/rotorcraft/main.c ****       radio_control.status != RC_OK &&
 292:firmwares/rotorcraft/main.c **** #endif
 293:firmwares/rotorcraft/main.c ****       GpsIsLost()) {
 294:firmwares/rotorcraft/main.c ****     autopilot_set_mode(AP_MODE_FAILSAFE);
 295:firmwares/rotorcraft/main.c ****   }
 296:firmwares/rotorcraft/main.c **** 
 297:firmwares/rotorcraft/main.c ****   if (autopilot_mode == AP_MODE_HOME &&
 298:firmwares/rotorcraft/main.c ****       autopilot_motors_on && GpsIsLost()) {
 299:firmwares/rotorcraft/main.c ****     autopilot_set_mode(AP_MODE_FAILSAFE);
 300:firmwares/rotorcraft/main.c ****   }
 301:firmwares/rotorcraft/main.c **** #endif
 302:firmwares/rotorcraft/main.c **** 
 303:firmwares/rotorcraft/main.c ****   autopilot_check_in_flight(autopilot_motors_on);
 304:firmwares/rotorcraft/main.c **** }
 305:firmwares/rotorcraft/main.c **** 
 306:firmwares/rotorcraft/main.c **** STATIC_INLINE void main_event(void)
 307:firmwares/rotorcraft/main.c **** {
 308:firmwares/rotorcraft/main.c ****   /* event functions for mcu peripherals, like i2c, uart, etc.. */
 309:firmwares/rotorcraft/main.c ****   mcu_event();
 493              		.loc 1 309 0
 494 0276 FFF7FEFF 		bl	mcu_event
 495              	.LVL65:
 496              	.LBB182:
 497              	.LBB180:
 498              		.loc 6 147 0
 499 027a D5F83831 		ldr	r3, [r5, #312]
 500 027e D5F84001 		ldr	r0, [r5, #320]
 501 0282 9847     		blx	r3
 502              	.LVL66:
 503 0284 0028     		cmp	r0, #0
 504 0286 41F03B80 		bne	.L307
 505              	.L306:
 506              	.LBE180:
 507              	.LBE182:
 310:firmwares/rotorcraft/main.c **** 
 311:firmwares/rotorcraft/main.c ****   DatalinkEvent();
 508              		.loc 1 311 0
 509 028a 324C     		ldr	r4, .L773+84
 510 028c 2378     		ldrb	r3, [r4]	@ zero_extendqisi2
 511 028e 1BB1     		cbz	r3, .L325
 512 0290 FFF7FEFF 		bl	dl_parse_msg
 513              	.LVL67:
 514 0294 0023     		movs	r3, #0
 515 0296 2370     		strb	r3, [r4]
 516              	.L325:
 312:firmwares/rotorcraft/main.c **** 
 313:firmwares/rotorcraft/main.c ****   if (autopilot_rc) {
 517              		.loc 1 313 0
 518 0298 2F4B     		ldr	r3, .L773+88
 519 029a 1B78     		ldrb	r3, [r3]	@ zero_extendqisi2
 520 029c 13B1     		cbz	r3, .L326
 314:firmwares/rotorcraft/main.c ****     RadioControlEvent(autopilot_on_rc_frame);
 521              		.loc 1 314 0
 522 029e 2F48     		ldr	r0, .L773+92
 523 02a0 FFF7FEFF 		bl	radio_control_impl_event
 524              	.LVL68:
 525              	.L326:
 526              	.LBB183:
 527              	.LBB184:
 528              		.file 7 "./subsystems/gps/gps_ubx.h"
   1:./subsystems/gps/gps_ubx.h **** /*
   2:./subsystems/gps/gps_ubx.h ****  * Copyright (C) 2008-2011 The Paparazzi Team
   3:./subsystems/gps/gps_ubx.h ****  *
   4:./subsystems/gps/gps_ubx.h ****  * This file is part of paparazzi.
   5:./subsystems/gps/gps_ubx.h ****  *
   6:./subsystems/gps/gps_ubx.h ****  * paparazzi is free software; you can redistribute it and/or modify
   7:./subsystems/gps/gps_ubx.h ****  * it under the terms of the GNU General Public License as published by
   8:./subsystems/gps/gps_ubx.h ****  * the Free Software Foundation; either version 2, or (at your option)
   9:./subsystems/gps/gps_ubx.h ****  * any later version.
  10:./subsystems/gps/gps_ubx.h ****  *
  11:./subsystems/gps/gps_ubx.h ****  * paparazzi is distributed in the hope that it will be useful,
  12:./subsystems/gps/gps_ubx.h ****  * but WITHOUT ANY WARRANTY; without even the implied warranty of
  13:./subsystems/gps/gps_ubx.h ****  * MERCHANTABILITY or FITNESS FOR A PARTICULAR PURPOSE.  See the
  14:./subsystems/gps/gps_ubx.h ****  * GNU General Public License for more details.
  15:./subsystems/gps/gps_ubx.h ****  *
  16:./subsystems/gps/gps_ubx.h ****  * You should have received a copy of the GNU General Public License
  17:./subsystems/gps/gps_ubx.h ****  * along with paparazzi; see the file COPYING.  If not, write to
  18:./subsystems/gps/gps_ubx.h ****  * the Free Software Foundation, 59 Temple Place - Suite 330,
  19:./subsystems/gps/gps_ubx.h ****  * Boston, MA 02111-1307, USA.
  20:./subsystems/gps/gps_ubx.h ****  */
  21:./subsystems/gps/gps_ubx.h **** 
  22:./subsystems/gps/gps_ubx.h **** /** @file gps_ubx.h
  23:./subsystems/gps/gps_ubx.h ****  * @brief UBX protocol specific code
  24:./subsystems/gps/gps_ubx.h ****  *
  25:./subsystems/gps/gps_ubx.h ****  */
  26:./subsystems/gps/gps_ubx.h **** 
  27:./subsystems/gps/gps_ubx.h **** #ifndef GPS_UBX_H
  28:./subsystems/gps/gps_ubx.h **** #define GPS_UBX_H
  29:./subsystems/gps/gps_ubx.h **** 
  30:./subsystems/gps/gps_ubx.h **** #ifdef GPS_CONFIGURE
  31:./subsystems/gps/gps_ubx.h **** #warning "Please use gps_ubx_ucenter.xml module instead of GPS_CONFIGURE"
  32:./subsystems/gps/gps_ubx.h **** #endif
  33:./subsystems/gps/gps_ubx.h **** 
  34:./subsystems/gps/gps_ubx.h **** #include "mcu_periph/uart.h"
  35:./subsystems/gps/gps_ubx.h **** 
  36:./subsystems/gps/gps_ubx.h **** #define GPS_NB_CHANNELS 16
  37:./subsystems/gps/gps_ubx.h **** 
  38:./subsystems/gps/gps_ubx.h **** #define GPS_UBX_MAX_PAYLOAD 255
  39:./subsystems/gps/gps_ubx.h **** struct GpsUbx {
  40:./subsystems/gps/gps_ubx.h ****   bool_t msg_available;
  41:./subsystems/gps/gps_ubx.h ****   uint8_t msg_buf[GPS_UBX_MAX_PAYLOAD] __attribute__((aligned));
  42:./subsystems/gps/gps_ubx.h ****   uint8_t msg_id;
  43:./subsystems/gps/gps_ubx.h ****   uint8_t msg_class;
  44:./subsystems/gps/gps_ubx.h **** 
  45:./subsystems/gps/gps_ubx.h ****   uint8_t status;
  46:./subsystems/gps/gps_ubx.h ****   uint16_t len;
  47:./subsystems/gps/gps_ubx.h ****   uint8_t msg_idx;
  48:./subsystems/gps/gps_ubx.h ****   uint8_t ck_a, ck_b;
  49:./subsystems/gps/gps_ubx.h ****   uint8_t send_ck_a, send_ck_b;
  50:./subsystems/gps/gps_ubx.h ****   uint8_t error_cnt;
  51:./subsystems/gps/gps_ubx.h ****   uint8_t error_last;
  52:./subsystems/gps/gps_ubx.h **** 
  53:./subsystems/gps/gps_ubx.h ****   uint8_t status_flags;
  54:./subsystems/gps/gps_ubx.h ****   uint8_t sol_flags;
  55:./subsystems/gps/gps_ubx.h ****   uint8_t have_velned;
  56:./subsystems/gps/gps_ubx.h **** 
  57:./subsystems/gps/gps_ubx.h **** };
  58:./subsystems/gps/gps_ubx.h **** 
  59:./subsystems/gps/gps_ubx.h **** extern struct GpsUbx gps_ubx;
  60:./subsystems/gps/gps_ubx.h **** 
  61:./subsystems/gps/gps_ubx.h **** #if USE_GPS_UBX_RXM_RAW
  62:./subsystems/gps/gps_ubx.h **** struct GpsUbxRawMes {
  63:./subsystems/gps/gps_ubx.h ****   double cpMes;
  64:./subsystems/gps/gps_ubx.h ****   double prMes;
  65:./subsystems/gps/gps_ubx.h ****   float doMes;
  66:./subsystems/gps/gps_ubx.h ****   uint8_t sv;
  67:./subsystems/gps/gps_ubx.h ****   int8_t mesQI;
  68:./subsystems/gps/gps_ubx.h ****   int8_t cno;
  69:./subsystems/gps/gps_ubx.h ****   uint8_t lli;
  70:./subsystems/gps/gps_ubx.h **** };
  71:./subsystems/gps/gps_ubx.h **** 
  72:./subsystems/gps/gps_ubx.h **** struct GpsUbxRaw {
  73:./subsystems/gps/gps_ubx.h ****   int32_t iTOW;
  74:./subsystems/gps/gps_ubx.h ****   int16_t week;
  75:./subsystems/gps/gps_ubx.h ****   uint8_t numSV;
  76:./subsystems/gps/gps_ubx.h ****   struct GpsUbxRawMes measures[GPS_NB_CHANNELS];
  77:./subsystems/gps/gps_ubx.h **** };
  78:./subsystems/gps/gps_ubx.h **** 
  79:./subsystems/gps/gps_ubx.h **** extern struct GpsUbxRaw gps_ubx_raw;
  80:./subsystems/gps/gps_ubx.h **** #endif
  81:./subsystems/gps/gps_ubx.h **** 
  82:./subsystems/gps/gps_ubx.h **** /*
  83:./subsystems/gps/gps_ubx.h ****  * This part is used by the autopilot to read data from a uart
  84:./subsystems/gps/gps_ubx.h ****  */
  85:./subsystems/gps/gps_ubx.h **** #include "mcu_periph/link_device.h"
  86:./subsystems/gps/gps_ubx.h **** 
  87:./subsystems/gps/gps_ubx.h **** extern void ubx_header(struct link_device *dev, uint8_t nav_id, uint8_t msg_id, uint16_t len);
  88:./subsystems/gps/gps_ubx.h **** extern void ubx_trailer(struct link_device *dev);
  89:./subsystems/gps/gps_ubx.h **** extern void ubx_send_bytes(struct link_device *dev, uint8_t len, uint8_t *bytes);
  90:./subsystems/gps/gps_ubx.h **** extern void ubx_send_cfg_rst(struct link_device *dev, uint16_t bbr, uint8_t reset_mode);
  91:./subsystems/gps/gps_ubx.h **** 
  92:./subsystems/gps/gps_ubx.h **** extern void gps_ubx_read_message(void);
  93:./subsystems/gps/gps_ubx.h **** extern void gps_ubx_parse(uint8_t c);
  94:./subsystems/gps/gps_ubx.h **** extern void gps_ubx_msg(void);
  95:./subsystems/gps/gps_ubx.h **** 
  96:./subsystems/gps/gps_ubx.h **** 
  97:./subsystems/gps/gps_ubx.h **** /* Gps callback is called when receiving a VELNED or a SOL message
  98:./subsystems/gps/gps_ubx.h ****  * All position/speed messages are sent in one shot and VELNED is the last one on fixedwing
  99:./subsystems/gps/gps_ubx.h ****  * For rotorcraft, only SOL message is needed for pos/speed data
 100:./subsystems/gps/gps_ubx.h ****  */
 101:./subsystems/gps/gps_ubx.h **** static inline void GpsEvent(void)
 102:./subsystems/gps/gps_ubx.h **** {
 103:./subsystems/gps/gps_ubx.h ****   struct link_device *dev = &((GPS_LINK).device);
 104:./subsystems/gps/gps_ubx.h **** 
 105:./subsystems/gps/gps_ubx.h ****   if (dev->char_available(dev->periph)) {
 529              		.loc 7 105 0
 530 02a4 2E4C     		ldr	r4, .L773+96
 531              	.LBE184:
 532              	.LBE183:
 315:firmwares/rotorcraft/main.c ****   }
 316:firmwares/rotorcraft/main.c **** 
 317:firmwares/rotorcraft/main.c ****   ImuEvent();
 533              		.loc 1 317 0
 534 02a6 FFF7FEFF 		bl	imu_krooz_event
 535              	.LVL69:
 318:firmwares/rotorcraft/main.c **** 
 319:firmwares/rotorcraft/main.c **** #if USE_BARO_BOARD
 320:firmwares/rotorcraft/main.c ****   BaroEvent();
 536              		.loc 1 320 0
 537 02aa FFF7FEFF 		bl	baro_event
 538              	.LVL70:
 539              	.LBB187:
 540              	.LBB185:
 541              		.loc 7 105 0
 542 02ae D4F83831 		ldr	r3, [r4, #312]
 543 02b2 D4F84001 		ldr	r0, [r4, #320]
 544 02b6 9847     		blx	r3
 545              	.LVL71:
 546 02b8 2546     		mov	r5, r4
 547 02ba 2A4C     		ldr	r4, .L773+100
 548 02bc 0028     		cmp	r0, #0
 549 02be 41F0C080 		bne	.L330
 550              	.L331:
 106:./subsystems/gps/gps_ubx.h ****     while (dev->char_available(dev->periph) && !gps_ubx.msg_available) {
 107:./subsystems/gps/gps_ubx.h ****       gps_ubx_parse(dev->get_byte(dev->periph));
 108:./subsystems/gps/gps_ubx.h ****     }
 109:./subsystems/gps/gps_ubx.h ****   }
 110:./subsystems/gps/gps_ubx.h ****   if (gps_ubx.msg_available) {
 551              		.loc 7 110 0
 552 02c2 2378     		ldrb	r3, [r4]	@ zero_extendqisi2
 553 02c4 0BB1     		cbz	r3, .L329
 111:./subsystems/gps/gps_ubx.h ****     gps_ubx_msg();
 554              		.loc 7 111 0
 555 02c6 FFF7FEFF 		bl	gps_ubx_msg
 556              	.LVL72:
 557              	.L329:
 558              	.LBE185:
 559              	.LBE187:
 560              	.LBB188:
 561              	.LBB189:
  40:/home/lsk/paparazzi/var/aircrafts/kroozsd_lsk/ap/generated/modules.h **** }
  41:/home/lsk/paparazzi/var/aircrafts/kroozsd_lsk/ap/generated/modules.h **** 
  42:/home/lsk/paparazzi/var/aircrafts/kroozsd_lsk/ap/generated/modules.h **** static inline void modules_periodic_task(void) {
  43:/home/lsk/paparazzi/var/aircrafts/kroozsd_lsk/ap/generated/modules.h ****   static uint8_t i51; i51++; if (i51>=51) i51=0;
  44:/home/lsk/paparazzi/var/aircrafts/kroozsd_lsk/ap/generated/modules.h ****   static uint8_t i128; i128++; if (i128>=128) i128=0;
  45:/home/lsk/paparazzi/var/aircrafts/kroozsd_lsk/ap/generated/modules.h ****   static uint16_t i512; i512++; if (i512>=512) i512=0;
  46:/home/lsk/paparazzi/var/aircrafts/kroozsd_lsk/ap/generated/modules.h **** 
  47:/home/lsk/paparazzi/var/aircrafts/kroozsd_lsk/ap/generated/modules.h ****   if (gps_ubx_gps_ubx_ucenter_periodic_status == MODULES_START) {
  48:/home/lsk/paparazzi/var/aircrafts/kroozsd_lsk/ap/generated/modules.h ****     gps_ubx_ucenter_init();
  49:/home/lsk/paparazzi/var/aircrafts/kroozsd_lsk/ap/generated/modules.h ****     gps_ubx_gps_ubx_ucenter_periodic_status = MODULES_RUN;
  50:/home/lsk/paparazzi/var/aircrafts/kroozsd_lsk/ap/generated/modules.h ****   }
  51:/home/lsk/paparazzi/var/aircrafts/kroozsd_lsk/ap/generated/modules.h ****   if (gps_ubx_gps_ubx_ucenter_periodic_status == MODULES_STOP) {
  52:/home/lsk/paparazzi/var/aircrafts/kroozsd_lsk/ap/generated/modules.h ****     gps_ubx_gps_ubx_ucenter_periodic_status = MODULES_IDLE;
  53:/home/lsk/paparazzi/var/aircrafts/kroozsd_lsk/ap/generated/modules.h ****   }
  54:/home/lsk/paparazzi/var/aircrafts/kroozsd_lsk/ap/generated/modules.h **** 
  55:/home/lsk/paparazzi/var/aircrafts/kroozsd_lsk/ap/generated/modules.h **** 
  56:/home/lsk/paparazzi/var/aircrafts/kroozsd_lsk/ap/generated/modules.h **** 
  57:/home/lsk/paparazzi/var/aircrafts/kroozsd_lsk/ap/generated/modules.h ****   if (i51 == 0) {
  58:/home/lsk/paparazzi/var/aircrafts/kroozsd_lsk/ap/generated/modules.h ****     air_data_periodic();
  59:/home/lsk/paparazzi/var/aircrafts/kroozsd_lsk/ap/generated/modules.h ****   }
  60:/home/lsk/paparazzi/var/aircrafts/kroozsd_lsk/ap/generated/modules.h ****   if (i128 == 25 && gps_ubx_gps_ubx_ucenter_periodic_status == MODULES_RUN) {
  61:/home/lsk/paparazzi/var/aircrafts/kroozsd_lsk/ap/generated/modules.h ****     gps_ubx_ucenter_periodic();
  62:/home/lsk/paparazzi/var/aircrafts/kroozsd_lsk/ap/generated/modules.h ****   }
  63:/home/lsk/paparazzi/var/aircrafts/kroozsd_lsk/ap/generated/modules.h ****   if (i512 == 89) {
  64:/home/lsk/paparazzi/var/aircrafts/kroozsd_lsk/ap/generated/modules.h ****     geo_mag_periodic();
  65:/home/lsk/paparazzi/var/aircrafts/kroozsd_lsk/ap/generated/modules.h ****   }
  66:/home/lsk/paparazzi/var/aircrafts/kroozsd_lsk/ap/generated/modules.h **** }
  67:/home/lsk/paparazzi/var/aircrafts/kroozsd_lsk/ap/generated/modules.h **** 
  68:/home/lsk/paparazzi/var/aircrafts/kroozsd_lsk/ap/generated/modules.h **** static inline void modules_event_task(void) {
  69:/home/lsk/paparazzi/var/aircrafts/kroozsd_lsk/ap/generated/modules.h ****   geo_mag_event();
 562              		.loc 2 69 0
 563 02ca FFF7FEFF 		bl	geo_mag_event
 564              	.LVL73:
 565              	.L333:
 566              	.LBE189:
 567              	.LBE188:
 568              	.LBE171:
 569              	.LBE170:
 570              	.LBB193:
 571              	.LBB168:
 572              	.LBB133:
 573              	.LBB110:
 113:./mcu_periph/sys_time.h ****   if (sys_time.timer[id].elapsed) {
 574              		.loc 5 113 0 discriminator 1
 575 02ce 264A     		ldr	r2, .L773+104
 576 02d0 264D     		ldr	r5, .L773+108
 577 02d2 1378     		ldrb	r3, [r2]	@ zero_extendqisi2
 578 02d4 1422     		movs	r2, #20
 579 02d6 02FB0353 		mla	r3, r2, r3, r5
 580 02da 1033     		adds	r3, r3, #16
 581 02dc 1A79     		ldrb	r2, [r3, #4]	@ zero_extendqisi2
 582 02de 002A     		cmp	r2, #0
 583 02e0 7FF404AF 		bne	.L770
 584 02e4 84E7     		b	.L7
 585              	.LVL74:
 586              	.L335:
 587              	.LBE110:
 588              	.LBE133:
 589              	.LBB134:
 590              	.LBB117:
 591              	.LBB115:
 232:firmwares/rotorcraft/main.c ****   SetActuatorsFromCommands(commands, autopilot_mode);
 592              		.loc 1 232 0
 593 02e6 4FF47A70 		mov	r0, #1000
 594              	.LVL75:
 595 02ea 22E7     		b	.L9
 596              	.LVL76:
 597              	.L337:
 598 02ec 4FF47A70 		mov	r0, #1000
 599              	.LVL77:
 600 02f0 3AE7     		b	.L11
 601              	.LVL78:
 602              	.L339:
 603 02f2 4FF47A70 		mov	r0, #1000
 604              	.LVL79:
 605 02f6 50E7     		b	.L13
 606              	.LVL80:
 607              	.L341:
 608 02f8 4FF47A71 		mov	r1, #1000
 609              	.LVL81:
 610 02fc 66E7     		b	.L15
 611              	.L774:
 612 02fe 00BF     		.align	2
 613              	.L773:
 614 0300 00000000 		.word	.LANCHOR3
 615 0304 00000000 		.word	.LANCHOR4
 616 0308 00000000 		.word	.LANCHOR5
 617 030c 00000000 		.word	.LANCHOR6
 618 0310 8988883C 		.word	1015580809
 619 0314 CDCC4C3D 		.word	1028443341
 620 0318 CDCCCC3D 		.word	1036831949
 621 031c 0AD7A33C 		.word	1017370378
 622 0320 00000000 		.word	.LANCHOR7
 623 0324 00000000 		.word	imu
 624 0328 00000000 		.word	.LANCHOR8
 625 032c C8000000 		.word	imu+200
 626 0330 00000000 		.word	autopilot_motors_on
 627 0334 00000000 		.word	commands
 628 0338 00000000 		.word	motor_mixing
 629 033c 00000000 		.word	actuators
 630 0340 00000000 		.word	actuators_pwm_values
 631 0344 00000000 		.word	autopilot_in_flight
 632 0348 00000000 		.word	.LANCHOR10
 633 034c 00000000 		.word	.LANCHOR2
 634 0350 00000000 		.word	uart5
 635 0354 00000000 		.word	dl_msg_available
 636 0358 00000000 		.word	autopilot_rc
 637 035c 00000000 		.word	autopilot_on_rc_frame
 638 0360 00000000 		.word	uart3
 639 0364 00000000 		.word	gps_ubx
 640 0368 00000000 		.word	.LANCHOR1
 641 036c 00000000 		.word	sys_time
 642 0370 00000000 		.word	.LANCHOR0
 643              	.LVL82:
 644              	.L766:
 645              	.LBE115:
 646              	.LBB116:
 235:firmwares/rotorcraft/main.c ****     RunOnceEvery(PERIODIC_FREQUENCY, { autopilot_flight_time++;
 647              		.loc 1 235 0
 648 0374 924B     		ldr	r3, .L775
 649 0376 1A88     		ldrh	r2, [r3]
 650 0378 0132     		adds	r2, r2, #1
 651 037a 92B2     		uxth	r2, r2
 652 037c B2F5007F 		cmp	r2, #512
 653 0380 08D3     		bcc	.L648
 654 0382 0022     		movs	r2, #0
 655 0384 1A80     		strh	r2, [r3]	@ movhi
 656 0386 8F4B     		ldr	r3, .L775+4
 657 0388 1A88     		ldrh	r2, [r3]
 658 038a 0132     		adds	r2, r2, #1
 659 038c 1A80     		strh	r2, [r3]	@ movhi
 660 038e 8E4B     		ldr	r3, .L775+8
 661 0390 1A88     		ldrh	r2, [r3]
 662 0392 0132     		adds	r2, r2, #1
 663              	.L648:
 664 0394 1A80     		strh	r2, [r3]	@ movhi
 665 0396 23E7     		b	.L17
 666              	.LVL83:
 667              	.L767:
 668              	.LBE116:
 669              	.LBE117:
 670              	.LBE134:
 671              	.LBB135:
 672              	.LBB136:
  43:/home/lsk/paparazzi/var/aircrafts/kroozsd_lsk/ap/generated/modules.h ****   static uint8_t i51; i51++; if (i51>=51) i51=0;
 673              		.loc 2 43 0
 674 0398 8C4F     		ldr	r7, .L775+12
  44:/home/lsk/paparazzi/var/aircrafts/kroozsd_lsk/ap/generated/modules.h ****   static uint8_t i128; i128++; if (i128>=128) i128=0;
 675              		.loc 2 44 0
 676 039a 8D4E     		ldr	r6, .L775+16
 677              	.LBE136:
 678              	.LBE135:
 679              	.LBB138:
 680              	.LBB120:
 681              		.loc 5 114 0
 682 039c 0023     		movs	r3, #0
 683 039e 1371     		strb	r3, [r2, #4]
 684              	.LBE120:
 685              	.LBE138:
 686              	.LBB139:
 687              	.LBB137:
  43:/home/lsk/paparazzi/var/aircrafts/kroozsd_lsk/ap/generated/modules.h ****   static uint8_t i51; i51++; if (i51>=51) i51=0;
 688              		.loc 2 43 0
 689 03a0 3A78     		ldrb	r2, [r7]	@ zero_extendqisi2
 690 03a2 0132     		adds	r2, r2, #1
 691 03a4 D2B2     		uxtb	r2, r2
 692 03a6 322A     		cmp	r2, #50
 693 03a8 88BF     		it	hi
 694 03aa 3B70     		strbhi	r3, [r7]
  44:/home/lsk/paparazzi/var/aircrafts/kroozsd_lsk/ap/generated/modules.h ****   static uint8_t i128; i128++; if (i128>=128) i128=0;
 695              		.loc 2 44 0
 696 03ac 3378     		ldrb	r3, [r6]	@ zero_extendqisi2
  43:/home/lsk/paparazzi/var/aircrafts/kroozsd_lsk/ap/generated/modules.h ****   static uint8_t i51; i51++; if (i51>=51) i51=0;
 697              		.loc 2 43 0
 698 03ae 98BF     		it	ls
 699 03b0 3A70     		strbls	r2, [r7]
  44:/home/lsk/paparazzi/var/aircrafts/kroozsd_lsk/ap/generated/modules.h ****   static uint8_t i128; i128++; if (i128>=128) i128=0;
 700              		.loc 2 44 0
 701 03b2 0133     		adds	r3, r3, #1
 702 03b4 DBB2     		uxtb	r3, r3
 703 03b6 1C06     		lsls	r4, r3, #24
  45:/home/lsk/paparazzi/var/aircrafts/kroozsd_lsk/ap/generated/modules.h ****   static uint16_t i512; i512++; if (i512>=512) i512=0;
 704              		.loc 2 45 0
 705 03b8 864C     		ldr	r4, .L775+20
  44:/home/lsk/paparazzi/var/aircrafts/kroozsd_lsk/ap/generated/modules.h ****   static uint8_t i128; i128++; if (i128>=128) i128=0;
 706              		.loc 2 44 0
 707 03ba 48BF     		it	mi
 708 03bc 0023     		movmi	r3, #0
 709 03be 3370     		strb	r3, [r6]
  45:/home/lsk/paparazzi/var/aircrafts/kroozsd_lsk/ap/generated/modules.h ****   static uint16_t i512; i512++; if (i512>=512) i512=0;
 710              		.loc 2 45 0
 711 03c0 2388     		ldrh	r3, [r4]
 712 03c2 0133     		adds	r3, r3, #1
 713 03c4 9BB2     		uxth	r3, r3
 714 03c6 B3F5007F 		cmp	r3, #512
 715 03ca 28BF     		it	cs
 716 03cc 0023     		movcs	r3, #0
 717 03ce 2380     		strh	r3, [r4]	@ movhi
  47:/home/lsk/paparazzi/var/aircrafts/kroozsd_lsk/ap/generated/modules.h ****   if (gps_ubx_gps_ubx_ucenter_periodic_status == MODULES_START) {
 718              		.loc 2 47 0
 719 03d0 98F80030 		ldrb	r3, [r8]	@ zero_extendqisi2
 720 03d4 022B     		cmp	r3, #2
 721 03d6 04D1     		bne	.L30
  48:/home/lsk/paparazzi/var/aircrafts/kroozsd_lsk/ap/generated/modules.h ****     gps_ubx_ucenter_init();
 722              		.loc 2 48 0
 723 03d8 FFF7FEFF 		bl	gps_ubx_ucenter_init
 724              	.LVL84:
  49:/home/lsk/paparazzi/var/aircrafts/kroozsd_lsk/ap/generated/modules.h ****     gps_ubx_gps_ubx_ucenter_periodic_status = MODULES_RUN;
 725              		.loc 2 49 0
 726 03dc 7E4B     		ldr	r3, .L775+24
 727 03de 0122     		movs	r2, #1
 728 03e0 1A70     		strb	r2, [r3]
 729              	.L30:
  51:/home/lsk/paparazzi/var/aircrafts/kroozsd_lsk/ap/generated/modules.h ****   if (gps_ubx_gps_ubx_ucenter_periodic_status == MODULES_STOP) {
 730              		.loc 2 51 0
 731 03e2 98F80030 		ldrb	r3, [r8]	@ zero_extendqisi2
 732 03e6 032B     		cmp	r3, #3
 733 03e8 02D1     		bne	.L31
  52:/home/lsk/paparazzi/var/aircrafts/kroozsd_lsk/ap/generated/modules.h ****     gps_ubx_gps_ubx_ucenter_periodic_status = MODULES_IDLE;
 734              		.loc 2 52 0
 735 03ea 7B4B     		ldr	r3, .L775+24
 736 03ec 0022     		movs	r2, #0
 737 03ee 1A70     		strb	r2, [r3]
 738              	.L31:
  57:/home/lsk/paparazzi/var/aircrafts/kroozsd_lsk/ap/generated/modules.h ****   if (i51 == 0) {
 739              		.loc 2 57 0
 740 03f0 3B78     		ldrb	r3, [r7]	@ zero_extendqisi2
 741 03f2 0BB9     		cbnz	r3, .L32
  58:/home/lsk/paparazzi/var/aircrafts/kroozsd_lsk/ap/generated/modules.h ****     air_data_periodic();
 742              		.loc 2 58 0
 743 03f4 FFF7FEFF 		bl	air_data_periodic
 744              	.LVL85:
 745              	.L32:
  60:/home/lsk/paparazzi/var/aircrafts/kroozsd_lsk/ap/generated/modules.h ****   if (i128 == 25 && gps_ubx_gps_ubx_ucenter_periodic_status == MODULES_RUN) {
 746              		.loc 2 60 0
 747 03f8 3378     		ldrb	r3, [r6]	@ zero_extendqisi2
 748 03fa 192B     		cmp	r3, #25
 749 03fc 05D1     		bne	.L33
 750 03fe 98F80030 		ldrb	r3, [r8]	@ zero_extendqisi2
 751 0402 012B     		cmp	r3, #1
 752 0404 01D1     		bne	.L33
  61:/home/lsk/paparazzi/var/aircrafts/kroozsd_lsk/ap/generated/modules.h ****     gps_ubx_ucenter_periodic();
 753              		.loc 2 61 0
 754 0406 FFF7FEFF 		bl	gps_ubx_ucenter_periodic
 755              	.LVL86:
 756              	.L33:
  63:/home/lsk/paparazzi/var/aircrafts/kroozsd_lsk/ap/generated/modules.h ****   if (i512 == 89) {
 757              		.loc 2 63 0
 758 040a 2388     		ldrh	r3, [r4]
 759 040c 592B     		cmp	r3, #89
 760 040e 7FF4F9AE 		bne	.L23
  64:/home/lsk/paparazzi/var/aircrafts/kroozsd_lsk/ap/generated/modules.h ****     geo_mag_periodic();
 761              		.loc 2 64 0
 762 0412 FFF7FEFF 		bl	geo_mag_periodic
 763              	.LVL87:
 764 0416 F5E6     		b	.L23
 765              	.LVL88:
 766              	.L768:
 767              	.LBE137:
 768              	.LBE139:
 769              	.LBB140:
 770              	.LBB125:
 771              		.loc 5 114 0
 772 0418 0022     		movs	r2, #0
 773 041a 1A71     		strb	r2, [r3, #4]
 774              	.LBE125:
 775              	.LBE140:
 776              	.LBB141:
 777              	.LBB142:
 271:firmwares/rotorcraft/main.c ****   if (radio_control.status == RC_REALLY_LOST &&
 778              		.loc 1 271 0
 779 041c 6F4B     		ldr	r3, .L775+28
 780 041e 704C     		ldr	r4, .L775+32
 781 0420 1B78     		ldrb	r3, [r3]	@ zero_extendqisi2
 782 0422 022B     		cmp	r3, #2
 783 0424 07D1     		bne	.L37
 272:firmwares/rotorcraft/main.c ****       autopilot_mode != AP_MODE_KILL &&
 784              		.loc 1 272 0
 785 0426 2378     		ldrb	r3, [r4]	@ zero_extendqisi2
 271:firmwares/rotorcraft/main.c ****   if (radio_control.status == RC_REALLY_LOST &&
 786              		.loc 1 271 0
 787 0428 022B     		cmp	r3, #2
 788 042a 04D9     		bls	.L37
 274:firmwares/rotorcraft/main.c ****       autopilot_mode != AP_MODE_FAILSAFE &&
 789              		.loc 1 274 0
 790 042c 0D2B     		cmp	r3, #13
 791 042e 02D0     		beq	.L37
 276:firmwares/rotorcraft/main.c ****     autopilot_set_mode(RC_LOST_MODE);
 792              		.loc 1 276 0
 793 0430 0120     		movs	r0, #1
 794 0432 FFF7FEFF 		bl	autopilot_set_mode
 795              	.LVL89:
 796              	.L37:
 287:firmwares/rotorcraft/main.c ****   gps_periodic_check();
 797              		.loc 1 287 0
 798 0436 FFF7FEFF 		bl	gps_periodic_check
 799              	.LVL90:
 288:firmwares/rotorcraft/main.c ****   if (autopilot_mode == AP_MODE_NAV &&
 800              		.loc 1 288 0
 801 043a 2378     		ldrb	r3, [r4]	@ zero_extendqisi2
 802 043c 694E     		ldr	r6, .L775+36
 803 043e 0D2B     		cmp	r3, #13
 804 0440 07D1     		bne	.L38
 805 0442 3378     		ldrb	r3, [r6]	@ zero_extendqisi2
 806 0444 2BB1     		cbz	r3, .L38
 807              	.LBB143:
 808              	.LBB144:
 809              		.file 8 "./subsystems/gps.h"
   1:./subsystems/gps.h **** /*
   2:./subsystems/gps.h ****  * Copyright (C) 2003-2011 The Paparazzi Team
   3:./subsystems/gps.h ****  *
   4:./subsystems/gps.h ****  * This file is part of paparazzi.
   5:./subsystems/gps.h ****  *
   6:./subsystems/gps.h ****  * paparazzi is free software; you can redistribute it and/or modify
   7:./subsystems/gps.h ****  * it under the terms of the GNU General Public License as published by
   8:./subsystems/gps.h ****  * the Free Software Foundation; either version 2, or (at your option)
   9:./subsystems/gps.h ****  * any later version.
  10:./subsystems/gps.h ****  *
  11:./subsystems/gps.h ****  * paparazzi is distributed in the hope that it will be useful,
  12:./subsystems/gps.h ****  * but WITHOUT ANY WARRANTY; without even the implied warranty of
  13:./subsystems/gps.h ****  * MERCHANTABILITY or FITNESS FOR A PARTICULAR PURPOSE.  See the
  14:./subsystems/gps.h ****  * GNU General Public License for more details.
  15:./subsystems/gps.h ****  *
  16:./subsystems/gps.h ****  * You should have received a copy of the GNU General Public License
  17:./subsystems/gps.h ****  * along with paparazzi; see the file COPYING.  If not, write to
  18:./subsystems/gps.h ****  * the Free Software Foundation, 59 Temple Place - Suite 330,
  19:./subsystems/gps.h ****  * Boston, MA 02111-1307, USA.
  20:./subsystems/gps.h ****  */
  21:./subsystems/gps.h **** 
  22:./subsystems/gps.h **** /** @file gps.h
  23:./subsystems/gps.h ****  *  @brief Device independent GPS code (interface)
  24:./subsystems/gps.h ****  *
  25:./subsystems/gps.h ****  */
  26:./subsystems/gps.h **** 
  27:./subsystems/gps.h **** #ifndef GPS_H
  28:./subsystems/gps.h **** #define GPS_H
  29:./subsystems/gps.h **** 
  30:./subsystems/gps.h **** 
  31:./subsystems/gps.h **** #include "std.h"
  32:./subsystems/gps.h **** #include "math/pprz_geodetic_int.h"
  33:./subsystems/gps.h **** 
  34:./subsystems/gps.h **** #include "mcu_periph/sys_time.h"
  35:./subsystems/gps.h **** 
  36:./subsystems/gps.h **** /* GPS model specific implementation or sim */
  37:./subsystems/gps.h **** #ifdef GPS_TYPE_H
  38:./subsystems/gps.h **** #include GPS_TYPE_H
  39:./subsystems/gps.h **** #endif
  40:./subsystems/gps.h **** 
  41:./subsystems/gps.h **** #define GPS_FIX_NONE 0x00
  42:./subsystems/gps.h **** #define GPS_FIX_2D   0x02
  43:./subsystems/gps.h **** #define GPS_FIX_3D   0x03
  44:./subsystems/gps.h **** 
  45:./subsystems/gps.h **** #define GpsFixValid() (gps.fix == GPS_FIX_3D)
  46:./subsystems/gps.h **** 
  47:./subsystems/gps.h **** 
  48:./subsystems/gps.h **** #ifndef GPS_NB_CHANNELS
  49:./subsystems/gps.h **** #define GPS_NB_CHANNELS 1
  50:./subsystems/gps.h **** #endif
  51:./subsystems/gps.h **** 
  52:./subsystems/gps.h **** /** data structure for Space Vehicle Information of a single satellite */
  53:./subsystems/gps.h **** struct SVinfo {
  54:./subsystems/gps.h ****   uint8_t svid;  ///< Satellite ID
  55:./subsystems/gps.h ****   uint8_t flags; ///< bitfield with GPS receiver specific flags
  56:./subsystems/gps.h ****   uint8_t qi;    ///< quality bitfield (GPS receiver specific)
  57:./subsystems/gps.h ****   uint8_t cno;   ///< Carrier to Noise Ratio (Signal Strength) in dbHz
  58:./subsystems/gps.h ****   int8_t elev;   ///< elevation in deg
  59:./subsystems/gps.h ****   int16_t azim;  ///< azimuth in deg
  60:./subsystems/gps.h **** };
  61:./subsystems/gps.h **** 
  62:./subsystems/gps.h **** /** data structure for GPS information */
  63:./subsystems/gps.h **** struct GpsState {
  64:./subsystems/gps.h ****   struct EcefCoor_i ecef_pos;    ///< position in ECEF in cm
  65:./subsystems/gps.h ****   struct LlaCoor_i lla_pos;      ///< position in LLA (lat,lon: deg*1e7; alt: mm over ellipsoid)
  66:./subsystems/gps.h ****   struct UtmCoor_i utm_pos;      ///< position in UTM (north,east: cm; alt: mm over ellipsoid)
  67:./subsystems/gps.h ****   int32_t hmsl;                  ///< height above mean sea level in mm
  68:./subsystems/gps.h ****   struct EcefCoor_i ecef_vel;    ///< speed ECEF in cm/s
  69:./subsystems/gps.h ****   struct NedCoor_i ned_vel;      ///< speed NED in cm/s
  70:./subsystems/gps.h ****   uint16_t gspeed;               ///< norm of 2d ground speed in cm/s
  71:./subsystems/gps.h ****   uint16_t speed_3d;             ///< norm of 3d speed in cm/s
  72:./subsystems/gps.h ****   int32_t course;                ///< GPS course over ground in rad*1e7, [0, 2*Pi]*1e7 (CW/north)
  73:./subsystems/gps.h ****   uint32_t pacc;                 ///< position accuracy in cm
  74:./subsystems/gps.h ****   uint32_t sacc;                 ///< speed accuracy in cm/s
  75:./subsystems/gps.h ****   uint32_t cacc;                 ///< course accuracy in rad*1e7
  76:./subsystems/gps.h ****   uint16_t pdop;                 ///< position dilution of precision scaled by 100
  77:./subsystems/gps.h ****   uint8_t num_sv;                ///< number of sat in fix
  78:./subsystems/gps.h ****   uint8_t fix;                   ///< status of fix
  79:./subsystems/gps.h ****   uint16_t week;                 ///< GPS week
  80:./subsystems/gps.h ****   uint32_t tow;                  ///< GPS time of week in ms
  81:./subsystems/gps.h **** 
  82:./subsystems/gps.h ****   uint8_t nb_channels;           ///< Number of scanned satellites
  83:./subsystems/gps.h ****   struct SVinfo svinfos[GPS_NB_CHANNELS]; ///< holds information from the Space Vehicles (Satellite
  84:./subsystems/gps.h **** 
  85:./subsystems/gps.h ****   uint32_t last_3dfix_ticks;     ///< cpu time ticks at last valid 3D fix
  86:./subsystems/gps.h ****   uint32_t last_3dfix_time;      ///< cpu time in sec at last valid 3D fix
  87:./subsystems/gps.h ****   uint32_t last_msg_ticks;       ///< cpu time ticks at last received GPS message
  88:./subsystems/gps.h ****   uint32_t last_msg_time;        ///< cpu time in sec at last received GPS message
  89:./subsystems/gps.h ****   uint16_t reset;                ///< hotstart, warmstart, coldstart
  90:./subsystems/gps.h **** };
  91:./subsystems/gps.h **** 
  92:./subsystems/gps.h **** /** data structure for GPS time sync */
  93:./subsystems/gps.h **** struct GpsTimeSync {
  94:./subsystems/gps.h ****   uint32_t t0_tow;      ///< GPS time of week in ms from last message
  95:./subsystems/gps.h ****   int32_t t0_tow_frac;  ///< fractional ns remainder of tow [ms], range -500000 .. 500000
  96:./subsystems/gps.h ****   uint32_t t0_ticks;    ///< hw clock ticks when GPS message is received
  97:./subsystems/gps.h **** };
  98:./subsystems/gps.h **** 
  99:./subsystems/gps.h **** /** global GPS state */
 100:./subsystems/gps.h **** extern struct GpsState gps;
 101:./subsystems/gps.h **** 
 102:./subsystems/gps.h **** /** initialize the global GPS state */
 103:./subsystems/gps.h **** extern void gps_init(void);
 104:./subsystems/gps.h **** 
 105:./subsystems/gps.h **** /* GPS model specific init implementation */
 106:./subsystems/gps.h **** extern void gps_impl_init(void);
 107:./subsystems/gps.h **** 
 108:./subsystems/gps.h **** 
 109:./subsystems/gps.h **** /** GPS timeout in seconds */
 110:./subsystems/gps.h **** #ifndef GPS_TIMEOUT
 111:./subsystems/gps.h **** #define GPS_TIMEOUT 2
 112:./subsystems/gps.h **** #endif
 113:./subsystems/gps.h **** 
 114:./subsystems/gps.h **** static inline bool_t GpsIsLost(void)
 115:./subsystems/gps.h **** {
 116:./subsystems/gps.h ****   if (gps.fix == GPS_FIX_3D) {
 810              		.loc 8 116 0
 811 0446 684B     		ldr	r3, .L775+40
 812 0448 93F85B30 		ldrb	r3, [r3, #91]	@ zero_extendqisi2
 813 044c 032B     		cmp	r3, #3
 814 044e 41F00280 		bne	.L39
 815              	.L38:
 816              	.LBE144:
 817              	.LBE143:
 297:firmwares/rotorcraft/main.c ****   if (autopilot_mode == AP_MODE_HOME &&
 818              		.loc 1 297 0
 819 0452 2378     		ldrb	r3, [r4]	@ zero_extendqisi2
 820 0454 022B     		cmp	r3, #2
 821 0456 07D1     		bne	.L40
 822 0458 3378     		ldrb	r3, [r6]	@ zero_extendqisi2
 823 045a 2BB1     		cbz	r3, .L40
 824              	.LBB145:
 825              	.LBB146:
 826              		.loc 8 116 0
 827 045c 624B     		ldr	r3, .L775+40
 828 045e 93F85B30 		ldrb	r3, [r3, #91]	@ zero_extendqisi2
 829 0462 032B     		cmp	r3, #3
 830 0464 40F0FC87 		bne	.L41
 831              	.L40:
 832              	.LBE146:
 833              	.LBE145:
 303:firmwares/rotorcraft/main.c ****   autopilot_check_in_flight(autopilot_motors_on);
 834              		.loc 1 303 0
 835 0468 3078     		ldrb	r0, [r6]	@ zero_extendqisi2
 836 046a FFF7FEFF 		bl	autopilot_check_in_flight
 837              	.LVL91:
 838 046e DFE6     		b	.L36
 839              	.LVL92:
 840              	.L769:
 841              	.LBE142:
 842              	.LBE141:
 843              	.LBB148:
 844              	.LBB149:
 250:firmwares/rotorcraft/main.c ****   if (boot) {
 845              		.loc 1 250 0
 846 0470 5E4C     		ldr	r4, .L775+44
 847              	.LBE149:
 848              	.LBE148:
 849              	.LBB165:
 850              	.LBB130:
 851              		.loc 5 114 0
 852 0472 0026     		movs	r6, #0
 853 0474 1E71     		strb	r6, [r3, #4]
 854              	.LBE130:
 855              	.LBE165:
 856              	.LBB166:
 857              	.LBB164:
 250:firmwares/rotorcraft/main.c ****   if (boot) {
 858              		.loc 1 250 0
 859 0476 2378     		ldrb	r3, [r4]	@ zero_extendqisi2
 860 0478 2BB1     		cbz	r3, .L45
 252:firmwares/rotorcraft/main.c ****     send_autopilot_version(&(DefaultChannel).trans_tx, &(DefaultDevice).device);
 861              		.loc 1 252 0
 862 047a 5D48     		ldr	r0, .L775+48
 863 047c 5D49     		ldr	r1, .L775+52
 864 047e FFF7FEFF 		bl	send_autopilot_version
 865              	.LVL93:
 254:firmwares/rotorcraft/main.c ****     boot = FALSE;
 866              		.loc 1 254 0
 867 0482 2670     		strb	r6, [r4]
 868 0484 EAE6     		b	.L44
 869              	.LVL94:
 870              	.L45:
 871              	.LBB150:
 872              	.LBB151:
 873              		.file 9 "/home/lsk/paparazzi/var/aircrafts/kroozsd_lsk/ap/generated/periodic_telemetry.h"
   1:/home/lsk/paparazzi/var/aircrafts/kroozsd_lsk/ap/generated/periodic_telemetry.h **** /* This file has been generated by gen_periodic from /home/lsk/paparazzi/conf/messages.xml and /hom
   2:/home/lsk/paparazzi/var/aircrafts/kroozsd_lsk/ap/generated/periodic_telemetry.h **** /* Please DO NOT EDIT */
   3:/home/lsk/paparazzi/var/aircrafts/kroozsd_lsk/ap/generated/periodic_telemetry.h **** 
   4:/home/lsk/paparazzi/var/aircrafts/kroozsd_lsk/ap/generated/periodic_telemetry.h **** #ifndef _VAR_PERIODIC_H_
   5:/home/lsk/paparazzi/var/aircrafts/kroozsd_lsk/ap/generated/periodic_telemetry.h **** #define _VAR_PERIODIC_H_
   6:/home/lsk/paparazzi/var/aircrafts/kroozsd_lsk/ap/generated/periodic_telemetry.h **** 
   7:/home/lsk/paparazzi/var/aircrafts/kroozsd_lsk/ap/generated/periodic_telemetry.h **** #include "std.h"
   8:/home/lsk/paparazzi/var/aircrafts/kroozsd_lsk/ap/generated/periodic_telemetry.h **** #include "generated/airframe.h"
   9:/home/lsk/paparazzi/var/aircrafts/kroozsd_lsk/ap/generated/periodic_telemetry.h **** #include "subsystems/datalink/telemetry_common.h"
  10:/home/lsk/paparazzi/var/aircrafts/kroozsd_lsk/ap/generated/periodic_telemetry.h **** 
  11:/home/lsk/paparazzi/var/aircrafts/kroozsd_lsk/ap/generated/periodic_telemetry.h **** #define TELEMETRY_FREQUENCY 512
  12:/home/lsk/paparazzi/var/aircrafts/kroozsd_lsk/ap/generated/periodic_telemetry.h **** 
  13:/home/lsk/paparazzi/var/aircrafts/kroozsd_lsk/ap/generated/periodic_telemetry.h **** /* Periodic telemetry messages */
  14:/home/lsk/paparazzi/var/aircrafts/kroozsd_lsk/ap/generated/periodic_telemetry.h **** #define TELEMETRY_MSG_IMU_ACCEL_RAW_ID 0
  15:/home/lsk/paparazzi/var/aircrafts/kroozsd_lsk/ap/generated/periodic_telemetry.h **** #define TELEMETRY_MSG_ROTORCRAFT_STATUS_ID 1
  16:/home/lsk/paparazzi/var/aircrafts/kroozsd_lsk/ap/generated/periodic_telemetry.h **** #define TELEMETRY_MSG_FILTER_ALIGNER_ID 2
  17:/home/lsk/paparazzi/var/aircrafts/kroozsd_lsk/ap/generated/periodic_telemetry.h **** #define TELEMETRY_MSG_GUIDANCE_H_INT_ID 3
  18:/home/lsk/paparazzi/var/aircrafts/kroozsd_lsk/ap/generated/periodic_telemetry.h **** #define TELEMETRY_MSG_HFF_ID 4
  19:/home/lsk/paparazzi/var/aircrafts/kroozsd_lsk/ap/generated/periodic_telemetry.h **** #define TELEMETRY_MSG_GEO_MAG_ID 5
  20:/home/lsk/paparazzi/var/aircrafts/kroozsd_lsk/ap/generated/periodic_telemetry.h **** #define TELEMETRY_MSG_IMU_ACCEL_SCALED_ID 6
  21:/home/lsk/paparazzi/var/aircrafts/kroozsd_lsk/ap/generated/periodic_telemetry.h **** #define TELEMETRY_MSG_PPM_ID 7
  22:/home/lsk/paparazzi/var/aircrafts/kroozsd_lsk/ap/generated/periodic_telemetry.h **** #define TELEMETRY_MSG_ROTORCRAFT_RADIO_CONTROL_ID 8
  23:/home/lsk/paparazzi/var/aircrafts/kroozsd_lsk/ap/generated/periodic_telemetry.h **** #define TELEMETRY_MSG_AIR_DATA_ID 9
  24:/home/lsk/paparazzi/var/aircrafts/kroozsd_lsk/ap/generated/periodic_telemetry.h **** #define TELEMETRY_MSG_VFF_ID 10
  25:/home/lsk/paparazzi/var/aircrafts/kroozsd_lsk/ap/generated/periodic_telemetry.h **** #define TELEMETRY_MSG_I2C_ERRORS_ID 11
  26:/home/lsk/paparazzi/var/aircrafts/kroozsd_lsk/ap/generated/periodic_telemetry.h **** #define TELEMETRY_MSG_ENERGY_ID 12
  27:/home/lsk/paparazzi/var/aircrafts/kroozsd_lsk/ap/generated/periodic_telemetry.h **** #define TELEMETRY_MSG_AHRS_EULER_INT_ID 13
  28:/home/lsk/paparazzi/var/aircrafts/kroozsd_lsk/ap/generated/periodic_telemetry.h **** #define TELEMETRY_MSG_AUTOPILOT_VERSION_ID 14
  29:/home/lsk/paparazzi/var/aircrafts/kroozsd_lsk/ap/generated/periodic_telemetry.h **** #define TELEMETRY_MSG_VERT_LOOP_ID 15
  30:/home/lsk/paparazzi/var/aircrafts/kroozsd_lsk/ap/generated/periodic_telemetry.h **** #define TELEMETRY_MSG_STAB_ATTITUDE_ID 16
  31:/home/lsk/paparazzi/var/aircrafts/kroozsd_lsk/ap/generated/periodic_telemetry.h **** #define TELEMETRY_MSG_STATE_FILTER_STATUS_ID 17
  32:/home/lsk/paparazzi/var/aircrafts/kroozsd_lsk/ap/generated/periodic_telemetry.h **** #define TELEMETRY_MSG_UART_ERRORS_ID 18
  33:/home/lsk/paparazzi/var/aircrafts/kroozsd_lsk/ap/generated/periodic_telemetry.h **** #define TELEMETRY_MSG_BARO_RAW_ID 19
  34:/home/lsk/paparazzi/var/aircrafts/kroozsd_lsk/ap/generated/periodic_telemetry.h **** #define TELEMETRY_MSG_INS_ID 20
  35:/home/lsk/paparazzi/var/aircrafts/kroozsd_lsk/ap/generated/periodic_telemetry.h **** #define TELEMETRY_MSG_FILTER_ID 21
  36:/home/lsk/paparazzi/var/aircrafts/kroozsd_lsk/ap/generated/periodic_telemetry.h **** #define TELEMETRY_MSG_ROTORCRAFT_CAM_ID 22
  37:/home/lsk/paparazzi/var/aircrafts/kroozsd_lsk/ap/generated/periodic_telemetry.h **** #define TELEMETRY_MSG_ROTORCRAFT_NAV_STATUS_ID 23
  38:/home/lsk/paparazzi/var/aircrafts/kroozsd_lsk/ap/generated/periodic_telemetry.h **** #define TELEMETRY_MSG_ROTORCRAFT_FP_ID 24
  39:/home/lsk/paparazzi/var/aircrafts/kroozsd_lsk/ap/generated/periodic_telemetry.h **** #define TELEMETRY_MSG_HFF_GPS_ID 25
  40:/home/lsk/paparazzi/var/aircrafts/kroozsd_lsk/ap/generated/periodic_telemetry.h **** #define TELEMETRY_MSG_VFF_EXTENDED_ID 26
  41:/home/lsk/paparazzi/var/aircrafts/kroozsd_lsk/ap/generated/periodic_telemetry.h **** #define TELEMETRY_MSG_AHRS_REF_QUAT_ID 27
  42:/home/lsk/paparazzi/var/aircrafts/kroozsd_lsk/ap/generated/periodic_telemetry.h **** #define TELEMETRY_MSG_ROTORCRAFT_TUNE_HOVER_ID 28
  43:/home/lsk/paparazzi/var/aircrafts/kroozsd_lsk/ap/generated/periodic_telemetry.h **** #define TELEMETRY_MSG_IMU_MAG_SCALED_ID 29
  44:/home/lsk/paparazzi/var/aircrafts/kroozsd_lsk/ap/generated/periodic_telemetry.h **** #define TELEMETRY_MSG_SUPERBITRF_ID 30
  45:/home/lsk/paparazzi/var/aircrafts/kroozsd_lsk/ap/generated/periodic_telemetry.h **** #define TELEMETRY_MSG_GUIDANCE_H_REF_ID 31
  46:/home/lsk/paparazzi/var/aircrafts/kroozsd_lsk/ap/generated/periodic_telemetry.h **** #define TELEMETRY_MSG_RC_ID 32
  47:/home/lsk/paparazzi/var/aircrafts/kroozsd_lsk/ap/generated/periodic_telemetry.h **** #define TELEMETRY_MSG_ROTORCRAFT_CMD_ID 33
  48:/home/lsk/paparazzi/var/aircrafts/kroozsd_lsk/ap/generated/periodic_telemetry.h **** #define TELEMETRY_MSG_WP_MOVED_ID 34
  49:/home/lsk/paparazzi/var/aircrafts/kroozsd_lsk/ap/generated/periodic_telemetry.h **** #define TELEMETRY_MSG_RATE_LOOP_ID 35
  50:/home/lsk/paparazzi/var/aircrafts/kroozsd_lsk/ap/generated/periodic_telemetry.h **** #define TELEMETRY_MSG_HFF_DBG_ID 36
  51:/home/lsk/paparazzi/var/aircrafts/kroozsd_lsk/ap/generated/periodic_telemetry.h **** #define TELEMETRY_MSG_STAB_ATTITUDE_REF_ID 37
  52:/home/lsk/paparazzi/var/aircrafts/kroozsd_lsk/ap/generated/periodic_telemetry.h **** #define TELEMETRY_MSG_IMU_GYRO_RAW_ID 38
  53:/home/lsk/paparazzi/var/aircrafts/kroozsd_lsk/ap/generated/periodic_telemetry.h **** #define TELEMETRY_MSG_GPS_INT_ID 39
  54:/home/lsk/paparazzi/var/aircrafts/kroozsd_lsk/ap/generated/periodic_telemetry.h **** #define TELEMETRY_MSG_SURVEY_ID 40
  55:/home/lsk/paparazzi/var/aircrafts/kroozsd_lsk/ap/generated/periodic_telemetry.h **** #define TELEMETRY_MSG_HOVER_LOOP_ID 41
  56:/home/lsk/paparazzi/var/aircrafts/kroozsd_lsk/ap/generated/periodic_telemetry.h **** #define TELEMETRY_MSG_AHRS_GYRO_BIAS_INT_ID 42
  57:/home/lsk/paparazzi/var/aircrafts/kroozsd_lsk/ap/generated/periodic_telemetry.h **** #define TELEMETRY_MSG_IMU_GYRO_SCALED_ID 43
  58:/home/lsk/paparazzi/var/aircrafts/kroozsd_lsk/ap/generated/periodic_telemetry.h **** #define TELEMETRY_MSG_IMU_MAG_RAW_ID 44
  59:/home/lsk/paparazzi/var/aircrafts/kroozsd_lsk/ap/generated/periodic_telemetry.h **** #define TELEMETRY_MSG_ALIVE_ID 45
  60:/home/lsk/paparazzi/var/aircrafts/kroozsd_lsk/ap/generated/periodic_telemetry.h **** #define TELEMETRY_MSG_DATALINK_REPORT_ID 46
  61:/home/lsk/paparazzi/var/aircrafts/kroozsd_lsk/ap/generated/periodic_telemetry.h **** #define TELEMETRY_MSG_DL_VALUE_ID 47
  62:/home/lsk/paparazzi/var/aircrafts/kroozsd_lsk/ap/generated/periodic_telemetry.h **** #define TELEMETRY_MSG_ACTUATORS_BEBOP_ID 48
  63:/home/lsk/paparazzi/var/aircrafts/kroozsd_lsk/ap/generated/periodic_telemetry.h **** #define TELEMETRY_MSG_AHRS_QUAT_INT_ID 49
  64:/home/lsk/paparazzi/var/aircrafts/kroozsd_lsk/ap/generated/periodic_telemetry.h **** #define TELEMETRY_MSG_INS_REF_ID 50
  65:/home/lsk/paparazzi/var/aircrafts/kroozsd_lsk/ap/generated/periodic_telemetry.h **** #define TELEMETRY_NB_MSG 51
  66:/home/lsk/paparazzi/var/aircrafts/kroozsd_lsk/ap/generated/periodic_telemetry.h **** #define TELEMETRY_MSG_NAMES { \
  67:/home/lsk/paparazzi/var/aircrafts/kroozsd_lsk/ap/generated/periodic_telemetry.h ****   "IMU_ACCEL_RAW", \
  68:/home/lsk/paparazzi/var/aircrafts/kroozsd_lsk/ap/generated/periodic_telemetry.h ****   "ROTORCRAFT_STATUS", \
  69:/home/lsk/paparazzi/var/aircrafts/kroozsd_lsk/ap/generated/periodic_telemetry.h ****   "FILTER_ALIGNER", \
  70:/home/lsk/paparazzi/var/aircrafts/kroozsd_lsk/ap/generated/periodic_telemetry.h ****   "GUIDANCE_H_INT", \
  71:/home/lsk/paparazzi/var/aircrafts/kroozsd_lsk/ap/generated/periodic_telemetry.h ****   "HFF", \
  72:/home/lsk/paparazzi/var/aircrafts/kroozsd_lsk/ap/generated/periodic_telemetry.h ****   "GEO_MAG", \
  73:/home/lsk/paparazzi/var/aircrafts/kroozsd_lsk/ap/generated/periodic_telemetry.h ****   "IMU_ACCEL_SCALED", \
  74:/home/lsk/paparazzi/var/aircrafts/kroozsd_lsk/ap/generated/periodic_telemetry.h ****   "PPM", \
  75:/home/lsk/paparazzi/var/aircrafts/kroozsd_lsk/ap/generated/periodic_telemetry.h ****   "ROTORCRAFT_RADIO_CONTROL", \
  76:/home/lsk/paparazzi/var/aircrafts/kroozsd_lsk/ap/generated/periodic_telemetry.h ****   "AIR_DATA", \
  77:/home/lsk/paparazzi/var/aircrafts/kroozsd_lsk/ap/generated/periodic_telemetry.h ****   "VFF", \
  78:/home/lsk/paparazzi/var/aircrafts/kroozsd_lsk/ap/generated/periodic_telemetry.h ****   "I2C_ERRORS", \
  79:/home/lsk/paparazzi/var/aircrafts/kroozsd_lsk/ap/generated/periodic_telemetry.h ****   "ENERGY", \
  80:/home/lsk/paparazzi/var/aircrafts/kroozsd_lsk/ap/generated/periodic_telemetry.h ****   "AHRS_EULER_INT", \
  81:/home/lsk/paparazzi/var/aircrafts/kroozsd_lsk/ap/generated/periodic_telemetry.h ****   "AUTOPILOT_VERSION", \
  82:/home/lsk/paparazzi/var/aircrafts/kroozsd_lsk/ap/generated/periodic_telemetry.h ****   "VERT_LOOP", \
  83:/home/lsk/paparazzi/var/aircrafts/kroozsd_lsk/ap/generated/periodic_telemetry.h ****   "STAB_ATTITUDE", \
  84:/home/lsk/paparazzi/var/aircrafts/kroozsd_lsk/ap/generated/periodic_telemetry.h ****   "STATE_FILTER_STATUS", \
  85:/home/lsk/paparazzi/var/aircrafts/kroozsd_lsk/ap/generated/periodic_telemetry.h ****   "UART_ERRORS", \
  86:/home/lsk/paparazzi/var/aircrafts/kroozsd_lsk/ap/generated/periodic_telemetry.h ****   "BARO_RAW", \
  87:/home/lsk/paparazzi/var/aircrafts/kroozsd_lsk/ap/generated/periodic_telemetry.h ****   "INS", \
  88:/home/lsk/paparazzi/var/aircrafts/kroozsd_lsk/ap/generated/periodic_telemetry.h ****   "FILTER", \
  89:/home/lsk/paparazzi/var/aircrafts/kroozsd_lsk/ap/generated/periodic_telemetry.h ****   "ROTORCRAFT_CAM", \
  90:/home/lsk/paparazzi/var/aircrafts/kroozsd_lsk/ap/generated/periodic_telemetry.h ****   "ROTORCRAFT_NAV_STATUS", \
  91:/home/lsk/paparazzi/var/aircrafts/kroozsd_lsk/ap/generated/periodic_telemetry.h ****   "ROTORCRAFT_FP", \
  92:/home/lsk/paparazzi/var/aircrafts/kroozsd_lsk/ap/generated/periodic_telemetry.h ****   "HFF_GPS", \
  93:/home/lsk/paparazzi/var/aircrafts/kroozsd_lsk/ap/generated/periodic_telemetry.h ****   "VFF_EXTENDED", \
  94:/home/lsk/paparazzi/var/aircrafts/kroozsd_lsk/ap/generated/periodic_telemetry.h ****   "AHRS_REF_QUAT", \
  95:/home/lsk/paparazzi/var/aircrafts/kroozsd_lsk/ap/generated/periodic_telemetry.h ****   "ROTORCRAFT_TUNE_HOVER", \
  96:/home/lsk/paparazzi/var/aircrafts/kroozsd_lsk/ap/generated/periodic_telemetry.h ****   "IMU_MAG_SCALED", \
  97:/home/lsk/paparazzi/var/aircrafts/kroozsd_lsk/ap/generated/periodic_telemetry.h ****   "SUPERBITRF", \
  98:/home/lsk/paparazzi/var/aircrafts/kroozsd_lsk/ap/generated/periodic_telemetry.h ****   "GUIDANCE_H_REF", \
  99:/home/lsk/paparazzi/var/aircrafts/kroozsd_lsk/ap/generated/periodic_telemetry.h ****   "RC", \
 100:/home/lsk/paparazzi/var/aircrafts/kroozsd_lsk/ap/generated/periodic_telemetry.h ****   "ROTORCRAFT_CMD", \
 101:/home/lsk/paparazzi/var/aircrafts/kroozsd_lsk/ap/generated/periodic_telemetry.h ****   "WP_MOVED", \
 102:/home/lsk/paparazzi/var/aircrafts/kroozsd_lsk/ap/generated/periodic_telemetry.h ****   "RATE_LOOP", \
 103:/home/lsk/paparazzi/var/aircrafts/kroozsd_lsk/ap/generated/periodic_telemetry.h ****   "HFF_DBG", \
 104:/home/lsk/paparazzi/var/aircrafts/kroozsd_lsk/ap/generated/periodic_telemetry.h ****   "STAB_ATTITUDE_REF", \
 105:/home/lsk/paparazzi/var/aircrafts/kroozsd_lsk/ap/generated/periodic_telemetry.h ****   "IMU_GYRO_RAW", \
 106:/home/lsk/paparazzi/var/aircrafts/kroozsd_lsk/ap/generated/periodic_telemetry.h ****   "GPS_INT", \
 107:/home/lsk/paparazzi/var/aircrafts/kroozsd_lsk/ap/generated/periodic_telemetry.h ****   "SURVEY", \
 108:/home/lsk/paparazzi/var/aircrafts/kroozsd_lsk/ap/generated/periodic_telemetry.h ****   "HOVER_LOOP", \
 109:/home/lsk/paparazzi/var/aircrafts/kroozsd_lsk/ap/generated/periodic_telemetry.h ****   "AHRS_GYRO_BIAS_INT", \
 110:/home/lsk/paparazzi/var/aircrafts/kroozsd_lsk/ap/generated/periodic_telemetry.h ****   "IMU_GYRO_SCALED", \
 111:/home/lsk/paparazzi/var/aircrafts/kroozsd_lsk/ap/generated/periodic_telemetry.h ****   "IMU_MAG_RAW", \
 112:/home/lsk/paparazzi/var/aircrafts/kroozsd_lsk/ap/generated/periodic_telemetry.h ****   "ALIVE", \
 113:/home/lsk/paparazzi/var/aircrafts/kroozsd_lsk/ap/generated/periodic_telemetry.h ****   "DATALINK_REPORT", \
 114:/home/lsk/paparazzi/var/aircrafts/kroozsd_lsk/ap/generated/periodic_telemetry.h ****   "DL_VALUE", \
 115:/home/lsk/paparazzi/var/aircrafts/kroozsd_lsk/ap/generated/periodic_telemetry.h ****   "ACTUATORS_BEBOP", \
 116:/home/lsk/paparazzi/var/aircrafts/kroozsd_lsk/ap/generated/periodic_telemetry.h ****   "AHRS_QUAT_INT", \
 117:/home/lsk/paparazzi/var/aircrafts/kroozsd_lsk/ap/generated/periodic_telemetry.h ****   "INS_REF", \
 118:/home/lsk/paparazzi/var/aircrafts/kroozsd_lsk/ap/generated/periodic_telemetry.h **** };
 119:/home/lsk/paparazzi/var/aircrafts/kroozsd_lsk/ap/generated/periodic_telemetry.h **** 
 120:/home/lsk/paparazzi/var/aircrafts/kroozsd_lsk/ap/generated/periodic_telemetry.h **** #define TELEMETRY_CBS_NULL { \
 121:/home/lsk/paparazzi/var/aircrafts/kroozsd_lsk/ap/generated/periodic_telemetry.h ****   NULL, \
 122:/home/lsk/paparazzi/var/aircrafts/kroozsd_lsk/ap/generated/periodic_telemetry.h ****   NULL, \
 123:/home/lsk/paparazzi/var/aircrafts/kroozsd_lsk/ap/generated/periodic_telemetry.h ****   NULL, \
 124:/home/lsk/paparazzi/var/aircrafts/kroozsd_lsk/ap/generated/periodic_telemetry.h ****   NULL, \
 125:/home/lsk/paparazzi/var/aircrafts/kroozsd_lsk/ap/generated/periodic_telemetry.h ****   NULL, \
 126:/home/lsk/paparazzi/var/aircrafts/kroozsd_lsk/ap/generated/periodic_telemetry.h ****   NULL, \
 127:/home/lsk/paparazzi/var/aircrafts/kroozsd_lsk/ap/generated/periodic_telemetry.h ****   NULL, \
 128:/home/lsk/paparazzi/var/aircrafts/kroozsd_lsk/ap/generated/periodic_telemetry.h ****   NULL, \
 129:/home/lsk/paparazzi/var/aircrafts/kroozsd_lsk/ap/generated/periodic_telemetry.h ****   NULL, \
 130:/home/lsk/paparazzi/var/aircrafts/kroozsd_lsk/ap/generated/periodic_telemetry.h ****   NULL, \
 131:/home/lsk/paparazzi/var/aircrafts/kroozsd_lsk/ap/generated/periodic_telemetry.h ****   NULL, \
 132:/home/lsk/paparazzi/var/aircrafts/kroozsd_lsk/ap/generated/periodic_telemetry.h ****   NULL, \
 133:/home/lsk/paparazzi/var/aircrafts/kroozsd_lsk/ap/generated/periodic_telemetry.h ****   NULL, \
 134:/home/lsk/paparazzi/var/aircrafts/kroozsd_lsk/ap/generated/periodic_telemetry.h ****   NULL, \
 135:/home/lsk/paparazzi/var/aircrafts/kroozsd_lsk/ap/generated/periodic_telemetry.h ****   NULL, \
 136:/home/lsk/paparazzi/var/aircrafts/kroozsd_lsk/ap/generated/periodic_telemetry.h ****   NULL, \
 137:/home/lsk/paparazzi/var/aircrafts/kroozsd_lsk/ap/generated/periodic_telemetry.h ****   NULL, \
 138:/home/lsk/paparazzi/var/aircrafts/kroozsd_lsk/ap/generated/periodic_telemetry.h ****   NULL, \
 139:/home/lsk/paparazzi/var/aircrafts/kroozsd_lsk/ap/generated/periodic_telemetry.h ****   NULL, \
 140:/home/lsk/paparazzi/var/aircrafts/kroozsd_lsk/ap/generated/periodic_telemetry.h ****   NULL, \
 141:/home/lsk/paparazzi/var/aircrafts/kroozsd_lsk/ap/generated/periodic_telemetry.h ****   NULL, \
 142:/home/lsk/paparazzi/var/aircrafts/kroozsd_lsk/ap/generated/periodic_telemetry.h ****   NULL, \
 143:/home/lsk/paparazzi/var/aircrafts/kroozsd_lsk/ap/generated/periodic_telemetry.h ****   NULL, \
 144:/home/lsk/paparazzi/var/aircrafts/kroozsd_lsk/ap/generated/periodic_telemetry.h ****   NULL, \
 145:/home/lsk/paparazzi/var/aircrafts/kroozsd_lsk/ap/generated/periodic_telemetry.h ****   NULL, \
 146:/home/lsk/paparazzi/var/aircrafts/kroozsd_lsk/ap/generated/periodic_telemetry.h ****   NULL, \
 147:/home/lsk/paparazzi/var/aircrafts/kroozsd_lsk/ap/generated/periodic_telemetry.h ****   NULL, \
 148:/home/lsk/paparazzi/var/aircrafts/kroozsd_lsk/ap/generated/periodic_telemetry.h ****   NULL, \
 149:/home/lsk/paparazzi/var/aircrafts/kroozsd_lsk/ap/generated/periodic_telemetry.h ****   NULL, \
 150:/home/lsk/paparazzi/var/aircrafts/kroozsd_lsk/ap/generated/periodic_telemetry.h ****   NULL, \
 151:/home/lsk/paparazzi/var/aircrafts/kroozsd_lsk/ap/generated/periodic_telemetry.h ****   NULL, \
 152:/home/lsk/paparazzi/var/aircrafts/kroozsd_lsk/ap/generated/periodic_telemetry.h ****   NULL, \
 153:/home/lsk/paparazzi/var/aircrafts/kroozsd_lsk/ap/generated/periodic_telemetry.h ****   NULL, \
 154:/home/lsk/paparazzi/var/aircrafts/kroozsd_lsk/ap/generated/periodic_telemetry.h ****   NULL, \
 155:/home/lsk/paparazzi/var/aircrafts/kroozsd_lsk/ap/generated/periodic_telemetry.h ****   NULL, \
 156:/home/lsk/paparazzi/var/aircrafts/kroozsd_lsk/ap/generated/periodic_telemetry.h ****   NULL, \
 157:/home/lsk/paparazzi/var/aircrafts/kroozsd_lsk/ap/generated/periodic_telemetry.h ****   NULL, \
 158:/home/lsk/paparazzi/var/aircrafts/kroozsd_lsk/ap/generated/periodic_telemetry.h ****   NULL, \
 159:/home/lsk/paparazzi/var/aircrafts/kroozsd_lsk/ap/generated/periodic_telemetry.h ****   NULL, \
 160:/home/lsk/paparazzi/var/aircrafts/kroozsd_lsk/ap/generated/periodic_telemetry.h ****   NULL, \
 161:/home/lsk/paparazzi/var/aircrafts/kroozsd_lsk/ap/generated/periodic_telemetry.h ****   NULL, \
 162:/home/lsk/paparazzi/var/aircrafts/kroozsd_lsk/ap/generated/periodic_telemetry.h ****   NULL, \
 163:/home/lsk/paparazzi/var/aircrafts/kroozsd_lsk/ap/generated/periodic_telemetry.h ****   NULL, \
 164:/home/lsk/paparazzi/var/aircrafts/kroozsd_lsk/ap/generated/periodic_telemetry.h ****   NULL, \
 165:/home/lsk/paparazzi/var/aircrafts/kroozsd_lsk/ap/generated/periodic_telemetry.h ****   NULL, \
 166:/home/lsk/paparazzi/var/aircrafts/kroozsd_lsk/ap/generated/periodic_telemetry.h ****   NULL, \
 167:/home/lsk/paparazzi/var/aircrafts/kroozsd_lsk/ap/generated/periodic_telemetry.h ****   NULL, \
 168:/home/lsk/paparazzi/var/aircrafts/kroozsd_lsk/ap/generated/periodic_telemetry.h ****   NULL, \
 169:/home/lsk/paparazzi/var/aircrafts/kroozsd_lsk/ap/generated/periodic_telemetry.h ****   NULL, \
 170:/home/lsk/paparazzi/var/aircrafts/kroozsd_lsk/ap/generated/periodic_telemetry.h ****   NULL, \
 171:/home/lsk/paparazzi/var/aircrafts/kroozsd_lsk/ap/generated/periodic_telemetry.h ****   NULL, \
 172:/home/lsk/paparazzi/var/aircrafts/kroozsd_lsk/ap/generated/periodic_telemetry.h **** };
 173:/home/lsk/paparazzi/var/aircrafts/kroozsd_lsk/ap/generated/periodic_telemetry.h **** 
 174:/home/lsk/paparazzi/var/aircrafts/kroozsd_lsk/ap/generated/periodic_telemetry.h **** 
 175:/home/lsk/paparazzi/var/aircrafts/kroozsd_lsk/ap/generated/periodic_telemetry.h **** /* Periodic telemetry: Main process */
 176:/home/lsk/paparazzi/var/aircrafts/kroozsd_lsk/ap/generated/periodic_telemetry.h **** #define TELEMETRY_PROCESS_Main 0
 177:/home/lsk/paparazzi/var/aircrafts/kroozsd_lsk/ap/generated/periodic_telemetry.h **** #define TELEMETRY_MODE_Main_default 0
 178:/home/lsk/paparazzi/var/aircrafts/kroozsd_lsk/ap/generated/periodic_telemetry.h **** #define PERIOD_AUTOPILOT_VERSION_Main_0 (11.1)
 179:/home/lsk/paparazzi/var/aircrafts/kroozsd_lsk/ap/generated/periodic_telemetry.h **** #define PERIOD_DL_VALUE_Main_0 (1.1)
 180:/home/lsk/paparazzi/var/aircrafts/kroozsd_lsk/ap/generated/periodic_telemetry.h **** #define PERIOD_ROTORCRAFT_STATUS_Main_0 (1.2)
 181:/home/lsk/paparazzi/var/aircrafts/kroozsd_lsk/ap/generated/periodic_telemetry.h **** #define PERIOD_ROTORCRAFT_FP_Main_0 (0.25)
 182:/home/lsk/paparazzi/var/aircrafts/kroozsd_lsk/ap/generated/periodic_telemetry.h **** #define PERIOD_ALIVE_Main_0 (2.1)
 183:/home/lsk/paparazzi/var/aircrafts/kroozsd_lsk/ap/generated/periodic_telemetry.h **** #define PERIOD_INS_REF_Main_0 (5.1)
 184:/home/lsk/paparazzi/var/aircrafts/kroozsd_lsk/ap/generated/periodic_telemetry.h **** #define PERIOD_ROTORCRAFT_NAV_STATUS_Main_0 (1.6)
 185:/home/lsk/paparazzi/var/aircrafts/kroozsd_lsk/ap/generated/periodic_telemetry.h **** #define PERIOD_WP_MOVED_Main_0 (1.3)
 186:/home/lsk/paparazzi/var/aircrafts/kroozsd_lsk/ap/generated/periodic_telemetry.h **** #define PERIOD_ROTORCRAFT_CAM_Main_0 (1.)
 187:/home/lsk/paparazzi/var/aircrafts/kroozsd_lsk/ap/generated/periodic_telemetry.h **** #define PERIOD_GPS_INT_Main_0 (.25)
 188:/home/lsk/paparazzi/var/aircrafts/kroozsd_lsk/ap/generated/periodic_telemetry.h **** #define PERIOD_INS_Main_0 (.25)
 189:/home/lsk/paparazzi/var/aircrafts/kroozsd_lsk/ap/generated/periodic_telemetry.h **** #define PERIOD_I2C_ERRORS_Main_0 (4.1)
 190:/home/lsk/paparazzi/var/aircrafts/kroozsd_lsk/ap/generated/periodic_telemetry.h **** #define PERIOD_UART_ERRORS_Main_0 (3.1)
 191:/home/lsk/paparazzi/var/aircrafts/kroozsd_lsk/ap/generated/periodic_telemetry.h **** #define PERIOD_SUPERBITRF_Main_0 (3)
 192:/home/lsk/paparazzi/var/aircrafts/kroozsd_lsk/ap/generated/periodic_telemetry.h **** #define PERIOD_ENERGY_Main_0 (2.5)
 193:/home/lsk/paparazzi/var/aircrafts/kroozsd_lsk/ap/generated/periodic_telemetry.h **** #define PERIOD_DATALINK_REPORT_Main_0 (5.1)
 194:/home/lsk/paparazzi/var/aircrafts/kroozsd_lsk/ap/generated/periodic_telemetry.h **** #define PERIOD_STATE_FILTER_STATUS_Main_0 (3.2)
 195:/home/lsk/paparazzi/var/aircrafts/kroozsd_lsk/ap/generated/periodic_telemetry.h **** #define PERIOD_AIR_DATA_Main_0 (1.3)
 196:/home/lsk/paparazzi/var/aircrafts/kroozsd_lsk/ap/generated/periodic_telemetry.h **** #define PERIOD_SURVEY_Main_0 (2.5)
 197:/home/lsk/paparazzi/var/aircrafts/kroozsd_lsk/ap/generated/periodic_telemetry.h **** #define TELEMETRY_MODE_Main_ppm 1
 198:/home/lsk/paparazzi/var/aircrafts/kroozsd_lsk/ap/generated/periodic_telemetry.h **** #define PERIOD_DL_VALUE_Main_1 (0.5)
 199:/home/lsk/paparazzi/var/aircrafts/kroozsd_lsk/ap/generated/periodic_telemetry.h **** #define PERIOD_ALIVE_Main_1 (2.1)
 200:/home/lsk/paparazzi/var/aircrafts/kroozsd_lsk/ap/generated/periodic_telemetry.h **** #define PERIOD_ROTORCRAFT_CMD_Main_1 (.05)
 201:/home/lsk/paparazzi/var/aircrafts/kroozsd_lsk/ap/generated/periodic_telemetry.h **** #define PERIOD_PPM_Main_1 (0.5)
 202:/home/lsk/paparazzi/var/aircrafts/kroozsd_lsk/ap/generated/periodic_telemetry.h **** #define PERIOD_RC_Main_1 (0.5)
 203:/home/lsk/paparazzi/var/aircrafts/kroozsd_lsk/ap/generated/periodic_telemetry.h **** #define PERIOD_ROTORCRAFT_RADIO_CONTROL_Main_1 (0.5)
 204:/home/lsk/paparazzi/var/aircrafts/kroozsd_lsk/ap/generated/periodic_telemetry.h **** #define PERIOD_ROTORCRAFT_STATUS_Main_1 (1)
 205:/home/lsk/paparazzi/var/aircrafts/kroozsd_lsk/ap/generated/periodic_telemetry.h **** #define PERIOD_ACTUATORS_BEBOP_Main_1 (0.2)
 206:/home/lsk/paparazzi/var/aircrafts/kroozsd_lsk/ap/generated/periodic_telemetry.h **** #define TELEMETRY_MODE_Main_raw_sensors 2
 207:/home/lsk/paparazzi/var/aircrafts/kroozsd_lsk/ap/generated/periodic_telemetry.h **** #define PERIOD_ROTORCRAFT_STATUS_Main_2 (1.2)
 208:/home/lsk/paparazzi/var/aircrafts/kroozsd_lsk/ap/generated/periodic_telemetry.h **** #define PERIOD_DL_VALUE_Main_2 (0.5)
 209:/home/lsk/paparazzi/var/aircrafts/kroozsd_lsk/ap/generated/periodic_telemetry.h **** #define PERIOD_ALIVE_Main_2 (2.1)
 210:/home/lsk/paparazzi/var/aircrafts/kroozsd_lsk/ap/generated/periodic_telemetry.h **** #define PERIOD_IMU_ACCEL_RAW_Main_2 (.05)
 211:/home/lsk/paparazzi/var/aircrafts/kroozsd_lsk/ap/generated/periodic_telemetry.h **** #define PERIOD_IMU_GYRO_RAW_Main_2 (.05)
 212:/home/lsk/paparazzi/var/aircrafts/kroozsd_lsk/ap/generated/periodic_telemetry.h **** #define PERIOD_IMU_MAG_RAW_Main_2 (.05)
 213:/home/lsk/paparazzi/var/aircrafts/kroozsd_lsk/ap/generated/periodic_telemetry.h **** #define PERIOD_BARO_RAW_Main_2 (.1)
 214:/home/lsk/paparazzi/var/aircrafts/kroozsd_lsk/ap/generated/periodic_telemetry.h **** #define TELEMETRY_MODE_Main_scaled_sensors 3
 215:/home/lsk/paparazzi/var/aircrafts/kroozsd_lsk/ap/generated/periodic_telemetry.h **** #define PERIOD_ROTORCRAFT_STATUS_Main_3 (1.2)
 216:/home/lsk/paparazzi/var/aircrafts/kroozsd_lsk/ap/generated/periodic_telemetry.h **** #define PERIOD_DL_VALUE_Main_3 (0.5)
 217:/home/lsk/paparazzi/var/aircrafts/kroozsd_lsk/ap/generated/periodic_telemetry.h **** #define PERIOD_ALIVE_Main_3 (2.1)
 218:/home/lsk/paparazzi/var/aircrafts/kroozsd_lsk/ap/generated/periodic_telemetry.h **** #define PERIOD_IMU_GYRO_SCALED_Main_3 (.075)
 219:/home/lsk/paparazzi/var/aircrafts/kroozsd_lsk/ap/generated/periodic_telemetry.h **** #define PERIOD_IMU_ACCEL_SCALED_Main_3 (.075)
 220:/home/lsk/paparazzi/var/aircrafts/kroozsd_lsk/ap/generated/periodic_telemetry.h **** #define PERIOD_IMU_MAG_SCALED_Main_3 (.1)
 221:/home/lsk/paparazzi/var/aircrafts/kroozsd_lsk/ap/generated/periodic_telemetry.h **** #define TELEMETRY_MODE_Main_ahrs 4
 222:/home/lsk/paparazzi/var/aircrafts/kroozsd_lsk/ap/generated/periodic_telemetry.h **** #define PERIOD_ROTORCRAFT_STATUS_Main_4 (1.2)
 223:/home/lsk/paparazzi/var/aircrafts/kroozsd_lsk/ap/generated/periodic_telemetry.h **** #define PERIOD_DL_VALUE_Main_4 (0.5)
 224:/home/lsk/paparazzi/var/aircrafts/kroozsd_lsk/ap/generated/periodic_telemetry.h **** #define PERIOD_ALIVE_Main_4 (2.1)
 225:/home/lsk/paparazzi/var/aircrafts/kroozsd_lsk/ap/generated/periodic_telemetry.h **** #define PERIOD_FILTER_ALIGNER_Main_4 (2.2)
 226:/home/lsk/paparazzi/var/aircrafts/kroozsd_lsk/ap/generated/periodic_telemetry.h **** #define PERIOD_FILTER_Main_4 (.5)
 227:/home/lsk/paparazzi/var/aircrafts/kroozsd_lsk/ap/generated/periodic_telemetry.h **** #define PERIOD_GEO_MAG_Main_4 (5.)
 228:/home/lsk/paparazzi/var/aircrafts/kroozsd_lsk/ap/generated/periodic_telemetry.h **** #define PERIOD_AHRS_GYRO_BIAS_INT_Main_4 (0.08)
 229:/home/lsk/paparazzi/var/aircrafts/kroozsd_lsk/ap/generated/periodic_telemetry.h **** #define PERIOD_AHRS_QUAT_INT_Main_4 (.25)
 230:/home/lsk/paparazzi/var/aircrafts/kroozsd_lsk/ap/generated/periodic_telemetry.h **** #define PERIOD_AHRS_EULER_INT_Main_4 (.1)
 231:/home/lsk/paparazzi/var/aircrafts/kroozsd_lsk/ap/generated/periodic_telemetry.h **** #define TELEMETRY_MODE_Main_rate_loop 5
 232:/home/lsk/paparazzi/var/aircrafts/kroozsd_lsk/ap/generated/periodic_telemetry.h **** #define PERIOD_ROTORCRAFT_STATUS_Main_5 (1.2)
 233:/home/lsk/paparazzi/var/aircrafts/kroozsd_lsk/ap/generated/periodic_telemetry.h **** #define PERIOD_DL_VALUE_Main_5 (0.5)
 234:/home/lsk/paparazzi/var/aircrafts/kroozsd_lsk/ap/generated/periodic_telemetry.h **** #define PERIOD_ALIVE_Main_5 (2.1)
 235:/home/lsk/paparazzi/var/aircrafts/kroozsd_lsk/ap/generated/periodic_telemetry.h **** #define PERIOD_RATE_LOOP_Main_5 (.02)
 236:/home/lsk/paparazzi/var/aircrafts/kroozsd_lsk/ap/generated/periodic_telemetry.h **** #define TELEMETRY_MODE_Main_attitude_setpoint_viz 6
 237:/home/lsk/paparazzi/var/aircrafts/kroozsd_lsk/ap/generated/periodic_telemetry.h **** #define PERIOD_ROTORCRAFT_STATUS_Main_6 (1.2)
 238:/home/lsk/paparazzi/var/aircrafts/kroozsd_lsk/ap/generated/periodic_telemetry.h **** #define PERIOD_DL_VALUE_Main_6 (0.5)
 239:/home/lsk/paparazzi/var/aircrafts/kroozsd_lsk/ap/generated/periodic_telemetry.h **** #define PERIOD_ALIVE_Main_6 (0.9)
 240:/home/lsk/paparazzi/var/aircrafts/kroozsd_lsk/ap/generated/periodic_telemetry.h **** #define PERIOD_ROTORCRAFT_RADIO_CONTROL_Main_6 (0.1)
 241:/home/lsk/paparazzi/var/aircrafts/kroozsd_lsk/ap/generated/periodic_telemetry.h **** #define PERIOD_AHRS_REF_QUAT_Main_6 (0.05)
 242:/home/lsk/paparazzi/var/aircrafts/kroozsd_lsk/ap/generated/periodic_telemetry.h **** #define TELEMETRY_MODE_Main_attitude_loop 7
 243:/home/lsk/paparazzi/var/aircrafts/kroozsd_lsk/ap/generated/periodic_telemetry.h **** #define PERIOD_ROTORCRAFT_STATUS_Main_7 (1.2)
 244:/home/lsk/paparazzi/var/aircrafts/kroozsd_lsk/ap/generated/periodic_telemetry.h **** #define PERIOD_DL_VALUE_Main_7 (0.5)
 245:/home/lsk/paparazzi/var/aircrafts/kroozsd_lsk/ap/generated/periodic_telemetry.h **** #define PERIOD_ALIVE_Main_7 (0.9)
 246:/home/lsk/paparazzi/var/aircrafts/kroozsd_lsk/ap/generated/periodic_telemetry.h **** #define PERIOD_STAB_ATTITUDE_Main_7 (.03)
 247:/home/lsk/paparazzi/var/aircrafts/kroozsd_lsk/ap/generated/periodic_telemetry.h **** #define PERIOD_STAB_ATTITUDE_REF_Main_7 (.03)
 248:/home/lsk/paparazzi/var/aircrafts/kroozsd_lsk/ap/generated/periodic_telemetry.h **** #define TELEMETRY_MODE_Main_vert_loop 8
 249:/home/lsk/paparazzi/var/aircrafts/kroozsd_lsk/ap/generated/periodic_telemetry.h **** #define PERIOD_ROTORCRAFT_STATUS_Main_8 (1.2)
 250:/home/lsk/paparazzi/var/aircrafts/kroozsd_lsk/ap/generated/periodic_telemetry.h **** #define PERIOD_DL_VALUE_Main_8 (0.5)
 251:/home/lsk/paparazzi/var/aircrafts/kroozsd_lsk/ap/generated/periodic_telemetry.h **** #define PERIOD_ALIVE_Main_8 (0.9)
 252:/home/lsk/paparazzi/var/aircrafts/kroozsd_lsk/ap/generated/periodic_telemetry.h **** #define PERIOD_VFF_Main_8 (.05)
 253:/home/lsk/paparazzi/var/aircrafts/kroozsd_lsk/ap/generated/periodic_telemetry.h **** #define PERIOD_VFF_EXTENDED_Main_8 (.05)
 254:/home/lsk/paparazzi/var/aircrafts/kroozsd_lsk/ap/generated/periodic_telemetry.h **** #define PERIOD_VERT_LOOP_Main_8 (.05)
 255:/home/lsk/paparazzi/var/aircrafts/kroozsd_lsk/ap/generated/periodic_telemetry.h **** #define PERIOD_INS_Main_8 (.05)
 256:/home/lsk/paparazzi/var/aircrafts/kroozsd_lsk/ap/generated/periodic_telemetry.h **** #define PERIOD_INS_REF_Main_8 (5.1)
 257:/home/lsk/paparazzi/var/aircrafts/kroozsd_lsk/ap/generated/periodic_telemetry.h **** #define TELEMETRY_MODE_Main_h_loop 9
 258:/home/lsk/paparazzi/var/aircrafts/kroozsd_lsk/ap/generated/periodic_telemetry.h **** #define PERIOD_ALIVE_Main_9 (0.9)
 259:/home/lsk/paparazzi/var/aircrafts/kroozsd_lsk/ap/generated/periodic_telemetry.h **** #define PERIOD_HOVER_LOOP_Main_9 (0.062)
 260:/home/lsk/paparazzi/var/aircrafts/kroozsd_lsk/ap/generated/periodic_telemetry.h **** #define PERIOD_GUIDANCE_H_REF_Main_9 (0.062)
 261:/home/lsk/paparazzi/var/aircrafts/kroozsd_lsk/ap/generated/periodic_telemetry.h **** #define PERIOD_STAB_ATTITUDE_Main_9 (0.4)
 262:/home/lsk/paparazzi/var/aircrafts/kroozsd_lsk/ap/generated/periodic_telemetry.h **** #define PERIOD_ROTORCRAFT_FP_Main_9 (0.8)
 263:/home/lsk/paparazzi/var/aircrafts/kroozsd_lsk/ap/generated/periodic_telemetry.h **** #define PERIOD_ROTORCRAFT_STATUS_Main_9 (1.2)
 264:/home/lsk/paparazzi/var/aircrafts/kroozsd_lsk/ap/generated/periodic_telemetry.h **** #define PERIOD_ROTORCRAFT_NAV_STATUS_Main_9 (1.6)
 265:/home/lsk/paparazzi/var/aircrafts/kroozsd_lsk/ap/generated/periodic_telemetry.h **** #define PERIOD_INS_REF_Main_9 (5.1)
 266:/home/lsk/paparazzi/var/aircrafts/kroozsd_lsk/ap/generated/periodic_telemetry.h **** #define PERIOD_HFF_Main_9 (.05)
 267:/home/lsk/paparazzi/var/aircrafts/kroozsd_lsk/ap/generated/periodic_telemetry.h **** #define PERIOD_HFF_GPS_Main_9 (.03)
 268:/home/lsk/paparazzi/var/aircrafts/kroozsd_lsk/ap/generated/periodic_telemetry.h **** #define PERIOD_HFF_DBG_Main_9 (.2)
 269:/home/lsk/paparazzi/var/aircrafts/kroozsd_lsk/ap/generated/periodic_telemetry.h **** #define TELEMETRY_MODE_Main_aligner 10
 270:/home/lsk/paparazzi/var/aircrafts/kroozsd_lsk/ap/generated/periodic_telemetry.h **** #define PERIOD_ALIVE_Main_10 (0.9)
 271:/home/lsk/paparazzi/var/aircrafts/kroozsd_lsk/ap/generated/periodic_telemetry.h **** #define PERIOD_FILTER_ALIGNER_Main_10 (0.02)
 272:/home/lsk/paparazzi/var/aircrafts/kroozsd_lsk/ap/generated/periodic_telemetry.h **** #define TELEMETRY_MODE_Main_tune_hover 11
 273:/home/lsk/paparazzi/var/aircrafts/kroozsd_lsk/ap/generated/periodic_telemetry.h **** #define PERIOD_DL_VALUE_Main_11 (1.1)
 274:/home/lsk/paparazzi/var/aircrafts/kroozsd_lsk/ap/generated/periodic_telemetry.h **** #define PERIOD_ROTORCRAFT_STATUS_Main_11 (1.2)
 275:/home/lsk/paparazzi/var/aircrafts/kroozsd_lsk/ap/generated/periodic_telemetry.h **** #define PERIOD_ALIVE_Main_11 (2.1)
 276:/home/lsk/paparazzi/var/aircrafts/kroozsd_lsk/ap/generated/periodic_telemetry.h **** #define PERIOD_GUIDANCE_H_INT_Main_11 (0.05)
 277:/home/lsk/paparazzi/var/aircrafts/kroozsd_lsk/ap/generated/periodic_telemetry.h **** #define PERIOD_ROTORCRAFT_TUNE_HOVER_Main_11 (.1)
 278:/home/lsk/paparazzi/var/aircrafts/kroozsd_lsk/ap/generated/periodic_telemetry.h **** #define PERIOD_INS_REF_Main_11 (5.1)
 279:/home/lsk/paparazzi/var/aircrafts/kroozsd_lsk/ap/generated/periodic_telemetry.h **** 
 280:/home/lsk/paparazzi/var/aircrafts/kroozsd_lsk/ap/generated/periodic_telemetry.h **** /* Functions for Main process */
 281:/home/lsk/paparazzi/var/aircrafts/kroozsd_lsk/ap/generated/periodic_telemetry.h **** #ifdef PERIODIC_C_MAIN
 282:/home/lsk/paparazzi/var/aircrafts/kroozsd_lsk/ap/generated/periodic_telemetry.h **** #ifndef TELEMETRY_MODE_MAIN
 283:/home/lsk/paparazzi/var/aircrafts/kroozsd_lsk/ap/generated/periodic_telemetry.h **** #define TELEMETRY_MODE_MAIN 0
 284:/home/lsk/paparazzi/var/aircrafts/kroozsd_lsk/ap/generated/periodic_telemetry.h **** #endif
 285:/home/lsk/paparazzi/var/aircrafts/kroozsd_lsk/ap/generated/periodic_telemetry.h **** uint8_t telemetry_mode_Main = TELEMETRY_MODE_MAIN;
 286:/home/lsk/paparazzi/var/aircrafts/kroozsd_lsk/ap/generated/periodic_telemetry.h **** #else /* PERIODIC_C_MAIN not defined (general header) */
 287:/home/lsk/paparazzi/var/aircrafts/kroozsd_lsk/ap/generated/periodic_telemetry.h **** extern uint8_t telemetry_mode_Main;
 288:/home/lsk/paparazzi/var/aircrafts/kroozsd_lsk/ap/generated/periodic_telemetry.h **** #endif /* PERIODIC_C_MAIN */
 289:/home/lsk/paparazzi/var/aircrafts/kroozsd_lsk/ap/generated/periodic_telemetry.h **** static inline void periodic_telemetry_send_Main(struct periodic_telemetry *telemetry, struct transp
 290:/home/lsk/paparazzi/var/aircrafts/kroozsd_lsk/ap/generated/periodic_telemetry.h ****   if (telemetry_mode_Main == TELEMETRY_MODE_Main_default) {
 874              		.loc 9 290 0
 875 0486 5C4C     		ldr	r4, .L775+56
 876 0488 2378     		ldrb	r3, [r4]	@ zero_extendqisi2
 877 048a 002B     		cmp	r3, #0
 878 048c 40F08881 		bne	.L47
 879              	.LBB152:
 291:/home/lsk/paparazzi/var/aircrafts/kroozsd_lsk/ap/generated/periodic_telemetry.h ****     static uint8_t i128 = 0; i128++; if (i128>=128) i128=0;
 880              		.loc 9 291 0
 881 0490 5A4E     		ldr	r6, .L775+60
 292:/home/lsk/paparazzi/var/aircrafts/kroozsd_lsk/ap/generated/periodic_telemetry.h ****     static uint16_t i512 = 0; i512++; if (i512>=512) i512=0;
 293:/home/lsk/paparazzi/var/aircrafts/kroozsd_lsk/ap/generated/periodic_telemetry.h ****     static uint16_t i563 = 0; i563++; if (i563>=563) i563=0;
 294:/home/lsk/paparazzi/var/aircrafts/kroozsd_lsk/ap/generated/periodic_telemetry.h ****     static uint16_t i614 = 0; i614++; if (i614>=614) i614=0;
 295:/home/lsk/paparazzi/var/aircrafts/kroozsd_lsk/ap/generated/periodic_telemetry.h ****     static uint16_t i665 = 0; i665++; if (i665>=665) i665=0;
 296:/home/lsk/paparazzi/var/aircrafts/kroozsd_lsk/ap/generated/periodic_telemetry.h ****     static uint16_t i819 = 0; i819++; if (i819>=819) i819=0;
 297:/home/lsk/paparazzi/var/aircrafts/kroozsd_lsk/ap/generated/periodic_telemetry.h ****     static uint16_t i1075 = 0; i1075++; if (i1075>=1075) i1075=0;
 298:/home/lsk/paparazzi/var/aircrafts/kroozsd_lsk/ap/generated/periodic_telemetry.h ****     static uint16_t i1280 = 0; i1280++; if (i1280>=1280) i1280=0;
 299:/home/lsk/paparazzi/var/aircrafts/kroozsd_lsk/ap/generated/periodic_telemetry.h ****     static uint16_t i1536 = 0; i1536++; if (i1536>=1536) i1536=0;
 300:/home/lsk/paparazzi/var/aircrafts/kroozsd_lsk/ap/generated/periodic_telemetry.h ****     static uint16_t i1587 = 0; i1587++; if (i1587>=1587) i1587=0;
 301:/home/lsk/paparazzi/var/aircrafts/kroozsd_lsk/ap/generated/periodic_telemetry.h ****     static uint16_t i1638 = 0; i1638++; if (i1638>=1638) i1638=0;
 302:/home/lsk/paparazzi/var/aircrafts/kroozsd_lsk/ap/generated/periodic_telemetry.h ****     static uint16_t i2099 = 0; i2099++; if (i2099>=2099) i2099=0;
 303:/home/lsk/paparazzi/var/aircrafts/kroozsd_lsk/ap/generated/periodic_telemetry.h ****     static uint16_t i2611 = 0; i2611++; if (i2611>=2611) i2611=0;
 882              		.loc 9 303 0
 883 0492 5B4F     		ldr	r7, .L775+64
 291:/home/lsk/paparazzi/var/aircrafts/kroozsd_lsk/ap/generated/periodic_telemetry.h ****     static uint8_t i128 = 0; i128++; if (i128>=128) i128=0;
 884              		.loc 9 291 0
 885 0494 3278     		ldrb	r2, [r6]	@ zero_extendqisi2
 886 0496 0132     		adds	r2, r2, #1
 887 0498 D2B2     		uxtb	r2, r2
 888 049a 1006     		lsls	r0, r2, #24
 889 049c 48BF     		it	mi
 890 049e 3370     		strbmi	r3, [r6]
 292:/home/lsk/paparazzi/var/aircrafts/kroozsd_lsk/ap/generated/periodic_telemetry.h ****     static uint16_t i512 = 0; i512++; if (i512>=512) i512=0;
 891              		.loc 9 292 0
 892 04a0 584B     		ldr	r3, .L775+68
 291:/home/lsk/paparazzi/var/aircrafts/kroozsd_lsk/ap/generated/periodic_telemetry.h ****     static uint8_t i128 = 0; i128++; if (i128>=128) i128=0;
 893              		.loc 9 291 0
 894 04a2 58BF     		it	pl
 895 04a4 3270     		strbpl	r2, [r6]
 292:/home/lsk/paparazzi/var/aircrafts/kroozsd_lsk/ap/generated/periodic_telemetry.h ****     static uint16_t i512 = 0; i512++; if (i512>=512) i512=0;
 896              		.loc 9 292 0
 897 04a6 1A88     		ldrh	r2, [r3]
 898 04a8 0132     		adds	r2, r2, #1
 899 04aa 92B2     		uxth	r2, r2
 900 04ac B2F5007F 		cmp	r2, #512
 901 04b0 28BF     		it	cs
 902 04b2 0022     		movcs	r2, #0
 903 04b4 1A80     		strh	r2, [r3]	@ movhi
 293:/home/lsk/paparazzi/var/aircrafts/kroozsd_lsk/ap/generated/periodic_telemetry.h ****     static uint16_t i563 = 0; i563++; if (i563>=563) i563=0;
 904              		.loc 9 293 0
 905 04b6 544B     		ldr	r3, .L775+72
 906 04b8 1A88     		ldrh	r2, [r3]
 907 04ba 0132     		adds	r2, r2, #1
 908 04bc 92B2     		uxth	r2, r2
 909 04be 40F23221 		movw	r1, #562
 910 04c2 8A42     		cmp	r2, r1
 911 04c4 88BF     		it	hi
 912 04c6 0022     		movhi	r2, #0
 913 04c8 1A80     		strh	r2, [r3]	@ movhi
 294:/home/lsk/paparazzi/var/aircrafts/kroozsd_lsk/ap/generated/periodic_telemetry.h ****     static uint16_t i614 = 0; i614++; if (i614>=614) i614=0;
 914              		.loc 9 294 0
 915 04ca 504B     		ldr	r3, .L775+76
 916 04cc 1A88     		ldrh	r2, [r3]
 917 04ce 0132     		adds	r2, r2, #1
 918 04d0 92B2     		uxth	r2, r2
 919 04d2 40F26521 		movw	r1, #613
 920 04d6 8A42     		cmp	r2, r1
 921 04d8 88BF     		it	hi
 922 04da 0022     		movhi	r2, #0
 923 04dc 1A80     		strh	r2, [r3]	@ movhi
 295:/home/lsk/paparazzi/var/aircrafts/kroozsd_lsk/ap/generated/periodic_telemetry.h ****     static uint16_t i665 = 0; i665++; if (i665>=665) i665=0;
 924              		.loc 9 295 0
 925 04de 4C4B     		ldr	r3, .L775+80
 926 04e0 1A88     		ldrh	r2, [r3]
 927 04e2 0132     		adds	r2, r2, #1
 928 04e4 92B2     		uxth	r2, r2
 929 04e6 B2F5267F 		cmp	r2, #664
 930 04ea 88BF     		it	hi
 931 04ec 0022     		movhi	r2, #0
 932 04ee 1A80     		strh	r2, [r3]	@ movhi
 296:/home/lsk/paparazzi/var/aircrafts/kroozsd_lsk/ap/generated/periodic_telemetry.h ****     static uint16_t i819 = 0; i819++; if (i819>=819) i819=0;
 933              		.loc 9 296 0
 934 04f0 484B     		ldr	r3, .L775+84
 935 04f2 1A88     		ldrh	r2, [r3]
 936 04f4 0132     		adds	r2, r2, #1
 937 04f6 92B2     		uxth	r2, r2
 938 04f8 40F23231 		movw	r1, #818
 939 04fc 8A42     		cmp	r2, r1
 940 04fe 88BF     		it	hi
 941 0500 0022     		movhi	r2, #0
 942 0502 1A80     		strh	r2, [r3]	@ movhi
 297:/home/lsk/paparazzi/var/aircrafts/kroozsd_lsk/ap/generated/periodic_telemetry.h ****     static uint16_t i1075 = 0; i1075++; if (i1075>=1075) i1075=0;
 943              		.loc 9 297 0
 944 0504 444B     		ldr	r3, .L775+88
 945 0506 1A88     		ldrh	r2, [r3]
 946 0508 0132     		adds	r2, r2, #1
 947 050a 92B2     		uxth	r2, r2
 948 050c 40F23241 		movw	r1, #1074
 949 0510 8A42     		cmp	r2, r1
 950 0512 88BF     		it	hi
 951 0514 0022     		movhi	r2, #0
 952 0516 1A80     		strh	r2, [r3]	@ movhi
 298:/home/lsk/paparazzi/var/aircrafts/kroozsd_lsk/ap/generated/periodic_telemetry.h ****     static uint16_t i1280 = 0; i1280++; if (i1280>=1280) i1280=0;
 953              		.loc 9 298 0
 954 0518 404B     		ldr	r3, .L775+92
 955 051a 1A88     		ldrh	r2, [r3]
 956 051c 0132     		adds	r2, r2, #1
 957 051e 92B2     		uxth	r2, r2
 958 0520 B2F5A06F 		cmp	r2, #1280
 959 0524 28BF     		it	cs
 960 0526 0022     		movcs	r2, #0
 961 0528 1A80     		strh	r2, [r3]	@ movhi
 299:/home/lsk/paparazzi/var/aircrafts/kroozsd_lsk/ap/generated/periodic_telemetry.h ****     static uint16_t i1536 = 0; i1536++; if (i1536>=1536) i1536=0;
 962              		.loc 9 299 0
 963 052a 3D4B     		ldr	r3, .L775+96
 964 052c 1A88     		ldrh	r2, [r3]
 965 052e 0132     		adds	r2, r2, #1
 966 0530 92B2     		uxth	r2, r2
 967 0532 B2F5C06F 		cmp	r2, #1536
 968 0536 28BF     		it	cs
 969 0538 0022     		movcs	r2, #0
 970 053a 1A80     		strh	r2, [r3]	@ movhi
 300:/home/lsk/paparazzi/var/aircrafts/kroozsd_lsk/ap/generated/periodic_telemetry.h ****     static uint16_t i1587 = 0; i1587++; if (i1587>=1587) i1587=0;
 971              		.loc 9 300 0
 972 053c 394B     		ldr	r3, .L775+100
 973 053e 1A88     		ldrh	r2, [r3]
 974 0540 0132     		adds	r2, r2, #1
 975 0542 92B2     		uxth	r2, r2
 976 0544 40F23261 		movw	r1, #1586
 977 0548 8A42     		cmp	r2, r1
 978 054a 88BF     		it	hi
 979 054c 0022     		movhi	r2, #0
 980 054e 1A80     		strh	r2, [r3]	@ movhi
 301:/home/lsk/paparazzi/var/aircrafts/kroozsd_lsk/ap/generated/periodic_telemetry.h ****     static uint16_t i1638 = 0; i1638++; if (i1638>=1638) i1638=0;
 981              		.loc 9 301 0
 982 0550 354B     		ldr	r3, .L775+104
 983 0552 1A88     		ldrh	r2, [r3]
 984 0554 0132     		adds	r2, r2, #1
 985 0556 92B2     		uxth	r2, r2
 986 0558 40F26561 		movw	r1, #1637
 987 055c 8A42     		cmp	r2, r1
 988 055e 88BF     		it	hi
 989 0560 0022     		movhi	r2, #0
 990 0562 1A80     		strh	r2, [r3]	@ movhi
 302:/home/lsk/paparazzi/var/aircrafts/kroozsd_lsk/ap/generated/periodic_telemetry.h ****     static uint16_t i2099 = 0; i2099++; if (i2099>=2099) i2099=0;
 991              		.loc 9 302 0
 992 0564 314B     		ldr	r3, .L775+108
 993 0566 1A88     		ldrh	r2, [r3]
 994 0568 0132     		adds	r2, r2, #1
 995 056a 92B2     		uxth	r2, r2
 996 056c 40F63201 		movw	r1, #2098
 997 0570 8A42     		cmp	r2, r1
 998 0572 88BF     		it	hi
 999 0574 0022     		movhi	r2, #0
 1000 0576 1A80     		strh	r2, [r3]	@ movhi
 1001              		.loc 9 303 0
 1002 0578 3B88     		ldrh	r3, [r7]
 1003 057a 0133     		adds	r3, r3, #1
 1004 057c 9BB2     		uxth	r3, r3
 1005 057e 40F63222 		movw	r2, #2610
 1006 0582 9342     		cmp	r3, r2
 1007 0584 88BF     		it	hi
 1008 0586 0023     		movhi	r3, #0
 1009 0588 3B80     		strh	r3, [r7]	@ movhi
 304:/home/lsk/paparazzi/var/aircrafts/kroozsd_lsk/ap/generated/periodic_telemetry.h ****     static uint16_t i5683 = 0; i5683++; if (i5683>=5683) i5683=0;
 1010              		.loc 9 304 0
 1011 058a 294B     		ldr	r3, .L775+112
 1012 058c 1A88     		ldrh	r2, [r3]
 1013 058e 0132     		adds	r2, r2, #1
 1014 0590 92B2     		uxth	r2, r2
 1015 0592 41F23261 		movw	r1, #5682
 1016 0596 8A42     		cmp	r2, r1
 1017 0598 88BF     		it	hi
 1018 059a 0022     		movhi	r2, #0
 1019 059c 1A80     		strh	r2, [r3]	@ movhi
 305:/home/lsk/paparazzi/var/aircrafts/kroozsd_lsk/ap/generated/periodic_telemetry.h ****     if (i5683 == 0) {
 1020              		.loc 9 305 0
 1021 059e 1B88     		ldrh	r3, [r3]
 1022 05a0 33B9     		cbnz	r3, .L76
 306:/home/lsk/paparazzi/var/aircrafts/kroozsd_lsk/ap/generated/periodic_telemetry.h ****       if (telemetry->cbs[TELEMETRY_MSG_AUTOPILOT_VERSION_ID] != NULL)
 1023              		.loc 9 306 0
 1024 05a2 244B     		ldr	r3, .L775+116
 1025 05a4 9B68     		ldr	r3, [r3, #8]
 1026 05a6 9B6B     		ldr	r3, [r3, #56]
 1027 05a8 13B1     		cbz	r3, .L76
 307:/home/lsk/paparazzi/var/aircrafts/kroozsd_lsk/ap/generated/periodic_telemetry.h ****         telemetry->cbs[TELEMETRY_MSG_AUTOPILOT_VERSION_ID](trans, dev);
 1028              		.loc 9 307 0
 1029 05aa 1148     		ldr	r0, .L775+48
 1030              	.LVL95:
 1031 05ac 1149     		ldr	r1, .L775+52
 1032              	.LVL96:
 1033 05ae 9847     		blx	r3
 1034              	.LVL97:
 1035              	.L76:
 308:/home/lsk/paparazzi/var/aircrafts/kroozsd_lsk/ap/generated/periodic_telemetry.h **** #if USE_PERIODIC_TELEMETRY_REPORT
 309:/home/lsk/paparazzi/var/aircrafts/kroozsd_lsk/ap/generated/periodic_telemetry.h ****       else periodic_telemetry_err_report(TELEMETRY_PROCESS_Main, telemetry_mode_Main, TELEMETRY_MSG
 310:/home/lsk/paparazzi/var/aircrafts/kroozsd_lsk/ap/generated/periodic_telemetry.h **** #endif
 311:/home/lsk/paparazzi/var/aircrafts/kroozsd_lsk/ap/generated/periodic_telemetry.h ****     }
 312:/home/lsk/paparazzi/var/aircrafts/kroozsd_lsk/ap/generated/periodic_telemetry.h ****     if (i2611 == 51) {
 1036              		.loc 9 312 0
 1037 05b0 3B88     		ldrh	r3, [r7]
 1038 05b2 332B     		cmp	r3, #51
 1039 05b4 40D1     		bne	.L77
 313:/home/lsk/paparazzi/var/aircrafts/kroozsd_lsk/ap/generated/periodic_telemetry.h ****       if (telemetry->cbs[TELEMETRY_MSG_DATALINK_REPORT_ID] != NULL)
 1040              		.loc 9 313 0
 1041 05b6 1F4B     		ldr	r3, .L775+116
 1042 05b8 9B68     		ldr	r3, [r3, #8]
 1043 05ba D3F8B830 		ldr	r3, [r3, #184]
 1044 05be 41E0     		b	.L738
 1045              	.L776:
 1046              		.align	2
 1047              	.L775:
 1048 05c0 00000000 		.word	.LANCHOR9
 1049 05c4 00000000 		.word	autopilot_flight_time
 1050 05c8 00000000 		.word	datalink_time
 1051 05cc 00000000 		.word	.LANCHOR11
 1052 05d0 00000000 		.word	.LANCHOR12
 1053 05d4 00000000 		.word	.LANCHOR13
 1054 05d8 00000000 		.word	.LANCHOR0
 1055 05dc 00000000 		.word	radio_control
 1056 05e0 00000000 		.word	autopilot_mode
 1057 05e4 00000000 		.word	autopilot_motors_on
 1058 05e8 00000000 		.word	gps
 1059 05ec 00000000 		.word	.LANCHOR14
 1060 05f0 08010000 		.word	pprz_tp+264
 1061 05f4 2C010000 		.word	uart5+300
 1062 05f8 00000000 		.word	telemetry_mode_Main
 1063 05fc 00000000 		.word	.LANCHOR15
 1064 0600 00000000 		.word	.LANCHOR27
 1065 0604 00000000 		.word	.LANCHOR16
 1066 0608 00000000 		.word	.LANCHOR17
 1067 060c 00000000 		.word	.LANCHOR18
 1068 0610 00000000 		.word	.LANCHOR19
 1069 0614 00000000 		.word	.LANCHOR20
 1070 0618 00000000 		.word	.LANCHOR21
 1071 061c 00000000 		.word	.LANCHOR22
 1072 0620 00000000 		.word	.LANCHOR23
 1073 0624 00000000 		.word	.LANCHOR24
 1074 0628 00000000 		.word	.LANCHOR25
 1075 062c 00000000 		.word	.LANCHOR26
 1076 0630 00000000 		.word	.LANCHOR28
 1077 0634 00000000 		.word	pprz_telemetry
 1078              	.L77:
 314:/home/lsk/paparazzi/var/aircrafts/kroozsd_lsk/ap/generated/periodic_telemetry.h ****         telemetry->cbs[TELEMETRY_MSG_DATALINK_REPORT_ID](trans, dev);
 315:/home/lsk/paparazzi/var/aircrafts/kroozsd_lsk/ap/generated/periodic_telemetry.h **** #if USE_PERIODIC_TELEMETRY_REPORT
 316:/home/lsk/paparazzi/var/aircrafts/kroozsd_lsk/ap/generated/periodic_telemetry.h ****       else periodic_telemetry_err_report(TELEMETRY_PROCESS_Main, telemetry_mode_Main, TELEMETRY_MSG
 317:/home/lsk/paparazzi/var/aircrafts/kroozsd_lsk/ap/generated/periodic_telemetry.h **** #endif
 318:/home/lsk/paparazzi/var/aircrafts/kroozsd_lsk/ap/generated/periodic_telemetry.h ****     }
 319:/home/lsk/paparazzi/var/aircrafts/kroozsd_lsk/ap/generated/periodic_telemetry.h ****     else if (i2611 == 102) {
 1079              		.loc 9 319 0
 1080 0638 662B     		cmp	r3, #102
 1081 063a 07D1     		bne	.L78
 320:/home/lsk/paparazzi/var/aircrafts/kroozsd_lsk/ap/generated/periodic_telemetry.h ****       if (telemetry->cbs[TELEMETRY_MSG_INS_REF_ID] != NULL)
 1082              		.loc 9 320 0
 1083 063c 854B     		ldr	r3, .L777
 1084 063e 9B68     		ldr	r3, [r3, #8]
 1085 0640 D3F8C830 		ldr	r3, [r3, #200]
 1086              	.L738:
 1087 0644 13B1     		cbz	r3, .L78
 321:/home/lsk/paparazzi/var/aircrafts/kroozsd_lsk/ap/generated/periodic_telemetry.h ****         telemetry->cbs[TELEMETRY_MSG_INS_REF_ID](trans, dev);
 1088              		.loc 9 321 0
 1089 0646 8448     		ldr	r0, .L777+4
 1090              	.LVL98:
 1091 0648 8449     		ldr	r1, .L777+8
 1092              	.LVL99:
 1093 064a 9847     		blx	r3
 1094              	.LVL100:
 1095              	.L78:
 322:/home/lsk/paparazzi/var/aircrafts/kroozsd_lsk/ap/generated/periodic_telemetry.h **** #if USE_PERIODIC_TELEMETRY_REPORT
 323:/home/lsk/paparazzi/var/aircrafts/kroozsd_lsk/ap/generated/periodic_telemetry.h ****       else periodic_telemetry_err_report(TELEMETRY_PROCESS_Main, telemetry_mode_Main, TELEMETRY_MSG
 324:/home/lsk/paparazzi/var/aircrafts/kroozsd_lsk/ap/generated/periodic_telemetry.h **** #endif
 325:/home/lsk/paparazzi/var/aircrafts/kroozsd_lsk/ap/generated/periodic_telemetry.h ****     }
 326:/home/lsk/paparazzi/var/aircrafts/kroozsd_lsk/ap/generated/periodic_telemetry.h ****     if (i2099 == 153) {
 1096              		.loc 9 326 0
 1097 064c 844B     		ldr	r3, .L777+12
 1098 064e 1B88     		ldrh	r3, [r3]
 1099 0650 992B     		cmp	r3, #153
 1100 0652 06D1     		bne	.L79
 327:/home/lsk/paparazzi/var/aircrafts/kroozsd_lsk/ap/generated/periodic_telemetry.h ****       if (telemetry->cbs[TELEMETRY_MSG_I2C_ERRORS_ID] != NULL)
 1101              		.loc 9 327 0
 1102 0654 7F4B     		ldr	r3, .L777
 1103 0656 9B68     		ldr	r3, [r3, #8]
 1104 0658 DB6A     		ldr	r3, [r3, #44]
 1105 065a 13B1     		cbz	r3, .L79
 328:/home/lsk/paparazzi/var/aircrafts/kroozsd_lsk/ap/generated/periodic_telemetry.h ****         telemetry->cbs[TELEMETRY_MSG_I2C_ERRORS_ID](trans, dev);
 1106              		.loc 9 328 0
 1107 065c 7E48     		ldr	r0, .L777+4
 1108              	.LVL101:
 1109 065e 7F49     		ldr	r1, .L777+8
 1110              	.LVL102:
 1111 0660 9847     		blx	r3
 1112              	.LVL103:
 1113              	.L79:
 329:/home/lsk/paparazzi/var/aircrafts/kroozsd_lsk/ap/generated/periodic_telemetry.h **** #if USE_PERIODIC_TELEMETRY_REPORT
 330:/home/lsk/paparazzi/var/aircrafts/kroozsd_lsk/ap/generated/periodic_telemetry.h ****       else periodic_telemetry_err_report(TELEMETRY_PROCESS_Main, telemetry_mode_Main, TELEMETRY_MSG
 331:/home/lsk/paparazzi/var/aircrafts/kroozsd_lsk/ap/generated/periodic_telemetry.h **** #endif
 332:/home/lsk/paparazzi/var/aircrafts/kroozsd_lsk/ap/generated/periodic_telemetry.h ****     }
 333:/home/lsk/paparazzi/var/aircrafts/kroozsd_lsk/ap/generated/periodic_telemetry.h ****     if (i1638 == 204) {
 1114              		.loc 9 333 0
 1115 0662 804B     		ldr	r3, .L777+16
 1116 0664 1B88     		ldrh	r3, [r3]
 1117 0666 CC2B     		cmp	r3, #204
 1118 0668 06D1     		bne	.L80
 334:/home/lsk/paparazzi/var/aircrafts/kroozsd_lsk/ap/generated/periodic_telemetry.h ****       if (telemetry->cbs[TELEMETRY_MSG_STATE_FILTER_STATUS_ID] != NULL)
 1119              		.loc 9 334 0
 1120 066a 7A4B     		ldr	r3, .L777
 1121 066c 9B68     		ldr	r3, [r3, #8]
 1122 066e 5B6C     		ldr	r3, [r3, #68]
 1123 0670 13B1     		cbz	r3, .L80
 335:/home/lsk/paparazzi/var/aircrafts/kroozsd_lsk/ap/generated/periodic_telemetry.h ****         telemetry->cbs[TELEMETRY_MSG_STATE_FILTER_STATUS_ID](trans, dev);
 1124              		.loc 9 335 0
 1125 0672 7948     		ldr	r0, .L777+4
 1126              	.LVL104:
 1127 0674 7949     		ldr	r1, .L777+8
 1128              	.LVL105:
 1129 0676 9847     		blx	r3
 1130              	.LVL106:
 1131              	.L80:
 336:/home/lsk/paparazzi/var/aircrafts/kroozsd_lsk/ap/generated/periodic_telemetry.h **** #if USE_PERIODIC_TELEMETRY_REPORT
 337:/home/lsk/paparazzi/var/aircrafts/kroozsd_lsk/ap/generated/periodic_telemetry.h ****       else periodic_telemetry_err_report(TELEMETRY_PROCESS_Main, telemetry_mode_Main, TELEMETRY_MSG
 338:/home/lsk/paparazzi/var/aircrafts/kroozsd_lsk/ap/generated/periodic_telemetry.h **** #endif
 339:/home/lsk/paparazzi/var/aircrafts/kroozsd_lsk/ap/generated/periodic_telemetry.h ****     }
 340:/home/lsk/paparazzi/var/aircrafts/kroozsd_lsk/ap/generated/periodic_telemetry.h ****     if (i1587 == 255) {
 1132              		.loc 9 340 0
 1133 0678 7B4B     		ldr	r3, .L777+20
 1134 067a 1B88     		ldrh	r3, [r3]
 1135 067c FF2B     		cmp	r3, #255
 1136 067e 06D1     		bne	.L81
 341:/home/lsk/paparazzi/var/aircrafts/kroozsd_lsk/ap/generated/periodic_telemetry.h ****       if (telemetry->cbs[TELEMETRY_MSG_UART_ERRORS_ID] != NULL)
 1137              		.loc 9 341 0
 1138 0680 744B     		ldr	r3, .L777
 1139 0682 9B68     		ldr	r3, [r3, #8]
 1140 0684 9B6C     		ldr	r3, [r3, #72]
 1141 0686 13B1     		cbz	r3, .L81
 342:/home/lsk/paparazzi/var/aircrafts/kroozsd_lsk/ap/generated/periodic_telemetry.h ****         telemetry->cbs[TELEMETRY_MSG_UART_ERRORS_ID](trans, dev);
 1142              		.loc 9 342 0
 1143 0688 7348     		ldr	r0, .L777+4
 1144              	.LVL107:
 1145 068a 7449     		ldr	r1, .L777+8
 1146              	.LVL108:
 1147 068c 9847     		blx	r3
 1148              	.LVL109:
 1149              	.L81:
 343:/home/lsk/paparazzi/var/aircrafts/kroozsd_lsk/ap/generated/periodic_telemetry.h **** #if USE_PERIODIC_TELEMETRY_REPORT
 344:/home/lsk/paparazzi/var/aircrafts/kroozsd_lsk/ap/generated/periodic_telemetry.h ****       else periodic_telemetry_err_report(TELEMETRY_PROCESS_Main, telemetry_mode_Main, TELEMETRY_MSG
 345:/home/lsk/paparazzi/var/aircrafts/kroozsd_lsk/ap/generated/periodic_telemetry.h **** #endif
 346:/home/lsk/paparazzi/var/aircrafts/kroozsd_lsk/ap/generated/periodic_telemetry.h ****     }
 347:/home/lsk/paparazzi/var/aircrafts/kroozsd_lsk/ap/generated/periodic_telemetry.h ****     if (i1536 == 306) {
 1150              		.loc 9 347 0
 1151 068e 774B     		ldr	r3, .L777+24
 1152 0690 1B88     		ldrh	r3, [r3]
 1153 0692 B3F5997F 		cmp	r3, #306
 1154 0696 06D1     		bne	.L82
 348:/home/lsk/paparazzi/var/aircrafts/kroozsd_lsk/ap/generated/periodic_telemetry.h ****       if (telemetry->cbs[TELEMETRY_MSG_SUPERBITRF_ID] != NULL)
 1155              		.loc 9 348 0
 1156 0698 6E4B     		ldr	r3, .L777
 1157 069a 9B68     		ldr	r3, [r3, #8]
 1158 069c 9B6F     		ldr	r3, [r3, #120]
 1159 069e 13B1     		cbz	r3, .L82
 349:/home/lsk/paparazzi/var/aircrafts/kroozsd_lsk/ap/generated/periodic_telemetry.h ****         telemetry->cbs[TELEMETRY_MSG_SUPERBITRF_ID](trans, dev);
 1160              		.loc 9 349 0
 1161 06a0 6D48     		ldr	r0, .L777+4
 1162              	.LVL110:
 1163 06a2 6E49     		ldr	r1, .L777+8
 1164              	.LVL111:
 1165 06a4 9847     		blx	r3
 1166              	.LVL112:
 1167              	.L82:
 350:/home/lsk/paparazzi/var/aircrafts/kroozsd_lsk/ap/generated/periodic_telemetry.h **** #if USE_PERIODIC_TELEMETRY_REPORT
 351:/home/lsk/paparazzi/var/aircrafts/kroozsd_lsk/ap/generated/periodic_telemetry.h ****       else periodic_telemetry_err_report(TELEMETRY_PROCESS_Main, telemetry_mode_Main, TELEMETRY_MSG
 352:/home/lsk/paparazzi/var/aircrafts/kroozsd_lsk/ap/generated/periodic_telemetry.h **** #endif
 353:/home/lsk/paparazzi/var/aircrafts/kroozsd_lsk/ap/generated/periodic_telemetry.h ****     }
 354:/home/lsk/paparazzi/var/aircrafts/kroozsd_lsk/ap/generated/periodic_telemetry.h ****     if (i1280 == 357) {
 1168              		.loc 9 354 0
 1169 06a6 724B     		ldr	r3, .L777+28
 1170 06a8 1B88     		ldrh	r3, [r3]
 1171 06aa 40F26512 		movw	r2, #357
 1172 06ae 9342     		cmp	r3, r2
 1173 06b0 04D1     		bne	.L83
 355:/home/lsk/paparazzi/var/aircrafts/kroozsd_lsk/ap/generated/periodic_telemetry.h ****       if (telemetry->cbs[TELEMETRY_MSG_SURVEY_ID] != NULL)
 1174              		.loc 9 355 0
 1175 06b2 684B     		ldr	r3, .L777
 1176 06b4 9B68     		ldr	r3, [r3, #8]
 1177 06b6 D3F8A030 		ldr	r3, [r3, #160]
 1178 06ba 05E0     		b	.L740
 1179              	.L83:
 356:/home/lsk/paparazzi/var/aircrafts/kroozsd_lsk/ap/generated/periodic_telemetry.h ****         telemetry->cbs[TELEMETRY_MSG_SURVEY_ID](trans, dev);
 357:/home/lsk/paparazzi/var/aircrafts/kroozsd_lsk/ap/generated/periodic_telemetry.h **** #if USE_PERIODIC_TELEMETRY_REPORT
 358:/home/lsk/paparazzi/var/aircrafts/kroozsd_lsk/ap/generated/periodic_telemetry.h ****       else periodic_telemetry_err_report(TELEMETRY_PROCESS_Main, telemetry_mode_Main, TELEMETRY_MSG
 359:/home/lsk/paparazzi/var/aircrafts/kroozsd_lsk/ap/generated/periodic_telemetry.h **** #endif
 360:/home/lsk/paparazzi/var/aircrafts/kroozsd_lsk/ap/generated/periodic_telemetry.h ****     }
 361:/home/lsk/paparazzi/var/aircrafts/kroozsd_lsk/ap/generated/periodic_telemetry.h ****     else if (i1280 == 408) {
 1180              		.loc 9 361 0
 1181 06bc B3F5CC7F 		cmp	r3, #408
 1182 06c0 06D1     		bne	.L84
 362:/home/lsk/paparazzi/var/aircrafts/kroozsd_lsk/ap/generated/periodic_telemetry.h ****       if (telemetry->cbs[TELEMETRY_MSG_ENERGY_ID] != NULL)
 1183              		.loc 9 362 0
 1184 06c2 644B     		ldr	r3, .L777
 1185 06c4 9B68     		ldr	r3, [r3, #8]
 1186 06c6 1B6B     		ldr	r3, [r3, #48]
 1187              	.L740:
 1188 06c8 13B1     		cbz	r3, .L84
 363:/home/lsk/paparazzi/var/aircrafts/kroozsd_lsk/ap/generated/periodic_telemetry.h ****         telemetry->cbs[TELEMETRY_MSG_ENERGY_ID](trans, dev);
 1189              		.loc 9 363 0
 1190 06ca 6348     		ldr	r0, .L777+4
 1191              	.LVL113:
 1192 06cc 6349     		ldr	r1, .L777+8
 1193              	.LVL114:
 1194 06ce 9847     		blx	r3
 1195              	.LVL115:
 1196              	.L84:
 364:/home/lsk/paparazzi/var/aircrafts/kroozsd_lsk/ap/generated/periodic_telemetry.h **** #if USE_PERIODIC_TELEMETRY_REPORT
 365:/home/lsk/paparazzi/var/aircrafts/kroozsd_lsk/ap/generated/periodic_telemetry.h ****       else periodic_telemetry_err_report(TELEMETRY_PROCESS_Main, telemetry_mode_Main, TELEMETRY_MSG
 366:/home/lsk/paparazzi/var/aircrafts/kroozsd_lsk/ap/generated/periodic_telemetry.h **** #endif
 367:/home/lsk/paparazzi/var/aircrafts/kroozsd_lsk/ap/generated/periodic_telemetry.h ****     }
 368:/home/lsk/paparazzi/var/aircrafts/kroozsd_lsk/ap/generated/periodic_telemetry.h ****     if (i1075 == 459) {
 1197              		.loc 9 368 0
 1198 06d0 684B     		ldr	r3, .L777+32
 1199 06d2 1A88     		ldrh	r2, [r3]
 1200 06d4 40F2CB13 		movw	r3, #459
 1201 06d8 9A42     		cmp	r2, r3
 1202 06da 07D1     		bne	.L85
 369:/home/lsk/paparazzi/var/aircrafts/kroozsd_lsk/ap/generated/periodic_telemetry.h ****       if (telemetry->cbs[TELEMETRY_MSG_ALIVE_ID] != NULL)
 1203              		.loc 9 369 0
 1204 06dc 5D4B     		ldr	r3, .L777
 1205 06de 9B68     		ldr	r3, [r3, #8]
 1206 06e0 D3F8B430 		ldr	r3, [r3, #180]
 1207 06e4 13B1     		cbz	r3, .L85
 370:/home/lsk/paparazzi/var/aircrafts/kroozsd_lsk/ap/generated/periodic_telemetry.h ****         telemetry->cbs[TELEMETRY_MSG_ALIVE_ID](trans, dev);
 1208              		.loc 9 370 0
 1209 06e6 5C48     		ldr	r0, .L777+4
 1210              	.LVL116:
 1211 06e8 5C49     		ldr	r1, .L777+8
 1212              	.LVL117:
 1213 06ea 9847     		blx	r3
 1214              	.LVL118:
 1215              	.L85:
 371:/home/lsk/paparazzi/var/aircrafts/kroozsd_lsk/ap/generated/periodic_telemetry.h **** #if USE_PERIODIC_TELEMETRY_REPORT
 372:/home/lsk/paparazzi/var/aircrafts/kroozsd_lsk/ap/generated/periodic_telemetry.h ****       else periodic_telemetry_err_report(TELEMETRY_PROCESS_Main, telemetry_mode_Main, TELEMETRY_MSG
 373:/home/lsk/paparazzi/var/aircrafts/kroozsd_lsk/ap/generated/periodic_telemetry.h **** #endif
 374:/home/lsk/paparazzi/var/aircrafts/kroozsd_lsk/ap/generated/periodic_telemetry.h ****     }
 375:/home/lsk/paparazzi/var/aircrafts/kroozsd_lsk/ap/generated/periodic_telemetry.h ****     if (i819 == 510) {
 1216              		.loc 9 375 0
 1217 06ec 624B     		ldr	r3, .L777+36
 1218 06ee 1B88     		ldrh	r3, [r3]
 1219 06f0 B3F5FF7F 		cmp	r3, #510
 1220 06f4 06D1     		bne	.L86
 376:/home/lsk/paparazzi/var/aircrafts/kroozsd_lsk/ap/generated/periodic_telemetry.h ****       if (telemetry->cbs[TELEMETRY_MSG_ROTORCRAFT_NAV_STATUS_ID] != NULL)
 1221              		.loc 9 376 0
 1222 06f6 574B     		ldr	r3, .L777
 1223 06f8 9B68     		ldr	r3, [r3, #8]
 1224 06fa DB6D     		ldr	r3, [r3, #92]
 1225 06fc 13B1     		cbz	r3, .L86
 377:/home/lsk/paparazzi/var/aircrafts/kroozsd_lsk/ap/generated/periodic_telemetry.h ****         telemetry->cbs[TELEMETRY_MSG_ROTORCRAFT_NAV_STATUS_ID](trans, dev);
 1226              		.loc 9 377 0
 1227 06fe 5648     		ldr	r0, .L777+4
 1228              	.LVL119:
 1229 0700 5649     		ldr	r1, .L777+8
 1230              	.LVL120:
 1231 0702 9847     		blx	r3
 1232              	.LVL121:
 1233              	.L86:
 378:/home/lsk/paparazzi/var/aircrafts/kroozsd_lsk/ap/generated/periodic_telemetry.h **** #if USE_PERIODIC_TELEMETRY_REPORT
 379:/home/lsk/paparazzi/var/aircrafts/kroozsd_lsk/ap/generated/periodic_telemetry.h ****       else periodic_telemetry_err_report(TELEMETRY_PROCESS_Main, telemetry_mode_Main, TELEMETRY_MSG
 380:/home/lsk/paparazzi/var/aircrafts/kroozsd_lsk/ap/generated/periodic_telemetry.h **** #endif
 381:/home/lsk/paparazzi/var/aircrafts/kroozsd_lsk/ap/generated/periodic_telemetry.h ****     }
 382:/home/lsk/paparazzi/var/aircrafts/kroozsd_lsk/ap/generated/periodic_telemetry.h ****     if (i665 == 561) {
 1234              		.loc 9 382 0
 1235 0704 5D4B     		ldr	r3, .L777+40
 1236 0706 1B88     		ldrh	r3, [r3]
 1237 0708 40F23122 		movw	r2, #561
 1238 070c 9342     		cmp	r3, r2
 1239 070e 03D1     		bne	.L87
 383:/home/lsk/paparazzi/var/aircrafts/kroozsd_lsk/ap/generated/periodic_telemetry.h ****       if (telemetry->cbs[TELEMETRY_MSG_AIR_DATA_ID] != NULL)
 1240              		.loc 9 383 0
 1241 0710 504B     		ldr	r3, .L777
 1242 0712 9B68     		ldr	r3, [r3, #8]
 1243 0714 5B6A     		ldr	r3, [r3, #36]
 1244 0716 06E0     		b	.L742
 1245              	.L87:
 384:/home/lsk/paparazzi/var/aircrafts/kroozsd_lsk/ap/generated/periodic_telemetry.h ****         telemetry->cbs[TELEMETRY_MSG_AIR_DATA_ID](trans, dev);
 385:/home/lsk/paparazzi/var/aircrafts/kroozsd_lsk/ap/generated/periodic_telemetry.h **** #if USE_PERIODIC_TELEMETRY_REPORT
 386:/home/lsk/paparazzi/var/aircrafts/kroozsd_lsk/ap/generated/periodic_telemetry.h ****       else periodic_telemetry_err_report(TELEMETRY_PROCESS_Main, telemetry_mode_Main, TELEMETRY_MSG
 387:/home/lsk/paparazzi/var/aircrafts/kroozsd_lsk/ap/generated/periodic_telemetry.h **** #endif
 388:/home/lsk/paparazzi/var/aircrafts/kroozsd_lsk/ap/generated/periodic_telemetry.h ****     }
 389:/home/lsk/paparazzi/var/aircrafts/kroozsd_lsk/ap/generated/periodic_telemetry.h ****     else if (i665 == 612) {
 1246              		.loc 9 389 0
 1247 0718 B3F5197F 		cmp	r3, #612
 1248 071c 07D1     		bne	.L88
 390:/home/lsk/paparazzi/var/aircrafts/kroozsd_lsk/ap/generated/periodic_telemetry.h ****       if (telemetry->cbs[TELEMETRY_MSG_WP_MOVED_ID] != NULL)
 1249              		.loc 9 390 0
 1250 071e 4D4B     		ldr	r3, .L777
 1251 0720 9B68     		ldr	r3, [r3, #8]
 1252 0722 D3F88830 		ldr	r3, [r3, #136]
 1253              	.L742:
 1254 0726 13B1     		cbz	r3, .L88
 391:/home/lsk/paparazzi/var/aircrafts/kroozsd_lsk/ap/generated/periodic_telemetry.h ****         telemetry->cbs[TELEMETRY_MSG_WP_MOVED_ID](trans, dev);
 1255              		.loc 9 391 0
 1256 0728 4B48     		ldr	r0, .L777+4
 1257              	.LVL122:
 1258 072a 4C49     		ldr	r1, .L777+8
 1259              	.LVL123:
 1260 072c 9847     		blx	r3
 1261              	.LVL124:
 1262              	.L88:
 392:/home/lsk/paparazzi/var/aircrafts/kroozsd_lsk/ap/generated/periodic_telemetry.h **** #if USE_PERIODIC_TELEMETRY_REPORT
 393:/home/lsk/paparazzi/var/aircrafts/kroozsd_lsk/ap/generated/periodic_telemetry.h ****       else periodic_telemetry_err_report(TELEMETRY_PROCESS_Main, telemetry_mode_Main, TELEMETRY_MSG
 394:/home/lsk/paparazzi/var/aircrafts/kroozsd_lsk/ap/generated/periodic_telemetry.h **** #endif
 395:/home/lsk/paparazzi/var/aircrafts/kroozsd_lsk/ap/generated/periodic_telemetry.h ****     }
 396:/home/lsk/paparazzi/var/aircrafts/kroozsd_lsk/ap/generated/periodic_telemetry.h ****     if (i614 == 49) {
 1263              		.loc 9 396 0
 1264 072e 544B     		ldr	r3, .L777+44
 1265 0730 1B88     		ldrh	r3, [r3]
 1266 0732 312B     		cmp	r3, #49
 1267 0734 06D1     		bne	.L89
 397:/home/lsk/paparazzi/var/aircrafts/kroozsd_lsk/ap/generated/periodic_telemetry.h ****       if (telemetry->cbs[TELEMETRY_MSG_ROTORCRAFT_STATUS_ID] != NULL)
 1268              		.loc 9 397 0
 1269 0736 474B     		ldr	r3, .L777
 1270 0738 9B68     		ldr	r3, [r3, #8]
 1271 073a 5B68     		ldr	r3, [r3, #4]
 1272 073c 13B1     		cbz	r3, .L89
 398:/home/lsk/paparazzi/var/aircrafts/kroozsd_lsk/ap/generated/periodic_telemetry.h ****         telemetry->cbs[TELEMETRY_MSG_ROTORCRAFT_STATUS_ID](trans, dev);
 1273              		.loc 9 398 0
 1274 073e 4648     		ldr	r0, .L777+4
 1275              	.LVL125:
 1276 0740 4649     		ldr	r1, .L777+8
 1277              	.LVL126:
 1278 0742 9847     		blx	r3
 1279              	.LVL127:
 1280              	.L89:
 399:/home/lsk/paparazzi/var/aircrafts/kroozsd_lsk/ap/generated/periodic_telemetry.h **** #if USE_PERIODIC_TELEMETRY_REPORT
 400:/home/lsk/paparazzi/var/aircrafts/kroozsd_lsk/ap/generated/periodic_telemetry.h ****       else periodic_telemetry_err_report(TELEMETRY_PROCESS_Main, telemetry_mode_Main, TELEMETRY_MSG
 401:/home/lsk/paparazzi/var/aircrafts/kroozsd_lsk/ap/generated/periodic_telemetry.h **** #endif
 402:/home/lsk/paparazzi/var/aircrafts/kroozsd_lsk/ap/generated/periodic_telemetry.h ****     }
 403:/home/lsk/paparazzi/var/aircrafts/kroozsd_lsk/ap/generated/periodic_telemetry.h ****     if (i563 == 100) {
 1281              		.loc 9 403 0
 1282 0744 4F4B     		ldr	r3, .L777+48
 1283 0746 1B88     		ldrh	r3, [r3]
 1284 0748 642B     		cmp	r3, #100
 1285 074a 07D1     		bne	.L90
 404:/home/lsk/paparazzi/var/aircrafts/kroozsd_lsk/ap/generated/periodic_telemetry.h ****       if (telemetry->cbs[TELEMETRY_MSG_DL_VALUE_ID] != NULL)
 1286              		.loc 9 404 0
 1287 074c 414B     		ldr	r3, .L777
 1288 074e 9B68     		ldr	r3, [r3, #8]
 1289 0750 D3F8BC30 		ldr	r3, [r3, #188]
 1290 0754 13B1     		cbz	r3, .L90
 405:/home/lsk/paparazzi/var/aircrafts/kroozsd_lsk/ap/generated/periodic_telemetry.h ****         telemetry->cbs[TELEMETRY_MSG_DL_VALUE_ID](trans, dev);
 1291              		.loc 9 405 0
 1292 0756 4048     		ldr	r0, .L777+4
 1293              	.LVL128:
 1294 0758 4049     		ldr	r1, .L777+8
 1295              	.LVL129:
 1296 075a 9847     		blx	r3
 1297              	.LVL130:
 1298              	.L90:
 406:/home/lsk/paparazzi/var/aircrafts/kroozsd_lsk/ap/generated/periodic_telemetry.h **** #if USE_PERIODIC_TELEMETRY_REPORT
 407:/home/lsk/paparazzi/var/aircrafts/kroozsd_lsk/ap/generated/periodic_telemetry.h ****       else periodic_telemetry_err_report(TELEMETRY_PROCESS_Main, telemetry_mode_Main, TELEMETRY_MSG
 408:/home/lsk/paparazzi/var/aircrafts/kroozsd_lsk/ap/generated/periodic_telemetry.h **** #endif
 409:/home/lsk/paparazzi/var/aircrafts/kroozsd_lsk/ap/generated/periodic_telemetry.h ****     }
 410:/home/lsk/paparazzi/var/aircrafts/kroozsd_lsk/ap/generated/periodic_telemetry.h ****     if (i512 == 151) {
 1299              		.loc 9 410 0
 1300 075c 4A4B     		ldr	r3, .L777+52
 1301 075e 1B88     		ldrh	r3, [r3]
 1302 0760 972B     		cmp	r3, #151
 1303 0762 06D1     		bne	.L91
 411:/home/lsk/paparazzi/var/aircrafts/kroozsd_lsk/ap/generated/periodic_telemetry.h ****       if (telemetry->cbs[TELEMETRY_MSG_ROTORCRAFT_CAM_ID] != NULL)
 1304              		.loc 9 411 0
 1305 0764 3B4B     		ldr	r3, .L777
 1306 0766 9B68     		ldr	r3, [r3, #8]
 1307 0768 9B6D     		ldr	r3, [r3, #88]
 1308 076a 13B1     		cbz	r3, .L91
 412:/home/lsk/paparazzi/var/aircrafts/kroozsd_lsk/ap/generated/periodic_telemetry.h ****         telemetry->cbs[TELEMETRY_MSG_ROTORCRAFT_CAM_ID](trans, dev);
 1309              		.loc 9 412 0
 1310 076c 3A48     		ldr	r0, .L777+4
 1311              	.LVL131:
 1312 076e 3B49     		ldr	r1, .L777+8
 1313              	.LVL132:
 1314 0770 9847     		blx	r3
 1315              	.LVL133:
 1316              	.L91:
 413:/home/lsk/paparazzi/var/aircrafts/kroozsd_lsk/ap/generated/periodic_telemetry.h **** #if USE_PERIODIC_TELEMETRY_REPORT
 414:/home/lsk/paparazzi/var/aircrafts/kroozsd_lsk/ap/generated/periodic_telemetry.h ****       else periodic_telemetry_err_report(TELEMETRY_PROCESS_Main, telemetry_mode_Main, TELEMETRY_MSG
 415:/home/lsk/paparazzi/var/aircrafts/kroozsd_lsk/ap/generated/periodic_telemetry.h **** #endif
 416:/home/lsk/paparazzi/var/aircrafts/kroozsd_lsk/ap/generated/periodic_telemetry.h ****     }
 417:/home/lsk/paparazzi/var/aircrafts/kroozsd_lsk/ap/generated/periodic_telemetry.h ****     if (i128 == 74) {
 1317              		.loc 9 417 0
 1318 0772 3378     		ldrb	r3, [r6]	@ zero_extendqisi2
 1319 0774 4A2B     		cmp	r3, #74
 1320 0776 03D1     		bne	.L92
 418:/home/lsk/paparazzi/var/aircrafts/kroozsd_lsk/ap/generated/periodic_telemetry.h ****       if (telemetry->cbs[TELEMETRY_MSG_INS_ID] != NULL)
 1321              		.loc 9 418 0
 1322 0778 364B     		ldr	r3, .L777
 1323 077a 9B68     		ldr	r3, [r3, #8]
 1324 077c 1B6D     		ldr	r3, [r3, #80]
 1325 077e 0BE0     		b	.L744
 1326              	.L92:
 419:/home/lsk/paparazzi/var/aircrafts/kroozsd_lsk/ap/generated/periodic_telemetry.h ****         telemetry->cbs[TELEMETRY_MSG_INS_ID](trans, dev);
 420:/home/lsk/paparazzi/var/aircrafts/kroozsd_lsk/ap/generated/periodic_telemetry.h **** #if USE_PERIODIC_TELEMETRY_REPORT
 421:/home/lsk/paparazzi/var/aircrafts/kroozsd_lsk/ap/generated/periodic_telemetry.h ****       else periodic_telemetry_err_report(TELEMETRY_PROCESS_Main, telemetry_mode_Main, TELEMETRY_MSG
 422:/home/lsk/paparazzi/var/aircrafts/kroozsd_lsk/ap/generated/periodic_telemetry.h **** #endif
 423:/home/lsk/paparazzi/var/aircrafts/kroozsd_lsk/ap/generated/periodic_telemetry.h ****     }
 424:/home/lsk/paparazzi/var/aircrafts/kroozsd_lsk/ap/generated/periodic_telemetry.h ****     else if (i128 == 125) {
 1327              		.loc 9 424 0
 1328 0780 7D2B     		cmp	r3, #125
 1329 0782 04D1     		bne	.L94
 425:/home/lsk/paparazzi/var/aircrafts/kroozsd_lsk/ap/generated/periodic_telemetry.h ****       if (telemetry->cbs[TELEMETRY_MSG_GPS_INT_ID] != NULL)
 1330              		.loc 9 425 0
 1331 0784 334B     		ldr	r3, .L777
 1332 0786 9B68     		ldr	r3, [r3, #8]
 1333 0788 D3F89C30 		ldr	r3, [r3, #156]
 1334 078c 04E0     		b	.L744
 1335              	.L94:
 426:/home/lsk/paparazzi/var/aircrafts/kroozsd_lsk/ap/generated/periodic_telemetry.h ****         telemetry->cbs[TELEMETRY_MSG_GPS_INT_ID](trans, dev);
 427:/home/lsk/paparazzi/var/aircrafts/kroozsd_lsk/ap/generated/periodic_telemetry.h **** #if USE_PERIODIC_TELEMETRY_REPORT
 428:/home/lsk/paparazzi/var/aircrafts/kroozsd_lsk/ap/generated/periodic_telemetry.h ****       else periodic_telemetry_err_report(TELEMETRY_PROCESS_Main, telemetry_mode_Main, TELEMETRY_MSG
 429:/home/lsk/paparazzi/var/aircrafts/kroozsd_lsk/ap/generated/periodic_telemetry.h **** #endif
 430:/home/lsk/paparazzi/var/aircrafts/kroozsd_lsk/ap/generated/periodic_telemetry.h ****     }
 431:/home/lsk/paparazzi/var/aircrafts/kroozsd_lsk/ap/generated/periodic_telemetry.h ****     else if (i128 == 48) {
 1336              		.loc 9 431 0
 1337 078e 302B     		cmp	r3, #48
 1338 0790 06D1     		bne	.L47
 432:/home/lsk/paparazzi/var/aircrafts/kroozsd_lsk/ap/generated/periodic_telemetry.h ****       if (telemetry->cbs[TELEMETRY_MSG_ROTORCRAFT_FP_ID] != NULL)
 1339              		.loc 9 432 0
 1340 0792 304B     		ldr	r3, .L777
 1341 0794 9B68     		ldr	r3, [r3, #8]
 1342 0796 1B6E     		ldr	r3, [r3, #96]
 1343              	.L744:
 1344 0798 13B1     		cbz	r3, .L47
 433:/home/lsk/paparazzi/var/aircrafts/kroozsd_lsk/ap/generated/periodic_telemetry.h ****         telemetry->cbs[TELEMETRY_MSG_ROTORCRAFT_FP_ID](trans, dev);
 1345              		.loc 9 433 0
 1346 079a 2F48     		ldr	r0, .L777+4
 1347              	.LVL134:
 1348 079c 2F49     		ldr	r1, .L777+8
 1349              	.LVL135:
 1350 079e 9847     		blx	r3
 1351              	.LVL136:
 1352              	.L47:
 1353              	.LBE152:
 434:/home/lsk/paparazzi/var/aircrafts/kroozsd_lsk/ap/generated/periodic_telemetry.h **** #if USE_PERIODIC_TELEMETRY_REPORT
 435:/home/lsk/paparazzi/var/aircrafts/kroozsd_lsk/ap/generated/periodic_telemetry.h ****       else periodic_telemetry_err_report(TELEMETRY_PROCESS_Main, telemetry_mode_Main, TELEMETRY_MSG
 436:/home/lsk/paparazzi/var/aircrafts/kroozsd_lsk/ap/generated/periodic_telemetry.h **** #endif
 437:/home/lsk/paparazzi/var/aircrafts/kroozsd_lsk/ap/generated/periodic_telemetry.h ****     }
 438:/home/lsk/paparazzi/var/aircrafts/kroozsd_lsk/ap/generated/periodic_telemetry.h ****   }
 439:/home/lsk/paparazzi/var/aircrafts/kroozsd_lsk/ap/generated/periodic_telemetry.h ****   if (telemetry_mode_Main == TELEMETRY_MODE_Main_ppm) {
 1354              		.loc 9 439 0
 1355 07a0 2378     		ldrb	r3, [r4]	@ zero_extendqisi2
 1356 07a2 012B     		cmp	r3, #1
 1357 07a4 40F09B80 		bne	.L96
 1358              	.LBB153:
 440:/home/lsk/paparazzi/var/aircrafts/kroozsd_lsk/ap/generated/periodic_telemetry.h ****     static uint8_t i25 = 0; i25++; if (i25>=25) i25=0;
 1359              		.loc 9 440 0
 1360 07a8 384E     		ldr	r6, .L777+56
 441:/home/lsk/paparazzi/var/aircrafts/kroozsd_lsk/ap/generated/periodic_telemetry.h ****     static uint8_t i102 = 0; i102++; if (i102>=102) i102=0;
 1361              		.loc 9 441 0
 1362 07aa 394F     		ldr	r7, .L777+60
 440:/home/lsk/paparazzi/var/aircrafts/kroozsd_lsk/ap/generated/periodic_telemetry.h ****     static uint8_t i25 = 0; i25++; if (i25>=25) i25=0;
 1363              		.loc 9 440 0
 1364 07ac 3378     		ldrb	r3, [r6]	@ zero_extendqisi2
 1365 07ae 0133     		adds	r3, r3, #1
 1366 07b0 DBB2     		uxtb	r3, r3
 1367 07b2 182B     		cmp	r3, #24
 1368 07b4 88BF     		it	hi
 1369 07b6 0023     		movhi	r3, #0
 1370 07b8 3370     		strb	r3, [r6]
 1371              		.loc 9 441 0
 1372 07ba 3B78     		ldrb	r3, [r7]	@ zero_extendqisi2
 1373 07bc 0133     		adds	r3, r3, #1
 1374 07be DBB2     		uxtb	r3, r3
 1375 07c0 652B     		cmp	r3, #101
 1376 07c2 88BF     		it	hi
 1377 07c4 0023     		movhi	r3, #0
 1378 07c6 3B70     		strb	r3, [r7]
 442:/home/lsk/paparazzi/var/aircrafts/kroozsd_lsk/ap/generated/periodic_telemetry.h ****     static uint16_t i256 = 0; i256++; if (i256>=256) i256=0;
 1379              		.loc 9 442 0
 1380 07c8 324B     		ldr	r3, .L777+64
 1381 07ca 1A88     		ldrh	r2, [r3]
 1382 07cc 0132     		adds	r2, r2, #1
 1383 07ce 92B2     		uxth	r2, r2
 1384 07d0 FF2A     		cmp	r2, #255
 1385 07d2 88BF     		it	hi
 1386 07d4 0022     		movhi	r2, #0
 1387 07d6 1A80     		strh	r2, [r3]	@ movhi
 443:/home/lsk/paparazzi/var/aircrafts/kroozsd_lsk/ap/generated/periodic_telemetry.h ****     static uint16_t i512 = 0; i512++; if (i512>=512) i512=0;
 1388              		.loc 9 443 0
 1389 07d8 2F4B     		ldr	r3, .L777+68
 1390 07da 1A88     		ldrh	r2, [r3]
 1391 07dc 0132     		adds	r2, r2, #1
 1392 07de 92B2     		uxth	r2, r2
 1393 07e0 B2F5007F 		cmp	r2, #512
 1394 07e4 28BF     		it	cs
 1395 07e6 0022     		movcs	r2, #0
 1396 07e8 1A80     		strh	r2, [r3]	@ movhi
 444:/home/lsk/paparazzi/var/aircrafts/kroozsd_lsk/ap/generated/periodic_telemetry.h ****     static uint16_t i1075 = 0; i1075++; if (i1075>=1075) i1075=0;
 1397              		.loc 9 444 0
 1398 07ea 2C4A     		ldr	r2, .L777+72
 1399 07ec 1188     		ldrh	r1, [r2]
 1400 07ee 0131     		adds	r1, r1, #1
 1401 07f0 89B2     		uxth	r1, r1
 1402 07f2 40F23240 		movw	r0, #1074
 1403 07f6 8142     		cmp	r1, r0
 1404 07f8 88BF     		it	hi
 1405 07fa 0021     		movhi	r1, #0
 1406 07fc 1180     		strh	r1, [r2]	@ movhi
 445:/home/lsk/paparazzi/var/aircrafts/kroozsd_lsk/ap/generated/periodic_telemetry.h ****     if (i1075 == 0) {
 1407              		.loc 9 445 0
 1408 07fe 1288     		ldrh	r2, [r2]
 1409 0800 4AB9     		cbnz	r2, .L107
 446:/home/lsk/paparazzi/var/aircrafts/kroozsd_lsk/ap/generated/periodic_telemetry.h ****       if (telemetry->cbs[TELEMETRY_MSG_ALIVE_ID] != NULL)
 1410              		.loc 9 446 0
 1411 0802 144A     		ldr	r2, .L777
 1412 0804 9268     		ldr	r2, [r2, #8]
 1413 0806 D2F8B420 		ldr	r2, [r2, #180]
 1414 080a 22B1     		cbz	r2, .L107
 447:/home/lsk/paparazzi/var/aircrafts/kroozsd_lsk/ap/generated/periodic_telemetry.h ****         telemetry->cbs[TELEMETRY_MSG_ALIVE_ID](trans, dev);
 1415              		.loc 9 447 0
 1416 080c 0193     		str	r3, [sp, #4]
 1417 080e 1248     		ldr	r0, .L777+4
 1418              	.LVL137:
 1419 0810 1249     		ldr	r1, .L777+8
 1420              	.LVL138:
 1421 0812 9047     		blx	r2
 1422              	.LVL139:
 1423 0814 019B     		ldr	r3, [sp, #4]
 1424              	.L107:
 448:/home/lsk/paparazzi/var/aircrafts/kroozsd_lsk/ap/generated/periodic_telemetry.h **** #if USE_PERIODIC_TELEMETRY_REPORT
 449:/home/lsk/paparazzi/var/aircrafts/kroozsd_lsk/ap/generated/periodic_telemetry.h ****       else periodic_telemetry_err_report(TELEMETRY_PROCESS_Main, telemetry_mode_Main, TELEMETRY_MSG
 450:/home/lsk/paparazzi/var/aircrafts/kroozsd_lsk/ap/generated/periodic_telemetry.h **** #endif
 451:/home/lsk/paparazzi/var/aircrafts/kroozsd_lsk/ap/generated/periodic_telemetry.h ****     }
 452:/home/lsk/paparazzi/var/aircrafts/kroozsd_lsk/ap/generated/periodic_telemetry.h ****     if (i512 == 51) {
 1425              		.loc 9 452 0
 1426 0816 1B88     		ldrh	r3, [r3]
 1427 0818 332B     		cmp	r3, #51
 1428 081a 06D1     		bne	.L108
 453:/home/lsk/paparazzi/var/aircrafts/kroozsd_lsk/ap/generated/periodic_telemetry.h ****       if (telemetry->cbs[TELEMETRY_MSG_ROTORCRAFT_STATUS_ID] != NULL)
 1429              		.loc 9 453 0
 1430 081c 0D4B     		ldr	r3, .L777
 1431 081e 9B68     		ldr	r3, [r3, #8]
 1432 0820 5B68     		ldr	r3, [r3, #4]
 1433 0822 13B1     		cbz	r3, .L108
 454:/home/lsk/paparazzi/var/aircrafts/kroozsd_lsk/ap/generated/periodic_telemetry.h ****         telemetry->cbs[TELEMETRY_MSG_ROTORCRAFT_STATUS_ID](trans, dev);
 1434              		.loc 9 454 0
 1435 0824 0C48     		ldr	r0, .L777+4
 1436              	.LVL140:
 1437 0826 0D49     		ldr	r1, .L777+8
 1438              	.LVL141:
 1439 0828 9847     		blx	r3
 1440              	.LVL142:
 1441              	.L108:
 455:/home/lsk/paparazzi/var/aircrafts/kroozsd_lsk/ap/generated/periodic_telemetry.h **** #if USE_PERIODIC_TELEMETRY_REPORT
 456:/home/lsk/paparazzi/var/aircrafts/kroozsd_lsk/ap/generated/periodic_telemetry.h ****       else periodic_telemetry_err_report(TELEMETRY_PROCESS_Main, telemetry_mode_Main, TELEMETRY_MSG
 457:/home/lsk/paparazzi/var/aircrafts/kroozsd_lsk/ap/generated/periodic_telemetry.h **** #endif
 458:/home/lsk/paparazzi/var/aircrafts/kroozsd_lsk/ap/generated/periodic_telemetry.h ****     }
 459:/home/lsk/paparazzi/var/aircrafts/kroozsd_lsk/ap/generated/periodic_telemetry.h ****     if (i256 == 102) {
 1442              		.loc 9 459 0
 1443 082a 1A4B     		ldr	r3, .L777+64
 1444 082c 1B88     		ldrh	r3, [r3]
 1445 082e 662B     		cmp	r3, #102
 1446 0830 03D1     		bne	.L109
 460:/home/lsk/paparazzi/var/aircrafts/kroozsd_lsk/ap/generated/periodic_telemetry.h ****       if (telemetry->cbs[TELEMETRY_MSG_ROTORCRAFT_RADIO_CONTROL_ID] != NULL)
 1447              		.loc 9 460 0
 1448 0832 084B     		ldr	r3, .L777
 1449 0834 9B68     		ldr	r3, [r3, #8]
 1450 0836 1B6A     		ldr	r3, [r3, #32]
 1451 0838 38E0     		b	.L747
 1452              	.L109:
 461:/home/lsk/paparazzi/var/aircrafts/kroozsd_lsk/ap/generated/periodic_telemetry.h ****         telemetry->cbs[TELEMETRY_MSG_ROTORCRAFT_RADIO_CONTROL_ID](trans, dev);
 462:/home/lsk/paparazzi/var/aircrafts/kroozsd_lsk/ap/generated/periodic_telemetry.h **** #if USE_PERIODIC_TELEMETRY_REPORT
 463:/home/lsk/paparazzi/var/aircrafts/kroozsd_lsk/ap/generated/periodic_telemetry.h ****       else periodic_telemetry_err_report(TELEMETRY_PROCESS_Main, telemetry_mode_Main, TELEMETRY_MSG
 464:/home/lsk/paparazzi/var/aircrafts/kroozsd_lsk/ap/generated/periodic_telemetry.h **** #endif
 465:/home/lsk/paparazzi/var/aircrafts/kroozsd_lsk/ap/generated/periodic_telemetry.h ****     }
 466:/home/lsk/paparazzi/var/aircrafts/kroozsd_lsk/ap/generated/periodic_telemetry.h ****     else if (i256 == 153) {
 1453              		.loc 9 466 0
 1454 083a 992B     		cmp	r3, #153
 1455 083c 04D1     		bne	.L111
 467:/home/lsk/paparazzi/var/aircrafts/kroozsd_lsk/ap/generated/periodic_telemetry.h ****       if (telemetry->cbs[TELEMETRY_MSG_RC_ID] != NULL)
 1456              		.loc 9 467 0
 1457 083e 054B     		ldr	r3, .L777
 1458 0840 9B68     		ldr	r3, [r3, #8]
 1459 0842 D3F88030 		ldr	r3, [r3, #128]
 1460 0846 31E0     		b	.L747
 1461              	.L111:
 468:/home/lsk/paparazzi/var/aircrafts/kroozsd_lsk/ap/generated/periodic_telemetry.h ****         telemetry->cbs[TELEMETRY_MSG_RC_ID](trans, dev);
 469:/home/lsk/paparazzi/var/aircrafts/kroozsd_lsk/ap/generated/periodic_telemetry.h **** #if USE_PERIODIC_TELEMETRY_REPORT
 470:/home/lsk/paparazzi/var/aircrafts/kroozsd_lsk/ap/generated/periodic_telemetry.h ****       else periodic_telemetry_err_report(TELEMETRY_PROCESS_Main, telemetry_mode_Main, TELEMETRY_MSG
 471:/home/lsk/paparazzi/var/aircrafts/kroozsd_lsk/ap/generated/periodic_telemetry.h **** #endif
 472:/home/lsk/paparazzi/var/aircrafts/kroozsd_lsk/ap/generated/periodic_telemetry.h ****     }
 473:/home/lsk/paparazzi/var/aircrafts/kroozsd_lsk/ap/generated/periodic_telemetry.h ****     else if (i256 == 204) {
 1462              		.loc 9 473 0
 1463 0848 CC2B     		cmp	r3, #204
 1464 084a 29D1     		bne	.L112
 474:/home/lsk/paparazzi/var/aircrafts/kroozsd_lsk/ap/generated/periodic_telemetry.h ****       if (telemetry->cbs[TELEMETRY_MSG_PPM_ID] != NULL)
 1465              		.loc 9 474 0
 1466 084c 014B     		ldr	r3, .L777
 1467 084e 9B68     		ldr	r3, [r3, #8]
 1468 0850 DB69     		ldr	r3, [r3, #28]
 1469 0852 2BE0     		b	.L747
 1470              	.L778:
 1471              		.align	2
 1472              	.L777:
 1473 0854 00000000 		.word	pprz_telemetry
 1474 0858 08010000 		.word	pprz_tp+264
 1475 085c 2C010000 		.word	uart5+300
 1476 0860 00000000 		.word	.LANCHOR26
 1477 0864 00000000 		.word	.LANCHOR25
 1478 0868 00000000 		.word	.LANCHOR24
 1479 086c 00000000 		.word	.LANCHOR23
 1480 0870 00000000 		.word	.LANCHOR22
 1481 0874 00000000 		.word	.LANCHOR21
 1482 0878 00000000 		.word	.LANCHOR20
 1483 087c 00000000 		.word	.LANCHOR19
 1484 0880 00000000 		.word	.LANCHOR18
 1485 0884 00000000 		.word	.LANCHOR17
 1486 0888 00000000 		.word	.LANCHOR16
 1487 088c 00000000 		.word	.LANCHOR29
 1488 0890 00000000 		.word	.LANCHOR30
 1489 0894 00000000 		.word	.LANCHOR31
 1490 0898 00000000 		.word	.LANCHOR32
 1491 089c 00000000 		.word	.LANCHOR33
 1492              	.L112:
 475:/home/lsk/paparazzi/var/aircrafts/kroozsd_lsk/ap/generated/periodic_telemetry.h ****         telemetry->cbs[TELEMETRY_MSG_PPM_ID](trans, dev);
 476:/home/lsk/paparazzi/var/aircrafts/kroozsd_lsk/ap/generated/periodic_telemetry.h **** #if USE_PERIODIC_TELEMETRY_REPORT
 477:/home/lsk/paparazzi/var/aircrafts/kroozsd_lsk/ap/generated/periodic_telemetry.h ****       else periodic_telemetry_err_report(TELEMETRY_PROCESS_Main, telemetry_mode_Main, TELEMETRY_MSG
 478:/home/lsk/paparazzi/var/aircrafts/kroozsd_lsk/ap/generated/periodic_telemetry.h **** #endif
 479:/home/lsk/paparazzi/var/aircrafts/kroozsd_lsk/ap/generated/periodic_telemetry.h ****     }
 480:/home/lsk/paparazzi/var/aircrafts/kroozsd_lsk/ap/generated/periodic_telemetry.h ****     else if (i256 == 255) {
 1493              		.loc 9 480 0
 1494 08a0 FF2B     		cmp	r3, #255
 1495 08a2 07D1     		bne	.L110
 481:/home/lsk/paparazzi/var/aircrafts/kroozsd_lsk/ap/generated/periodic_telemetry.h ****       if (telemetry->cbs[TELEMETRY_MSG_DL_VALUE_ID] != NULL)
 1496              		.loc 9 481 0
 1497 08a4 774B     		ldr	r3, .L779
 1498 08a6 9B68     		ldr	r3, [r3, #8]
 1499 08a8 D3F8BC30 		ldr	r3, [r3, #188]
 1500              	.L747:
 1501 08ac 13B1     		cbz	r3, .L110
 482:/home/lsk/paparazzi/var/aircrafts/kroozsd_lsk/ap/generated/periodic_telemetry.h ****         telemetry->cbs[TELEMETRY_MSG_DL_VALUE_ID](trans, dev);
 1502              		.loc 9 482 0
 1503 08ae 7648     		ldr	r0, .L779+4
 1504              	.LVL143:
 1505 08b0 7649     		ldr	r1, .L779+8
 1506              	.LVL144:
 1507 08b2 9847     		blx	r3
 1508              	.LVL145:
 1509              	.L110:
 483:/home/lsk/paparazzi/var/aircrafts/kroozsd_lsk/ap/generated/periodic_telemetry.h **** #if USE_PERIODIC_TELEMETRY_REPORT
 484:/home/lsk/paparazzi/var/aircrafts/kroozsd_lsk/ap/generated/periodic_telemetry.h ****       else periodic_telemetry_err_report(TELEMETRY_PROCESS_Main, telemetry_mode_Main, TELEMETRY_MSG
 485:/home/lsk/paparazzi/var/aircrafts/kroozsd_lsk/ap/generated/periodic_telemetry.h **** #endif
 486:/home/lsk/paparazzi/var/aircrafts/kroozsd_lsk/ap/generated/periodic_telemetry.h ****     }
 487:/home/lsk/paparazzi/var/aircrafts/kroozsd_lsk/ap/generated/periodic_telemetry.h ****     if (i102 == 0) {
 1510              		.loc 9 487 0
 1511 08b4 3B78     		ldrb	r3, [r7]	@ zero_extendqisi2
 1512 08b6 3BB9     		cbnz	r3, .L113
 488:/home/lsk/paparazzi/var/aircrafts/kroozsd_lsk/ap/generated/periodic_telemetry.h ****       if (telemetry->cbs[TELEMETRY_MSG_ACTUATORS_BEBOP_ID] != NULL)
 1513              		.loc 9 488 0
 1514 08b8 724B     		ldr	r3, .L779
 1515 08ba 9B68     		ldr	r3, [r3, #8]
 1516 08bc D3F8C030 		ldr	r3, [r3, #192]
 1517 08c0 13B1     		cbz	r3, .L113
 489:/home/lsk/paparazzi/var/aircrafts/kroozsd_lsk/ap/generated/periodic_telemetry.h ****         telemetry->cbs[TELEMETRY_MSG_ACTUATORS_BEBOP_ID](trans, dev);
 1518              		.loc 9 489 0
 1519 08c2 7148     		ldr	r0, .L779+4
 1520              	.LVL146:
 1521 08c4 7149     		ldr	r1, .L779+8
 1522              	.LVL147:
 1523 08c6 9847     		blx	r3
 1524              	.LVL148:
 1525              	.L113:
 490:/home/lsk/paparazzi/var/aircrafts/kroozsd_lsk/ap/generated/periodic_telemetry.h **** #if USE_PERIODIC_TELEMETRY_REPORT
 491:/home/lsk/paparazzi/var/aircrafts/kroozsd_lsk/ap/generated/periodic_telemetry.h ****       else periodic_telemetry_err_report(TELEMETRY_PROCESS_Main, telemetry_mode_Main, TELEMETRY_MSG
 492:/home/lsk/paparazzi/var/aircrafts/kroozsd_lsk/ap/generated/periodic_telemetry.h **** #endif
 493:/home/lsk/paparazzi/var/aircrafts/kroozsd_lsk/ap/generated/periodic_telemetry.h ****     }
 494:/home/lsk/paparazzi/var/aircrafts/kroozsd_lsk/ap/generated/periodic_telemetry.h ****     if (i25 == 1) {
 1526              		.loc 9 494 0
 1527 08c8 3378     		ldrb	r3, [r6]	@ zero_extendqisi2
 1528 08ca 012B     		cmp	r3, #1
 1529 08cc 07D1     		bne	.L96
 495:/home/lsk/paparazzi/var/aircrafts/kroozsd_lsk/ap/generated/periodic_telemetry.h ****       if (telemetry->cbs[TELEMETRY_MSG_ROTORCRAFT_CMD_ID] != NULL)
 1530              		.loc 9 495 0
 1531 08ce 6D4B     		ldr	r3, .L779
 1532 08d0 9B68     		ldr	r3, [r3, #8]
 1533 08d2 D3F88430 		ldr	r3, [r3, #132]
 1534 08d6 13B1     		cbz	r3, .L96
 496:/home/lsk/paparazzi/var/aircrafts/kroozsd_lsk/ap/generated/periodic_telemetry.h ****         telemetry->cbs[TELEMETRY_MSG_ROTORCRAFT_CMD_ID](trans, dev);
 1535              		.loc 9 496 0
 1536 08d8 6B48     		ldr	r0, .L779+4
 1537              	.LVL149:
 1538 08da 6C49     		ldr	r1, .L779+8
 1539              	.LVL150:
 1540 08dc 9847     		blx	r3
 1541              	.LVL151:
 1542              	.L96:
 1543              	.LBE153:
 497:/home/lsk/paparazzi/var/aircrafts/kroozsd_lsk/ap/generated/periodic_telemetry.h **** #if USE_PERIODIC_TELEMETRY_REPORT
 498:/home/lsk/paparazzi/var/aircrafts/kroozsd_lsk/ap/generated/periodic_telemetry.h ****       else periodic_telemetry_err_report(TELEMETRY_PROCESS_Main, telemetry_mode_Main, TELEMETRY_MSG
 499:/home/lsk/paparazzi/var/aircrafts/kroozsd_lsk/ap/generated/periodic_telemetry.h **** #endif
 500:/home/lsk/paparazzi/var/aircrafts/kroozsd_lsk/ap/generated/periodic_telemetry.h ****     }
 501:/home/lsk/paparazzi/var/aircrafts/kroozsd_lsk/ap/generated/periodic_telemetry.h ****   }
 502:/home/lsk/paparazzi/var/aircrafts/kroozsd_lsk/ap/generated/periodic_telemetry.h ****   if (telemetry_mode_Main == TELEMETRY_MODE_Main_raw_sensors) {
 1544              		.loc 9 502 0
 1545 08de 2378     		ldrb	r3, [r4]	@ zero_extendqisi2
 1546 08e0 022B     		cmp	r3, #2
 1547 08e2 6DD1     		bne	.L116
 1548              	.LBB154:
 503:/home/lsk/paparazzi/var/aircrafts/kroozsd_lsk/ap/generated/periodic_telemetry.h ****     static uint8_t i25 = 0; i25++; if (i25>=25) i25=0;
 1549              		.loc 9 503 0
 1550 08e4 6A4E     		ldr	r6, .L779+12
 504:/home/lsk/paparazzi/var/aircrafts/kroozsd_lsk/ap/generated/periodic_telemetry.h ****     static uint8_t i51 = 0; i51++; if (i51>=51) i51=0;
 505:/home/lsk/paparazzi/var/aircrafts/kroozsd_lsk/ap/generated/periodic_telemetry.h ****     static uint16_t i256 = 0; i256++; if (i256>=256) i256=0;
 506:/home/lsk/paparazzi/var/aircrafts/kroozsd_lsk/ap/generated/periodic_telemetry.h ****     static uint16_t i614 = 0; i614++; if (i614>=614) i614=0;
 1551              		.loc 9 506 0
 1552 08e6 6B4F     		ldr	r7, .L779+16
 503:/home/lsk/paparazzi/var/aircrafts/kroozsd_lsk/ap/generated/periodic_telemetry.h ****     static uint8_t i25 = 0; i25++; if (i25>=25) i25=0;
 1553              		.loc 9 503 0
 1554 08e8 3378     		ldrb	r3, [r6]	@ zero_extendqisi2
 1555 08ea 0133     		adds	r3, r3, #1
 1556 08ec DBB2     		uxtb	r3, r3
 1557 08ee 182B     		cmp	r3, #24
 1558 08f0 88BF     		it	hi
 1559 08f2 0023     		movhi	r3, #0
 1560 08f4 3370     		strb	r3, [r6]
 504:/home/lsk/paparazzi/var/aircrafts/kroozsd_lsk/ap/generated/periodic_telemetry.h ****     static uint8_t i51 = 0; i51++; if (i51>=51) i51=0;
 1561              		.loc 9 504 0
 1562 08f6 684B     		ldr	r3, .L779+20
 1563 08f8 1A78     		ldrb	r2, [r3]	@ zero_extendqisi2
 1564 08fa 0132     		adds	r2, r2, #1
 1565 08fc D2B2     		uxtb	r2, r2
 1566 08fe 322A     		cmp	r2, #50
 1567 0900 88BF     		it	hi
 1568 0902 0022     		movhi	r2, #0
 1569 0904 1A70     		strb	r2, [r3]
 505:/home/lsk/paparazzi/var/aircrafts/kroozsd_lsk/ap/generated/periodic_telemetry.h ****     static uint16_t i256 = 0; i256++; if (i256>=256) i256=0;
 1570              		.loc 9 505 0
 1571 0906 654B     		ldr	r3, .L779+24
 1572 0908 1A88     		ldrh	r2, [r3]
 1573 090a 0132     		adds	r2, r2, #1
 1574 090c 92B2     		uxth	r2, r2
 1575 090e FF2A     		cmp	r2, #255
 1576 0910 88BF     		it	hi
 1577 0912 0022     		movhi	r2, #0
 1578 0914 1A80     		strh	r2, [r3]	@ movhi
 1579              		.loc 9 506 0
 1580 0916 3B88     		ldrh	r3, [r7]
 1581 0918 0133     		adds	r3, r3, #1
 1582 091a 9BB2     		uxth	r3, r3
 1583 091c 40F26522 		movw	r2, #613
 1584 0920 9342     		cmp	r3, r2
 1585 0922 88BF     		it	hi
 1586 0924 0023     		movhi	r3, #0
 1587 0926 3B80     		strh	r3, [r7]	@ movhi
 507:/home/lsk/paparazzi/var/aircrafts/kroozsd_lsk/ap/generated/periodic_telemetry.h ****     static uint16_t i1075 = 0; i1075++; if (i1075>=1075) i1075=0;
 1588              		.loc 9 507 0
 1589 0928 5D4B     		ldr	r3, .L779+28
 1590 092a 1A88     		ldrh	r2, [r3]
 1591 092c 0132     		adds	r2, r2, #1
 1592 092e 92B2     		uxth	r2, r2
 1593 0930 40F23241 		movw	r1, #1074
 1594 0934 8A42     		cmp	r2, r1
 1595 0936 88BF     		it	hi
 1596 0938 0022     		movhi	r2, #0
 1597 093a 1A80     		strh	r2, [r3]	@ movhi
 508:/home/lsk/paparazzi/var/aircrafts/kroozsd_lsk/ap/generated/periodic_telemetry.h ****     if (i1075 == 0) {
 1598              		.loc 9 508 0
 1599 093c 1B88     		ldrh	r3, [r3]
 1600 093e 3BB9     		cbnz	r3, .L127
 509:/home/lsk/paparazzi/var/aircrafts/kroozsd_lsk/ap/generated/periodic_telemetry.h ****       if (telemetry->cbs[TELEMETRY_MSG_ALIVE_ID] != NULL)
 1601              		.loc 9 509 0
 1602 0940 504B     		ldr	r3, .L779
 1603 0942 9B68     		ldr	r3, [r3, #8]
 1604 0944 D3F8B430 		ldr	r3, [r3, #180]
 1605 0948 13B1     		cbz	r3, .L127
 510:/home/lsk/paparazzi/var/aircrafts/kroozsd_lsk/ap/generated/periodic_telemetry.h ****         telemetry->cbs[TELEMETRY_MSG_ALIVE_ID](trans, dev);
 1606              		.loc 9 510 0
 1607 094a 4F48     		ldr	r0, .L779+4
 1608              	.LVL152:
 1609 094c 4F49     		ldr	r1, .L779+8
 1610              	.LVL153:
 1611 094e 9847     		blx	r3
 1612              	.LVL154:
 1613              	.L127:
 511:/home/lsk/paparazzi/var/aircrafts/kroozsd_lsk/ap/generated/periodic_telemetry.h **** #if USE_PERIODIC_TELEMETRY_REPORT
 512:/home/lsk/paparazzi/var/aircrafts/kroozsd_lsk/ap/generated/periodic_telemetry.h ****       else periodic_telemetry_err_report(TELEMETRY_PROCESS_Main, telemetry_mode_Main, TELEMETRY_MSG
 513:/home/lsk/paparazzi/var/aircrafts/kroozsd_lsk/ap/generated/periodic_telemetry.h **** #endif
 514:/home/lsk/paparazzi/var/aircrafts/kroozsd_lsk/ap/generated/periodic_telemetry.h ****     }
 515:/home/lsk/paparazzi/var/aircrafts/kroozsd_lsk/ap/generated/periodic_telemetry.h ****     if (i614 == 51) {
 1614              		.loc 9 515 0
 1615 0950 3B88     		ldrh	r3, [r7]
 1616 0952 332B     		cmp	r3, #51
 1617 0954 06D1     		bne	.L128
 516:/home/lsk/paparazzi/var/aircrafts/kroozsd_lsk/ap/generated/periodic_telemetry.h ****       if (telemetry->cbs[TELEMETRY_MSG_ROTORCRAFT_STATUS_ID] != NULL)
 1618              		.loc 9 516 0
 1619 0956 4B4B     		ldr	r3, .L779
 1620 0958 9B68     		ldr	r3, [r3, #8]
 1621 095a 5B68     		ldr	r3, [r3, #4]
 1622 095c 13B1     		cbz	r3, .L128
 517:/home/lsk/paparazzi/var/aircrafts/kroozsd_lsk/ap/generated/periodic_telemetry.h ****         telemetry->cbs[TELEMETRY_MSG_ROTORCRAFT_STATUS_ID](trans, dev);
 1623              		.loc 9 517 0
 1624 095e 4A48     		ldr	r0, .L779+4
 1625              	.LVL155:
 1626 0960 4A49     		ldr	r1, .L779+8
 1627              	.LVL156:
 1628 0962 9847     		blx	r3
 1629              	.LVL157:
 1630              	.L128:
 518:/home/lsk/paparazzi/var/aircrafts/kroozsd_lsk/ap/generated/periodic_telemetry.h **** #if USE_PERIODIC_TELEMETRY_REPORT
 519:/home/lsk/paparazzi/var/aircrafts/kroozsd_lsk/ap/generated/periodic_telemetry.h ****       else periodic_telemetry_err_report(TELEMETRY_PROCESS_Main, telemetry_mode_Main, TELEMETRY_MSG
 520:/home/lsk/paparazzi/var/aircrafts/kroozsd_lsk/ap/generated/periodic_telemetry.h **** #endif
 521:/home/lsk/paparazzi/var/aircrafts/kroozsd_lsk/ap/generated/periodic_telemetry.h ****     }
 522:/home/lsk/paparazzi/var/aircrafts/kroozsd_lsk/ap/generated/periodic_telemetry.h ****     if (i256 == 102) {
 1631              		.loc 9 522 0
 1632 0964 4D4B     		ldr	r3, .L779+24
 1633 0966 1B88     		ldrh	r3, [r3]
 1634 0968 662B     		cmp	r3, #102
 1635 096a 07D1     		bne	.L129
 523:/home/lsk/paparazzi/var/aircrafts/kroozsd_lsk/ap/generated/periodic_telemetry.h ****       if (telemetry->cbs[TELEMETRY_MSG_DL_VALUE_ID] != NULL)
 1636              		.loc 9 523 0
 1637 096c 454B     		ldr	r3, .L779
 1638 096e 9B68     		ldr	r3, [r3, #8]
 1639 0970 D3F8BC30 		ldr	r3, [r3, #188]
 1640 0974 13B1     		cbz	r3, .L129
 524:/home/lsk/paparazzi/var/aircrafts/kroozsd_lsk/ap/generated/periodic_telemetry.h ****         telemetry->cbs[TELEMETRY_MSG_DL_VALUE_ID](trans, dev);
 1641              		.loc 9 524 0
 1642 0976 4448     		ldr	r0, .L779+4
 1643              	.LVL158:
 1644 0978 4449     		ldr	r1, .L779+8
 1645              	.LVL159:
 1646 097a 9847     		blx	r3
 1647              	.LVL160:
 1648              	.L129:
 525:/home/lsk/paparazzi/var/aircrafts/kroozsd_lsk/ap/generated/periodic_telemetry.h **** #if USE_PERIODIC_TELEMETRY_REPORT
 526:/home/lsk/paparazzi/var/aircrafts/kroozsd_lsk/ap/generated/periodic_telemetry.h ****       else periodic_telemetry_err_report(TELEMETRY_PROCESS_Main, telemetry_mode_Main, TELEMETRY_MSG
 527:/home/lsk/paparazzi/var/aircrafts/kroozsd_lsk/ap/generated/periodic_telemetry.h **** #endif
 528:/home/lsk/paparazzi/var/aircrafts/kroozsd_lsk/ap/generated/periodic_telemetry.h ****     }
 529:/home/lsk/paparazzi/var/aircrafts/kroozsd_lsk/ap/generated/periodic_telemetry.h ****     if (i51 == 0) {
 1649              		.loc 9 529 0
 1650 097c 464B     		ldr	r3, .L779+20
 1651 097e 1B78     		ldrb	r3, [r3]	@ zero_extendqisi2
 1652 0980 33B9     		cbnz	r3, .L130
 530:/home/lsk/paparazzi/var/aircrafts/kroozsd_lsk/ap/generated/periodic_telemetry.h ****       if (telemetry->cbs[TELEMETRY_MSG_BARO_RAW_ID] != NULL)
 1653              		.loc 9 530 0
 1654 0982 404B     		ldr	r3, .L779
 1655 0984 9B68     		ldr	r3, [r3, #8]
 1656 0986 DB6C     		ldr	r3, [r3, #76]
 1657 0988 13B1     		cbz	r3, .L130
 531:/home/lsk/paparazzi/var/aircrafts/kroozsd_lsk/ap/generated/periodic_telemetry.h ****         telemetry->cbs[TELEMETRY_MSG_BARO_RAW_ID](trans, dev);
 1658              		.loc 9 531 0
 1659 098a 3F48     		ldr	r0, .L779+4
 1660              	.LVL161:
 1661 098c 3F49     		ldr	r1, .L779+8
 1662              	.LVL162:
 1663 098e 9847     		blx	r3
 1664              	.LVL163:
 1665              	.L130:
 532:/home/lsk/paparazzi/var/aircrafts/kroozsd_lsk/ap/generated/periodic_telemetry.h **** #if USE_PERIODIC_TELEMETRY_REPORT
 533:/home/lsk/paparazzi/var/aircrafts/kroozsd_lsk/ap/generated/periodic_telemetry.h ****       else periodic_telemetry_err_report(TELEMETRY_PROCESS_Main, telemetry_mode_Main, TELEMETRY_MSG
 534:/home/lsk/paparazzi/var/aircrafts/kroozsd_lsk/ap/generated/periodic_telemetry.h **** #endif
 535:/home/lsk/paparazzi/var/aircrafts/kroozsd_lsk/ap/generated/periodic_telemetry.h ****     }
 536:/home/lsk/paparazzi/var/aircrafts/kroozsd_lsk/ap/generated/periodic_telemetry.h ****     if (i25 == 1) {
 1666              		.loc 9 536 0
 1667 0990 3378     		ldrb	r3, [r6]	@ zero_extendqisi2
 1668 0992 012B     		cmp	r3, #1
 1669 0994 04D1     		bne	.L131
 537:/home/lsk/paparazzi/var/aircrafts/kroozsd_lsk/ap/generated/periodic_telemetry.h ****       if (telemetry->cbs[TELEMETRY_MSG_IMU_MAG_RAW_ID] != NULL)
 1670              		.loc 9 537 0
 1671 0996 3B4B     		ldr	r3, .L779
 1672 0998 9B68     		ldr	r3, [r3, #8]
 1673 099a D3F8B030 		ldr	r3, [r3, #176]
 1674 099e 0BE0     		b	.L751
 1675              	.L131:
 538:/home/lsk/paparazzi/var/aircrafts/kroozsd_lsk/ap/generated/periodic_telemetry.h ****         telemetry->cbs[TELEMETRY_MSG_IMU_MAG_RAW_ID](trans, dev);
 539:/home/lsk/paparazzi/var/aircrafts/kroozsd_lsk/ap/generated/periodic_telemetry.h **** #if USE_PERIODIC_TELEMETRY_REPORT
 540:/home/lsk/paparazzi/var/aircrafts/kroozsd_lsk/ap/generated/periodic_telemetry.h ****       else periodic_telemetry_err_report(TELEMETRY_PROCESS_Main, telemetry_mode_Main, TELEMETRY_MSG
 541:/home/lsk/paparazzi/var/aircrafts/kroozsd_lsk/ap/generated/periodic_telemetry.h **** #endif
 542:/home/lsk/paparazzi/var/aircrafts/kroozsd_lsk/ap/generated/periodic_telemetry.h ****     }
 543:/home/lsk/paparazzi/var/aircrafts/kroozsd_lsk/ap/generated/periodic_telemetry.h ****     else if (i25 == 2) {
 1676              		.loc 9 543 0
 1677 09a0 022B     		cmp	r3, #2
 1678 09a2 04D1     		bne	.L133
 544:/home/lsk/paparazzi/var/aircrafts/kroozsd_lsk/ap/generated/periodic_telemetry.h ****       if (telemetry->cbs[TELEMETRY_MSG_IMU_GYRO_RAW_ID] != NULL)
 1679              		.loc 9 544 0
 1680 09a4 374B     		ldr	r3, .L779
 1681 09a6 9B68     		ldr	r3, [r3, #8]
 1682 09a8 D3F89830 		ldr	r3, [r3, #152]
 1683 09ac 04E0     		b	.L751
 1684              	.L133:
 545:/home/lsk/paparazzi/var/aircrafts/kroozsd_lsk/ap/generated/periodic_telemetry.h ****         telemetry->cbs[TELEMETRY_MSG_IMU_GYRO_RAW_ID](trans, dev);
 546:/home/lsk/paparazzi/var/aircrafts/kroozsd_lsk/ap/generated/periodic_telemetry.h **** #if USE_PERIODIC_TELEMETRY_REPORT
 547:/home/lsk/paparazzi/var/aircrafts/kroozsd_lsk/ap/generated/periodic_telemetry.h ****       else periodic_telemetry_err_report(TELEMETRY_PROCESS_Main, telemetry_mode_Main, TELEMETRY_MSG
 548:/home/lsk/paparazzi/var/aircrafts/kroozsd_lsk/ap/generated/periodic_telemetry.h **** #endif
 549:/home/lsk/paparazzi/var/aircrafts/kroozsd_lsk/ap/generated/periodic_telemetry.h ****     }
 550:/home/lsk/paparazzi/var/aircrafts/kroozsd_lsk/ap/generated/periodic_telemetry.h ****     else if (i25 == 3) {
 1685              		.loc 9 550 0
 1686 09ae 032B     		cmp	r3, #3
 1687 09b0 06D1     		bne	.L116
 551:/home/lsk/paparazzi/var/aircrafts/kroozsd_lsk/ap/generated/periodic_telemetry.h ****       if (telemetry->cbs[TELEMETRY_MSG_IMU_ACCEL_RAW_ID] != NULL)
 1688              		.loc 9 551 0
 1689 09b2 344B     		ldr	r3, .L779
 1690 09b4 9B68     		ldr	r3, [r3, #8]
 1691 09b6 1B68     		ldr	r3, [r3]
 1692              	.L751:
 1693 09b8 13B1     		cbz	r3, .L116
 552:/home/lsk/paparazzi/var/aircrafts/kroozsd_lsk/ap/generated/periodic_telemetry.h ****         telemetry->cbs[TELEMETRY_MSG_IMU_ACCEL_RAW_ID](trans, dev);
 1694              		.loc 9 552 0
 1695 09ba 3348     		ldr	r0, .L779+4
 1696              	.LVL164:
 1697 09bc 3349     		ldr	r1, .L779+8
 1698              	.LVL165:
 1699 09be 9847     		blx	r3
 1700              	.LVL166:
 1701              	.L116:
 1702              	.LBE154:
 553:/home/lsk/paparazzi/var/aircrafts/kroozsd_lsk/ap/generated/periodic_telemetry.h **** #if USE_PERIODIC_TELEMETRY_REPORT
 554:/home/lsk/paparazzi/var/aircrafts/kroozsd_lsk/ap/generated/periodic_telemetry.h ****       else periodic_telemetry_err_report(TELEMETRY_PROCESS_Main, telemetry_mode_Main, TELEMETRY_MSG
 555:/home/lsk/paparazzi/var/aircrafts/kroozsd_lsk/ap/generated/periodic_telemetry.h **** #endif
 556:/home/lsk/paparazzi/var/aircrafts/kroozsd_lsk/ap/generated/periodic_telemetry.h ****     }
 557:/home/lsk/paparazzi/var/aircrafts/kroozsd_lsk/ap/generated/periodic_telemetry.h ****   }
 558:/home/lsk/paparazzi/var/aircrafts/kroozsd_lsk/ap/generated/periodic_telemetry.h ****   if (telemetry_mode_Main == TELEMETRY_MODE_Main_scaled_sensors) {
 1703              		.loc 9 558 0
 1704 09c0 2378     		ldrb	r3, [r4]	@ zero_extendqisi2
 1705 09c2 032B     		cmp	r3, #3
 1706 09c4 40F08280 		bne	.L135
 1707              	.LBB155:
 559:/home/lsk/paparazzi/var/aircrafts/kroozsd_lsk/ap/generated/periodic_telemetry.h ****     static uint8_t i38 = 0; i38++; if (i38>=38) i38=0;
 1708              		.loc 9 559 0
 1709 09c8 364E     		ldr	r6, .L779+32
 560:/home/lsk/paparazzi/var/aircrafts/kroozsd_lsk/ap/generated/periodic_telemetry.h ****     static uint8_t i51 = 0; i51++; if (i51>=51) i51=0;
 561:/home/lsk/paparazzi/var/aircrafts/kroozsd_lsk/ap/generated/periodic_telemetry.h ****     static uint16_t i256 = 0; i256++; if (i256>=256) i256=0;
 562:/home/lsk/paparazzi/var/aircrafts/kroozsd_lsk/ap/generated/periodic_telemetry.h ****     static uint16_t i614 = 0; i614++; if (i614>=614) i614=0;
 1710              		.loc 9 562 0
 1711 09ca 374F     		ldr	r7, .L779+36
 559:/home/lsk/paparazzi/var/aircrafts/kroozsd_lsk/ap/generated/periodic_telemetry.h ****     static uint8_t i38 = 0; i38++; if (i38>=38) i38=0;
 1712              		.loc 9 559 0
 1713 09cc 3378     		ldrb	r3, [r6]	@ zero_extendqisi2
 1714 09ce 0133     		adds	r3, r3, #1
 1715 09d0 DBB2     		uxtb	r3, r3
 1716 09d2 252B     		cmp	r3, #37
 1717 09d4 88BF     		it	hi
 1718 09d6 0023     		movhi	r3, #0
 1719 09d8 3370     		strb	r3, [r6]
 560:/home/lsk/paparazzi/var/aircrafts/kroozsd_lsk/ap/generated/periodic_telemetry.h ****     static uint8_t i51 = 0; i51++; if (i51>=51) i51=0;
 1720              		.loc 9 560 0
 1721 09da 344B     		ldr	r3, .L779+40
 1722 09dc 1A78     		ldrb	r2, [r3]	@ zero_extendqisi2
 1723 09de 0132     		adds	r2, r2, #1
 1724 09e0 D2B2     		uxtb	r2, r2
 1725 09e2 322A     		cmp	r2, #50
 1726 09e4 88BF     		it	hi
 1727 09e6 0022     		movhi	r2, #0
 1728 09e8 1A70     		strb	r2, [r3]
 561:/home/lsk/paparazzi/var/aircrafts/kroozsd_lsk/ap/generated/periodic_telemetry.h ****     static uint16_t i256 = 0; i256++; if (i256>=256) i256=0;
 1729              		.loc 9 561 0
 1730 09ea 314B     		ldr	r3, .L779+44
 1731 09ec 1A88     		ldrh	r2, [r3]
 1732 09ee 0132     		adds	r2, r2, #1
 1733 09f0 92B2     		uxth	r2, r2
 1734 09f2 FF2A     		cmp	r2, #255
 1735 09f4 88BF     		it	hi
 1736 09f6 0022     		movhi	r2, #0
 1737 09f8 1A80     		strh	r2, [r3]	@ movhi
 1738              		.loc 9 562 0
 1739 09fa 3B88     		ldrh	r3, [r7]
 1740 09fc 0133     		adds	r3, r3, #1
 1741 09fe 9BB2     		uxth	r3, r3
 1742 0a00 40F26522 		movw	r2, #613
 1743 0a04 9342     		cmp	r3, r2
 1744 0a06 88BF     		it	hi
 1745 0a08 0023     		movhi	r3, #0
 1746 0a0a 3B80     		strh	r3, [r7]	@ movhi
 563:/home/lsk/paparazzi/var/aircrafts/kroozsd_lsk/ap/generated/periodic_telemetry.h ****     static uint16_t i1075 = 0; i1075++; if (i1075>=1075) i1075=0;
 1747              		.loc 9 563 0
 1748 0a0c 294B     		ldr	r3, .L779+48
 1749 0a0e 1A88     		ldrh	r2, [r3]
 1750 0a10 0132     		adds	r2, r2, #1
 1751 0a12 92B2     		uxth	r2, r2
 1752 0a14 40F23241 		movw	r1, #1074
 1753 0a18 8A42     		cmp	r2, r1
 1754 0a1a 88BF     		it	hi
 1755 0a1c 0022     		movhi	r2, #0
 1756 0a1e 1A80     		strh	r2, [r3]	@ movhi
 564:/home/lsk/paparazzi/var/aircrafts/kroozsd_lsk/ap/generated/periodic_telemetry.h ****     if (i1075 == 0) {
 1757              		.loc 9 564 0
 1758 0a20 1B88     		ldrh	r3, [r3]
 1759 0a22 3BB9     		cbnz	r3, .L146
 565:/home/lsk/paparazzi/var/aircrafts/kroozsd_lsk/ap/generated/periodic_telemetry.h ****       if (telemetry->cbs[TELEMETRY_MSG_ALIVE_ID] != NULL)
 1760              		.loc 9 565 0
 1761 0a24 174B     		ldr	r3, .L779
 1762 0a26 9B68     		ldr	r3, [r3, #8]
 1763 0a28 D3F8B430 		ldr	r3, [r3, #180]
 1764 0a2c 13B1     		cbz	r3, .L146
 566:/home/lsk/paparazzi/var/aircrafts/kroozsd_lsk/ap/generated/periodic_telemetry.h ****         telemetry->cbs[TELEMETRY_MSG_ALIVE_ID](trans, dev);
 1765              		.loc 9 566 0
 1766 0a2e 1648     		ldr	r0, .L779+4
 1767              	.LVL167:
 1768 0a30 1649     		ldr	r1, .L779+8
 1769              	.LVL168:
 1770 0a32 9847     		blx	r3
 1771              	.LVL169:
 1772              	.L146:
 567:/home/lsk/paparazzi/var/aircrafts/kroozsd_lsk/ap/generated/periodic_telemetry.h **** #if USE_PERIODIC_TELEMETRY_REPORT
 568:/home/lsk/paparazzi/var/aircrafts/kroozsd_lsk/ap/generated/periodic_telemetry.h ****       else periodic_telemetry_err_report(TELEMETRY_PROCESS_Main, telemetry_mode_Main, TELEMETRY_MSG
 569:/home/lsk/paparazzi/var/aircrafts/kroozsd_lsk/ap/generated/periodic_telemetry.h **** #endif
 570:/home/lsk/paparazzi/var/aircrafts/kroozsd_lsk/ap/generated/periodic_telemetry.h ****     }
 571:/home/lsk/paparazzi/var/aircrafts/kroozsd_lsk/ap/generated/periodic_telemetry.h ****     if (i614 == 51) {
 1773              		.loc 9 571 0
 1774 0a34 3B88     		ldrh	r3, [r7]
 1775 0a36 332B     		cmp	r3, #51
 1776 0a38 06D1     		bne	.L147
 572:/home/lsk/paparazzi/var/aircrafts/kroozsd_lsk/ap/generated/periodic_telemetry.h ****       if (telemetry->cbs[TELEMETRY_MSG_ROTORCRAFT_STATUS_ID] != NULL)
 1777              		.loc 9 572 0
 1778 0a3a 124B     		ldr	r3, .L779
 1779 0a3c 9B68     		ldr	r3, [r3, #8]
 1780 0a3e 5B68     		ldr	r3, [r3, #4]
 1781 0a40 13B1     		cbz	r3, .L147
 573:/home/lsk/paparazzi/var/aircrafts/kroozsd_lsk/ap/generated/periodic_telemetry.h ****         telemetry->cbs[TELEMETRY_MSG_ROTORCRAFT_STATUS_ID](trans, dev);
 1782              		.loc 9 573 0
 1783 0a42 1148     		ldr	r0, .L779+4
 1784              	.LVL170:
 1785 0a44 1149     		ldr	r1, .L779+8
 1786              	.LVL171:
 1787 0a46 9847     		blx	r3
 1788              	.LVL172:
 1789              	.L147:
 574:/home/lsk/paparazzi/var/aircrafts/kroozsd_lsk/ap/generated/periodic_telemetry.h **** #if USE_PERIODIC_TELEMETRY_REPORT
 575:/home/lsk/paparazzi/var/aircrafts/kroozsd_lsk/ap/generated/periodic_telemetry.h ****       else periodic_telemetry_err_report(TELEMETRY_PROCESS_Main, telemetry_mode_Main, TELEMETRY_MSG
 576:/home/lsk/paparazzi/var/aircrafts/kroozsd_lsk/ap/generated/periodic_telemetry.h **** #endif
 577:/home/lsk/paparazzi/var/aircrafts/kroozsd_lsk/ap/generated/periodic_telemetry.h ****     }
 578:/home/lsk/paparazzi/var/aircrafts/kroozsd_lsk/ap/generated/periodic_telemetry.h ****     if (i256 == 102) {
 1790              		.loc 9 578 0
 1791 0a48 194B     		ldr	r3, .L779+44
 1792 0a4a 1B88     		ldrh	r3, [r3]
 1793 0a4c 662B     		cmp	r3, #102
 1794 0a4e 07D1     		bne	.L148
 579:/home/lsk/paparazzi/var/aircrafts/kroozsd_lsk/ap/generated/periodic_telemetry.h ****       if (telemetry->cbs[TELEMETRY_MSG_DL_VALUE_ID] != NULL)
 1795              		.loc 9 579 0
 1796 0a50 0C4B     		ldr	r3, .L779
 1797 0a52 9B68     		ldr	r3, [r3, #8]
 1798 0a54 D3F8BC30 		ldr	r3, [r3, #188]
 1799 0a58 13B1     		cbz	r3, .L148
 580:/home/lsk/paparazzi/var/aircrafts/kroozsd_lsk/ap/generated/periodic_telemetry.h ****         telemetry->cbs[TELEMETRY_MSG_DL_VALUE_ID](trans, dev);
 1800              		.loc 9 580 0
 1801 0a5a 0B48     		ldr	r0, .L779+4
 1802              	.LVL173:
 1803 0a5c 0B49     		ldr	r1, .L779+8
 1804              	.LVL174:
 1805 0a5e 9847     		blx	r3
 1806              	.LVL175:
 1807              	.L148:
 581:/home/lsk/paparazzi/var/aircrafts/kroozsd_lsk/ap/generated/periodic_telemetry.h **** #if USE_PERIODIC_TELEMETRY_REPORT
 582:/home/lsk/paparazzi/var/aircrafts/kroozsd_lsk/ap/generated/periodic_telemetry.h ****       else periodic_telemetry_err_report(TELEMETRY_PROCESS_Main, telemetry_mode_Main, TELEMETRY_MSG
 583:/home/lsk/paparazzi/var/aircrafts/kroozsd_lsk/ap/generated/periodic_telemetry.h **** #endif
 584:/home/lsk/paparazzi/var/aircrafts/kroozsd_lsk/ap/generated/periodic_telemetry.h ****     }
 585:/home/lsk/paparazzi/var/aircrafts/kroozsd_lsk/ap/generated/periodic_telemetry.h ****     if (i51 == 0) {
 1808              		.loc 9 585 0
 1809 0a60 124B     		ldr	r3, .L779+40
 1810 0a62 1B78     		ldrb	r3, [r3]	@ zero_extendqisi2
 1811 0a64 33B9     		cbnz	r3, .L149
 586:/home/lsk/paparazzi/var/aircrafts/kroozsd_lsk/ap/generated/periodic_telemetry.h ****       if (telemetry->cbs[TELEMETRY_MSG_IMU_MAG_SCALED_ID] != NULL)
 1812              		.loc 9 586 0
 1813 0a66 074B     		ldr	r3, .L779
 1814 0a68 9B68     		ldr	r3, [r3, #8]
 1815 0a6a 5B6F     		ldr	r3, [r3, #116]
 1816 0a6c 13B1     		cbz	r3, .L149
 587:/home/lsk/paparazzi/var/aircrafts/kroozsd_lsk/ap/generated/periodic_telemetry.h ****         telemetry->cbs[TELEMETRY_MSG_IMU_MAG_SCALED_ID](trans, dev);
 1817              		.loc 9 587 0
 1818 0a6e 0648     		ldr	r0, .L779+4
 1819              	.LVL176:
 1820 0a70 0649     		ldr	r1, .L779+8
 1821              	.LVL177:
 1822 0a72 9847     		blx	r3
 1823              	.LVL178:
 1824              	.L149:
 588:/home/lsk/paparazzi/var/aircrafts/kroozsd_lsk/ap/generated/periodic_telemetry.h **** #if USE_PERIODIC_TELEMETRY_REPORT
 589:/home/lsk/paparazzi/var/aircrafts/kroozsd_lsk/ap/generated/periodic_telemetry.h ****       else periodic_telemetry_err_report(TELEMETRY_PROCESS_Main, telemetry_mode_Main, TELEMETRY_MSG
 590:/home/lsk/paparazzi/var/aircrafts/kroozsd_lsk/ap/generated/periodic_telemetry.h **** #endif
 591:/home/lsk/paparazzi/var/aircrafts/kroozsd_lsk/ap/generated/periodic_telemetry.h ****     }
 592:/home/lsk/paparazzi/var/aircrafts/kroozsd_lsk/ap/generated/periodic_telemetry.h ****     if (i38 == 13) {
 1825              		.loc 9 592 0
 1826 0a74 3378     		ldrb	r3, [r6]	@ zero_extendqisi2
 1827 0a76 0D2B     		cmp	r3, #13
 1828 0a78 1ED1     		bne	.L150
 593:/home/lsk/paparazzi/var/aircrafts/kroozsd_lsk/ap/generated/periodic_telemetry.h ****       if (telemetry->cbs[TELEMETRY_MSG_IMU_ACCEL_SCALED_ID] != NULL)
 1829              		.loc 9 593 0
 1830 0a7a 024B     		ldr	r3, .L779
 1831 0a7c 9B68     		ldr	r3, [r3, #8]
 1832 0a7e 9B69     		ldr	r3, [r3, #24]
 1833 0a80 20E0     		b	.L754
 1834              	.L780:
 1835 0a82 00BF     		.align	2
 1836              	.L779:
 1837 0a84 00000000 		.word	pprz_telemetry
 1838 0a88 08010000 		.word	pprz_tp+264
 1839 0a8c 2C010000 		.word	uart5+300
 1840 0a90 00000000 		.word	.LANCHOR34
 1841 0a94 00000000 		.word	.LANCHOR37
 1842 0a98 00000000 		.word	.LANCHOR35
 1843 0a9c 00000000 		.word	.LANCHOR36
 1844 0aa0 00000000 		.word	.LANCHOR38
 1845 0aa4 00000000 		.word	.LANCHOR39
 1846 0aa8 00000000 		.word	.LANCHOR42
 1847 0aac 00000000 		.word	.LANCHOR40
 1848 0ab0 00000000 		.word	.LANCHOR41
 1849 0ab4 00000000 		.word	.LANCHOR43
 1850              	.L150:
 594:/home/lsk/paparazzi/var/aircrafts/kroozsd_lsk/ap/generated/periodic_telemetry.h ****         telemetry->cbs[TELEMETRY_MSG_IMU_ACCEL_SCALED_ID](trans, dev);
 595:/home/lsk/paparazzi/var/aircrafts/kroozsd_lsk/ap/generated/periodic_telemetry.h **** #if USE_PERIODIC_TELEMETRY_REPORT
 596:/home/lsk/paparazzi/var/aircrafts/kroozsd_lsk/ap/generated/periodic_telemetry.h ****       else periodic_telemetry_err_report(TELEMETRY_PROCESS_Main, telemetry_mode_Main, TELEMETRY_MSG
 597:/home/lsk/paparazzi/var/aircrafts/kroozsd_lsk/ap/generated/periodic_telemetry.h **** #endif
 598:/home/lsk/paparazzi/var/aircrafts/kroozsd_lsk/ap/generated/periodic_telemetry.h ****     }
 599:/home/lsk/paparazzi/var/aircrafts/kroozsd_lsk/ap/generated/periodic_telemetry.h ****     else if (i38 == 26) {
 1851              		.loc 9 599 0
 1852 0ab8 1A2B     		cmp	r3, #26
 1853 0aba 07D1     		bne	.L135
 600:/home/lsk/paparazzi/var/aircrafts/kroozsd_lsk/ap/generated/periodic_telemetry.h ****       if (telemetry->cbs[TELEMETRY_MSG_IMU_GYRO_SCALED_ID] != NULL)
 1854              		.loc 9 600 0
 1855 0abc 424B     		ldr	r3, .L781
 1856 0abe 9B68     		ldr	r3, [r3, #8]
 1857 0ac0 D3F8AC30 		ldr	r3, [r3, #172]
 1858              	.L754:
 1859 0ac4 13B1     		cbz	r3, .L135
 601:/home/lsk/paparazzi/var/aircrafts/kroozsd_lsk/ap/generated/periodic_telemetry.h ****         telemetry->cbs[TELEMETRY_MSG_IMU_GYRO_SCALED_ID](trans, dev);
 1860              		.loc 9 601 0
 1861 0ac6 4148     		ldr	r0, .L781+4
 1862              	.LVL179:
 1863 0ac8 4149     		ldr	r1, .L781+8
 1864              	.LVL180:
 1865 0aca 9847     		blx	r3
 1866              	.LVL181:
 1867              	.L135:
 1868              	.LBE155:
 602:/home/lsk/paparazzi/var/aircrafts/kroozsd_lsk/ap/generated/periodic_telemetry.h **** #if USE_PERIODIC_TELEMETRY_REPORT
 603:/home/lsk/paparazzi/var/aircrafts/kroozsd_lsk/ap/generated/periodic_telemetry.h ****       else periodic_telemetry_err_report(TELEMETRY_PROCESS_Main, telemetry_mode_Main, TELEMETRY_MSG
 604:/home/lsk/paparazzi/var/aircrafts/kroozsd_lsk/ap/generated/periodic_telemetry.h **** #endif
 605:/home/lsk/paparazzi/var/aircrafts/kroozsd_lsk/ap/generated/periodic_telemetry.h ****     }
 606:/home/lsk/paparazzi/var/aircrafts/kroozsd_lsk/ap/generated/periodic_telemetry.h ****   }
 607:/home/lsk/paparazzi/var/aircrafts/kroozsd_lsk/ap/generated/periodic_telemetry.h ****   if (telemetry_mode_Main == TELEMETRY_MODE_Main_ahrs) {
 1869              		.loc 9 607 0
 1870 0acc 2378     		ldrb	r3, [r4]	@ zero_extendqisi2
 1871 0ace 042B     		cmp	r3, #4
 1872 0ad0 40F0BC80 		bne	.L153
 1873              	.LBB156:
 608:/home/lsk/paparazzi/var/aircrafts/kroozsd_lsk/ap/generated/periodic_telemetry.h ****     static uint8_t i40 = 0; i40++; if (i40>=40) i40=0;
 1874              		.loc 9 608 0
 1875 0ad4 3F4E     		ldr	r6, .L781+12
 609:/home/lsk/paparazzi/var/aircrafts/kroozsd_lsk/ap/generated/periodic_telemetry.h ****     static uint8_t i51 = 0; i51++; if (i51>=51) i51=0;
 610:/home/lsk/paparazzi/var/aircrafts/kroozsd_lsk/ap/generated/periodic_telemetry.h ****     static uint8_t i128 = 0; i128++; if (i128>=128) i128=0;
 611:/home/lsk/paparazzi/var/aircrafts/kroozsd_lsk/ap/generated/periodic_telemetry.h ****     static uint16_t i256 = 0; i256++; if (i256>=256) i256=0;
 612:/home/lsk/paparazzi/var/aircrafts/kroozsd_lsk/ap/generated/periodic_telemetry.h ****     static uint16_t i614 = 0; i614++; if (i614>=614) i614=0;
 613:/home/lsk/paparazzi/var/aircrafts/kroozsd_lsk/ap/generated/periodic_telemetry.h ****     static uint16_t i1075 = 0; i1075++; if (i1075>=1075) i1075=0;
 1876              		.loc 9 613 0
 1877 0ad6 404F     		ldr	r7, .L781+16
 608:/home/lsk/paparazzi/var/aircrafts/kroozsd_lsk/ap/generated/periodic_telemetry.h ****     static uint8_t i40 = 0; i40++; if (i40>=40) i40=0;
 1878              		.loc 9 608 0
 1879 0ad8 3378     		ldrb	r3, [r6]	@ zero_extendqisi2
 1880 0ada 0133     		adds	r3, r3, #1
 1881 0adc DBB2     		uxtb	r3, r3
 1882 0ade 272B     		cmp	r3, #39
 1883 0ae0 88BF     		it	hi
 1884 0ae2 0023     		movhi	r3, #0
 1885 0ae4 3370     		strb	r3, [r6]
 609:/home/lsk/paparazzi/var/aircrafts/kroozsd_lsk/ap/generated/periodic_telemetry.h ****     static uint8_t i51 = 0; i51++; if (i51>=51) i51=0;
 1886              		.loc 9 609 0
 1887 0ae6 3D4B     		ldr	r3, .L781+20
 1888 0ae8 1A78     		ldrb	r2, [r3]	@ zero_extendqisi2
 1889 0aea 0132     		adds	r2, r2, #1
 1890 0aec D2B2     		uxtb	r2, r2
 1891 0aee 322A     		cmp	r2, #50
 1892 0af0 88BF     		it	hi
 1893 0af2 0022     		movhi	r2, #0
 1894 0af4 1A70     		strb	r2, [r3]
 610:/home/lsk/paparazzi/var/aircrafts/kroozsd_lsk/ap/generated/periodic_telemetry.h ****     static uint8_t i128 = 0; i128++; if (i128>=128) i128=0;
 1895              		.loc 9 610 0
 1896 0af6 3A4B     		ldr	r3, .L781+24
 1897 0af8 1A78     		ldrb	r2, [r3]	@ zero_extendqisi2
 1898 0afa 0132     		adds	r2, r2, #1
 1899 0afc D2B2     		uxtb	r2, r2
 1900 0afe 1106     		lsls	r1, r2, #24
 1901 0b00 48BF     		it	mi
 1902 0b02 0022     		movmi	r2, #0
 1903 0b04 1A70     		strb	r2, [r3]
 611:/home/lsk/paparazzi/var/aircrafts/kroozsd_lsk/ap/generated/periodic_telemetry.h ****     static uint16_t i256 = 0; i256++; if (i256>=256) i256=0;
 1904              		.loc 9 611 0
 1905 0b06 374B     		ldr	r3, .L781+28
 1906 0b08 1A88     		ldrh	r2, [r3]
 1907 0b0a 0132     		adds	r2, r2, #1
 1908 0b0c 92B2     		uxth	r2, r2
 1909 0b0e FF2A     		cmp	r2, #255
 1910 0b10 88BF     		it	hi
 1911 0b12 0022     		movhi	r2, #0
 1912 0b14 1A80     		strh	r2, [r3]	@ movhi
 612:/home/lsk/paparazzi/var/aircrafts/kroozsd_lsk/ap/generated/periodic_telemetry.h ****     static uint16_t i614 = 0; i614++; if (i614>=614) i614=0;
 1913              		.loc 9 612 0
 1914 0b16 344B     		ldr	r3, .L781+32
 1915 0b18 1A88     		ldrh	r2, [r3]
 1916 0b1a 0132     		adds	r2, r2, #1
 1917 0b1c 92B2     		uxth	r2, r2
 1918 0b1e 40F26521 		movw	r1, #613
 1919 0b22 8A42     		cmp	r2, r1
 1920 0b24 88BF     		it	hi
 1921 0b26 0022     		movhi	r2, #0
 1922 0b28 1A80     		strh	r2, [r3]	@ movhi
 1923              		.loc 9 613 0
 1924 0b2a 3B88     		ldrh	r3, [r7]
 1925 0b2c 0133     		adds	r3, r3, #1
 1926 0b2e 9BB2     		uxth	r3, r3
 1927 0b30 40F23242 		movw	r2, #1074
 1928 0b34 9342     		cmp	r3, r2
 1929 0b36 88BF     		it	hi
 1930 0b38 0023     		movhi	r3, #0
 1931 0b3a 3B80     		strh	r3, [r7]	@ movhi
 614:/home/lsk/paparazzi/var/aircrafts/kroozsd_lsk/ap/generated/periodic_telemetry.h ****     static uint16_t i1126 = 0; i1126++; if (i1126>=1126) i1126=0;
 1932              		.loc 9 614 0
 1933 0b3c 2B4B     		ldr	r3, .L781+36
 1934 0b3e 1A88     		ldrh	r2, [r3]
 1935 0b40 0132     		adds	r2, r2, #1
 1936 0b42 92B2     		uxth	r2, r2
 1937 0b44 40F26541 		movw	r1, #1125
